ARM GAS  C:\Users\Lucia\AppData\Local\Temp\ccwpgx1c.s 			page 1


   1              		.syntax unified
   2              		.cpu cortex-m0
   3              		.fpu softvfp
   4              		.eabi_attribute 20, 1
   5              		.eabi_attribute 21, 1
   6              		.eabi_attribute 23, 3
   7              		.eabi_attribute 24, 1
   8              		.eabi_attribute 25, 1
   9              		.eabi_attribute 26, 1
  10              		.eabi_attribute 30, 6
  11              		.eabi_attribute 34, 0
  12              		.eabi_attribute 18, 4
  13              		.thumb
  14              		.syntax unified
  15              		.file	"HeartRateProcessing.c"
  16              		.text
  17              	.Ltext0:
  18              		.cfi_sections	.debug_frame
  19              		.global	heartRate
  20              		.bss
  21              		.type	heartRate, %object
  22              		.size	heartRate, 1
  23              	heartRate:
  24 0000 00       		.space	1
  25              		.global	__aeabi_uidiv
  26              		.section	.text.ProcessHeartRateSignal,"ax",%progbits
  27              		.align	2
  28              		.global	ProcessHeartRateSignal
  29              		.code	16
  30              		.thumb_func
  31              		.type	ProcessHeartRateSignal, %function
  32              	ProcessHeartRateSignal:
  33              	.LFB35:
  34              		.file 1 "HeartRateProcessing.c"
   1:HeartRateProcessing.c **** /*****************************************************************************
   2:HeartRateProcessing.c **** * File Name: HeartRateProcessing.c
   3:HeartRateProcessing.c **** *
   4:HeartRateProcessing.c **** * Version: 1.0
   5:HeartRateProcessing.c **** *
   6:HeartRateProcessing.c **** * Description:
   7:HeartRateProcessing.c **** * This file implements the heart rate measurement capability in the the PSoC 4 
   8:HeartRateProcessing.c **** * BLE Lab 3.
   9:HeartRateProcessing.c **** *
  10:HeartRateProcessing.c **** * Hardware Dependency:
  11:HeartRateProcessing.c **** * CY8CKIT-042 BLE Pioneer Kit
  12:HeartRateProcessing.c **** *
  13:HeartRateProcessing.c **** ******************************************************************************
  14:HeartRateProcessing.c **** * Copyright (2014), Cypress Semiconductor Corporation.
  15:HeartRateProcessing.c **** ******************************************************************************
  16:HeartRateProcessing.c **** * This software is owned by Cypress Semiconductor Corporation (Cypress) and is
  17:HeartRateProcessing.c **** * protected by and subject to worldwide patent protection (United States and
  18:HeartRateProcessing.c **** * foreign), United States copyright laws and international treaty provisions.
  19:HeartRateProcessing.c **** * Cypress hereby grants to licensee a personal, non-exclusive, non-transferable
  20:HeartRateProcessing.c **** * license to copy, use, modify, create derivative works of, and compile the
  21:HeartRateProcessing.c **** * Cypress Source Code and derivative works for the sole purpose of creating
  22:HeartRateProcessing.c **** * custom software in support of licensee product to be used only in conjunction
  23:HeartRateProcessing.c **** * with a Cypress integrated circuit as specified in the applicable agreement.
ARM GAS  C:\Users\Lucia\AppData\Local\Temp\ccwpgx1c.s 			page 2


  24:HeartRateProcessing.c **** * Any reproduction, modification, translation, compilation, or representation of
  25:HeartRateProcessing.c **** * this software except as specified above is prohibited without the express
  26:HeartRateProcessing.c **** * written permission of Cypress.
  27:HeartRateProcessing.c **** *
  28:HeartRateProcessing.c **** * Disclaimer: CYPRESS MAKES NO WARRANTY OF ANY KIND, EXPRESS OR IMPLIED, WITH
  29:HeartRateProcessing.c **** * REGARD TO THIS MATERIAL, INCLUDING, BUT NOT LIMITED TO, THE IMPLIED
  30:HeartRateProcessing.c **** * WARRANTIES OF MERCHANTABILITY AND FITNESS FOR A PARTICULAR PURPOSE.
  31:HeartRateProcessing.c **** * Cypress reserves the right to make changes without further notice to the
  32:HeartRateProcessing.c **** * materials described herein. Cypress does not assume any liability arising out
  33:HeartRateProcessing.c **** * of the application or use of any product or circuit described herein. Cypress
  34:HeartRateProcessing.c **** * does not authorize its products for use as critical components in life-support
  35:HeartRateProcessing.c **** * systems where a malfunction or failure may reasonably be expected to result in
  36:HeartRateProcessing.c **** * significant injury to the user. The inclusion of Cypress' product in a life-
  37:HeartRateProcessing.c **** * support systems application implies that the manufacturer assumes all risk of
  38:HeartRateProcessing.c **** * such use and in doing so indemnifies Cypress against all charges. Use may be
  39:HeartRateProcessing.c **** * limited by and subject to the applicable Cypress software license agreement.
  40:HeartRateProcessing.c **** *****************************************************************************/
  41:HeartRateProcessing.c **** 
  42:HeartRateProcessing.c **** 
  43:HeartRateProcessing.c **** /*****************************************************************************
  44:HeartRateProcessing.c **** * Included headers
  45:HeartRateProcessing.c **** *****************************************************************************/
  46:HeartRateProcessing.c **** #include <project.h>
  47:HeartRateProcessing.c **** #include <stdbool.h>
  48:HeartRateProcessing.c **** #include "WatchdogTimer.h"
  49:HeartRateProcessing.c **** 
  50:HeartRateProcessing.c **** 
  51:HeartRateProcessing.c **** /*****************************************************************************
  52:HeartRateProcessing.c **** * Macros 
  53:HeartRateProcessing.c **** *****************************************************************************/
  54:HeartRateProcessing.c **** #define HEART_RATE_CHANNEL			        (0)
  55:HeartRateProcessing.c **** #define ADC_THRESHOLD 			            (0x06A0)
  56:HeartRateProcessing.c **** #define SEC_IN_MIN							(60)
  57:HeartRateProcessing.c **** #define MS_TO_SECOND                        (1000)
  58:HeartRateProcessing.c **** 
  59:HeartRateProcessing.c **** 
  60:HeartRateProcessing.c **** /*****************************************************************************
  61:HeartRateProcessing.c **** * Public variables 
  62:HeartRateProcessing.c **** *****************************************************************************/
  63:HeartRateProcessing.c **** uint8 heartRate = 0;
  64:HeartRateProcessing.c **** 
  65:HeartRateProcessing.c **** 
  66:HeartRateProcessing.c **** /*****************************************************************************
  67:HeartRateProcessing.c **** * Public function definitions
  68:HeartRateProcessing.c **** *****************************************************************************/
  69:HeartRateProcessing.c **** 
  70:HeartRateProcessing.c **** /*****************************************************************************
  71:HeartRateProcessing.c **** * Function Name: ProcessHeartRateSignal
  72:HeartRateProcessing.c **** ******************************************************************************
  73:HeartRateProcessing.c **** * Summary:
  74:HeartRateProcessing.c **** * Measures the heart rate of the user.
  75:HeartRateProcessing.c **** *
  76:HeartRateProcessing.c **** * Parameters:
  77:HeartRateProcessing.c **** * None
  78:HeartRateProcessing.c **** *
  79:HeartRateProcessing.c **** * Return:
  80:HeartRateProcessing.c **** * None
ARM GAS  C:\Users\Lucia\AppData\Local\Temp\ccwpgx1c.s 			page 3


  81:HeartRateProcessing.c **** *
  82:HeartRateProcessing.c **** * Theory:
  83:HeartRateProcessing.c **** * This function acts as a simple model for heart rate measurement.
  84:HeartRateProcessing.c **** * The function takes the ADC sampled output and compares it to a threshold.
  85:HeartRateProcessing.c **** * If the ADC output is more than the threshold then it is considered as a 
  86:HeartRateProcessing.c **** * valid beat (R peak). The rising edge of this R peak is identified and the 
  87:HeartRateProcessing.c **** * corresponding system timestamp is noted. The RR-interval between two 
  88:HeartRateProcessing.c **** * peaks is then calculated and converted to a heart rate value in beats per
  89:HeartRateProcessing.c **** * minute. The RR-interval period is calculated over a rolling window.
  90:HeartRateProcessing.c **** *
  91:HeartRateProcessing.c **** * Side Effects:
  92:HeartRateProcessing.c **** * None
  93:HeartRateProcessing.c **** *
  94:HeartRateProcessing.c **** *****************************************************************************/
  95:HeartRateProcessing.c **** void ProcessHeartRateSignal(void)
  96:HeartRateProcessing.c **** {
  35              		.loc 1 96 0
  36              		.cfi_startproc
  37              		@ args = 0, pretend = 0, frame = 8
  38              		@ frame_needed = 1, uses_anonymous_args = 0
  39 0000 90B5     		push	{r4, r7, lr}
  40              		.cfi_def_cfa_offset 12
  41              		.cfi_offset 4, -12
  42              		.cfi_offset 7, -8
  43              		.cfi_offset 14, -4
  44 0002 83B0     		sub	sp, sp, #12
  45              		.cfi_def_cfa_offset 24
  46 0004 00AF     		add	r7, sp, #0
  47              		.cfi_def_cfa_register 7
  97:HeartRateProcessing.c ****     static bool newBeat = true;
  98:HeartRateProcessing.c ****     static bool firstTime = true;
  99:HeartRateProcessing.c ****     static uint32 previousBeatTime = 0;
 100:HeartRateProcessing.c ****     static uint32 newBeatTime = 0;
 101:HeartRateProcessing.c ****     int16 adcOut;
 102:HeartRateProcessing.c ****     uint32 twoSampleTime = 0;
  48              		.loc 1 102 0
  49 0006 0023     		movs	r3, #0
  50 0008 7B60     		str	r3, [r7, #4]
 103:HeartRateProcessing.c **** 
 104:HeartRateProcessing.c ****     /* Get the ADC output */
 105:HeartRateProcessing.c ****     ADC_StartConvert();
  51              		.loc 1 105 0
  52 000a FFF7FEFF 		bl	ADC_StartConvert
 106:HeartRateProcessing.c ****     ADC_IsEndConversion(ADC_WAIT_FOR_RESULT);
  53              		.loc 1 106 0
  54 000e 0220     		movs	r0, #2
  55 0010 FFF7FEFF 		bl	ADC_IsEndConversion
 107:HeartRateProcessing.c ****     adcOut = ADC_GetResult16(HEART_RATE_CHANNEL);
  56              		.loc 1 107 0
  57 0014 BC1C     		adds	r4, r7, #2
  58 0016 0020     		movs	r0, #0
  59 0018 FFF7FEFF 		bl	ADC_GetResult16
  60 001c 0300     		movs	r3, r0
  61 001e 2380     		strh	r3, [r4]
 108:HeartRateProcessing.c ****     
 109:HeartRateProcessing.c ****     /* If the ADC output is more than a fixed threshold, consider that a 
 110:HeartRateProcessing.c ****      * valid R peak */
ARM GAS  C:\Users\Lucia\AppData\Local\Temp\ccwpgx1c.s 			page 4


 111:HeartRateProcessing.c ****     if (adcOut > ADC_THRESHOLD)
  62              		.loc 1 111 0
  63 0020 BB1C     		adds	r3, r7, #2
  64 0022 0022     		movs	r2, #0
  65 0024 9A5E     		ldrsh	r2, [r3, r2]
  66 0026 D423     		movs	r3, #212
  67 0028 DB00     		lsls	r3, r3, #3
  68 002a 9A42     		cmp	r2, r3
  69 002c 2EDD     		ble	.L2
 112:HeartRateProcessing.c ****     {
 113:HeartRateProcessing.c ****         /* Check if the R peak just started - i.e. identify the rising 
 114:HeartRateProcessing.c ****          * edge of the R peak */
 115:HeartRateProcessing.c ****         if(newBeat)
  70              		.loc 1 115 0
  71 002e 1B4B     		ldr	r3, .L8
  72 0030 1B78     		ldrb	r3, [r3]
  73 0032 002B     		cmp	r3, #0
  74 0034 26D0     		beq	.L3
 116:HeartRateProcessing.c ****         {
 117:HeartRateProcessing.c ****             /* Check if this is the first R-peak seen by the device yet.
 118:HeartRateProcessing.c ****              * If that is the case, we cannot calculate a heart rate value 
 119:HeartRateProcessing.c ****              * yet since a minimum of two peak time interval is required. 
 120:HeartRateProcessing.c ****              * Just note the timestamp of this peak.
 121:HeartRateProcessing.c ****              */
 122:HeartRateProcessing.c ****     		if(firstTime == true)
  75              		.loc 1 122 0
  76 0036 1A4B     		ldr	r3, .L8+4
  77 0038 1B78     		ldrb	r3, [r3]
  78 003a 002B     		cmp	r3, #0
  79 003c 08D0     		beq	.L4
 123:HeartRateProcessing.c ****     		{
 124:HeartRateProcessing.c ****     			firstTime = false;
  80              		.loc 1 124 0
  81 003e 184B     		ldr	r3, .L8+4
  82 0040 0022     		movs	r2, #0
  83 0042 1A70     		strb	r2, [r3]
 125:HeartRateProcessing.c ****     			previousBeatTime = WatchdogTimer_GetTimestamp();
  84              		.loc 1 125 0
  85 0044 FFF7FEFF 		bl	WatchdogTimer_GetTimestamp
  86 0048 0200     		movs	r2, r0
  87 004a 164B     		ldr	r3, .L8+8
  88 004c 1A60     		str	r2, [r3]
  89 004e 19E0     		b	.L3
  90              	.L4:
 126:HeartRateProcessing.c ****     		}
 127:HeartRateProcessing.c ****     		else
 128:HeartRateProcessing.c ****     		{
 129:HeartRateProcessing.c ****                 /* Rolling window of two samples. Note the timestamp of 
 130:HeartRateProcessing.c ****                  * the new peak and subtract the timestamp of the previous
 131:HeartRateProcessing.c ****                  * to obtain the RR-interval. Extrapolate it to get a heart
 132:HeartRateProcessing.c ****                  * beat value in beats per minute.
 133:HeartRateProcessing.c ****                  */
 134:HeartRateProcessing.c ****     			newBeatTime = WatchdogTimer_GetTimestamp();
  91              		.loc 1 134 0
  92 0050 FFF7FEFF 		bl	WatchdogTimer_GetTimestamp
  93 0054 0200     		movs	r2, r0
  94 0056 144B     		ldr	r3, .L8+12
ARM GAS  C:\Users\Lucia\AppData\Local\Temp\ccwpgx1c.s 			page 5


  95 0058 1A60     		str	r2, [r3]
 135:HeartRateProcessing.c ****     			twoSampleTime = newBeatTime - previousBeatTime;
  96              		.loc 1 135 0
  97 005a 134B     		ldr	r3, .L8+12
  98 005c 1A68     		ldr	r2, [r3]
  99 005e 114B     		ldr	r3, .L8+8
 100 0060 1B68     		ldr	r3, [r3]
 101 0062 D31A     		subs	r3, r2, r3
 102 0064 7B60     		str	r3, [r7, #4]
 136:HeartRateProcessing.c ****                 
 137:HeartRateProcessing.c ****                 if(twoSampleTime != 0)
 103              		.loc 1 137 0
 104 0066 7B68     		ldr	r3, [r7, #4]
 105 0068 002B     		cmp	r3, #0
 106 006a 07D0     		beq	.L5
 138:HeartRateProcessing.c ****                 {
 139:HeartRateProcessing.c ****                     heartRate = (uint32)SEC_IN_MIN * MS_TO_SECOND / twoSampleTime;
 107              		.loc 1 139 0
 108 006c 7968     		ldr	r1, [r7, #4]
 109 006e 0F48     		ldr	r0, .L8+16
 110 0070 FFF7FEFF 		bl	__aeabi_uidiv
 111 0074 0300     		movs	r3, r0
 112 0076 DAB2     		uxtb	r2, r3
 113 0078 0D4B     		ldr	r3, .L8+20
 114 007a 1A70     		strb	r2, [r3]
 115              	.L5:
 140:HeartRateProcessing.c ****                 }
 141:HeartRateProcessing.c ****                 
 142:HeartRateProcessing.c ****                 previousBeatTime = newBeatTime;
 116              		.loc 1 142 0
 117 007c 0A4B     		ldr	r3, .L8+12
 118 007e 1A68     		ldr	r2, [r3]
 119 0080 084B     		ldr	r3, .L8+8
 120 0082 1A60     		str	r2, [r3]
 121              	.L3:
 143:HeartRateProcessing.c ****     		}
 144:HeartRateProcessing.c ****         }
 145:HeartRateProcessing.c ****         
 146:HeartRateProcessing.c ****         /* Clear the flag to indicate next time that this R peak has already
 147:HeartRateProcessing.c ****          * been accounted for and we need to wait for the next peak. 
 148:HeartRateProcessing.c ****          */
 149:HeartRateProcessing.c ****         newBeat = false;
 122              		.loc 1 149 0
 123 0084 054B     		ldr	r3, .L8
 124 0086 0022     		movs	r2, #0
 125 0088 1A70     		strb	r2, [r3]
 150:HeartRateProcessing.c ****     }
 151:HeartRateProcessing.c ****     else
 152:HeartRateProcessing.c ****     {
 153:HeartRateProcessing.c ****         /* Set the flag to indicate that there is no R-peak going on right now.
 154:HeartRateProcessing.c ****          * So it is expected that the next time the ADC output is more than 
 155:HeartRateProcessing.c ****          * the threshold, it will be a new peak. 
 156:HeartRateProcessing.c ****          */
 157:HeartRateProcessing.c ****         newBeat = true;
 158:HeartRateProcessing.c ****     }
 159:HeartRateProcessing.c **** }
 126              		.loc 1 159 0
ARM GAS  C:\Users\Lucia\AppData\Local\Temp\ccwpgx1c.s 			page 6


 127 008a 02E0     		b	.L7
 128              	.L2:
 157:HeartRateProcessing.c ****     }
 129              		.loc 1 157 0
 130 008c 034B     		ldr	r3, .L8
 131 008e 0122     		movs	r2, #1
 132 0090 1A70     		strb	r2, [r3]
 133              	.L7:
 134              		.loc 1 159 0
 135 0092 C046     		nop
 136 0094 BD46     		mov	sp, r7
 137 0096 03B0     		add	sp, sp, #12
 138              		@ sp needed
 139 0098 90BD     		pop	{r4, r7, pc}
 140              	.L9:
 141 009a C046     		.align	2
 142              	.L8:
 143 009c 00000000 		.word	newBeat.7487
 144 00a0 01000000 		.word	firstTime.7488
 145 00a4 04000000 		.word	previousBeatTime.7489
 146 00a8 08000000 		.word	newBeatTime.7490
 147 00ac 60EA0000 		.word	60000
 148 00b0 00000000 		.word	heartRate
 149              		.cfi_endproc
 150              	.LFE35:
 151              		.size	ProcessHeartRateSignal, .-ProcessHeartRateSignal
 152              		.data
 153              		.type	newBeat.7487, %object
 154              		.size	newBeat.7487, 1
 155              	newBeat.7487:
 156 0000 01       		.byte	1
 157              		.type	firstTime.7488, %object
 158              		.size	firstTime.7488, 1
 159              	firstTime.7488:
 160 0001 01       		.byte	1
 161              		.bss
 162 0001 000000   		.align	2
 163              	previousBeatTime.7489:
 164 0004 00000000 		.space	4
 165              		.align	2
 166              	newBeatTime.7490:
 167 0008 00000000 		.space	4
 168              		.text
 169              	.Letext0:
 170              		.file 2 "Generated_Source\\PSoC4/cytypes.h"
 171              		.file 3 "Generated_Source\\PSoC4/BLE_Stack.h"
 172              		.file 4 "Generated_Source\\PSoC4/BLE_hrs.h"
 173              		.file 5 "Generated_Source\\PSoC4/BLE_dis.h"