ARM GAS  C:\Users\Lucia\AppData\Local\Temp\ccfncgJ7.s 			page 1


   1              		.syntax unified
   2              		.cpu cortex-m0
   3              		.fpu softvfp
   4              		.eabi_attribute 20, 1
   5              		.eabi_attribute 21, 1
   6              		.eabi_attribute 23, 3
   7              		.eabi_attribute 24, 1
   8              		.eabi_attribute 25, 1
   9              		.eabi_attribute 26, 1
  10              		.eabi_attribute 30, 6
  11              		.eabi_attribute 34, 0
  12              		.eabi_attribute 18, 4
  13              		.thumb
  14              		.syntax unified
  15              		.file	"main.c"
  16              		.text
  17              	.Ltext0:
  18              		.cfi_sections	.debug_frame
  19              		.section	.text.InitializeSystem,"ax",%progbits
  20              		.align	2
  21              		.code	16
  22              		.thumb_func
  23              		.type	InitializeSystem, %function
  24              	InitializeSystem:
  25              	.LFB35:
  26              		.file 1 "main.c"
   1:main.c        **** /*****************************************************************************
   2:main.c        **** * File Name: main.c
   3:main.c        **** *
   4:main.c        **** * Version: 1.0
   5:main.c        **** *
   6:main.c        **** * Description:
   7:main.c        **** * This is the top level file for the PSoC 4 BLE Lab 3.
   8:main.c        **** *
   9:main.c        **** * Hardware Dependency:
  10:main.c        **** * CY8CKIT-042 BLE Pioneer Kit
  11:main.c        **** *
  12:main.c        **** ******************************************************************************
  13:main.c        **** * Copyright (2014), Cypress Semiconductor Corporation.
  14:main.c        **** ******************************************************************************
  15:main.c        **** * This software is owned by Cypress Semiconductor Corporation (Cypress) and is
  16:main.c        **** * protected by and subject to worldwide patent protection (United States and
  17:main.c        **** * foreign), United States copyright laws and international treaty provisions.
  18:main.c        **** * Cypress hereby grants to licensee a personal, non-exclusive, non-transferable
  19:main.c        **** * license to copy, use, modify, create derivative works of, and compile the
  20:main.c        **** * Cypress Source Code and derivative works for the sole purpose of creating
  21:main.c        **** * custom software in support of licensee product to be used only in conjunction
  22:main.c        **** * with a Cypress integrated circuit as specified in the applicable agreement.
  23:main.c        **** * Any reproduction, modification, translation, compilation, or representation of
  24:main.c        **** * this software except as specified above is prohibited without the express
  25:main.c        **** * written permission of Cypress.
  26:main.c        **** *
  27:main.c        **** * Disclaimer: CYPRESS MAKES NO WARRANTY OF ANY KIND, EXPRESS OR IMPLIED, WITH
  28:main.c        **** * REGARD TO THIS MATERIAL, INCLUDING, BUT NOT LIMITED TO, THE IMPLIED
  29:main.c        **** * WARRANTIES OF MERCHANTABILITY AND FITNESS FOR A PARTICULAR PURPOSE.
  30:main.c        **** * Cypress reserves the right to make changes without further notice to the
  31:main.c        **** * materials described herein. Cypress does not assume any liability arising out
ARM GAS  C:\Users\Lucia\AppData\Local\Temp\ccfncgJ7.s 			page 2


  32:main.c        **** * of the application or use of any product or circuit described herein. Cypress
  33:main.c        **** * does not authorize its products for use as critical components in life-support
  34:main.c        **** * systems where a malfunction or failure may reasonably be expected to result in
  35:main.c        **** * significant injury to the user. The inclusion of Cypress' product in a life-
  36:main.c        **** * support systems application implies that the manufacturer assumes all risk of
  37:main.c        **** * such use and in doing so indemnifies Cypress against all charges. Use may be
  38:main.c        **** * limited by and subject to the applicable Cypress software license agreement.
  39:main.c        **** *****************************************************************************/
  40:main.c        **** 
  41:main.c        **** 
  42:main.c        **** /*****************************************************************************
  43:main.c        **** * Included headers
  44:main.c        **** *****************************************************************************/
  45:main.c        **** #include <project.h>
  46:main.c        **** #include <stdbool.h>
  47:main.c        **** #include "main.h"
  48:main.c        **** #include "HeartRateProcessing.h"
  49:main.c        **** #include "BleProcessing.h"
  50:main.c        **** #include "WatchdogTimer.h"
  51:main.c        **** 
  52:main.c        **** 
  53:main.c        **** /*****************************************************************************
  54:main.c        **** * Static function definitions
  55:main.c        **** *****************************************************************************/
  56:main.c        **** 
  57:main.c        **** /*****************************************************************************
  58:main.c        **** * Function Name: InitializeSystem
  59:main.c        **** ******************************************************************************
  60:main.c        **** * Summary:
  61:main.c        **** * Initializes all the blocks of the system.
  62:main.c        **** *
  63:main.c        **** * Parameters:
  64:main.c        **** * None
  65:main.c        **** *
  66:main.c        **** * Return:
  67:main.c        **** * None
  68:main.c        **** *
  69:main.c        **** * Theory:
  70:main.c        **** * The function enables the Opamp and ADC for the heart rate measurement, and 
  71:main.c        **** * setups the BLE component. It also starts the watchdog timer and ensures that 
  72:main.c        **** * all the status LEDs are off at system startup. 
  73:main.c        **** *
  74:main.c        **** * Side Effects:
  75:main.c        **** * None
  76:main.c        **** *
  77:main.c        **** *****************************************************************************/
  78:main.c        **** static void InitializeSystem(void)
  79:main.c        **** {
  27              		.loc 1 79 0
  28              		.cfi_startproc
  29              		@ args = 0, pretend = 0, frame = 0
  30              		@ frame_needed = 1, uses_anonymous_args = 0
  31 0000 80B5     		push	{r7, lr}
  32              		.cfi_def_cfa_offset 8
  33              		.cfi_offset 7, -8
  34              		.cfi_offset 14, -4
  35 0002 00AF     		add	r7, sp, #0
ARM GAS  C:\Users\Lucia\AppData\Local\Temp\ccfncgJ7.s 			page 3


  36              		.cfi_def_cfa_register 7
  80:main.c        ****     #if (RGB_LED_IN_PROJECT)
  81:main.c        ****         /* Turn off all LEDs */
  82:main.c        ****         Led_Advertising_Green_Write(1);
  37              		.loc 1 82 0
  38 0004 0120     		movs	r0, #1
  39 0006 FFF7FEFF 		bl	Led_Advertising_Green_Write
  83:main.c        ****         Led_Connected_Blue_Write(1);
  40              		.loc 1 83 0
  41 000a 0120     		movs	r0, #1
  42 000c FFF7FEFF 		bl	Led_Connected_Blue_Write
  84:main.c        ****     #endif  /* #if (RGB_LED_IN_PROJECT) */
  85:main.c        **** 
  86:main.c        ****     /* Enabling Global interrupts */
  87:main.c        ****     CyGlobalIntEnable; 
  43              		.loc 1 87 0
  44              		.syntax divided
  45              	@ 87 "main.c" 1
  46 0010 62B6     		CPSIE   i
  47              	@ 0 "" 2
  88:main.c        **** 	
  89:main.c        ****     /* Start Opamp and ADC components */
  90:main.c        **** 	Opamp_Start();
  48              		.loc 1 90 0
  49              		.thumb
  50              		.syntax unified
  51 0012 FFF7FEFF 		bl	Opamp_Start
  91:main.c        ****     ADC_Start();
  52              		.loc 1 91 0
  53 0016 FFF7FEFF 		bl	ADC_Start
  92:main.c        **** 	
  93:main.c        ****     /* Start BLE component */
  94:main.c        ****     CyBle_Start(GeneralEventHandler);
  54              		.loc 1 94 0
  55 001a 064B     		ldr	r3, .L2
  56 001c 1800     		movs	r0, r3
  57 001e FFF7FEFF 		bl	CyBle_Start
  95:main.c        ****     
  96:main.c        ****     
  97:main.c        ****     /* Register the Heart Rate Service event handler callback. The function
  98:main.c        ****      * to be registered is HrsEventHandler().
  99:main.c        ****      */
 100:main.c        **** 	CyBle_HrsRegisterAttrCallback(HrsEventHandler);
  58              		.loc 1 100 0
  59 0022 054B     		ldr	r3, .L2+4
  60 0024 1800     		movs	r0, r3
  61 0026 FFF7FEFF 		bl	CyBle_HrsRegisterAttrCallback
 101:main.c        ****     
 102:main.c        ****     
 103:main.c        ****     /* Start the Watchdog Timer */
 104:main.c        **** 	WatchdogTimer_Start();
  62              		.loc 1 104 0
  63 002a FFF7FEFF 		bl	WatchdogTimer_Start
 105:main.c        **** }
  64              		.loc 1 105 0
  65 002e C046     		nop
  66 0030 BD46     		mov	sp, r7
ARM GAS  C:\Users\Lucia\AppData\Local\Temp\ccfncgJ7.s 			page 4


  67              		@ sp needed
  68 0032 80BD     		pop	{r7, pc}
  69              	.L3:
  70              		.align	2
  71              	.L2:
  72 0034 00000000 		.word	GeneralEventHandler
  73 0038 00000000 		.word	HrsEventHandler
  74              		.cfi_endproc
  75              	.LFE35:
  76              		.size	InitializeSystem, .-InitializeSystem
  77              		.section	.text.main,"ax",%progbits
  78              		.align	2
  79              		.global	main
  80              		.code	16
  81              		.thumb_func
  82              		.type	main, %function
  83              	main:
  84              	.LFB36:
 106:main.c        **** 
 107:main.c        **** 
 108:main.c        **** /*****************************************************************************
 109:main.c        **** * Public function definitions
 110:main.c        **** *****************************************************************************/
 111:main.c        **** 
 112:main.c        **** /*****************************************************************************
 113:main.c        **** * Function Name: main
 114:main.c        **** ******************************************************************************
 115:main.c        **** * Summary:
 116:main.c        **** * The main function for the project.
 117:main.c        **** *
 118:main.c        **** * Parameters:
 119:main.c        **** * None
 120:main.c        **** *
 121:main.c        **** * Return:
 122:main.c        **** * None
 123:main.c        **** *
 124:main.c        **** * Theory:
 125:main.c        **** * The main function first calls the initialization function to start the 
 126:main.c        **** * system, and then enters a loop to run forever. In the main loop, it scans
 127:main.c        **** * the heart rate first, then sends a notification packet every second to a 
 128:main.c        **** * BLE connected device. It then enters low power (deep sleep) state, waiting
 129:main.c        **** * for the periodic wakeup interrupt from watchdog timer.
 130:main.c        **** * When the device is disconnected or when advertisement timeout happens, 
 131:main.c        **** * the device enters Hibernate mode, waiting for the SW2 switch press to wakeup.
 132:main.c        **** *
 133:main.c        **** * Side Effects:
 134:main.c        **** * None
 135:main.c        **** *
 136:main.c        **** *****************************************************************************/
 137:main.c        **** int main()
 138:main.c        **** {
  85              		.loc 1 138 0
  86              		.cfi_startproc
  87              		@ args = 0, pretend = 0, frame = 8
  88              		@ frame_needed = 1, uses_anonymous_args = 0
  89 0000 90B5     		push	{r4, r7, lr}
  90              		.cfi_def_cfa_offset 12
ARM GAS  C:\Users\Lucia\AppData\Local\Temp\ccfncgJ7.s 			page 5


  91              		.cfi_offset 4, -12
  92              		.cfi_offset 7, -8
  93              		.cfi_offset 14, -4
  94 0002 83B0     		sub	sp, sp, #12
  95              		.cfi_def_cfa_offset 24
  96 0004 00AF     		add	r7, sp, #0
  97              		.cfi_def_cfa_register 7
 139:main.c        ****     static uint32 previousTimestamp = 0;
 140:main.c        ****     static uint32 currentTimestamp = 0;
 141:main.c        ****     CYBLE_LP_MODE_T bleMode;
 142:main.c        ****     uint8 interruptStatus;
 143:main.c        ****     
 144:main.c        ****     /* Initialize all blocks of the system */
 145:main.c        **** 	InitializeSystem();
  98              		.loc 1 145 0
  99 0006 FFF7FEFF 		bl	InitializeSystem
 100              	.L13:
 146:main.c        ****     
 147:main.c        ****     /* Run forever */
 148:main.c        ****     for(;;)
 149:main.c        ****     {
 150:main.c        ****         /* Wake up ADC from low power mode */
 151:main.c        ****         ADC_Wakeup();
 101              		.loc 1 151 0
 102 000a FFF7FEFF 		bl	ADC_Wakeup
 152:main.c        **** 
 153:main.c        ****         /* Analog Front End. 
 154:main.c        ****          * Detects the input signal and measures Heart Rate 
 155:main.c        ****          */
 156:main.c        ****         ProcessHeartRateSignal();
 103              		.loc 1 156 0
 104 000e FFF7FEFF 		bl	ProcessHeartRateSignal
 157:main.c        **** 
 158:main.c        ****         /* Put ADC in low power mode */
 159:main.c        ****         ADC_Sleep();
 105              		.loc 1 159 0
 106 0012 FFF7FEFF 		bl	ADC_Sleep
 160:main.c        ****         
 161:main.c        ****         /* Measure the current system timestamp from watchdog timer */
 162:main.c        ****         currentTimestamp = WatchdogTimer_GetTimestamp();        
 107              		.loc 1 162 0
 108 0016 FFF7FEFF 		bl	WatchdogTimer_GetTimestamp
 109 001a 0200     		movs	r2, r0
 110 001c 2D4B     		ldr	r3, .L14
 111 001e 1A60     		str	r2, [r3]
 163:main.c        ****         
 164:main.c        ****         /* Send Heart Rate notification over BLE every second.
 165:main.c        ****          * Check if the current timestamp minus previous exceeds 1000 ms.
 166:main.c        ****          */
 167:main.c        ****         if((currentTimestamp - previousTimestamp) >= 1000)
 112              		.loc 1 167 0
 113 0020 2C4B     		ldr	r3, .L14
 114 0022 1A68     		ldr	r2, [r3]
 115 0024 2C4B     		ldr	r3, .L14+4
 116 0026 1B68     		ldr	r3, [r3]
 117 0028 D31A     		subs	r3, r2, r3
 118 002a 2C4A     		ldr	r2, .L14+8
ARM GAS  C:\Users\Lucia\AppData\Local\Temp\ccfncgJ7.s 			page 6


 119 002c 9342     		cmp	r3, r2
 120 002e 30D9     		bls	.L6
 168:main.c        ****         {
 169:main.c        ****             /* Call API defined in BleProcessing.c to send 
 170:main.c        ****              * notification over BLE.
 171:main.c        ****              */
 172:main.c        ****             SendHeartRateOverBLE();
 121              		.loc 1 172 0
 122 0030 FFF7FEFF 		bl	SendHeartRateOverBLE
 173:main.c        ****             
 174:main.c        ****             /* Update the previous timestamp with the current timestamp. */
 175:main.c        ****             previousTimestamp = currentTimestamp;
 123              		.loc 1 175 0
 124 0034 274B     		ldr	r3, .L14
 125 0036 1A68     		ldr	r2, [r3]
 126 0038 274B     		ldr	r3, .L14+4
 127 003a 1A60     		str	r2, [r3]
 176:main.c        ****         }
 177:main.c        **** 
 178:main.c        ****         /* Try to stay in low power mode until the next watchdog interrupt */
 179:main.c        ****         while(WatchdogTimer_GetTimestamp() == currentTimestamp)
 128              		.loc 1 179 0
 129 003c 29E0     		b	.L6
 130              	.L11:
 180:main.c        ****         {
 181:main.c        ****             /* Process any pending BLE events */
 182:main.c        ****             CyBle_ProcessEvents();
 131              		.loc 1 182 0
 132 003e FFF7FEFF 		bl	CyBle_ProcessEvents
 183:main.c        ****             
 184:main.c        ****             /* The idea of low power operation is to first request the BLE 
 185:main.c        ****              * block go to Deep Sleep, and then check whether it actually
 186:main.c        ****              * entered Deep Sleep. This is important because the BLE block
 187:main.c        ****              * runs asynchronous to the rest of the application and thus
 188:main.c        ****              * could be busy/idle independent of the application state. 
 189:main.c        ****              * 
 190:main.c        ****              * Once the BLE block is in Deep Sleep, only then the system 
 191:main.c        ****              * can enter Deep Sleep. This is important to maintain the BLE 
 192:main.c        ****              * connection alive while being in Deep Sleep.
 193:main.c        ****              */
 194:main.c        **** 
 195:main.c        ****             
 196:main.c        ****             /* Request the BLE block to enter Deep Sleep */
 197:main.c        ****             bleMode = CyBle_EnterLPM(CYBLE_BLESS_DEEPSLEEP);
 133              		.loc 1 197 0
 134 0042 FC1D     		adds	r4, r7, #7
 135 0044 0320     		movs	r0, #3
 136 0046 FFF7FEFF 		bl	CyBle_EnterLPM
 137 004a 0300     		movs	r3, r0
 138 004c 2370     		strb	r3, [r4]
 198:main.c        **** 
 199:main.c        ****             
 200:main.c        ****             /* Check if the BLE block entered Deep Sleep and if so, then the 
 201:main.c        ****              * system can enter Deep Sleep. This is done inside a Critical 
 202:main.c        ****              * Section (where global interrupts are disabled) to avoid a 
 203:main.c        ****              * race condition between application main (that wants to go to 
 204:main.c        ****              * Deep Sleep) and other interrupts (which keep the device from 
ARM GAS  C:\Users\Lucia\AppData\Local\Temp\ccfncgJ7.s 			page 7


 205:main.c        ****              * going to Deep Sleep). 
 206:main.c        ****              */
 207:main.c        ****             interruptStatus = CyEnterCriticalSection();
 139              		.loc 1 207 0
 140 004e BC1D     		adds	r4, r7, #6
 141 0050 FFF7FEFF 		bl	CyEnterCriticalSection
 142 0054 0300     		movs	r3, r0
 143 0056 2370     		strb	r3, [r4]
 208:main.c        ****             
 209:main.c        ****             /* Check if the BLE block entered Deep Sleep */
 210:main.c        ****             if(CYBLE_BLESS_DEEPSLEEP == bleMode)
 144              		.loc 1 210 0
 145 0058 FB1D     		adds	r3, r7, #7
 146 005a 1B78     		ldrb	r3, [r3]
 147 005c 032B     		cmp	r3, #3
 148 005e 0CD1     		bne	.L7
 211:main.c        ****             {
 212:main.c        ****                 /* Check the current state of BLE - System can enter Deep Sleep
 213:main.c        ****                  * only when the BLE block is starting the ECO (during 
 214:main.c        ****                  * pre-processing for a new connection event) or when it is 
 215:main.c        ****                  * idle.
 216:main.c        ****                  */
 217:main.c        ****                 if((CyBle_GetBleSsState() == CYBLE_BLESS_STATE_ECO_ON) ||
 149              		.loc 1 217 0
 150 0060 FFF7FEFF 		bl	CyBle_GetBleSsState
 151 0064 0300     		movs	r3, r0
 152 0066 042B     		cmp	r3, #4
 153 0068 04D0     		beq	.L8
 218:main.c        ****                    (CyBle_GetBleSsState() == CYBLE_BLESS_STATE_DEEPSLEEP))
 154              		.loc 1 218 0 discriminator 1
 155 006a FFF7FEFF 		bl	CyBle_GetBleSsState
 156 006e 0300     		movs	r3, r0
 217:main.c        ****                    (CyBle_GetBleSsState() == CYBLE_BLESS_STATE_DEEPSLEEP))
 157              		.loc 1 217 0 discriminator 1
 158 0070 062B     		cmp	r3, #6
 159 0072 09D1     		bne	.L10
 160              	.L8:
 219:main.c        ****                 {
 220:main.c        ****                     CySysPmDeepSleep();
 161              		.loc 1 220 0
 162 0074 FFF7FEFF 		bl	CySysPmDeepSleep
 163 0078 06E0     		b	.L10
 164              	.L7:
 221:main.c        ****                 }
 222:main.c        ****             }
 223:main.c        ****             /* The else condition signifies that the BLE block cannot enter 
 224:main.c        ****              * Deep Sleep and is in Active mode.  
 225:main.c        ****              */
 226:main.c        ****             else
 227:main.c        ****             {
 228:main.c        ****                 /* At this point, the CPU can enter Sleep, but Deep Sleep is not
 229:main.c        ****                  * allowed. 
 230:main.c        ****                  * There is one exception - at a connection event, when the BLE 
 231:main.c        ****                  * Rx/Tx has just finished, and the post processing for the 
 232:main.c        ****                  * connection event is ongoing, the CPU cannot go to sleep.
 233:main.c        ****                  * The CPU should wait in Active mode until the post processing 
 234:main.c        ****                  * is complete while continuously polling the BLE low power 
ARM GAS  C:\Users\Lucia\AppData\Local\Temp\ccfncgJ7.s 			page 8


 235:main.c        ****                  * entry. As soon as post processing is complete, the BLE block 
 236:main.c        ****                  * would enter Deep Sleep (because of the polling) and the 
 237:main.c        ****                  * system Deep Sleep would then be entered. Deep Sleep is the 
 238:main.c        ****                  * preferred low power mode since it takes much lesser current.
 239:main.c        ****                  */
 240:main.c        ****                 if(CyBle_GetBleSsState() != CYBLE_BLESS_STATE_EVENT_CLOSE)
 165              		.loc 1 240 0
 166 007a FFF7FEFF 		bl	CyBle_GetBleSsState
 167 007e 0300     		movs	r3, r0
 168 0080 022B     		cmp	r3, #2
 169 0082 01D0     		beq	.L10
 241:main.c        ****                 {
 242:main.c        ****                     CySysPmSleep();
 170              		.loc 1 242 0
 171 0084 FFF7FEFF 		bl	CySysPmSleep
 172              	.L10:
 243:main.c        ****                 }
 244:main.c        ****             }
 245:main.c        ****             
 246:main.c        ****             /* Exit Critical section - Global interrupts are enabled again */
 247:main.c        ****             CyExitCriticalSection(interruptStatus);
 173              		.loc 1 247 0
 174 0088 BB1D     		adds	r3, r7, #6
 175 008a 1B78     		ldrb	r3, [r3]
 176 008c 1800     		movs	r0, r3
 177 008e FFF7FEFF 		bl	CyExitCriticalSection
 178              	.L6:
 179:main.c        ****         {
 179              		.loc 1 179 0
 180 0092 FFF7FEFF 		bl	WatchdogTimer_GetTimestamp
 181 0096 0200     		movs	r2, r0
 182 0098 0E4B     		ldr	r3, .L14
 183 009a 1B68     		ldr	r3, [r3]
 184 009c 9A42     		cmp	r2, r3
 185 009e CED0     		beq	.L11
 248:main.c        ****         }
 249:main.c        **** 
 250:main.c        ****         /* Hibernate entry point - Hibernate is entered upon a BLE disconnect
 251:main.c        ****          * event or advertisement timeout. Wakeup happens via SW2 switch press, 
 252:main.c        ****          * upon which the execution starts from the first line of code. 
 253:main.c        ****          * The I/O state, RAM and UDBs are retained during Hibernate.
 254:main.c        ****          */
 255:main.c        ****         if(enterHibernateFlag)
 186              		.loc 1 255 0
 187 00a0 0F4B     		ldr	r3, .L14+12
 188 00a2 1B78     		ldrb	r3, [r3]
 189 00a4 002B     		cmp	r3, #0
 190 00a6 B0D0     		beq	.L13
 256:main.c        ****         {
 257:main.c        ****             /* Stop the BLE component */
 258:main.c        ****             CyBle_Stop();
 191              		.loc 1 258 0
 192 00a8 FFF7FEFF 		bl	CyBle_Stop
 259:main.c        ****             
 260:main.c        ****             /* Enable the Hibernate wakeup functionality */
 261:main.c        ****             SW2_Switch_ClearInterrupt();
 193              		.loc 1 261 0
ARM GAS  C:\Users\Lucia\AppData\Local\Temp\ccfncgJ7.s 			page 9


 194 00ac FFF7FEFF 		bl	SW2_Switch_ClearInterrupt
 262:main.c        ****             Wakeup_ISR_Start();
 195              		.loc 1 262 0
 196 00b0 FFF7FEFF 		bl	Wakeup_ISR_Start
 263:main.c        ****             
 264:main.c        ****             #if (RGB_LED_IN_PROJECT)
 265:main.c        ****                 /* Turn off Green and Blue LEDs to indicate Hibernate */
 266:main.c        ****                 Led_Advertising_Green_Write(1);
 197              		.loc 1 266 0
 198 00b4 0120     		movs	r0, #1
 199 00b6 FFF7FEFF 		bl	Led_Advertising_Green_Write
 267:main.c        ****                 Led_Connected_Blue_Write(1);
 200              		.loc 1 267 0
 201 00ba 0120     		movs	r0, #1
 202 00bc FFF7FEFF 		bl	Led_Connected_Blue_Write
 268:main.c        ****                 
 269:main.c        ****                 /* Change the GPIO state to High-Z */
 270:main.c        ****                 Led_Advertising_Green_SetDriveMode(Led_Advertising_Green_DM_ALG_HIZ);
 203              		.loc 1 270 0
 204 00c0 0020     		movs	r0, #0
 205 00c2 FFF7FEFF 		bl	Led_Advertising_Green_SetDriveMode
 271:main.c        ****                 Led_Connected_Blue_SetDriveMode(Led_Connected_Blue_DM_ALG_HIZ);
 206              		.loc 1 271 0
 207 00c6 0020     		movs	r0, #0
 208 00c8 FFF7FEFF 		bl	Led_Connected_Blue_SetDriveMode
 272:main.c        ****             #endif  /* #if (RGB_LED_IN_PROJECT) */
 273:main.c        ****             
 274:main.c        ****             /* Enter hibernate mode */
 275:main.c        ****             CySysPmHibernate();
 209              		.loc 1 275 0
 210 00cc FFF7FEFF 		bl	CySysPmHibernate
 276:main.c        ****         }
 277:main.c        ****     }
 211              		.loc 1 277 0
 212 00d0 9BE7     		b	.L13
 213              	.L15:
 214 00d2 C046     		.align	2
 215              	.L14:
 216 00d4 00000000 		.word	currentTimestamp.7501
 217 00d8 04000000 		.word	previousTimestamp.7500
 218 00dc E7030000 		.word	999
 219 00e0 00000000 		.word	enterHibernateFlag
 220              		.cfi_endproc
 221              	.LFE36:
 222              		.size	main, .-main
 223              		.bss
 224              		.align	2
 225              	currentTimestamp.7501:
 226 0000 00000000 		.space	4
 227              		.align	2
 228              	previousTimestamp.7500:
 229 0004 00000000 		.space	4
 230              		.text
 231              	.Letext0:
 232              		.file 2 "Generated_Source\\PSoC4/cytypes.h"
 233              		.file 3 "Generated_Source\\PSoC4/BLE_Stack.h"
 234              		.file 4 "BleProcessing.h"
ARM GAS  C:\Users\Lucia\AppData\Local\Temp\ccfncgJ7.s 			page 10

