ARM GAS  C:\Users\Lucia\AppData\Local\Temp\cc4QZdth.s 			page 1


   1              		.syntax unified
   2              		.cpu cortex-m0
   3              		.fpu softvfp
   4              		.eabi_attribute 20, 1
   5              		.eabi_attribute 21, 1
   6              		.eabi_attribute 23, 3
   7              		.eabi_attribute 24, 1
   8              		.eabi_attribute 25, 1
   9              		.eabi_attribute 26, 1
  10              		.eabi_attribute 30, 6
  11              		.eabi_attribute 34, 0
  12              		.eabi_attribute 18, 4
  13              		.thumb
  14              		.syntax unified
  15              		.file	"cyfitter_cfg.c"
  16              		.text
  17              	.Ltext0:
  18              		.cfi_sections	.debug_frame
  19              		.section	.text.CYMEMZERO,"ax",%progbits
  20              		.align	2
  21              		.code	16
  22              		.thumb_func
  23              		.type	CYMEMZERO, %function
  24              	CYMEMZERO:
  25              	.LFB2:
  26              		.file 1 "Generated_Source\\PSoC4\\cyfitter_cfg.c"
   1:Generated_Source\PSoC4/cyfitter_cfg.c **** 
   2:Generated_Source\PSoC4/cyfitter_cfg.c **** /*******************************************************************************
   3:Generated_Source\PSoC4/cyfitter_cfg.c **** * File Name: cyfitter_cfg.c
   4:Generated_Source\PSoC4/cyfitter_cfg.c **** * 
   5:Generated_Source\PSoC4/cyfitter_cfg.c **** * PSoC Creator  4.4
   6:Generated_Source\PSoC4/cyfitter_cfg.c **** *
   7:Generated_Source\PSoC4/cyfitter_cfg.c **** * Description:
   8:Generated_Source\PSoC4/cyfitter_cfg.c **** * This file contains device initialization code.
   9:Generated_Source\PSoC4/cyfitter_cfg.c **** * Except for the user defined sections in CyClockStartupError(), this file should not be modified.
  10:Generated_Source\PSoC4/cyfitter_cfg.c **** * This file is automatically generated by PSoC Creator.
  11:Generated_Source\PSoC4/cyfitter_cfg.c **** *
  12:Generated_Source\PSoC4/cyfitter_cfg.c **** ********************************************************************************
  13:Generated_Source\PSoC4/cyfitter_cfg.c **** * Copyright (c) 2007-2020 Cypress Semiconductor.  All rights reserved.
  14:Generated_Source\PSoC4/cyfitter_cfg.c **** * You may use this file only in accordance with the license, terms, conditions, 
  15:Generated_Source\PSoC4/cyfitter_cfg.c **** * disclaimers, and limitations in the end user license agreement accompanying 
  16:Generated_Source\PSoC4/cyfitter_cfg.c **** * the software package with which this file was provided.
  17:Generated_Source\PSoC4/cyfitter_cfg.c **** ********************************************************************************/
  18:Generated_Source\PSoC4/cyfitter_cfg.c **** 
  19:Generated_Source\PSoC4/cyfitter_cfg.c **** #include <string.h>
  20:Generated_Source\PSoC4/cyfitter_cfg.c **** #include "cytypes.h"
  21:Generated_Source\PSoC4/cyfitter_cfg.c **** #include "cydevice_trm.h"
  22:Generated_Source\PSoC4/cyfitter_cfg.c **** #include "cyfitter.h"
  23:Generated_Source\PSoC4/cyfitter_cfg.c **** #include "CyLib.h"
  24:Generated_Source\PSoC4/cyfitter_cfg.c **** #include "cyfitter_cfg.h"
  25:Generated_Source\PSoC4/cyfitter_cfg.c **** 
  26:Generated_Source\PSoC4/cyfitter_cfg.c **** 
  27:Generated_Source\PSoC4/cyfitter_cfg.c **** #if defined(__GNUC__) || defined(__ARMCC_VERSION)
  28:Generated_Source\PSoC4/cyfitter_cfg.c ****     #define CYPACKED 
  29:Generated_Source\PSoC4/cyfitter_cfg.c ****     #define CYPACKED_ATTR __attribute__ ((packed))
  30:Generated_Source\PSoC4/cyfitter_cfg.c ****     #define CYALIGNED __attribute__ ((aligned))
  31:Generated_Source\PSoC4/cyfitter_cfg.c ****     #define CY_CFG_UNUSED __attribute__ ((unused))
ARM GAS  C:\Users\Lucia\AppData\Local\Temp\cc4QZdth.s 			page 2


  32:Generated_Source\PSoC4/cyfitter_cfg.c ****     #ifndef CY_CFG_SECTION
  33:Generated_Source\PSoC4/cyfitter_cfg.c ****         #define CY_CFG_SECTION __attribute__ ((section(".psocinit")))
  34:Generated_Source\PSoC4/cyfitter_cfg.c ****     #endif
  35:Generated_Source\PSoC4/cyfitter_cfg.c ****     
  36:Generated_Source\PSoC4/cyfitter_cfg.c ****     #if defined(__ARMCC_VERSION)
  37:Generated_Source\PSoC4/cyfitter_cfg.c ****         #define CY_CFG_MEMORY_BARRIER() __memory_changed()
  38:Generated_Source\PSoC4/cyfitter_cfg.c ****     #else
  39:Generated_Source\PSoC4/cyfitter_cfg.c ****         #define CY_CFG_MEMORY_BARRIER() __sync_synchronize()
  40:Generated_Source\PSoC4/cyfitter_cfg.c ****     #endif
  41:Generated_Source\PSoC4/cyfitter_cfg.c ****     
  42:Generated_Source\PSoC4/cyfitter_cfg.c **** #elif defined(__ICCARM__)
  43:Generated_Source\PSoC4/cyfitter_cfg.c ****     #include <intrinsics.h>
  44:Generated_Source\PSoC4/cyfitter_cfg.c **** 
  45:Generated_Source\PSoC4/cyfitter_cfg.c ****     #define CYPACKED __packed
  46:Generated_Source\PSoC4/cyfitter_cfg.c ****     #define CYPACKED_ATTR 
  47:Generated_Source\PSoC4/cyfitter_cfg.c ****     #define CYALIGNED _Pragma("data_alignment=4")
  48:Generated_Source\PSoC4/cyfitter_cfg.c ****     #define CY_CFG_UNUSED _Pragma("diag_suppress=Pe177")
  49:Generated_Source\PSoC4/cyfitter_cfg.c ****     #define CY_CFG_SECTION _Pragma("location=\".psocinit\"")
  50:Generated_Source\PSoC4/cyfitter_cfg.c ****     
  51:Generated_Source\PSoC4/cyfitter_cfg.c ****     #define CY_CFG_MEMORY_BARRIER() __DMB()
  52:Generated_Source\PSoC4/cyfitter_cfg.c ****     
  53:Generated_Source\PSoC4/cyfitter_cfg.c **** #else
  54:Generated_Source\PSoC4/cyfitter_cfg.c ****     #error Unsupported toolchain
  55:Generated_Source\PSoC4/cyfitter_cfg.c **** #endif
  56:Generated_Source\PSoC4/cyfitter_cfg.c **** 
  57:Generated_Source\PSoC4/cyfitter_cfg.c **** #ifndef CYCODE
  58:Generated_Source\PSoC4/cyfitter_cfg.c ****     #define CYCODE
  59:Generated_Source\PSoC4/cyfitter_cfg.c **** #endif
  60:Generated_Source\PSoC4/cyfitter_cfg.c **** #ifndef CYDATA
  61:Generated_Source\PSoC4/cyfitter_cfg.c ****     #define CYDATA
  62:Generated_Source\PSoC4/cyfitter_cfg.c **** #endif
  63:Generated_Source\PSoC4/cyfitter_cfg.c **** #ifndef CYFAR
  64:Generated_Source\PSoC4/cyfitter_cfg.c ****     #define CYFAR
  65:Generated_Source\PSoC4/cyfitter_cfg.c **** #endif
  66:Generated_Source\PSoC4/cyfitter_cfg.c **** #ifndef CYXDATA
  67:Generated_Source\PSoC4/cyfitter_cfg.c ****     #define CYXDATA
  68:Generated_Source\PSoC4/cyfitter_cfg.c **** #endif
  69:Generated_Source\PSoC4/cyfitter_cfg.c **** 
  70:Generated_Source\PSoC4/cyfitter_cfg.c **** 
  71:Generated_Source\PSoC4/cyfitter_cfg.c **** CY_CFG_UNUSED
  72:Generated_Source\PSoC4/cyfitter_cfg.c **** static void CYMEMZERO(void *s, size_t n);
  73:Generated_Source\PSoC4/cyfitter_cfg.c **** CY_CFG_UNUSED
  74:Generated_Source\PSoC4/cyfitter_cfg.c **** static void CYMEMZERO(void *s, size_t n)
  75:Generated_Source\PSoC4/cyfitter_cfg.c **** {
  27              		.loc 1 75 0
  28              		.cfi_startproc
  29              		@ args = 0, pretend = 0, frame = 8
  30              		@ frame_needed = 1, uses_anonymous_args = 0
  31 0000 80B5     		push	{r7, lr}
  32              		.cfi_def_cfa_offset 8
  33              		.cfi_offset 7, -8
  34              		.cfi_offset 14, -4
  35 0002 82B0     		sub	sp, sp, #8
  36              		.cfi_def_cfa_offset 16
  37 0004 00AF     		add	r7, sp, #0
  38              		.cfi_def_cfa_register 7
  39 0006 7860     		str	r0, [r7, #4]
ARM GAS  C:\Users\Lucia\AppData\Local\Temp\cc4QZdth.s 			page 3


  40 0008 3960     		str	r1, [r7]
  76:Generated_Source\PSoC4/cyfitter_cfg.c **** 	(void)memset(s, 0, n);
  41              		.loc 1 76 0
  42 000a 3A68     		ldr	r2, [r7]
  43 000c 7B68     		ldr	r3, [r7, #4]
  44 000e 0021     		movs	r1, #0
  45 0010 1800     		movs	r0, r3
  46 0012 FFF7FEFF 		bl	memset
  77:Generated_Source\PSoC4/cyfitter_cfg.c **** }
  47              		.loc 1 77 0
  48 0016 C046     		nop
  49 0018 BD46     		mov	sp, r7
  50 001a 02B0     		add	sp, sp, #8
  51              		@ sp needed
  52 001c 80BD     		pop	{r7, pc}
  53              		.cfi_endproc
  54              	.LFE2:
  55              		.size	CYMEMZERO, .-CYMEMZERO
  56 001e C046     		.section	.text.CYCONFIGCPY,"ax",%progbits
  57              		.align	2
  58              		.code	16
  59              		.thumb_func
  60              		.type	CYCONFIGCPY, %function
  61              	CYCONFIGCPY:
  62              	.LFB3:
  78:Generated_Source\PSoC4/cyfitter_cfg.c **** CY_CFG_UNUSED
  79:Generated_Source\PSoC4/cyfitter_cfg.c **** static void CYCONFIGCPY(void *dest, const void *src, size_t n);
  80:Generated_Source\PSoC4/cyfitter_cfg.c **** CY_CFG_UNUSED
  81:Generated_Source\PSoC4/cyfitter_cfg.c **** static void CYCONFIGCPY(void *dest, const void *src, size_t n)
  82:Generated_Source\PSoC4/cyfitter_cfg.c **** {
  63              		.loc 1 82 0
  64              		.cfi_startproc
  65              		@ args = 0, pretend = 0, frame = 16
  66              		@ frame_needed = 1, uses_anonymous_args = 0
  67 0000 80B5     		push	{r7, lr}
  68              		.cfi_def_cfa_offset 8
  69              		.cfi_offset 7, -8
  70              		.cfi_offset 14, -4
  71 0002 84B0     		sub	sp, sp, #16
  72              		.cfi_def_cfa_offset 24
  73 0004 00AF     		add	r7, sp, #0
  74              		.cfi_def_cfa_register 7
  75 0006 F860     		str	r0, [r7, #12]
  76 0008 B960     		str	r1, [r7, #8]
  77 000a 7A60     		str	r2, [r7, #4]
  83:Generated_Source\PSoC4/cyfitter_cfg.c **** 	(void)memcpy(dest, src, n);
  78              		.loc 1 83 0
  79 000c 7A68     		ldr	r2, [r7, #4]
  80 000e B968     		ldr	r1, [r7, #8]
  81 0010 FB68     		ldr	r3, [r7, #12]
  82 0012 1800     		movs	r0, r3
  83 0014 FFF7FEFF 		bl	memcpy
  84:Generated_Source\PSoC4/cyfitter_cfg.c **** }
  84              		.loc 1 84 0
  85 0018 C046     		nop
  86 001a BD46     		mov	sp, r7
  87 001c 04B0     		add	sp, sp, #16
ARM GAS  C:\Users\Lucia\AppData\Local\Temp\cc4QZdth.s 			page 4


  88              		@ sp needed
  89 001e 80BD     		pop	{r7, pc}
  90              		.cfi_endproc
  91              	.LFE3:
  92              		.size	CYCONFIGCPY, .-CYCONFIGCPY
  93              		.section	.text.CYCONFIGCPYCODE,"ax",%progbits
  94              		.align	2
  95              		.code	16
  96              		.thumb_func
  97              		.type	CYCONFIGCPYCODE, %function
  98              	CYCONFIGCPYCODE:
  99              	.LFB4:
  85:Generated_Source\PSoC4/cyfitter_cfg.c **** CY_CFG_UNUSED
  86:Generated_Source\PSoC4/cyfitter_cfg.c **** static void CYCONFIGCPYCODE(void *dest, const void *src, size_t n);
  87:Generated_Source\PSoC4/cyfitter_cfg.c **** CY_CFG_UNUSED
  88:Generated_Source\PSoC4/cyfitter_cfg.c **** static void CYCONFIGCPYCODE(void *dest, const void *src, size_t n)
  89:Generated_Source\PSoC4/cyfitter_cfg.c **** {
 100              		.loc 1 89 0
 101              		.cfi_startproc
 102              		@ args = 0, pretend = 0, frame = 16
 103              		@ frame_needed = 1, uses_anonymous_args = 0
 104 0000 80B5     		push	{r7, lr}
 105              		.cfi_def_cfa_offset 8
 106              		.cfi_offset 7, -8
 107              		.cfi_offset 14, -4
 108 0002 84B0     		sub	sp, sp, #16
 109              		.cfi_def_cfa_offset 24
 110 0004 00AF     		add	r7, sp, #0
 111              		.cfi_def_cfa_register 7
 112 0006 F860     		str	r0, [r7, #12]
 113 0008 B960     		str	r1, [r7, #8]
 114 000a 7A60     		str	r2, [r7, #4]
  90:Generated_Source\PSoC4/cyfitter_cfg.c **** 	(void)memcpy(dest, src, n);
 115              		.loc 1 90 0
 116 000c 7A68     		ldr	r2, [r7, #4]
 117 000e B968     		ldr	r1, [r7, #8]
 118 0010 FB68     		ldr	r3, [r7, #12]
 119 0012 1800     		movs	r0, r3
 120 0014 FFF7FEFF 		bl	memcpy
  91:Generated_Source\PSoC4/cyfitter_cfg.c **** }
 121              		.loc 1 91 0
 122 0018 C046     		nop
 123 001a BD46     		mov	sp, r7
 124 001c 04B0     		add	sp, sp, #16
 125              		@ sp needed
 126 001e 80BD     		pop	{r7, pc}
 127              		.cfi_endproc
 128              	.LFE4:
 129              		.size	CYCONFIGCPYCODE, .-CYCONFIGCPYCODE
 130              		.section	.text.cfg_write_bytes32,"ax",%progbits
 131              		.align	2
 132              		.code	16
 133              		.thumb_func
 134              		.type	cfg_write_bytes32, %function
 135              	cfg_write_bytes32:
 136              	.LFB5:
  92:Generated_Source\PSoC4/cyfitter_cfg.c **** 
ARM GAS  C:\Users\Lucia\AppData\Local\Temp\cc4QZdth.s 			page 5


  93:Generated_Source\PSoC4/cyfitter_cfg.c **** 
  94:Generated_Source\PSoC4/cyfitter_cfg.c **** 
  95:Generated_Source\PSoC4/cyfitter_cfg.c **** 
  96:Generated_Source\PSoC4/cyfitter_cfg.c **** /* Clock startup error codes                                                   */
  97:Generated_Source\PSoC4/cyfitter_cfg.c **** #define CYCLOCKSTART_NO_ERROR    0u
  98:Generated_Source\PSoC4/cyfitter_cfg.c **** #define CYCLOCKSTART_XTAL_ERROR  1u
  99:Generated_Source\PSoC4/cyfitter_cfg.c **** #define CYCLOCKSTART_32KHZ_ERROR 2u
 100:Generated_Source\PSoC4/cyfitter_cfg.c **** #define CYCLOCKSTART_PLL_ERROR   3u
 101:Generated_Source\PSoC4/cyfitter_cfg.c **** #define CYCLOCKSTART_FLL_ERROR   4u
 102:Generated_Source\PSoC4/cyfitter_cfg.c **** #define CYCLOCKSTART_WCO_ERROR   5u
 103:Generated_Source\PSoC4/cyfitter_cfg.c **** 
 104:Generated_Source\PSoC4/cyfitter_cfg.c **** 
 105:Generated_Source\PSoC4/cyfitter_cfg.c **** #ifdef CY_NEED_CYCLOCKSTARTUPERROR
 106:Generated_Source\PSoC4/cyfitter_cfg.c **** /*******************************************************************************
 107:Generated_Source\PSoC4/cyfitter_cfg.c **** * Function Name: CyClockStartupError
 108:Generated_Source\PSoC4/cyfitter_cfg.c **** ********************************************************************************
 109:Generated_Source\PSoC4/cyfitter_cfg.c **** * Summary:
 110:Generated_Source\PSoC4/cyfitter_cfg.c **** *  If an error is encountered during clock configuration (crystal startup error,
 111:Generated_Source\PSoC4/cyfitter_cfg.c **** *  PLL lock error, etc.), the system will end up here.  Unless reimplemented by
 112:Generated_Source\PSoC4/cyfitter_cfg.c **** *  the customer, this function will stop in an infinite loop.
 113:Generated_Source\PSoC4/cyfitter_cfg.c **** *
 114:Generated_Source\PSoC4/cyfitter_cfg.c **** * Parameters:
 115:Generated_Source\PSoC4/cyfitter_cfg.c **** *   void
 116:Generated_Source\PSoC4/cyfitter_cfg.c **** *
 117:Generated_Source\PSoC4/cyfitter_cfg.c **** * Return:
 118:Generated_Source\PSoC4/cyfitter_cfg.c **** *   void
 119:Generated_Source\PSoC4/cyfitter_cfg.c **** *
 120:Generated_Source\PSoC4/cyfitter_cfg.c **** *******************************************************************************/
 121:Generated_Source\PSoC4/cyfitter_cfg.c **** CY_CFG_UNUSED
 122:Generated_Source\PSoC4/cyfitter_cfg.c **** static void CyClockStartupError(uint8 errorCode);
 123:Generated_Source\PSoC4/cyfitter_cfg.c **** CY_CFG_UNUSED
 124:Generated_Source\PSoC4/cyfitter_cfg.c **** static void CyClockStartupError(uint8 errorCode)
 125:Generated_Source\PSoC4/cyfitter_cfg.c **** {
 126:Generated_Source\PSoC4/cyfitter_cfg.c ****     /* To remove the compiler warning if errorCode not used.                */
 127:Generated_Source\PSoC4/cyfitter_cfg.c ****     errorCode = errorCode;
 128:Generated_Source\PSoC4/cyfitter_cfg.c **** 
 129:Generated_Source\PSoC4/cyfitter_cfg.c ****     /* If we have a clock startup error (bad MHz crystal, PLL lock, etc.),  */
 130:Generated_Source\PSoC4/cyfitter_cfg.c ****     /* we will end up here to allow the customer to implement something to  */
 131:Generated_Source\PSoC4/cyfitter_cfg.c ****     /* deal with the clock condition.                                       */
 132:Generated_Source\PSoC4/cyfitter_cfg.c **** 
 133:Generated_Source\PSoC4/cyfitter_cfg.c **** #ifdef CY_CFG_CLOCK_STARTUP_ERROR_CALLBACK
 134:Generated_Source\PSoC4/cyfitter_cfg.c ****     CY_CFG_Clock_Startup_ErrorCallback();
 135:Generated_Source\PSoC4/cyfitter_cfg.c **** #else
 136:Generated_Source\PSoC4/cyfitter_cfg.c ****     /*  If not using CY_CFG_CLOCK_STARTUP_ERROR_CALLBACK, place your clock startup code here. */
 137:Generated_Source\PSoC4/cyfitter_cfg.c ****     /* `#START CyClockStartupError` */
 138:Generated_Source\PSoC4/cyfitter_cfg.c **** 
 139:Generated_Source\PSoC4/cyfitter_cfg.c **** 
 140:Generated_Source\PSoC4/cyfitter_cfg.c **** 
 141:Generated_Source\PSoC4/cyfitter_cfg.c ****     /* `#END` */
 142:Generated_Source\PSoC4/cyfitter_cfg.c **** 
 143:Generated_Source\PSoC4/cyfitter_cfg.c ****     while(1) {}
 144:Generated_Source\PSoC4/cyfitter_cfg.c **** #endif /* CY_CFG_CLOCK_STARTUP_ERROR_CALLBACK */
 145:Generated_Source\PSoC4/cyfitter_cfg.c **** }
 146:Generated_Source\PSoC4/cyfitter_cfg.c **** #endif
 147:Generated_Source\PSoC4/cyfitter_cfg.c **** 
 148:Generated_Source\PSoC4/cyfitter_cfg.c **** #define CY_CFG_BASE_ADDR_COUNT 4u
 149:Generated_Source\PSoC4/cyfitter_cfg.c **** CYPACKED typedef struct
ARM GAS  C:\Users\Lucia\AppData\Local\Temp\cc4QZdth.s 			page 6


 150:Generated_Source\PSoC4/cyfitter_cfg.c **** {
 151:Generated_Source\PSoC4/cyfitter_cfg.c **** 	uint8 offset;
 152:Generated_Source\PSoC4/cyfitter_cfg.c **** 	uint8 value;
 153:Generated_Source\PSoC4/cyfitter_cfg.c **** } CYPACKED_ATTR cy_cfg_addrvalue_t;
 154:Generated_Source\PSoC4/cyfitter_cfg.c **** 
 155:Generated_Source\PSoC4/cyfitter_cfg.c **** 
 156:Generated_Source\PSoC4/cyfitter_cfg.c **** 
 157:Generated_Source\PSoC4/cyfitter_cfg.c **** /*******************************************************************************
 158:Generated_Source\PSoC4/cyfitter_cfg.c **** * Function Name: cfg_write_bytes32
 159:Generated_Source\PSoC4/cyfitter_cfg.c **** ********************************************************************************
 160:Generated_Source\PSoC4/cyfitter_cfg.c **** * Summary:
 161:Generated_Source\PSoC4/cyfitter_cfg.c **** *  This function is used for setting up the chip configuration areas that
 162:Generated_Source\PSoC4/cyfitter_cfg.c **** *  contain relatively sparse data.
 163:Generated_Source\PSoC4/cyfitter_cfg.c **** *
 164:Generated_Source\PSoC4/cyfitter_cfg.c **** * Parameters:
 165:Generated_Source\PSoC4/cyfitter_cfg.c **** *   void
 166:Generated_Source\PSoC4/cyfitter_cfg.c **** *
 167:Generated_Source\PSoC4/cyfitter_cfg.c **** * Return:
 168:Generated_Source\PSoC4/cyfitter_cfg.c **** *   void
 169:Generated_Source\PSoC4/cyfitter_cfg.c **** *
 170:Generated_Source\PSoC4/cyfitter_cfg.c **** *******************************************************************************/
 171:Generated_Source\PSoC4/cyfitter_cfg.c **** static void cfg_write_bytes32(const uint32 addr_table[], const cy_cfg_addrvalue_t data_table[]);
 172:Generated_Source\PSoC4/cyfitter_cfg.c **** static void cfg_write_bytes32(const uint32 addr_table[], const cy_cfg_addrvalue_t data_table[])
 173:Generated_Source\PSoC4/cyfitter_cfg.c **** {
 137              		.loc 1 173 0
 138              		.cfi_startproc
 139              		@ args = 0, pretend = 0, frame = 24
 140              		@ frame_needed = 1, uses_anonymous_args = 0
 141 0000 80B5     		push	{r7, lr}
 142              		.cfi_def_cfa_offset 8
 143              		.cfi_offset 7, -8
 144              		.cfi_offset 14, -4
 145 0002 86B0     		sub	sp, sp, #24
 146              		.cfi_def_cfa_offset 32
 147 0004 00AF     		add	r7, sp, #0
 148              		.cfi_def_cfa_register 7
 149 0006 7860     		str	r0, [r7, #4]
 150 0008 3960     		str	r1, [r7]
 174:Generated_Source\PSoC4/cyfitter_cfg.c **** 	/* For 32-bit little-endian architectures */
 175:Generated_Source\PSoC4/cyfitter_cfg.c **** 	uint32 i, j = 0u;
 151              		.loc 1 175 0
 152 000a 0023     		movs	r3, #0
 153 000c 3B61     		str	r3, [r7, #16]
 176:Generated_Source\PSoC4/cyfitter_cfg.c **** 	for (i = 0u; i < CY_CFG_BASE_ADDR_COUNT; i++)
 154              		.loc 1 176 0
 155 000e 0023     		movs	r3, #0
 156 0010 7B61     		str	r3, [r7, #20]
 157 0012 2FE0     		b	.L5
 158              	.L8:
 159              	.LBB2:
 177:Generated_Source\PSoC4/cyfitter_cfg.c **** 	{
 178:Generated_Source\PSoC4/cyfitter_cfg.c **** 		uint32 baseAddr = addr_table[i];
 160              		.loc 1 178 0
 161 0014 7B69     		ldr	r3, [r7, #20]
 162 0016 9B00     		lsls	r3, r3, #2
 163 0018 7A68     		ldr	r2, [r7, #4]
 164 001a D318     		adds	r3, r2, r3
ARM GAS  C:\Users\Lucia\AppData\Local\Temp\cc4QZdth.s 			page 7


 165 001c 1B68     		ldr	r3, [r3]
 166 001e BB60     		str	r3, [r7, #8]
 179:Generated_Source\PSoC4/cyfitter_cfg.c **** 		uint8 count = (uint8)baseAddr;
 167              		.loc 1 179 0
 168 0020 0F23     		movs	r3, #15
 169 0022 FB18     		adds	r3, r7, r3
 170 0024 BA68     		ldr	r2, [r7, #8]
 171 0026 1A70     		strb	r2, [r3]
 180:Generated_Source\PSoC4/cyfitter_cfg.c **** 		baseAddr &= 0xFFFFFF00u;
 172              		.loc 1 180 0
 173 0028 BB68     		ldr	r3, [r7, #8]
 174 002a FF22     		movs	r2, #255
 175 002c 9343     		bics	r3, r2
 176 002e BB60     		str	r3, [r7, #8]
 181:Generated_Source\PSoC4/cyfitter_cfg.c **** 		while (count != 0u)
 177              		.loc 1 181 0
 178 0030 18E0     		b	.L6
 179              	.L7:
 182:Generated_Source\PSoC4/cyfitter_cfg.c **** 		{
 183:Generated_Source\PSoC4/cyfitter_cfg.c **** 			CY_SET_REG8((void *)(baseAddr + data_table[j].offset), data_table[j].value);
 180              		.loc 1 183 0
 181 0032 3B69     		ldr	r3, [r7, #16]
 182 0034 5B00     		lsls	r3, r3, #1
 183 0036 3A68     		ldr	r2, [r7]
 184 0038 D318     		adds	r3, r2, r3
 185 003a 1B78     		ldrb	r3, [r3]
 186 003c 1A00     		movs	r2, r3
 187 003e BB68     		ldr	r3, [r7, #8]
 188 0040 D318     		adds	r3, r2, r3
 189 0042 1900     		movs	r1, r3
 190 0044 3B69     		ldr	r3, [r7, #16]
 191 0046 5B00     		lsls	r3, r3, #1
 192 0048 3A68     		ldr	r2, [r7]
 193 004a D318     		adds	r3, r2, r3
 194 004c 5B78     		ldrb	r3, [r3, #1]
 195 004e 0B70     		strb	r3, [r1]
 184:Generated_Source\PSoC4/cyfitter_cfg.c **** 			j++;
 196              		.loc 1 184 0
 197 0050 3B69     		ldr	r3, [r7, #16]
 198 0052 0133     		adds	r3, r3, #1
 199 0054 3B61     		str	r3, [r7, #16]
 185:Generated_Source\PSoC4/cyfitter_cfg.c **** 			count--;
 200              		.loc 1 185 0
 201 0056 0F23     		movs	r3, #15
 202 0058 FB18     		adds	r3, r7, r3
 203 005a 1A78     		ldrb	r2, [r3]
 204 005c 0F23     		movs	r3, #15
 205 005e FB18     		adds	r3, r7, r3
 206 0060 013A     		subs	r2, r2, #1
 207 0062 1A70     		strb	r2, [r3]
 208              	.L6:
 181:Generated_Source\PSoC4/cyfitter_cfg.c **** 		{
 209              		.loc 1 181 0
 210 0064 0F23     		movs	r3, #15
 211 0066 FB18     		adds	r3, r7, r3
 212 0068 1B78     		ldrb	r3, [r3]
 213 006a 002B     		cmp	r3, #0
ARM GAS  C:\Users\Lucia\AppData\Local\Temp\cc4QZdth.s 			page 8


 214 006c E1D1     		bne	.L7
 215              	.LBE2:
 176:Generated_Source\PSoC4/cyfitter_cfg.c **** 	{
 216              		.loc 1 176 0 discriminator 2
 217 006e 7B69     		ldr	r3, [r7, #20]
 218 0070 0133     		adds	r3, r3, #1
 219 0072 7B61     		str	r3, [r7, #20]
 220              	.L5:
 176:Generated_Source\PSoC4/cyfitter_cfg.c **** 	{
 221              		.loc 1 176 0 is_stmt 0 discriminator 1
 222 0074 7B69     		ldr	r3, [r7, #20]
 223 0076 032B     		cmp	r3, #3
 224 0078 CCD9     		bls	.L8
 186:Generated_Source\PSoC4/cyfitter_cfg.c **** 		}
 187:Generated_Source\PSoC4/cyfitter_cfg.c **** 	}
 188:Generated_Source\PSoC4/cyfitter_cfg.c **** }
 225              		.loc 1 188 0 is_stmt 1
 226 007a C046     		nop
 227 007c BD46     		mov	sp, r7
 228 007e 06B0     		add	sp, sp, #24
 229              		@ sp needed
 230 0080 80BD     		pop	{r7, pc}
 231              		.cfi_endproc
 232              	.LFE5:
 233              		.size	cfg_write_bytes32, .-cfg_write_bytes32
 234 0082 C046     		.section	.psocinit,"ax",%progbits
 235              		.align	2
 236              		.code	16
 237              		.thumb_func
 238              		.type	ClockSetup, %function
 239              	ClockSetup:
 240              	.LFB6:
 189:Generated_Source\PSoC4/cyfitter_cfg.c **** 
 190:Generated_Source\PSoC4/cyfitter_cfg.c **** 
 191:Generated_Source\PSoC4/cyfitter_cfg.c **** /*******************************************************************************
 192:Generated_Source\PSoC4/cyfitter_cfg.c **** * Function Name: ClockSetup
 193:Generated_Source\PSoC4/cyfitter_cfg.c **** ********************************************************************************
 194:Generated_Source\PSoC4/cyfitter_cfg.c **** *
 195:Generated_Source\PSoC4/cyfitter_cfg.c **** * Summary:
 196:Generated_Source\PSoC4/cyfitter_cfg.c **** *   Performs the initialization of all of the clocks in the device based on the
 197:Generated_Source\PSoC4/cyfitter_cfg.c **** *   settings in the Clock tab of the DWR.  This includes enabling the requested
 198:Generated_Source\PSoC4/cyfitter_cfg.c **** *   clocks and setting the necessary dividers to produce the desired frequency. 
 199:Generated_Source\PSoC4/cyfitter_cfg.c **** *
 200:Generated_Source\PSoC4/cyfitter_cfg.c **** * Parameters:
 201:Generated_Source\PSoC4/cyfitter_cfg.c **** *   void
 202:Generated_Source\PSoC4/cyfitter_cfg.c **** *
 203:Generated_Source\PSoC4/cyfitter_cfg.c **** * Return:
 204:Generated_Source\PSoC4/cyfitter_cfg.c **** *   void
 205:Generated_Source\PSoC4/cyfitter_cfg.c **** *
 206:Generated_Source\PSoC4/cyfitter_cfg.c **** *******************************************************************************/
 207:Generated_Source\PSoC4/cyfitter_cfg.c **** static void ClockSetup(void);
 208:Generated_Source\PSoC4/cyfitter_cfg.c **** CY_CFG_SECTION
 209:Generated_Source\PSoC4/cyfitter_cfg.c **** static void ClockSetup(void)
 210:Generated_Source\PSoC4/cyfitter_cfg.c **** {
 241              		.loc 1 210 0
 242              		.cfi_startproc
 243              		@ args = 0, pretend = 0, frame = 0
ARM GAS  C:\Users\Lucia\AppData\Local\Temp\cc4QZdth.s 			page 9


 244              		@ frame_needed = 1, uses_anonymous_args = 0
 245 0000 80B5     		push	{r7, lr}
 246              		.cfi_def_cfa_offset 8
 247              		.cfi_offset 7, -8
 248              		.cfi_offset 14, -4
 249 0002 00AF     		add	r7, sp, #0
 250              		.cfi_def_cfa_register 7
 211:Generated_Source\PSoC4/cyfitter_cfg.c **** 
 212:Generated_Source\PSoC4/cyfitter_cfg.c **** 	/* Set Flash Cycles based on max possible frequency in case a glitch occurs during ClockSetup(). *
 213:Generated_Source\PSoC4/cyfitter_cfg.c **** 	CY_SET_REG32((void CYXDATA *)(CYREG_CPUSS_FLASH_CTL), (0x0012u));
 251              		.loc 1 213 0
 252 0004 2E4B     		ldr	r3, .L10
 253 0006 1222     		movs	r2, #18
 254 0008 1A60     		str	r2, [r3]
 214:Generated_Source\PSoC4/cyfitter_cfg.c **** 
 215:Generated_Source\PSoC4/cyfitter_cfg.c **** 	/* Start the WCO */
 216:Generated_Source\PSoC4/cyfitter_cfg.c **** 	CySysClkWcoStart();
 255              		.loc 1 216 0
 256 000a FFF7FEFF 		bl	CySysClkWcoStart
 217:Generated_Source\PSoC4/cyfitter_cfg.c **** 	CyDelayCycles(12000000u); /* WCO may take up to 500ms to start */
 257              		.loc 1 217 0
 258 000e 2D4B     		ldr	r3, .L10+4
 259 0010 1800     		movs	r0, r3
 260 0012 FFF7FEFF 		bl	CyDelayCycles
 218:Generated_Source\PSoC4/cyfitter_cfg.c **** 	(void)CySysClkWcoSetPowerMode(CY_SYS_CLK_WCO_LPM);    /* Switch to the low power mode */
 261              		.loc 1 218 0
 262 0016 0120     		movs	r0, #1
 263 0018 FFF7FEFF 		bl	CySysClkWcoSetPowerMode
 219:Generated_Source\PSoC4/cyfitter_cfg.c **** 
 220:Generated_Source\PSoC4/cyfitter_cfg.c **** 	/* Setup and trim IMO based on desired frequency. */
 221:Generated_Source\PSoC4/cyfitter_cfg.c **** 	CySysClkWriteImoFreq(48u);
 264              		.loc 1 221 0
 265 001c 3020     		movs	r0, #48
 266 001e FFF7FEFF 		bl	CySysClkWriteImoFreq
 222:Generated_Source\PSoC4/cyfitter_cfg.c **** 	/* CYDEV_CLK_ILO_CONFIG Starting address: CYDEV_CLK_ILO_CONFIG */
 223:Generated_Source\PSoC4/cyfitter_cfg.c **** 	CY_SET_REG32((void *)(CYREG_CLK_ILO_CONFIG), 0x80000006u);
 267              		.loc 1 223 0
 268 0022 294B     		ldr	r3, .L10+8
 269 0024 294A     		ldr	r2, .L10+12
 270 0026 1A60     		str	r2, [r3]
 224:Generated_Source\PSoC4/cyfitter_cfg.c **** 
 225:Generated_Source\PSoC4/cyfitter_cfg.c **** 	/* CYDEV_WDT_CONFIG Starting address: CYDEV_WDT_CONFIG */
 226:Generated_Source\PSoC4/cyfitter_cfg.c **** 	CY_SET_REG32((void *)(CYREG_WDT_CONFIG), 0x40000000u);
 271              		.loc 1 226 0
 272 0028 294B     		ldr	r3, .L10+16
 273 002a 8022     		movs	r2, #128
 274 002c D205     		lsls	r2, r2, #23
 275 002e 1A60     		str	r2, [r3]
 227:Generated_Source\PSoC4/cyfitter_cfg.c **** 
 228:Generated_Source\PSoC4/cyfitter_cfg.c **** 
 229:Generated_Source\PSoC4/cyfitter_cfg.c **** 	/* Enable fast start mode for XO */
 230:Generated_Source\PSoC4/cyfitter_cfg.c **** 	CY_SET_REG32((void*)CYREG_BLE_BLERD_BB_XO, CY_GET_REG32((void*)CYREG_BLE_BLERD_BB_XO) | (uint32)0x
 276              		.loc 1 230 0
 277 0030 284B     		ldr	r3, .L10+20
 278 0032 284A     		ldr	r2, .L10+20
 279 0034 1268     		ldr	r2, [r2]
 280 0036 0221     		movs	r1, #2
ARM GAS  C:\Users\Lucia\AppData\Local\Temp\cc4QZdth.s 			page 10


 281 0038 0A43     		orrs	r2, r1
 282 003a 1A60     		str	r2, [r3]
 231:Generated_Source\PSoC4/cyfitter_cfg.c **** 	CY_SET_REG32((void *)(CYREG_BLE_BLERD_BB_XO_CAPTRIM), 0x00002D6Au);
 283              		.loc 1 231 0
 284 003c 264B     		ldr	r3, .L10+24
 285 003e 274A     		ldr	r2, .L10+28
 286 0040 1A60     		str	r2, [r3]
 232:Generated_Source\PSoC4/cyfitter_cfg.c **** 	/*Set XTAL(ECO) divider*/
 233:Generated_Source\PSoC4/cyfitter_cfg.c **** 	CY_SET_REG32((void *)(CYREG_BLE_BLESS_XTAL_CLK_DIV_CONFIG), 0x00000000u);
 287              		.loc 1 233 0
 288 0042 274B     		ldr	r3, .L10+32
 289 0044 0022     		movs	r2, #0
 290 0046 1A60     		str	r2, [r3]
 234:Generated_Source\PSoC4/cyfitter_cfg.c **** 	/* Disable Crystal Stable Interrupt before enabling ECO */
 235:Generated_Source\PSoC4/cyfitter_cfg.c **** 	CY_SET_REG32((void*)CYREG_BLE_BLESS_LL_DSM_CTRL, CY_GET_REG32((void*)CYREG_BLE_BLESS_LL_DSM_CTRL) 
 291              		.loc 1 235 0
 292 0048 264B     		ldr	r3, .L10+36
 293 004a 264A     		ldr	r2, .L10+36
 294 004c 1268     		ldr	r2, [r2]
 295 004e 0821     		movs	r1, #8
 296 0050 8A43     		bics	r2, r1
 297 0052 1A60     		str	r2, [r3]
 236:Generated_Source\PSoC4/cyfitter_cfg.c **** 	/* Start the ECO and do not check status since it is not needed for HFCLK */
 237:Generated_Source\PSoC4/cyfitter_cfg.c **** 	(void)CySysClkEcoStart(2000u);
 298              		.loc 1 237 0
 299 0054 FA23     		movs	r3, #250
 300 0056 DB00     		lsls	r3, r3, #3
 301 0058 1800     		movs	r0, r3
 302 005a FFF7FEFF 		bl	CySysClkEcoStart
 238:Generated_Source\PSoC4/cyfitter_cfg.c **** 	CyDelayUs(1500u); /* Wait to stabilize */
 303              		.loc 1 238 0
 304 005e 224B     		ldr	r3, .L10+40
 305 0060 1800     		movs	r0, r3
 306 0062 FFF7FEFF 		bl	CyDelayUs
 239:Generated_Source\PSoC4/cyfitter_cfg.c **** 
 240:Generated_Source\PSoC4/cyfitter_cfg.c **** 	/* Setup phase aligned clocks */
 241:Generated_Source\PSoC4/cyfitter_cfg.c **** 	CY_SET_REG32((void *)CYREG_PERI_DIV_16_CTL0, 0x0000FE00u);
 307              		.loc 1 241 0
 308 0066 214B     		ldr	r3, .L10+44
 309 0068 FE22     		movs	r2, #254
 310 006a 1202     		lsls	r2, r2, #8
 311 006c 1A60     		str	r2, [r3]
 242:Generated_Source\PSoC4/cyfitter_cfg.c **** 	CY_SET_REG32((void *)CYREG_PERI_DIV_CMD, 0x8000FF40u);
 312              		.loc 1 242 0
 313 006e 204B     		ldr	r3, .L10+48
 314 0070 204A     		ldr	r2, .L10+52
 315 0072 1A60     		str	r2, [r3]
 243:Generated_Source\PSoC4/cyfitter_cfg.c **** 	CY_SET_REG32((void *)CYREG_PERI_DIV_16_CTL1, 0x0000FE00u);
 316              		.loc 1 243 0
 317 0074 204B     		ldr	r3, .L10+56
 318 0076 FE22     		movs	r2, #254
 319 0078 1202     		lsls	r2, r2, #8
 320 007a 1A60     		str	r2, [r3]
 244:Generated_Source\PSoC4/cyfitter_cfg.c **** 	CY_SET_REG32((void *)CYREG_PERI_DIV_CMD, 0x8000FF41u);
 321              		.loc 1 244 0
 322 007c 1C4B     		ldr	r3, .L10+48
 323 007e 1F4A     		ldr	r2, .L10+60
ARM GAS  C:\Users\Lucia\AppData\Local\Temp\cc4QZdth.s 			page 11


 324 0080 1A60     		str	r2, [r3]
 245:Generated_Source\PSoC4/cyfitter_cfg.c **** 	CY_SET_REG32((void *)CYREG_PERI_DIV_16_CTL2, 0x00001900u);
 325              		.loc 1 245 0
 326 0082 1F4B     		ldr	r3, .L10+64
 327 0084 C822     		movs	r2, #200
 328 0086 5201     		lsls	r2, r2, #5
 329 0088 1A60     		str	r2, [r3]
 246:Generated_Source\PSoC4/cyfitter_cfg.c **** 	CY_SET_REG32((void *)CYREG_PERI_DIV_CMD, 0x8000FF42u);
 330              		.loc 1 246 0
 331 008a 194B     		ldr	r3, .L10+48
 332 008c 1D4A     		ldr	r2, .L10+68
 333 008e 1A60     		str	r2, [r3]
 247:Generated_Source\PSoC4/cyfitter_cfg.c **** 
 248:Generated_Source\PSoC4/cyfitter_cfg.c **** 	/* CYDEV_CLK_IMO_CONFIG Starting address: CYDEV_CLK_IMO_CONFIG */
 249:Generated_Source\PSoC4/cyfitter_cfg.c **** 	CY_SET_REG32((void *)(CYREG_CLK_IMO_CONFIG), 0x80000000u);
 334              		.loc 1 249 0
 335 0090 1D4B     		ldr	r3, .L10+72
 336 0092 8022     		movs	r2, #128
 337 0094 1206     		lsls	r2, r2, #24
 338 0096 1A60     		str	r2, [r3]
 250:Generated_Source\PSoC4/cyfitter_cfg.c **** 
 251:Generated_Source\PSoC4/cyfitter_cfg.c **** 	/* CYDEV_CLK_SELECT Starting address: CYDEV_CLK_SELECT */
 252:Generated_Source\PSoC4/cyfitter_cfg.c **** 	CY_SET_REG32((void *)(CYREG_CLK_SELECT), 0x00040000u);
 339              		.loc 1 252 0
 340 0098 1C4B     		ldr	r3, .L10+76
 341 009a 8022     		movs	r2, #128
 342 009c D202     		lsls	r2, r2, #11
 343 009e 1A60     		str	r2, [r3]
 253:Generated_Source\PSoC4/cyfitter_cfg.c **** 
 254:Generated_Source\PSoC4/cyfitter_cfg.c **** 	/* CYDEV_PERI_PCLK_CTL5 Starting address: CYDEV_PERI_PCLK_CTL5 */
 255:Generated_Source\PSoC4/cyfitter_cfg.c **** 	CY_SET_REG32((void *)(CYREG_PERI_PCLK_CTL5), 0x00000040u);
 344              		.loc 1 255 0
 345 00a0 1B4B     		ldr	r3, .L10+80
 346 00a2 4022     		movs	r2, #64
 347 00a4 1A60     		str	r2, [r3]
 256:Generated_Source\PSoC4/cyfitter_cfg.c **** 
 257:Generated_Source\PSoC4/cyfitter_cfg.c **** 	/* CYDEV_PERI_PCLK_CTL4 Starting address: CYDEV_PERI_PCLK_CTL4 */
 258:Generated_Source\PSoC4/cyfitter_cfg.c **** 	CY_SET_REG32((void *)(CYREG_PERI_PCLK_CTL4), 0x00000041u);
 348              		.loc 1 258 0
 349 00a6 1B4B     		ldr	r3, .L10+84
 350 00a8 4122     		movs	r2, #65
 351 00aa 1A60     		str	r2, [r3]
 259:Generated_Source\PSoC4/cyfitter_cfg.c **** 
 260:Generated_Source\PSoC4/cyfitter_cfg.c **** 	/* CYDEV_PERI_PCLK_CTL1 Starting address: CYDEV_PERI_PCLK_CTL1 */
 261:Generated_Source\PSoC4/cyfitter_cfg.c **** 	CY_SET_REG32((void *)(CYREG_PERI_PCLK_CTL1), 0x00000042u);
 352              		.loc 1 261 0
 353 00ac 1A4B     		ldr	r3, .L10+88
 354 00ae 4222     		movs	r2, #66
 355 00b0 1A60     		str	r2, [r3]
 262:Generated_Source\PSoC4/cyfitter_cfg.c **** 
 263:Generated_Source\PSoC4/cyfitter_cfg.c **** 	CY_SET_REG32((void *)(CYREG_WDT_CONFIG), 0x40000000u);
 356              		.loc 1 263 0
 357 00b2 074B     		ldr	r3, .L10+16
 358 00b4 8022     		movs	r2, #128
 359 00b6 D205     		lsls	r2, r2, #23
 360 00b8 1A60     		str	r2, [r3]
 264:Generated_Source\PSoC4/cyfitter_cfg.c **** }
ARM GAS  C:\Users\Lucia\AppData\Local\Temp\cc4QZdth.s 			page 12


 361              		.loc 1 264 0
 362 00ba C046     		nop
 363 00bc BD46     		mov	sp, r7
 364              		@ sp needed
 365 00be 80BD     		pop	{r7, pc}
 366              	.L11:
 367              		.align	2
 368              	.L10:
 369 00c0 30001040 		.word	1074790448
 370 00c4 001BB700 		.word	12000000
 371 00c8 04010B40 		.word	1074462980
 372 00cc 06000080 		.word	-2147483642
 373 00d0 0C020B40 		.word	1074463244
 374 00d4 78002E40 		.word	1076756600
 375 00d8 7C002E40 		.word	1076756604
 376 00dc 6A2D0000 		.word	11626
 377 00e0 64F02E40 		.word	1076818020
 378 00e4 6CF02E40 		.word	1076818028
 379 00e8 DC050000 		.word	1500
 380 00ec 00030140 		.word	1073808128
 381 00f0 00000140 		.word	1073807360
 382 00f4 40FF0080 		.word	-2147418304
 383 00f8 04030140 		.word	1073808132
 384 00fc 41FF0080 		.word	-2147418303
 385 0100 08030140 		.word	1073808136
 386 0104 42FF0080 		.word	-2147418302
 387 0108 08010B40 		.word	1074462984
 388 010c 00010B40 		.word	1074462976
 389 0110 14010140 		.word	1073807636
 390 0114 10010140 		.word	1073807632
 391 0118 04010140 		.word	1073807620
 392              		.cfi_endproc
 393              	.LFE6:
 394              		.size	ClockSetup, .-ClockSetup
 395              		.section	.text.AnalogSetDefault,"ax",%progbits
 396              		.align	2
 397              		.code	16
 398              		.thumb_func
 399              		.type	AnalogSetDefault, %function
 400              	AnalogSetDefault:
 401              	.LFB7:
 265:Generated_Source\PSoC4/cyfitter_cfg.c **** 
 266:Generated_Source\PSoC4/cyfitter_cfg.c **** 
 267:Generated_Source\PSoC4/cyfitter_cfg.c **** /* Analog API Functions */
 268:Generated_Source\PSoC4/cyfitter_cfg.c **** 
 269:Generated_Source\PSoC4/cyfitter_cfg.c **** 
 270:Generated_Source\PSoC4/cyfitter_cfg.c **** /*******************************************************************************
 271:Generated_Source\PSoC4/cyfitter_cfg.c **** * Function Name: AnalogSetDefault
 272:Generated_Source\PSoC4/cyfitter_cfg.c **** ********************************************************************************
 273:Generated_Source\PSoC4/cyfitter_cfg.c **** *
 274:Generated_Source\PSoC4/cyfitter_cfg.c **** * Summary:
 275:Generated_Source\PSoC4/cyfitter_cfg.c **** *  Sets up the analog portions of the chip to default values based on chip
 276:Generated_Source\PSoC4/cyfitter_cfg.c **** *  configuration options from the project.
 277:Generated_Source\PSoC4/cyfitter_cfg.c **** *
 278:Generated_Source\PSoC4/cyfitter_cfg.c **** * Parameters:
 279:Generated_Source\PSoC4/cyfitter_cfg.c **** *  void
 280:Generated_Source\PSoC4/cyfitter_cfg.c **** *
ARM GAS  C:\Users\Lucia\AppData\Local\Temp\cc4QZdth.s 			page 13


 281:Generated_Source\PSoC4/cyfitter_cfg.c **** * Return:
 282:Generated_Source\PSoC4/cyfitter_cfg.c **** *  void
 283:Generated_Source\PSoC4/cyfitter_cfg.c **** *
 284:Generated_Source\PSoC4/cyfitter_cfg.c **** *******************************************************************************/
 285:Generated_Source\PSoC4/cyfitter_cfg.c **** static void AnalogSetDefault(void);
 286:Generated_Source\PSoC4/cyfitter_cfg.c **** static void AnalogSetDefault(void)
 287:Generated_Source\PSoC4/cyfitter_cfg.c **** {
 402              		.loc 1 287 0
 403              		.cfi_startproc
 404              		@ args = 0, pretend = 0, frame = 0
 405              		@ frame_needed = 1, uses_anonymous_args = 0
 406 0000 80B5     		push	{r7, lr}
 407              		.cfi_def_cfa_offset 8
 408              		.cfi_offset 7, -8
 409              		.cfi_offset 14, -4
 410 0002 00AF     		add	r7, sp, #0
 411              		.cfi_def_cfa_register 7
 288:Generated_Source\PSoC4/cyfitter_cfg.c **** 	CY_SET_XTND_REG32((void CYFAR *)CYREG_CTBM0_DFT_CTRL, 0x00000003u);
 412              		.loc 1 288 0
 413 0004 074B     		ldr	r3, .L13
 414 0006 0322     		movs	r2, #3
 415 0008 1A60     		str	r2, [r3]
 289:Generated_Source\PSoC4/cyfitter_cfg.c **** 	CY_SET_XTND_REG32((void CYFAR *)CYREG_CTBM1_DFT_CTRL, 0x00000003u);
 416              		.loc 1 289 0
 417 000a 074B     		ldr	r3, .L13+4
 418 000c 0322     		movs	r2, #3
 419 000e 1A60     		str	r2, [r3]
 290:Generated_Source\PSoC4/cyfitter_cfg.c **** 	CY_SET_XTND_REG32((void CYFAR *)CYREG_PASS_DSAB_DSAB_CTRL, 0x00000000u);
 420              		.loc 1 290 0
 421 0010 064B     		ldr	r3, .L13+8
 422 0012 0022     		movs	r2, #0
 423 0014 1A60     		str	r2, [r3]
 291:Generated_Source\PSoC4/cyfitter_cfg.c **** 	SetAnalogRoutingPumps(1);
 424              		.loc 1 291 0
 425 0016 0120     		movs	r0, #1
 426 0018 FFF7FEFF 		bl	SetAnalogRoutingPumps
 292:Generated_Source\PSoC4/cyfitter_cfg.c **** }
 427              		.loc 1 292 0
 428 001c C046     		nop
 429 001e BD46     		mov	sp, r7
 430              		@ sp needed
 431 0020 80BD     		pop	{r7, pc}
 432              	.L14:
 433 0022 C046     		.align	2
 434              	.L13:
 435 0024 30003040 		.word	1076887600
 436 0028 30003140 		.word	1076953136
 437 002c 000E3F40 		.word	1077874176
 438              		.cfi_endproc
 439              	.LFE7:
 440              		.size	AnalogSetDefault, .-AnalogSetDefault
 441              		.section	.text.SetAnalogRoutingPumps,"ax",%progbits
 442              		.align	2
 443              		.global	SetAnalogRoutingPumps
 444              		.code	16
 445              		.thumb_func
 446              		.type	SetAnalogRoutingPumps, %function
ARM GAS  C:\Users\Lucia\AppData\Local\Temp\cc4QZdth.s 			page 14


 447              	SetAnalogRoutingPumps:
 448              	.LFB8:
 293:Generated_Source\PSoC4/cyfitter_cfg.c **** 
 294:Generated_Source\PSoC4/cyfitter_cfg.c **** 
 295:Generated_Source\PSoC4/cyfitter_cfg.c **** /*******************************************************************************
 296:Generated_Source\PSoC4/cyfitter_cfg.c **** * Function Name: SetAnalogRoutingPumps
 297:Generated_Source\PSoC4/cyfitter_cfg.c **** ********************************************************************************
 298:Generated_Source\PSoC4/cyfitter_cfg.c **** *
 299:Generated_Source\PSoC4/cyfitter_cfg.c **** * Summary:
 300:Generated_Source\PSoC4/cyfitter_cfg.c **** * Enables or disables the analog pumps feeding analog routing switches.
 301:Generated_Source\PSoC4/cyfitter_cfg.c **** * Intended to be called at startup, based on the Vdda system configuration;
 302:Generated_Source\PSoC4/cyfitter_cfg.c **** * may be called during operation when the user informs us that the Vdda voltage crossed the pump th
 303:Generated_Source\PSoC4/cyfitter_cfg.c **** *
 304:Generated_Source\PSoC4/cyfitter_cfg.c **** * Parameters:
 305:Generated_Source\PSoC4/cyfitter_cfg.c **** *  enabled - 1 to enable the pumps, 0 to disable the pumps
 306:Generated_Source\PSoC4/cyfitter_cfg.c **** *
 307:Generated_Source\PSoC4/cyfitter_cfg.c **** * Return:
 308:Generated_Source\PSoC4/cyfitter_cfg.c **** *  void
 309:Generated_Source\PSoC4/cyfitter_cfg.c **** *
 310:Generated_Source\PSoC4/cyfitter_cfg.c **** *******************************************************************************/
 311:Generated_Source\PSoC4/cyfitter_cfg.c **** void SetAnalogRoutingPumps(uint8 enabled)
 312:Generated_Source\PSoC4/cyfitter_cfg.c **** {
 449              		.loc 1 312 0
 450              		.cfi_startproc
 451              		@ args = 0, pretend = 0, frame = 16
 452              		@ frame_needed = 1, uses_anonymous_args = 0
 453 0000 80B5     		push	{r7, lr}
 454              		.cfi_def_cfa_offset 8
 455              		.cfi_offset 7, -8
 456              		.cfi_offset 14, -4
 457 0002 84B0     		sub	sp, sp, #16
 458              		.cfi_def_cfa_offset 24
 459 0004 00AF     		add	r7, sp, #0
 460              		.cfi_def_cfa_register 7
 461 0006 0200     		movs	r2, r0
 462 0008 FB1D     		adds	r3, r7, #7
 463 000a 1A70     		strb	r2, [r3]
 313:Generated_Source\PSoC4/cyfitter_cfg.c **** 	uint32 regValue = CY_GET_XTND_REG32((void *)(CYREG_SAR_PUMP_CTRL));
 464              		.loc 1 313 0
 465 000c 154B     		ldr	r3, .L20
 466 000e 1B68     		ldr	r3, [r3]
 467 0010 FB60     		str	r3, [r7, #12]
 314:Generated_Source\PSoC4/cyfitter_cfg.c **** 	if (enabled != 0u)
 468              		.loc 1 314 0
 469 0012 FB1D     		adds	r3, r7, #7
 470 0014 1B78     		ldrb	r3, [r3]
 471 0016 002B     		cmp	r3, #0
 472 0018 05D0     		beq	.L16
 315:Generated_Source\PSoC4/cyfitter_cfg.c **** 	{
 316:Generated_Source\PSoC4/cyfitter_cfg.c **** 		regValue |= 0x80000000u;
 473              		.loc 1 316 0
 474 001a FB68     		ldr	r3, [r7, #12]
 475 001c 8022     		movs	r2, #128
 476 001e 1206     		lsls	r2, r2, #24
 477 0020 1343     		orrs	r3, r2
 478 0022 FB60     		str	r3, [r7, #12]
 479 0024 03E0     		b	.L17
ARM GAS  C:\Users\Lucia\AppData\Local\Temp\cc4QZdth.s 			page 15


 480              	.L16:
 317:Generated_Source\PSoC4/cyfitter_cfg.c **** 	}
 318:Generated_Source\PSoC4/cyfitter_cfg.c **** 	else
 319:Generated_Source\PSoC4/cyfitter_cfg.c **** 	{
 320:Generated_Source\PSoC4/cyfitter_cfg.c **** 		regValue &= ~0x80000000u;
 481              		.loc 1 320 0
 482 0026 FB68     		ldr	r3, [r7, #12]
 483 0028 5B00     		lsls	r3, r3, #1
 484 002a 5B08     		lsrs	r3, r3, #1
 485 002c FB60     		str	r3, [r7, #12]
 486              	.L17:
 321:Generated_Source\PSoC4/cyfitter_cfg.c **** 	}
 322:Generated_Source\PSoC4/cyfitter_cfg.c **** 	CY_SET_XTND_REG32((void *)(CYREG_SAR_PUMP_CTRL), regValue);
 487              		.loc 1 322 0
 488 002e 0D4B     		ldr	r3, .L20
 489 0030 FA68     		ldr	r2, [r7, #12]
 490 0032 1A60     		str	r2, [r3]
 323:Generated_Source\PSoC4/cyfitter_cfg.c **** 	regValue = CY_GET_XTND_REG32((void *)(CYREG_CLK_IMO_CONFIG));
 491              		.loc 1 323 0
 492 0034 0C4B     		ldr	r3, .L20+4
 493 0036 1B68     		ldr	r3, [r3]
 494 0038 FB60     		str	r3, [r7, #12]
 324:Generated_Source\PSoC4/cyfitter_cfg.c **** 	if (enabled != 0u)
 495              		.loc 1 324 0
 496 003a FB1D     		adds	r3, r7, #7
 497 003c 1B78     		ldrb	r3, [r3]
 498 003e 002B     		cmp	r3, #0
 499 0040 05D0     		beq	.L18
 325:Generated_Source\PSoC4/cyfitter_cfg.c **** 	{
 326:Generated_Source\PSoC4/cyfitter_cfg.c **** 		regValue |= 0x02000000u;
 500              		.loc 1 326 0
 501 0042 FB68     		ldr	r3, [r7, #12]
 502 0044 8022     		movs	r2, #128
 503 0046 9204     		lsls	r2, r2, #18
 504 0048 1343     		orrs	r3, r2
 505 004a FB60     		str	r3, [r7, #12]
 506 004c 03E0     		b	.L19
 507              	.L18:
 327:Generated_Source\PSoC4/cyfitter_cfg.c **** 	}
 328:Generated_Source\PSoC4/cyfitter_cfg.c **** 	else
 329:Generated_Source\PSoC4/cyfitter_cfg.c **** 	{
 330:Generated_Source\PSoC4/cyfitter_cfg.c **** 		regValue &= ~0x02000000u;
 508              		.loc 1 330 0
 509 004e FB68     		ldr	r3, [r7, #12]
 510 0050 064A     		ldr	r2, .L20+8
 511 0052 1340     		ands	r3, r2
 512 0054 FB60     		str	r3, [r7, #12]
 513              	.L19:
 331:Generated_Source\PSoC4/cyfitter_cfg.c **** 	}
 332:Generated_Source\PSoC4/cyfitter_cfg.c **** 	CY_SET_XTND_REG32((void *)(CYREG_CLK_IMO_CONFIG), regValue);
 514              		.loc 1 332 0
 515 0056 044B     		ldr	r3, .L20+4
 516 0058 FA68     		ldr	r2, [r7, #12]
 517 005a 1A60     		str	r2, [r3]
 333:Generated_Source\PSoC4/cyfitter_cfg.c **** }
 518              		.loc 1 333 0
 519 005c C046     		nop
ARM GAS  C:\Users\Lucia\AppData\Local\Temp\cc4QZdth.s 			page 16


 520 005e BD46     		mov	sp, r7
 521 0060 04B0     		add	sp, sp, #16
 522              		@ sp needed
 523 0062 80BD     		pop	{r7, pc}
 524              	.L21:
 525              		.align	2
 526              	.L20:
 527 0064 80033A40 		.word	1077543808
 528 0068 08010B40 		.word	1074462984
 529 006c FFFFFFFD 		.word	-33554433
 530              		.cfi_endproc
 531              	.LFE8:
 532              		.size	SetAnalogRoutingPumps, .-SetAnalogRoutingPumps
 533              		.section	.psocinit
 534              		.align	2
 535              		.global	cyfitter_cfg
 536              		.code	16
 537              		.thumb_func
 538              		.type	cyfitter_cfg, %function
 539              	cyfitter_cfg:
 540              	.LFB9:
 334:Generated_Source\PSoC4/cyfitter_cfg.c **** 
 335:Generated_Source\PSoC4/cyfitter_cfg.c **** 
 336:Generated_Source\PSoC4/cyfitter_cfg.c **** 
 337:Generated_Source\PSoC4/cyfitter_cfg.c **** 
 338:Generated_Source\PSoC4/cyfitter_cfg.c **** /*******************************************************************************
 339:Generated_Source\PSoC4/cyfitter_cfg.c **** * Function Name: cyfitter_cfg
 340:Generated_Source\PSoC4/cyfitter_cfg.c **** ********************************************************************************
 341:Generated_Source\PSoC4/cyfitter_cfg.c **** * Summary:
 342:Generated_Source\PSoC4/cyfitter_cfg.c **** *  This function is called by the start-up code for the selected device. It
 343:Generated_Source\PSoC4/cyfitter_cfg.c **** *  performs all of the necessary device configuration based on the design
 344:Generated_Source\PSoC4/cyfitter_cfg.c **** *  settings.  This includes settings from the Design Wide Resources (DWR) such
 345:Generated_Source\PSoC4/cyfitter_cfg.c **** *  as Clocks and Pins as well as any component configuration that is necessary.
 346:Generated_Source\PSoC4/cyfitter_cfg.c **** *
 347:Generated_Source\PSoC4/cyfitter_cfg.c **** * Parameters:
 348:Generated_Source\PSoC4/cyfitter_cfg.c **** *   void
 349:Generated_Source\PSoC4/cyfitter_cfg.c **** *
 350:Generated_Source\PSoC4/cyfitter_cfg.c **** * Return:
 351:Generated_Source\PSoC4/cyfitter_cfg.c **** *   void
 352:Generated_Source\PSoC4/cyfitter_cfg.c **** *
 353:Generated_Source\PSoC4/cyfitter_cfg.c **** *******************************************************************************/
 354:Generated_Source\PSoC4/cyfitter_cfg.c **** CY_CFG_SECTION
 355:Generated_Source\PSoC4/cyfitter_cfg.c **** void cyfitter_cfg(void)
 356:Generated_Source\PSoC4/cyfitter_cfg.c **** {
 541              		.loc 1 356 0
 542              		.cfi_startproc
 543              		@ args = 0, pretend = 0, frame = 8
 544              		@ frame_needed = 1, uses_anonymous_args = 0
 545 011c 80B5     		push	{r7, lr}
 546              		.cfi_def_cfa_offset 8
 547              		.cfi_offset 7, -8
 548              		.cfi_offset 14, -4
 549 011e 82B0     		sub	sp, sp, #8
 550              		.cfi_def_cfa_offset 16
 551 0120 00AF     		add	r7, sp, #0
 552              		.cfi_def_cfa_register 7
 357:Generated_Source\PSoC4/cyfitter_cfg.c **** 	/* Disable interrupts by default. Let user enable if/when they want. */
ARM GAS  C:\Users\Lucia\AppData\Local\Temp\cc4QZdth.s 			page 17


 358:Generated_Source\PSoC4/cyfitter_cfg.c **** 	CyGlobalIntDisable;
 553              		.loc 1 358 0
 554              		.syntax divided
 555              	@ 358 "Generated_Source\PSoC4\cyfitter_cfg.c" 1
 556 0122 72B6     		CPSID   i
 557              	@ 0 "" 2
 359:Generated_Source\PSoC4/cyfitter_cfg.c **** 
 360:Generated_Source\PSoC4/cyfitter_cfg.c **** 	CY_SET_REG32((void *)(CYREG_BLE_BLESS_LL_DSM_CTRL), 0x00000000u);
 558              		.loc 1 360 0
 559              		.thumb
 560              		.syntax unified
 561 0124 484B     		ldr	r3, .L25
 562 0126 0022     		movs	r2, #0
 563 0128 1A60     		str	r2, [r3]
 564              	.LBB3:
 361:Generated_Source\PSoC4/cyfitter_cfg.c **** 
 362:Generated_Source\PSoC4/cyfitter_cfg.c **** 	{
 363:Generated_Source\PSoC4/cyfitter_cfg.c **** 		static const uint32 CYCODE cy_cfg_addr_table[] = {
 364:Generated_Source\PSoC4/cyfitter_cfg.c **** 			0x400F3004u, /* Base address: 0x400F3000 Count: 4 */
 365:Generated_Source\PSoC4/cyfitter_cfg.c **** 			0x400F3102u, /* Base address: 0x400F3100 Count: 2 */
 366:Generated_Source\PSoC4/cyfitter_cfg.c **** 			0x400F3302u, /* Base address: 0x400F3300 Count: 2 */
 367:Generated_Source\PSoC4/cyfitter_cfg.c **** 			0x400F4108u, /* Base address: 0x400F4100 Count: 8 */
 368:Generated_Source\PSoC4/cyfitter_cfg.c **** 		};
 369:Generated_Source\PSoC4/cyfitter_cfg.c **** 
 370:Generated_Source\PSoC4/cyfitter_cfg.c **** 		static const cy_cfg_addrvalue_t CYCODE cy_cfg_data_table[] = {
 371:Generated_Source\PSoC4/cyfitter_cfg.c **** 			{0x38u, 0x28u},
 372:Generated_Source\PSoC4/cyfitter_cfg.c **** 			{0x3Eu, 0x14u},
 373:Generated_Source\PSoC4/cyfitter_cfg.c **** 			{0x58u, 0x04u},
 374:Generated_Source\PSoC4/cyfitter_cfg.c **** 			{0x5Fu, 0x01u},
 375:Generated_Source\PSoC4/cyfitter_cfg.c **** 			{0x19u, 0x08u},
 376:Generated_Source\PSoC4/cyfitter_cfg.c **** 			{0x1Au, 0x04u},
 377:Generated_Source\PSoC4/cyfitter_cfg.c **** 			{0xADu, 0x08u},
 378:Generated_Source\PSoC4/cyfitter_cfg.c **** 			{0xAEu, 0x04u},
 379:Generated_Source\PSoC4/cyfitter_cfg.c **** 			{0x3Bu, 0x04u},
 380:Generated_Source\PSoC4/cyfitter_cfg.c **** 			{0x3Fu, 0x02u},
 381:Generated_Source\PSoC4/cyfitter_cfg.c **** 			{0x93u, 0x04u},
 382:Generated_Source\PSoC4/cyfitter_cfg.c **** 			{0xA3u, 0x01u},
 383:Generated_Source\PSoC4/cyfitter_cfg.c **** 			{0xAFu, 0x05u},
 384:Generated_Source\PSoC4/cyfitter_cfg.c **** 			{0xCEu, 0xC0u},
 385:Generated_Source\PSoC4/cyfitter_cfg.c **** 			{0xEAu, 0x40u},
 386:Generated_Source\PSoC4/cyfitter_cfg.c **** 			{0xEEu, 0x10u},
 387:Generated_Source\PSoC4/cyfitter_cfg.c **** 		};
 388:Generated_Source\PSoC4/cyfitter_cfg.c **** 
 389:Generated_Source\PSoC4/cyfitter_cfg.c **** 
 390:Generated_Source\PSoC4/cyfitter_cfg.c **** 
 391:Generated_Source\PSoC4/cyfitter_cfg.c **** 		CYPACKED typedef struct {
 392:Generated_Source\PSoC4/cyfitter_cfg.c **** 			void CYFAR *address;
 393:Generated_Source\PSoC4/cyfitter_cfg.c **** 			uint16 size;
 394:Generated_Source\PSoC4/cyfitter_cfg.c **** 		} CYPACKED_ATTR cfg_memset_t;
 395:Generated_Source\PSoC4/cyfitter_cfg.c **** 
 396:Generated_Source\PSoC4/cyfitter_cfg.c **** 		static const cfg_memset_t CYCODE cfg_memset_list[] = {
 397:Generated_Source\PSoC4/cyfitter_cfg.c **** 			/* address, size */
 398:Generated_Source\PSoC4/cyfitter_cfg.c **** 			{(void CYFAR *)(CYDEV_UDB_P0_U0_BASE), 1024u},
 399:Generated_Source\PSoC4/cyfitter_cfg.c **** 			{(void CYFAR *)(CYDEV_UDB_DSI0_BASE), 1024u},
 400:Generated_Source\PSoC4/cyfitter_cfg.c **** 		};
 401:Generated_Source\PSoC4/cyfitter_cfg.c **** 
 402:Generated_Source\PSoC4/cyfitter_cfg.c **** 		uint8 CYDATA i;
ARM GAS  C:\Users\Lucia\AppData\Local\Temp\cc4QZdth.s 			page 18


 403:Generated_Source\PSoC4/cyfitter_cfg.c **** 
 404:Generated_Source\PSoC4/cyfitter_cfg.c **** 		/* Zero out critical memory blocks before beginning configuration */
 405:Generated_Source\PSoC4/cyfitter_cfg.c **** 		for (i = 0u; i < (sizeof(cfg_memset_list)/sizeof(cfg_memset_list[0])); i++)
 565              		.loc 1 405 0
 566 012a FB1D     		adds	r3, r7, #7
 567 012c 0022     		movs	r2, #0
 568 012e 1A70     		strb	r2, [r3]
 569 0130 22E0     		b	.L23
 570              	.L24:
 571              	.LBB4:
 406:Generated_Source\PSoC4/cyfitter_cfg.c **** 		{
 407:Generated_Source\PSoC4/cyfitter_cfg.c **** 			const cfg_memset_t CYCODE * CYDATA ms = &cfg_memset_list[i];
 572              		.loc 1 407 0 discriminator 3
 573 0132 FB1D     		adds	r3, r7, #7
 574 0134 1A78     		ldrb	r2, [r3]
 575 0136 1300     		movs	r3, r2
 576 0138 5B00     		lsls	r3, r3, #1
 577 013a 9B18     		adds	r3, r3, r2
 578 013c 5B00     		lsls	r3, r3, #1
 579 013e 434A     		ldr	r2, .L25+4
 580 0140 9B18     		adds	r3, r3, r2
 581 0142 3B60     		str	r3, [r7]
 408:Generated_Source\PSoC4/cyfitter_cfg.c **** 			CYMEMZERO(ms->address, (size_t)(uint32)(ms->size));
 582              		.loc 1 408 0 discriminator 3
 583 0144 3B68     		ldr	r3, [r7]
 584 0146 1A78     		ldrb	r2, [r3]
 585 0148 5978     		ldrb	r1, [r3, #1]
 586 014a 0902     		lsls	r1, r1, #8
 587 014c 0A43     		orrs	r2, r1
 588 014e 9978     		ldrb	r1, [r3, #2]
 589 0150 0904     		lsls	r1, r1, #16
 590 0152 0A43     		orrs	r2, r1
 591 0154 DB78     		ldrb	r3, [r3, #3]
 592 0156 1B06     		lsls	r3, r3, #24
 593 0158 1343     		orrs	r3, r2
 594 015a 1800     		movs	r0, r3
 595 015c 3B68     		ldr	r3, [r7]
 596 015e 1A79     		ldrb	r2, [r3, #4]
 597 0160 5B79     		ldrb	r3, [r3, #5]
 598 0162 1B02     		lsls	r3, r3, #8
 599 0164 1343     		orrs	r3, r2
 600 0166 9BB2     		uxth	r3, r3
 601 0168 1900     		movs	r1, r3
 602 016a FFF7FEFF 		bl	CYMEMZERO
 603              	.LBE4:
 405:Generated_Source\PSoC4/cyfitter_cfg.c **** 		{
 604              		.loc 1 405 0 discriminator 3
 605 016e FB1D     		adds	r3, r7, #7
 606 0170 1A78     		ldrb	r2, [r3]
 607 0172 FB1D     		adds	r3, r7, #7
 608 0174 0132     		adds	r2, r2, #1
 609 0176 1A70     		strb	r2, [r3]
 610              	.L23:
 405:Generated_Source\PSoC4/cyfitter_cfg.c **** 		{
 611              		.loc 1 405 0 is_stmt 0 discriminator 1
 612 0178 FB1D     		adds	r3, r7, #7
 613 017a 1B78     		ldrb	r3, [r3]
ARM GAS  C:\Users\Lucia\AppData\Local\Temp\cc4QZdth.s 			page 19


 614 017c 012B     		cmp	r3, #1
 615 017e D8D9     		bls	.L24
 409:Generated_Source\PSoC4/cyfitter_cfg.c **** 		}
 410:Generated_Source\PSoC4/cyfitter_cfg.c **** 
 411:Generated_Source\PSoC4/cyfitter_cfg.c **** 		cfg_write_bytes32(cy_cfg_addr_table, cy_cfg_data_table);
 616              		.loc 1 411 0 is_stmt 1
 617 0180 334A     		ldr	r2, .L25+8
 618 0182 344B     		ldr	r3, .L25+12
 619 0184 1100     		movs	r1, r2
 620 0186 1800     		movs	r0, r3
 621 0188 FFF7FEFF 		bl	cfg_write_bytes32
 412:Generated_Source\PSoC4/cyfitter_cfg.c **** 
 413:Generated_Source\PSoC4/cyfitter_cfg.c **** 		/* PWR_BG_CONFIG Starting address: CYDEV_PWR_BG_CONFIG */
 414:Generated_Source\PSoC4/cyfitter_cfg.c **** 		CY_SET_REG32((void *)(CYREG_PWR_BG_CONFIG), 0x00040000u);
 622              		.loc 1 414 0
 623 018c 324B     		ldr	r3, .L25+16
 624 018e 8022     		movs	r2, #128
 625 0190 D202     		lsls	r2, r2, #11
 626 0192 1A60     		str	r2, [r3]
 415:Generated_Source\PSoC4/cyfitter_cfg.c **** 
 416:Generated_Source\PSoC4/cyfitter_cfg.c **** 		/* HSIOM Starting address: CYDEV_HSIOM_BASE */
 417:Generated_Source\PSoC4/cyfitter_cfg.c **** 		CY_SET_REG32((void *)(CYDEV_HSIOM_BASE), 0xEE000000u);
 627              		.loc 1 417 0
 628 0194 314B     		ldr	r3, .L25+20
 629 0196 EE22     		movs	r2, #238
 630 0198 1206     		lsls	r2, r2, #24
 631 019a 1A60     		str	r2, [r3]
 418:Generated_Source\PSoC4/cyfitter_cfg.c **** 		CY_SET_REG32((void *)(CYREG_HSIOM_PORT_SEL1), 0x00990000u);
 632              		.loc 1 418 0
 633 019c 304B     		ldr	r3, .L25+24
 634 019e 9922     		movs	r2, #153
 635 01a0 1204     		lsls	r2, r2, #16
 636 01a2 1A60     		str	r2, [r3]
 419:Generated_Source\PSoC4/cyfitter_cfg.c **** 
 420:Generated_Source\PSoC4/cyfitter_cfg.c **** 		/* UDB_PA_0 Starting address: CYDEV_UDB_PA0_BASE */
 421:Generated_Source\PSoC4/cyfitter_cfg.c **** 		CY_SET_REG32((void *)(CYDEV_UDB_PA0_BASE), 0x00990000u);
 637              		.loc 1 421 0
 638 01a4 2F4B     		ldr	r3, .L25+28
 639 01a6 9922     		movs	r2, #153
 640 01a8 1204     		lsls	r2, r2, #16
 641 01aa 1A60     		str	r2, [r3]
 422:Generated_Source\PSoC4/cyfitter_cfg.c **** 
 423:Generated_Source\PSoC4/cyfitter_cfg.c **** 		/* UDB_PA_1 Starting address: CYDEV_UDB_PA1_BASE */
 424:Generated_Source\PSoC4/cyfitter_cfg.c **** 		CY_SET_REG32((void *)(CYDEV_UDB_PA1_BASE), 0x00990000u);
 642              		.loc 1 424 0
 643 01ac 2E4B     		ldr	r3, .L25+32
 644 01ae 9922     		movs	r2, #153
 645 01b0 1204     		lsls	r2, r2, #16
 646 01b2 1A60     		str	r2, [r3]
 425:Generated_Source\PSoC4/cyfitter_cfg.c **** 
 426:Generated_Source\PSoC4/cyfitter_cfg.c **** 		/* UDB_PA_2 Starting address: CYDEV_UDB_PA2_BASE */
 427:Generated_Source\PSoC4/cyfitter_cfg.c **** 		CY_SET_REG32((void *)(CYDEV_UDB_PA2_BASE), 0x00990000u);
 647              		.loc 1 427 0
 648 01b4 2D4B     		ldr	r3, .L25+36
 649 01b6 9922     		movs	r2, #153
 650 01b8 1204     		lsls	r2, r2, #16
 651 01ba 1A60     		str	r2, [r3]
ARM GAS  C:\Users\Lucia\AppData\Local\Temp\cc4QZdth.s 			page 20


 428:Generated_Source\PSoC4/cyfitter_cfg.c **** 
 429:Generated_Source\PSoC4/cyfitter_cfg.c **** 		/* UDB_PA_3 Starting address: CYDEV_UDB_PA3_BASE */
 430:Generated_Source\PSoC4/cyfitter_cfg.c **** 		CY_SET_REG32((void *)(CYDEV_UDB_PA3_BASE), 0x00990000u);
 652              		.loc 1 430 0
 653 01bc 2C4B     		ldr	r3, .L25+40
 654 01be 9922     		movs	r2, #153
 655 01c0 1204     		lsls	r2, r2, #16
 656 01c2 1A60     		str	r2, [r3]
 431:Generated_Source\PSoC4/cyfitter_cfg.c **** 
 432:Generated_Source\PSoC4/cyfitter_cfg.c **** 		/* Enable UDB array and digital routing */
 433:Generated_Source\PSoC4/cyfitter_cfg.c **** 		CY_SET_XTND_REG8((void *)CYREG_UDB_UDBIF_WAIT_CFG, (uint8)((CY_GET_XTND_REG8((void *)CYREG_UDB_UD
 657              		.loc 1 433 0
 658 01c4 2B4A     		ldr	r2, .L25+44
 659 01c6 2B4B     		ldr	r3, .L25+44
 660 01c8 1B78     		ldrb	r3, [r3]
 661 01ca DBB2     		uxtb	r3, r3
 662 01cc 3C21     		movs	r1, #60
 663 01ce 8B43     		bics	r3, r1
 664 01d0 DBB2     		uxtb	r3, r3
 665 01d2 1421     		movs	r1, #20
 666 01d4 0B43     		orrs	r3, r1
 667 01d6 DBB2     		uxtb	r3, r3
 668 01d8 1370     		strb	r3, [r2]
 434:Generated_Source\PSoC4/cyfitter_cfg.c **** 		CY_SET_XTND_REG8((void *)CYREG_UDB_UDBIF_BANK_CTL, (uint8)(CY_GET_XTND_REG8((void *)CYREG_UDB_UDB
 669              		.loc 1 434 0
 670 01da 274A     		ldr	r2, .L25+48
 671 01dc 264B     		ldr	r3, .L25+48
 672 01de 1B78     		ldrb	r3, [r3]
 673 01e0 DBB2     		uxtb	r3, r3
 674 01e2 1621     		movs	r1, #22
 675 01e4 0B43     		orrs	r3, r1
 676 01e6 DBB2     		uxtb	r3, r3
 677 01e8 1370     		strb	r3, [r2]
 678              	.LBE3:
 435:Generated_Source\PSoC4/cyfitter_cfg.c **** 	}
 436:Generated_Source\PSoC4/cyfitter_cfg.c **** 
 437:Generated_Source\PSoC4/cyfitter_cfg.c **** 	/* Perform second pass device configuration. These items must be configured in specific order afte
 438:Generated_Source\PSoC4/cyfitter_cfg.c **** 	/* IOPINS0_0 Starting address: CYDEV_GPIO_PRT0_BASE */
 439:Generated_Source\PSoC4/cyfitter_cfg.c **** 	CY_SET_REG32((void *)(CYREG_GPIO_PRT0_PC), 0x00D80000u);
 679              		.loc 1 439 0
 680 01ea 244B     		ldr	r3, .L25+52
 681 01ec D822     		movs	r2, #216
 682 01ee 1204     		lsls	r2, r2, #16
 683 01f0 1A60     		str	r2, [r3]
 440:Generated_Source\PSoC4/cyfitter_cfg.c **** 
 441:Generated_Source\PSoC4/cyfitter_cfg.c **** 	/* IOPINS0_1 Starting address: CYDEV_GPIO_PRT1_BASE */
 442:Generated_Source\PSoC4/cyfitter_cfg.c **** 	CY_SET_REG32((void *)(CYDEV_GPIO_PRT1_BASE), 0x00000020u);
 684              		.loc 1 442 0
 685 01f2 234B     		ldr	r3, .L25+56
 686 01f4 2022     		movs	r2, #32
 687 01f6 1A60     		str	r2, [r3]
 443:Generated_Source\PSoC4/cyfitter_cfg.c **** 	CY_SET_REG32((void *)(CYREG_GPIO_PRT1_PC), 0x00031000u);
 688              		.loc 1 443 0
 689 01f8 224B     		ldr	r3, .L25+60
 690 01fa C422     		movs	r2, #196
 691 01fc 9202     		lsls	r2, r2, #10
 692 01fe 1A60     		str	r2, [r3]
ARM GAS  C:\Users\Lucia\AppData\Local\Temp\cc4QZdth.s 			page 21


 444:Generated_Source\PSoC4/cyfitter_cfg.c **** 	CY_SET_REG32((void *)(CYREG_GPIO_PRT1_PC2), 0x00000020u);
 693              		.loc 1 444 0
 694 0200 214B     		ldr	r3, .L25+64
 695 0202 2022     		movs	r2, #32
 696 0204 1A60     		str	r2, [r3]
 445:Generated_Source\PSoC4/cyfitter_cfg.c **** 
 446:Generated_Source\PSoC4/cyfitter_cfg.c **** 	/* IOPINS0_2 Starting address: CYDEV_GPIO_PRT2_BASE */
 447:Generated_Source\PSoC4/cyfitter_cfg.c **** 	CY_SET_REG32((void *)(CYDEV_GPIO_PRT2_BASE), 0x00000082u);
 697              		.loc 1 447 0
 698 0206 214B     		ldr	r3, .L25+68
 699 0208 8222     		movs	r2, #130
 700 020a 1A60     		str	r2, [r3]
 448:Generated_Source\PSoC4/cyfitter_cfg.c **** 	CY_SET_REG32((void *)(CYREG_GPIO_PRT2_PC), 0x00580000u);
 701              		.loc 1 448 0
 702 020c 204B     		ldr	r3, .L25+72
 703 020e B022     		movs	r2, #176
 704 0210 D203     		lsls	r2, r2, #15
 705 0212 1A60     		str	r2, [r3]
 449:Generated_Source\PSoC4/cyfitter_cfg.c **** 	CY_SET_REG32((void *)(CYREG_GPIO_PRT2_INTR_CFG), 0x00008000u);
 706              		.loc 1 449 0
 707 0214 1F4B     		ldr	r3, .L25+76
 708 0216 8022     		movs	r2, #128
 709 0218 1202     		lsls	r2, r2, #8
 710 021a 1A60     		str	r2, [r3]
 450:Generated_Source\PSoC4/cyfitter_cfg.c **** 	CY_SET_REG32((void *)(CYREG_GPIO_PRT2_PC2), 0x00000002u);
 711              		.loc 1 450 0
 712 021c 1E4B     		ldr	r3, .L25+80
 713 021e 0222     		movs	r2, #2
 714 0220 1A60     		str	r2, [r3]
 451:Generated_Source\PSoC4/cyfitter_cfg.c **** 
 452:Generated_Source\PSoC4/cyfitter_cfg.c **** 	/* IOPINS0_3 Starting address: CYDEV_GPIO_PRT3_BASE */
 453:Generated_Source\PSoC4/cyfitter_cfg.c **** 	CY_SET_REG32((void *)(CYREG_GPIO_PRT3_PC), 0x00180000u);
 715              		.loc 1 453 0
 716 0222 1E4B     		ldr	r3, .L25+84
 717 0224 C022     		movs	r2, #192
 718 0226 5203     		lsls	r2, r2, #13
 719 0228 1A60     		str	r2, [r3]
 454:Generated_Source\PSoC4/cyfitter_cfg.c **** 
 455:Generated_Source\PSoC4/cyfitter_cfg.c **** 	/* IOPINS0_4 Starting address: CYDEV_GPIO_PRT4_BASE */
 456:Generated_Source\PSoC4/cyfitter_cfg.c **** 	CY_SET_REG32((void *)(CYDEV_GPIO_PRT4_BASE), 0x00000001u);
 720              		.loc 1 456 0
 721 022a 1D4B     		ldr	r3, .L25+88
 722 022c 0122     		movs	r2, #1
 723 022e 1A60     		str	r2, [r3]
 457:Generated_Source\PSoC4/cyfitter_cfg.c **** 	CY_SET_REG32((void *)(CYREG_GPIO_PRT4_PC2), 0x00000001u);
 724              		.loc 1 457 0
 725 0230 1C4B     		ldr	r3, .L25+92
 726 0232 0122     		movs	r2, #1
 727 0234 1A60     		str	r2, [r3]
 458:Generated_Source\PSoC4/cyfitter_cfg.c **** 
 459:Generated_Source\PSoC4/cyfitter_cfg.c **** 
 460:Generated_Source\PSoC4/cyfitter_cfg.c **** 	/* Setup clocks based on selections from Clock DWR */
 461:Generated_Source\PSoC4/cyfitter_cfg.c **** 	ClockSetup();
 728              		.loc 1 461 0
 729 0236 FFF7E3FE 		bl	ClockSetup
 462:Generated_Source\PSoC4/cyfitter_cfg.c **** 
 463:Generated_Source\PSoC4/cyfitter_cfg.c **** 	/* Perform basic analog initialization to defaults */
ARM GAS  C:\Users\Lucia\AppData\Local\Temp\cc4QZdth.s 			page 22


 464:Generated_Source\PSoC4/cyfitter_cfg.c **** 	AnalogSetDefault();
 730              		.loc 1 464 0
 731 023a FFF7FEFF 		bl	AnalogSetDefault
 465:Generated_Source\PSoC4/cyfitter_cfg.c **** 
 466:Generated_Source\PSoC4/cyfitter_cfg.c **** }
 732              		.loc 1 466 0
 733 023e C046     		nop
 734 0240 BD46     		mov	sp, r7
 735 0242 02B0     		add	sp, sp, #8
 736              		@ sp needed
 737 0244 80BD     		pop	{r7, pc}
 738              	.L26:
 739 0246 C046     		.align	2
 740              	.L25:
 741 0248 6CF02E40 		.word	1076818028
 742 024c 00000000 		.word	cfg_memset_list.4922
 743 0250 1C000000 		.word	cy_cfg_data_table.4917
 744 0254 0C000000 		.word	cy_cfg_addr_table.4916
 745 0258 14000B40 		.word	1074462740
 746 025c 00000240 		.word	1073872896
 747 0260 00010240 		.word	1073873152
 748 0264 00500F40 		.word	1074745344
 749 0268 10500F40 		.word	1074745360
 750 026c 20500F40 		.word	1074745376
 751 0270 30500F40 		.word	1074745392
 752 0274 01700F40 		.word	1074753537
 753 0278 00700F40 		.word	1074753536
 754 027c 08000440 		.word	1074003976
 755 0280 00010440 		.word	1074004224
 756 0284 08010440 		.word	1074004232
 757 0288 18010440 		.word	1074004248
 758 028c 00020440 		.word	1074004480
 759 0290 08020440 		.word	1074004488
 760 0294 0C020440 		.word	1074004492
 761 0298 18020440 		.word	1074004504
 762 029c 08030440 		.word	1074004744
 763 02a0 00040440 		.word	1074004992
 764 02a4 18040440 		.word	1074005016
 765              		.cfi_endproc
 766              	.LFE9:
 767              		.size	cyfitter_cfg, .-cyfitter_cfg
 768              		.section	.rodata
 769              		.align	2
 770              		.type	cfg_memset_list.4922, %object
 771              		.size	cfg_memset_list.4922, 12
 772              	cfg_memset_list.4922:
 773 0000 00300F40 		.word	1074737152
 774 0004 0004     		.short	1024
 775 0006 00400F40 		.4byte	1074741248
 776 000a 0004     		.short	1024
 777              		.align	2
 778              		.type	cy_cfg_addr_table.4916, %object
 779              		.size	cy_cfg_addr_table.4916, 16
 780              	cy_cfg_addr_table.4916:
 781 000c 04300F40 		.word	1074737156
 782 0010 02310F40 		.word	1074737410
 783 0014 02330F40 		.word	1074737922
ARM GAS  C:\Users\Lucia\AppData\Local\Temp\cc4QZdth.s 			page 23


 784 0018 08410F40 		.word	1074741512
 785              		.align	2
 786              		.type	cy_cfg_data_table.4917, %object
 787              		.size	cy_cfg_data_table.4917, 32
 788              	cy_cfg_data_table.4917:
 789 001c 38       		.byte	56
 790 001d 28       		.byte	40
 791 001e 3E       		.byte	62
 792 001f 14       		.byte	20
 793 0020 58       		.byte	88
 794 0021 04       		.byte	4
 795 0022 5F       		.byte	95
 796 0023 01       		.byte	1
 797 0024 19       		.byte	25
 798 0025 08       		.byte	8
 799 0026 1A       		.byte	26
 800 0027 04       		.byte	4
 801 0028 AD       		.byte	-83
 802 0029 08       		.byte	8
 803 002a AE       		.byte	-82
 804 002b 04       		.byte	4
 805 002c 3B       		.byte	59
 806 002d 04       		.byte	4
 807 002e 3F       		.byte	63
 808 002f 02       		.byte	2
 809 0030 93       		.byte	-109
 810 0031 04       		.byte	4
 811 0032 A3       		.byte	-93
 812 0033 01       		.byte	1
 813 0034 AF       		.byte	-81
 814 0035 05       		.byte	5
 815 0036 CE       		.byte	-50
 816 0037 C0       		.byte	-64
 817 0038 EA       		.byte	-22
 818 0039 40       		.byte	64
 819 003a EE       		.byte	-18
 820 003b 10       		.byte	16
 821              		.text
 822              	.Letext0:
 823              		.file 2 "c:\\program files (x86)\\cypress\\psoc creator\\4.4\\psoc creator\\import\\gnu\\arm\\5.4.
 824              		.file 3 "Generated_Source\\PSoC4\\cytypes.h"