ARM GAS  C:\Users\Lucia\AppData\Local\Temp\ccHZSqc3.s 			page 1


   1              		.syntax unified
   2              		.cpu cortex-m0
   3              		.fpu softvfp
   4              		.eabi_attribute 20, 1
   5              		.eabi_attribute 21, 1
   6              		.eabi_attribute 23, 3
   7              		.eabi_attribute 24, 1
   8              		.eabi_attribute 25, 1
   9              		.eabi_attribute 26, 1
  10              		.eabi_attribute 30, 6
  11              		.eabi_attribute 34, 0
  12              		.eabi_attribute 18, 4
  13              		.thumb
  14              		.syntax unified
  15              		.file	"hrss.c"
  16              		.text
  17              	.Ltext0:
  18              		.cfi_sections	.debug_frame
  19              		.global	energyExpended
  20              		.bss
  21              		.align	1
  22              		.type	energyExpended, %object
  23              		.size	energyExpended, 2
  24              	energyExpended:
  25 0000 0000     		.space	2
  26              		.comm	hrsHeartRate,24,4
  27              		.comm	hrssRrIntPtr,1,1
  28              		.comm	hrssRrIntCnt,1,1
  29              		.global	heartRateSimulation
  30              		.type	heartRateSimulation, %object
  31              		.size	heartRateSimulation, 1
  32              	heartRateSimulation:
  33 0002 00       		.space	1
  34              		.section	.rodata
  35              		.align	2
  36              	.LC1:
  37 0000 48656172 		.ascii	"Heart Rate Measurement Notification is Enabled \015"
  37      74205261 
  37      7465204D 
  37      65617375 
  37      72656D65 
  38 0030 00       		.ascii	"\000"
  39 0031 000000   		.align	2
  40              	.LC3:
  41 0034 48656172 		.ascii	"Heart Rate Measurement Notification is Disabled \015"
  41      74205261 
  41      7465204D 
  41      65617375 
  41      72656D65 
  42 0065 00       		.ascii	"\000"
  43 0066 0000     		.align	2
  44              	.LC6:
  45 0068 456E6572 		.ascii	"Energy Expended Reset \015\000"
  45      67792045 
  45      7870656E 
  45      64656420 
  45      52657365 
ARM GAS  C:\Users\Lucia\AppData\Local\Temp\ccHZSqc3.s 			page 2


  46              		.align	2
  47              	.LC8:
  48 0080 556E6B6E 		.ascii	"Unknown HRS event: %lx \015\012\000"
  48      6F776E20 
  48      48525320 
  48      6576656E 
  48      743A2025 
  49              		.section	.text.HeartRateCallBack,"ax",%progbits
  50              		.align	2
  51              		.global	HeartRateCallBack
  52              		.code	16
  53              		.thumb_func
  54              		.type	HeartRateCallBack, %function
  55              	HeartRateCallBack:
  56              	.LFB36:
  57              		.file 1 "hrss.c"
   1:hrss.c        **** /*******************************************************************************
   2:hrss.c        **** * File Name: hrss.c
   3:hrss.c        **** *
   4:hrss.c        **** * Version 1.0
   5:hrss.c        **** *
   6:hrss.c        **** * Description:
   7:hrss.c        **** *  This file contains HRS service related code.
   8:hrss.c        **** *
   9:hrss.c        **** * Hardware Dependency:
  10:hrss.c        **** *  CY8CKIT-042 BLE
  11:hrss.c        **** *
  12:hrss.c        **** ********************************************************************************
  13:hrss.c        **** * Copyright 2014, Cypress Semiconductor Corporation.  All rights reserved.
  14:hrss.c        **** * You may use this file only in accordance with the license, terms, conditions,
  15:hrss.c        **** * disclaimers, and limitations in the end user license agreement accompanying
  16:hrss.c        **** * the software package with which this file was provided.
  17:hrss.c        **** *******************************************************************************/
  18:hrss.c        **** 
  19:hrss.c        **** #include "hrss.h"
  20:hrss.c        **** 
  21:hrss.c        **** uint16 energyExpended = 0u;
  22:hrss.c        **** 
  23:hrss.c        **** /* Heart Rate Measurement characteristic data structure */
  24:hrss.c        **** CYBLE_HRS_HRM_T hrsHeartRate;
  25:hrss.c        **** 
  26:hrss.c        **** /* Pointer and counter for RR-Interval data */
  27:hrss.c        **** uint8 hrssRrIntPtr;
  28:hrss.c        **** uint8 hrssRrIntCnt;
  29:hrss.c        **** uint8 heartRateSimulation = DISABLED;
  30:hrss.c        **** 
  31:hrss.c        **** /* Heart Rate Service callback */
  32:hrss.c        **** void HeartRateCallBack(uint32 event, void* eventParam)
  33:hrss.c        **** {
  58              		.loc 1 33 0
  59              		.cfi_startproc
  60              		@ args = 0, pretend = 0, frame = 8
  61              		@ frame_needed = 1, uses_anonymous_args = 0
  62 0000 80B5     		push	{r7, lr}
  63              		.cfi_def_cfa_offset 8
  64              		.cfi_offset 7, -8
  65              		.cfi_offset 14, -4
ARM GAS  C:\Users\Lucia\AppData\Local\Temp\ccHZSqc3.s 			page 3


  66 0002 82B0     		sub	sp, sp, #8
  67              		.cfi_def_cfa_offset 16
  68 0004 00AF     		add	r7, sp, #0
  69              		.cfi_def_cfa_register 7
  70 0006 7860     		str	r0, [r7, #4]
  71 0008 3960     		str	r1, [r7]
  34:hrss.c        ****     if(0u != eventParam)
  35:hrss.c        ****     {
  36:hrss.c        ****         /* This dummy operation is to avoid warning about unused eventParam */
  37:hrss.c        ****     }
  38:hrss.c        **** 
  39:hrss.c        ****     switch(event)
  72              		.loc 1 39 0
  73 000a 7B68     		ldr	r3, [r7, #4]
  74 000c D522     		movs	r2, #213
  75 000e 5200     		lsls	r2, r2, #1
  76 0010 9342     		cmp	r3, r2
  77 0012 08D0     		beq	.L3
  78 0014 AC22     		movs	r2, #172
  79 0016 FF32     		adds	r2, r2, #255
  80 0018 9342     		cmp	r3, r2
  81 001a 0CD0     		beq	.L4
  82 001c AA22     		movs	r2, #170
  83 001e FF32     		adds	r2, r2, #255
  84 0020 9342     		cmp	r3, r2
  85 0022 10D0     		beq	.L5
  86 0024 1CE0     		b	.L7
  87              	.L3:
  40:hrss.c        ****     {
  41:hrss.c        ****         case CYBLE_EVT_HRSS_NOTIFICATION_ENABLED:
  42:hrss.c        ****             heartRateSimulation = ENABLED;
  88              		.loc 1 42 0
  89 0026 144B     		ldr	r3, .L8
  90 0028 0122     		movs	r2, #1
  91 002a 1A70     		strb	r2, [r3]
  43:hrss.c        ****             printf("Heart Rate Measurement Notification is Enabled \r\n");
  92              		.loc 1 43 0
  93 002c 134B     		ldr	r3, .L8+4
  94 002e 1800     		movs	r0, r3
  95 0030 FFF7FEFF 		bl	puts
  44:hrss.c        ****             break;
  96              		.loc 1 44 0
  97 0034 1BE0     		b	.L6
  98              	.L4:
  45:hrss.c        **** 
  46:hrss.c        ****         case CYBLE_EVT_HRSS_NOTIFICATION_DISABLED:
  47:hrss.c        ****             heartRateSimulation = DISABLED;
  99              		.loc 1 47 0
 100 0036 104B     		ldr	r3, .L8
 101 0038 0022     		movs	r2, #0
 102 003a 1A70     		strb	r2, [r3]
  48:hrss.c        ****             printf("Heart Rate Measurement Notification is Disabled \r\n");
 103              		.loc 1 48 0
 104 003c 104B     		ldr	r3, .L8+8
 105 003e 1800     		movs	r0, r3
 106 0040 FFF7FEFF 		bl	puts
  49:hrss.c        ****             break;
ARM GAS  C:\Users\Lucia\AppData\Local\Temp\ccHZSqc3.s 			page 4


 107              		.loc 1 49 0
 108 0044 13E0     		b	.L6
 109              	.L5:
  50:hrss.c        **** 
  51:hrss.c        ****         /* This event is received when client writes Control Point characteristic value */
  52:hrss.c        ****         case CYBLE_EVT_HRSS_ENERGY_EXPENDED_RESET:
  53:hrss.c        ****             energyExpended = 0u;
 110              		.loc 1 53 0
 111 0046 0F4B     		ldr	r3, .L8+12
 112 0048 0022     		movs	r2, #0
 113 004a 1A80     		strh	r2, [r3]
  54:hrss.c        ****             HrssSetEnergyExpended(energyExpended);
 114              		.loc 1 54 0
 115 004c 0D4B     		ldr	r3, .L8+12
 116 004e 1B88     		ldrh	r3, [r3]
 117 0050 1800     		movs	r0, r3
 118 0052 FFF7FEFF 		bl	HrssSetEnergyExpended
  55:hrss.c        ****             printf("Energy Expended Reset \r\n");
 119              		.loc 1 55 0
 120 0056 0C4B     		ldr	r3, .L8+16
 121 0058 1800     		movs	r0, r3
 122 005a FFF7FEFF 		bl	puts
  56:hrss.c        ****             break;
 123              		.loc 1 56 0
 124 005e 06E0     		b	.L6
 125              	.L7:
  57:hrss.c        **** 
  58:hrss.c        ****         default:
  59:hrss.c        ****             printf("Unknown HRS event: %lx \r\n", event);
 126              		.loc 1 59 0
 127 0060 7A68     		ldr	r2, [r7, #4]
 128 0062 0A4B     		ldr	r3, .L8+20
 129 0064 1100     		movs	r1, r2
 130 0066 1800     		movs	r0, r3
 131 0068 FFF7FEFF 		bl	printf
  60:hrss.c        ****             break;
 132              		.loc 1 60 0
 133 006c C046     		nop
 134              	.L6:
  61:hrss.c        ****     }
  62:hrss.c        **** }
 135              		.loc 1 62 0
 136 006e C046     		nop
 137 0070 BD46     		mov	sp, r7
 138 0072 02B0     		add	sp, sp, #8
 139              		@ sp needed
 140 0074 80BD     		pop	{r7, pc}
 141              	.L9:
 142 0076 C046     		.align	2
 143              	.L8:
 144 0078 00000000 		.word	heartRateSimulation
 145 007c 00000000 		.word	.LC1
 146 0080 34000000 		.word	.LC3
 147 0084 00000000 		.word	energyExpended
 148 0088 68000000 		.word	.LC6
 149 008c 80000000 		.word	.LC8
 150              		.cfi_endproc
ARM GAS  C:\Users\Lucia\AppData\Local\Temp\ccHZSqc3.s 			page 5


 151              	.LFE36:
 152              		.size	HeartRateCallBack, .-HeartRateCallBack
 153              		.section	.text.HrsInit,"ax",%progbits
 154              		.align	2
 155              		.global	HrsInit
 156              		.code	16
 157              		.thumb_func
 158              		.type	HrsInit, %function
 159              	HrsInit:
 160              	.LFB37:
  63:hrss.c        **** 
  64:hrss.c        **** /*******************************************************************************
  65:hrss.c        **** * Function Name: HrsInit
  66:hrss.c        **** ********************************************************************************
  67:hrss.c        **** *
  68:hrss.c        **** * Summary:
  69:hrss.c        **** *  Initializes the Heart Rate application global variables.
  70:hrss.c        **** *
  71:hrss.c        **** * Parameters:
  72:hrss.c        **** *  None
  73:hrss.c        **** *
  74:hrss.c        **** * Return:
  75:hrss.c        **** *  None.
  76:hrss.c        **** *
  77:hrss.c        **** *******************************************************************************/
  78:hrss.c        **** 
  79:hrss.c        **** void HrsInit(void)
  80:hrss.c        **** {
 161              		.loc 1 80 0
 162              		.cfi_startproc
 163              		@ args = 0, pretend = 0, frame = 8
 164              		@ frame_needed = 1, uses_anonymous_args = 0
 165 0000 80B5     		push	{r7, lr}
 166              		.cfi_def_cfa_offset 8
 167              		.cfi_offset 7, -8
 168              		.cfi_offset 14, -4
 169 0002 82B0     		sub	sp, sp, #8
 170              		.cfi_def_cfa_offset 16
 171 0004 00AF     		add	r7, sp, #0
 172              		.cfi_def_cfa_register 7
  81:hrss.c        ****     uint16 i;
  82:hrss.c        ****     
  83:hrss.c        ****     CyBle_HrsRegisterAttrCallback(HeartRateCallBack);
 173              		.loc 1 83 0
 174 0006 134B     		ldr	r3, .L13
 175 0008 1800     		movs	r0, r3
 176 000a FFF7FEFF 		bl	CyBle_HrsRegisterAttrCallback
  84:hrss.c        **** 
  85:hrss.c        ****     hrsHeartRate.flags = 0u;
 177              		.loc 1 85 0
 178 000e 124B     		ldr	r3, .L13+4
 179 0010 0022     		movs	r2, #0
 180 0012 1A70     		strb	r2, [r3]
  86:hrss.c        ****     hrsHeartRate.heartRateValue = 0u;
 181              		.loc 1 86 0
 182 0014 104B     		ldr	r3, .L13+4
 183 0016 0022     		movs	r2, #0
ARM GAS  C:\Users\Lucia\AppData\Local\Temp\ccHZSqc3.s 			page 6


 184 0018 5A80     		strh	r2, [r3, #2]
  87:hrss.c        ****     hrsHeartRate.energyExpendedValue = 0u;
 185              		.loc 1 87 0
 186 001a 0F4B     		ldr	r3, .L13+4
 187 001c 0022     		movs	r2, #0
 188 001e 9A80     		strh	r2, [r3, #4]
  88:hrss.c        **** 
  89:hrss.c        ****     for(i = 0; i < CYBLE_HRS_HRM_RRSIZE; i++)
 189              		.loc 1 89 0
 190 0020 BB1D     		adds	r3, r7, #6
 191 0022 0022     		movs	r2, #0
 192 0024 1A80     		strh	r2, [r3]
 193 0026 0CE0     		b	.L11
 194              	.L12:
  90:hrss.c        ****     {
  91:hrss.c        ****         hrsHeartRate.rrInterval[i] = 0u;
 195              		.loc 1 91 0 discriminator 3
 196 0028 BB1D     		adds	r3, r7, #6
 197 002a 1B88     		ldrh	r3, [r3]
 198 002c 0A4A     		ldr	r2, .L13+4
 199 002e 5B00     		lsls	r3, r3, #1
 200 0030 D318     		adds	r3, r2, r3
 201 0032 0633     		adds	r3, r3, #6
 202 0034 0022     		movs	r2, #0
 203 0036 1A80     		strh	r2, [r3]
  89:hrss.c        ****     {
 204              		.loc 1 89 0 discriminator 3
 205 0038 BB1D     		adds	r3, r7, #6
 206 003a 1A88     		ldrh	r2, [r3]
 207 003c BB1D     		adds	r3, r7, #6
 208 003e 0132     		adds	r2, r2, #1
 209 0040 1A80     		strh	r2, [r3]
 210              	.L11:
  89:hrss.c        ****     {
 211              		.loc 1 89 0 is_stmt 0 discriminator 1
 212 0042 BB1D     		adds	r3, r7, #6
 213 0044 1B88     		ldrh	r3, [r3]
 214 0046 082B     		cmp	r3, #8
 215 0048 EED9     		bls	.L12
  92:hrss.c        ****     }
  93:hrss.c        **** }
 216              		.loc 1 93 0 is_stmt 1
 217 004a C046     		nop
 218 004c BD46     		mov	sp, r7
 219 004e 02B0     		add	sp, sp, #8
 220              		@ sp needed
 221 0050 80BD     		pop	{r7, pc}
 222              	.L14:
 223 0052 C046     		.align	2
 224              	.L13:
 225 0054 00000000 		.word	HeartRateCallBack
 226 0058 00000000 		.word	hrsHeartRate
 227              		.cfi_endproc
 228              	.LFE37:
 229              		.size	HrsInit, .-HrsInit
 230              		.section	.rodata
 231 009a 0000     		.align	2
ARM GAS  C:\Users\Lucia\AppData\Local\Temp\ccHZSqc3.s 			page 7


 232              	.LC13:
 233 009c 48727373 		.ascii	"HrssSetBodySensorLocation API Error: %x \015\012\000"
 233      53657442 
 233      6F647953 
 233      656E736F 
 233      724C6F63 
 234 00c7 00       		.align	2
 235              	.LC15:
 236 00c8 426F6479 		.ascii	"Body Sensor Location is set successfully: %d \015\012"
 236      2053656E 
 236      736F7220 
 236      4C6F6361 
 236      74696F6E 
 237 00f7 00       		.ascii	"\000"
 238              		.section	.text.HrssSetBodySensorLocation,"ax",%progbits
 239              		.align	2
 240              		.global	HrssSetBodySensorLocation
 241              		.code	16
 242              		.thumb_func
 243              		.type	HrssSetBodySensorLocation, %function
 244              	HrssSetBodySensorLocation:
 245              	.LFB38:
  94:hrss.c        **** 
  95:hrss.c        **** /***************************************
  96:hrss.c        **** *        Functions
  97:hrss.c        **** ***************************************/
  98:hrss.c        **** 
  99:hrss.c        **** 
 100:hrss.c        **** /*******************************************************************************
 101:hrss.c        **** * Function Name: HrssSetBodySensorLocation
 102:hrss.c        **** ********************************************************************************
 103:hrss.c        **** *
 104:hrss.c        **** * Summary:
 105:hrss.c        **** *  Set the Body Sensor Location characteristic value.
 106:hrss.c        **** *
 107:hrss.c        **** * Parameters:
 108:hrss.c        **** *  CYBLE_HRS_BSL_T location:  Body Sensor Location characteristic value.
 109:hrss.c        **** * Return:
 110:hrss.c        **** *  CYBLE_API_RESULT_T: API result will state if API succeeded
 111:hrss.c        **** *                      (CYBLE_ERROR_OK)
 112:hrss.c        **** *                      or failed with error codes.
 113:hrss.c        **** *
 114:hrss.c        **** *******************************************************************************/
 115:hrss.c        **** void HrssSetBodySensorLocation(CYBLE_HRS_BSL_T location)
 116:hrss.c        **** {
 246              		.loc 1 116 0
 247              		.cfi_startproc
 248              		@ args = 0, pretend = 0, frame = 8
 249              		@ frame_needed = 1, uses_anonymous_args = 0
 250 0000 80B5     		push	{r7, lr}
 251              		.cfi_def_cfa_offset 8
 252              		.cfi_offset 7, -8
 253              		.cfi_offset 14, -4
 254 0002 82B0     		sub	sp, sp, #8
 255              		.cfi_def_cfa_offset 16
 256 0004 00AF     		add	r7, sp, #0
 257              		.cfi_def_cfa_register 7
ARM GAS  C:\Users\Lucia\AppData\Local\Temp\ccHZSqc3.s 			page 8


 258 0006 0200     		movs	r2, r0
 259 0008 FB1D     		adds	r3, r7, #7
 260 000a 1A70     		strb	r2, [r3]
 117:hrss.c        ****     apiResult = CyBle_HrssSetCharacteristicValue(CYBLE_HRS_BSL, CYBLE_HRS_BSL_CHAR_LEN, (uint8*)&lo
 261              		.loc 1 117 0
 262 000c FB1D     		adds	r3, r7, #7
 263 000e 1A00     		movs	r2, r3
 264 0010 0121     		movs	r1, #1
 265 0012 0120     		movs	r0, #1
 266 0014 FFF7FEFF 		bl	CyBle_HrssSetCharacteristicValue
 267 0018 0300     		movs	r3, r0
 268 001a 1A00     		movs	r2, r3
 269 001c 0D4B     		ldr	r3, .L19
 270 001e 1A80     		strh	r2, [r3]
 118:hrss.c        ****     
 119:hrss.c        ****     if(apiResult != CYBLE_ERROR_OK)
 271              		.loc 1 119 0
 272 0020 0C4B     		ldr	r3, .L19
 273 0022 1B88     		ldrh	r3, [r3]
 274 0024 002B     		cmp	r3, #0
 275 0026 08D0     		beq	.L16
 120:hrss.c        ****     {
 121:hrss.c        ****         printf("HrssSetBodySensorLocation API Error: %x \r\n", (int) apiResult);
 276              		.loc 1 121 0
 277 0028 0A4B     		ldr	r3, .L19
 278 002a 1B88     		ldrh	r3, [r3]
 279 002c 1A00     		movs	r2, r3
 280 002e 0A4B     		ldr	r3, .L19+4
 281 0030 1100     		movs	r1, r2
 282 0032 1800     		movs	r0, r3
 283 0034 FFF7FEFF 		bl	printf
 122:hrss.c        ****     }
 123:hrss.c        ****     else
 124:hrss.c        ****     {
 125:hrss.c        ****         printf("Body Sensor Location is set successfully: %d \r\n", location);
 126:hrss.c        ****     }
 127:hrss.c        **** }
 284              		.loc 1 127 0
 285 0038 07E0     		b	.L18
 286              	.L16:
 125:hrss.c        ****     }
 287              		.loc 1 125 0
 288 003a FB1D     		adds	r3, r7, #7
 289 003c 1B78     		ldrb	r3, [r3]
 290 003e 1A00     		movs	r2, r3
 291 0040 064B     		ldr	r3, .L19+8
 292 0042 1100     		movs	r1, r2
 293 0044 1800     		movs	r0, r3
 294 0046 FFF7FEFF 		bl	printf
 295              	.L18:
 296              		.loc 1 127 0
 297 004a C046     		nop
 298 004c BD46     		mov	sp, r7
 299 004e 02B0     		add	sp, sp, #8
 300              		@ sp needed
 301 0050 80BD     		pop	{r7, pc}
 302              	.L20:
ARM GAS  C:\Users\Lucia\AppData\Local\Temp\ccHZSqc3.s 			page 9


 303 0052 C046     		.align	2
 304              	.L19:
 305 0054 00000000 		.word	apiResult
 306 0058 9C000000 		.word	.LC13
 307 005c C8000000 		.word	.LC15
 308              		.cfi_endproc
 309              	.LFE38:
 310              		.size	HrssSetBodySensorLocation, .-HrssSetBodySensorLocation
 311              		.section	.text.HrssSetEnergyExpended,"ax",%progbits
 312              		.align	2
 313              		.global	HrssSetEnergyExpended
 314              		.code	16
 315              		.thumb_func
 316              		.type	HrssSetEnergyExpended, %function
 317              	HrssSetEnergyExpended:
 318              	.LFB39:
 128:hrss.c        **** 
 129:hrss.c        **** /*******************************************************************************
 130:hrss.c        **** * Function Name: CyBle_HrssSetEnergyExpended
 131:hrss.c        **** ********************************************************************************
 132:hrss.c        **** *
 133:hrss.c        **** * Summary:
 134:hrss.c        **** *  Sets Energy Expended value into the Heart Rate Measurument characteristic
 135:hrss.c        **** *
 136:hrss.c        **** * Parameters:
 137:hrss.c        **** *  uint16 energyExpended - Energy Expended value to be set.
 138:hrss.c        **** *
 139:hrss.c        **** * Return:
 140:hrss.c        **** *  None
 141:hrss.c        **** *
 142:hrss.c        **** *******************************************************************************/
 143:hrss.c        **** void HrssSetEnergyExpended(uint16 energyExpended)
 144:hrss.c        **** {
 319              		.loc 1 144 0
 320              		.cfi_startproc
 321              		@ args = 0, pretend = 0, frame = 8
 322              		@ frame_needed = 1, uses_anonymous_args = 0
 323 0000 80B5     		push	{r7, lr}
 324              		.cfi_def_cfa_offset 8
 325              		.cfi_offset 7, -8
 326              		.cfi_offset 14, -4
 327 0002 82B0     		sub	sp, sp, #8
 328              		.cfi_def_cfa_offset 16
 329 0004 00AF     		add	r7, sp, #0
 330              		.cfi_def_cfa_register 7
 331 0006 0200     		movs	r2, r0
 332 0008 BB1D     		adds	r3, r7, #6
 333 000a 1A80     		strh	r2, [r3]
 145:hrss.c        ****     hrsHeartRate.energyExpendedValue = energyExpended;
 334              		.loc 1 145 0
 335 000c 074B     		ldr	r3, .L22
 336 000e BA1D     		adds	r2, r7, #6
 337 0010 1288     		ldrh	r2, [r2]
 338 0012 9A80     		strh	r2, [r3, #4]
 146:hrss.c        ****     hrsHeartRate.flags |= CYBLE_HRS_HRM_ENEXP;
 339              		.loc 1 146 0
 340 0014 054B     		ldr	r3, .L22
ARM GAS  C:\Users\Lucia\AppData\Local\Temp\ccHZSqc3.s 			page 10


 341 0016 1B78     		ldrb	r3, [r3]
 342 0018 0822     		movs	r2, #8
 343 001a 1343     		orrs	r3, r2
 344 001c DAB2     		uxtb	r2, r3
 345 001e 034B     		ldr	r3, .L22
 346 0020 1A70     		strb	r2, [r3]
 147:hrss.c        **** }
 347              		.loc 1 147 0
 348 0022 C046     		nop
 349 0024 BD46     		mov	sp, r7
 350 0026 02B0     		add	sp, sp, #8
 351              		@ sp needed
 352 0028 80BD     		pop	{r7, pc}
 353              	.L23:
 354 002a C046     		.align	2
 355              	.L22:
 356 002c 00000000 		.word	hrsHeartRate
 357              		.cfi_endproc
 358              	.LFE39:
 359              		.size	HrssSetEnergyExpended, .-HrssSetEnergyExpended
 360              		.section	.text.HrssGetHrmDescriptor,"ax",%progbits
 361              		.align	2
 362              		.global	HrssGetHrmDescriptor
 363              		.code	16
 364              		.thumb_func
 365              		.type	HrssGetHrmDescriptor, %function
 366              	HrssGetHrmDescriptor:
 367              	.LFB40:
 148:hrss.c        **** 
 149:hrss.c        **** /*******************************************************************************
 150:hrss.c        **** * Function Name: HrssGetHrmDescriptor
 151:hrss.c        **** ********************************************************************************
 152:hrss.c        **** *
 153:hrss.c        **** * Summary:
 154:hrss.c        **** *   Gets the Heart Rate Measurement characteristic
 155:hrss.c        **** *   Configuration Descriptor value
 156:hrss.c        **** *
 157:hrss.c        **** * Parameters:
 158:hrss.c        **** *   None.
 159:hrss.c        **** *
 160:hrss.c        **** * Return:
 161:hrss.c        **** *   uint16 value of the Heart Rate Measurement characteristic
 162:hrss.c        **** *   configuration Descriptor.
 163:hrss.c        **** *
 164:hrss.c        **** *******************************************************************************/
 165:hrss.c        **** uint16 HrssGetHrmDescriptor(void)
 166:hrss.c        **** {
 368              		.loc 1 166 0
 369              		.cfi_startproc
 370              		@ args = 0, pretend = 0, frame = 8
 371              		@ frame_needed = 1, uses_anonymous_args = 0
 372 0000 90B5     		push	{r4, r7, lr}
 373              		.cfi_def_cfa_offset 12
 374              		.cfi_offset 4, -12
 375              		.cfi_offset 7, -8
 376              		.cfi_offset 14, -4
 377 0002 83B0     		sub	sp, sp, #12
ARM GAS  C:\Users\Lucia\AppData\Local\Temp\ccHZSqc3.s 			page 11


 378              		.cfi_def_cfa_offset 24
 379 0004 00AF     		add	r7, sp, #0
 380              		.cfi_def_cfa_register 7
 167:hrss.c        ****     uint8 val[CYBLE_CCCD_LEN];
 168:hrss.c        ****     uint16 retVal;
 169:hrss.c        **** 
 170:hrss.c        ****     if(CYBLE_ERROR_OK == CyBle_HrssGetCharacteristicDescriptor(CYBLE_HRS_HRM,
 381              		.loc 1 170 0
 382 0006 3B1D     		adds	r3, r7, #4
 383 0008 0222     		movs	r2, #2
 384 000a 0021     		movs	r1, #0
 385 000c 0020     		movs	r0, #0
 386 000e FFF7FEFF 		bl	CyBle_HrssGetCharacteristicDescriptor
 387 0012 031E     		subs	r3, r0, #0
 388 0014 07D1     		bne	.L25
 171:hrss.c        ****         CYBLE_HRS_HRM_CCCD, CYBLE_CCCD_LEN, val))
 172:hrss.c        ****     {
 173:hrss.c        ****         /* Using the length as a temporary variable with suitable type to return */
 174:hrss.c        ****         retVal = CyBle_Get16ByPtr(val);
 389              		.loc 1 174 0
 390 0016 BC1D     		adds	r4, r7, #6
 391 0018 3B1D     		adds	r3, r7, #4
 392 001a 1800     		movs	r0, r3
 393 001c FFF7FEFF 		bl	CyBle_Get16ByPtr
 394 0020 0300     		movs	r3, r0
 395 0022 2380     		strh	r3, [r4]
 396 0024 02E0     		b	.L26
 397              	.L25:
 175:hrss.c        ****     }
 176:hrss.c        ****     else
 177:hrss.c        ****     {
 178:hrss.c        ****         retVal = 0u;
 398              		.loc 1 178 0
 399 0026 BB1D     		adds	r3, r7, #6
 400 0028 0022     		movs	r2, #0
 401 002a 1A80     		strh	r2, [r3]
 402              	.L26:
 179:hrss.c        ****     }
 180:hrss.c        **** 
 181:hrss.c        ****     return (retVal);
 403              		.loc 1 181 0
 404 002c BB1D     		adds	r3, r7, #6
 405 002e 1B88     		ldrh	r3, [r3]
 182:hrss.c        **** }
 406              		.loc 1 182 0
 407 0030 1800     		movs	r0, r3
 408 0032 BD46     		mov	sp, r7
 409 0034 03B0     		add	sp, sp, #12
 410              		@ sp needed
 411 0036 90BD     		pop	{r4, r7, pc}
 412              		.cfi_endproc
 413              	.LFE40:
 414              		.size	HrssGetHrmDescriptor, .-HrssGetHrmDescriptor
 415              		.section	.text.HrssAddRrInterval,"ax",%progbits
 416              		.align	2
 417              		.global	HrssAddRrInterval
 418              		.code	16
ARM GAS  C:\Users\Lucia\AppData\Local\Temp\ccHZSqc3.s 			page 12


 419              		.thumb_func
 420              		.type	HrssAddRrInterval, %function
 421              	HrssAddRrInterval:
 422              	.LFB41:
 183:hrss.c        **** 
 184:hrss.c        **** 
 185:hrss.c        **** /*******************************************************************************
 186:hrss.c        **** * Function Name: HrssAddRrInterval
 187:hrss.c        **** ********************************************************************************
 188:hrss.c        **** *
 189:hrss.c        **** * Summary:
 190:hrss.c        **** *  Adds the next RR-Interval into the
 191:hrss.c        **** *  Heart Rate Measurument characteristic structure.
 192:hrss.c        **** *
 193:hrss.c        **** * Parameters:
 194:hrss.c        **** *  uint16 rrIntervalValue: RR-Interval value to be set.
 195:hrss.c        **** *
 196:hrss.c        **** * Return:
 197:hrss.c        **** *  None
 198:hrss.c        **** *
 199:hrss.c        **** *******************************************************************************/
 200:hrss.c        **** void HrssAddRrInterval(uint16 rrIntervalValue)
 201:hrss.c        **** {
 423              		.loc 1 201 0
 424              		.cfi_startproc
 425              		@ args = 0, pretend = 0, frame = 8
 426              		@ frame_needed = 1, uses_anonymous_args = 0
 427 0000 80B5     		push	{r7, lr}
 428              		.cfi_def_cfa_offset 8
 429              		.cfi_offset 7, -8
 430              		.cfi_offset 14, -4
 431 0002 82B0     		sub	sp, sp, #8
 432              		.cfi_def_cfa_offset 16
 433 0004 00AF     		add	r7, sp, #0
 434              		.cfi_def_cfa_register 7
 435 0006 0200     		movs	r2, r0
 436 0008 BB1D     		adds	r3, r7, #6
 437 000a 1A80     		strh	r2, [r3]
 202:hrss.c        ****     hrsHeartRate.flags |= CYBLE_HRS_HRM_RRINT;
 438              		.loc 1 202 0
 439 000c 154B     		ldr	r3, .L32
 440 000e 1B78     		ldrb	r3, [r3]
 441 0010 1022     		movs	r2, #16
 442 0012 1343     		orrs	r3, r2
 443 0014 DAB2     		uxtb	r2, r3
 444 0016 134B     		ldr	r3, .L32
 445 0018 1A70     		strb	r2, [r3]
 203:hrss.c        **** 
 204:hrss.c        ****     if(hrssRrIntPtr == CYBLE_HRS_HRM_RRSIZE - 1)
 446              		.loc 1 204 0
 447 001a 134B     		ldr	r3, .L32+4
 448 001c 1B78     		ldrb	r3, [r3]
 449 001e 082B     		cmp	r3, #8
 450 0020 03D1     		bne	.L29
 205:hrss.c        ****     {
 206:hrss.c        ****         hrssRrIntPtr = 0;
 451              		.loc 1 206 0
ARM GAS  C:\Users\Lucia\AppData\Local\Temp\ccHZSqc3.s 			page 13


 452 0022 114B     		ldr	r3, .L32+4
 453 0024 0022     		movs	r2, #0
 454 0026 1A70     		strb	r2, [r3]
 455 0028 05E0     		b	.L30
 456              	.L29:
 207:hrss.c        ****     }
 208:hrss.c        ****     else
 209:hrss.c        ****     {
 210:hrss.c        ****         hrssRrIntPtr++;
 457              		.loc 1 210 0
 458 002a 0F4B     		ldr	r3, .L32+4
 459 002c 1B78     		ldrb	r3, [r3]
 460 002e 0133     		adds	r3, r3, #1
 461 0030 DAB2     		uxtb	r2, r3
 462 0032 0D4B     		ldr	r3, .L32+4
 463 0034 1A70     		strb	r2, [r3]
 464              	.L30:
 211:hrss.c        ****     }
 212:hrss.c        **** 
 213:hrss.c        ****     if(hrssRrIntCnt <= CYBLE_HRS_HRM_RRSIZE)
 465              		.loc 1 213 0
 466 0036 0D4B     		ldr	r3, .L32+8
 467 0038 1B78     		ldrb	r3, [r3]
 468 003a 092B     		cmp	r3, #9
 469 003c 05D8     		bhi	.L31
 214:hrss.c        ****     {
 215:hrss.c        ****         hrssRrIntCnt++;
 470              		.loc 1 215 0
 471 003e 0B4B     		ldr	r3, .L32+8
 472 0040 1B78     		ldrb	r3, [r3]
 473 0042 0133     		adds	r3, r3, #1
 474 0044 DAB2     		uxtb	r2, r3
 475 0046 094B     		ldr	r3, .L32+8
 476 0048 1A70     		strb	r2, [r3]
 477              	.L31:
 216:hrss.c        ****     }
 217:hrss.c        **** 
 218:hrss.c        ****     hrsHeartRate.rrInterval[hrssRrIntPtr] = rrIntervalValue;
 478              		.loc 1 218 0
 479 004a 074B     		ldr	r3, .L32+4
 480 004c 1B78     		ldrb	r3, [r3]
 481 004e 054A     		ldr	r2, .L32
 482 0050 5B00     		lsls	r3, r3, #1
 483 0052 D318     		adds	r3, r2, r3
 484 0054 0633     		adds	r3, r3, #6
 485 0056 BA1D     		adds	r2, r7, #6
 486 0058 1288     		ldrh	r2, [r2]
 487 005a 1A80     		strh	r2, [r3]
 219:hrss.c        **** }
 488              		.loc 1 219 0
 489 005c C046     		nop
 490 005e BD46     		mov	sp, r7
 491 0060 02B0     		add	sp, sp, #8
 492              		@ sp needed
 493 0062 80BD     		pop	{r7, pc}
 494              	.L33:
 495              		.align	2
ARM GAS  C:\Users\Lucia\AppData\Local\Temp\ccHZSqc3.s 			page 14


 496              	.L32:
 497 0064 00000000 		.word	hrsHeartRate
 498 0068 00000000 		.word	hrssRrIntPtr
 499 006c 00000000 		.word	hrssRrIntCnt
 500              		.cfi_endproc
 501              	.LFE41:
 502              		.size	HrssAddRrInterval, .-HrssAddRrInterval
 503              		.section	.rodata
 504              		.align	2
 505              	.LC26:
 506 00f8 48727373 		.ascii	"HrssSendHeartRateNtf API Error: %x \015\012\000"
 506      53656E64 
 506      48656172 
 506      74526174 
 506      654E7466 
 507 011e 0000     		.align	2
 508              	.LC28:
 509 0120 48656172 		.ascii	"Heart Rate Notification is sent successfully, Heart"
 509      74205261 
 509      7465204E 
 509      6F746966 
 509      69636174 
 510 0153 20526174 		.ascii	" Rate = %d \015\012\000"
 510      65203D20 
 510      2564200D 
 510      0A00
 511              		.section	.text.HrssSendHeartRateNtf,"ax",%progbits
 512              		.align	2
 513              		.global	HrssSendHeartRateNtf
 514              		.code	16
 515              		.thumb_func
 516              		.type	HrssSendHeartRateNtf, %function
 517              	HrssSendHeartRateNtf:
 518              	.LFB42:
 220:hrss.c        **** 
 221:hrss.c        **** 
 222:hrss.c        **** /*******************************************************************************
 223:hrss.c        **** * Function Name: HrssSendHeartRateNtf
 224:hrss.c        **** ********************************************************************************
 225:hrss.c        **** *
 226:hrss.c        **** * Summary:
 227:hrss.c        **** *  Packs the Heart Rate Measurement characteristic structure into the
 228:hrss.c        **** *  uint8 array prior to sending it to the collector. Also clears the
 229:hrss.c        **** *  CYBLE_HRS_HRM_HRVAL16, CYBLE_HRS_HRM_ENEXP and CYBLE_HRS_HRM_RRINT flags.
 230:hrss.c        **** *
 231:hrss.c        **** * Parameters:
 232:hrss.c        **** *  attHandle:  Pointer to the handle which consists of device ID and ATT
 233:hrss.c        **** *              connection ID.
 234:hrss.c        **** *
 235:hrss.c        **** * Return:
 236:hrss.c        **** *  CYBLE_API_RESULT_T: API result will state if API succeeded
 237:hrss.c        **** *                      (CYBLE_ERROR_OK)
 238:hrss.c        **** *                      or failed with error codes.
 239:hrss.c        **** *
 240:hrss.c        **** *******************************************************************************/
 241:hrss.c        **** void HrssSendHeartRateNtf()
 242:hrss.c        **** {
ARM GAS  C:\Users\Lucia\AppData\Local\Temp\ccHZSqc3.s 			page 15


 519              		.loc 1 242 0
 520              		.cfi_startproc
 521              		@ args = 0, pretend = 0, frame = 24
 522              		@ frame_needed = 1, uses_anonymous_args = 0
 523 0000 90B5     		push	{r4, r7, lr}
 524              		.cfi_def_cfa_offset 12
 525              		.cfi_offset 4, -12
 526              		.cfi_offset 7, -8
 527              		.cfi_offset 14, -4
 528 0002 87B0     		sub	sp, sp, #28
 529              		.cfi_def_cfa_offset 40
 530 0004 00AF     		add	r7, sp, #0
 531              		.cfi_def_cfa_register 7
 243:hrss.c        ****     uint8 pdu[CYBLE_HRS_HRM_CHAR_LEN];
 244:hrss.c        ****     uint8 nextPtr;
 245:hrss.c        ****     uint8 length;
 246:hrss.c        ****     uint8 rrInt;
 247:hrss.c        **** 
 248:hrss.c        ****     /* Flags field is always the first byte */
 249:hrss.c        ****     pdu[0u] = hrsHeartRate.flags & (uint8) ~CYBLE_HRS_HRM_HRVAL16;
 532              		.loc 1 249 0
 533 0006 744B     		ldr	r3, .L47
 534 0008 1B78     		ldrb	r3, [r3]
 535 000a 0122     		movs	r2, #1
 536 000c 9343     		bics	r3, r2
 537 000e DAB2     		uxtb	r2, r3
 538 0010 3B00     		movs	r3, r7
 539 0012 1A70     		strb	r2, [r3]
 250:hrss.c        **** 
 251:hrss.c        ****     /* If the Heart Rate value exceeds one byte */
 252:hrss.c        ****     if(hrsHeartRate.heartRateValue > 0x00FFu)
 540              		.loc 1 252 0
 541 0014 704B     		ldr	r3, .L47
 542 0016 5B88     		ldrh	r3, [r3, #2]
 543 0018 FF2B     		cmp	r3, #255
 544 001a 13D9     		bls	.L35
 253:hrss.c        ****     {
 254:hrss.c        ****         /* then set the CYBLE_HRS_HRM_HRVAL16 flag */
 255:hrss.c        ****         pdu[0u] |= CYBLE_HRS_HRM_HRVAL16;
 545              		.loc 1 255 0
 546 001c 3B00     		movs	r3, r7
 547 001e 1B78     		ldrb	r3, [r3]
 548 0020 0122     		movs	r2, #1
 549 0022 1343     		orrs	r3, r2
 550 0024 DAB2     		uxtb	r2, r3
 551 0026 3B00     		movs	r3, r7
 552 0028 1A70     		strb	r2, [r3]
 256:hrss.c        ****         /* and set the full 2-bytes Heart Rate value */
 257:hrss.c        ****         CyBle_Set16ByPtr(&pdu[1u], hrsHeartRate.heartRateValue);
 553              		.loc 1 257 0
 554 002a 6B4B     		ldr	r3, .L47
 555 002c 5A88     		ldrh	r2, [r3, #2]
 556 002e 3B00     		movs	r3, r7
 557 0030 0133     		adds	r3, r3, #1
 558 0032 1100     		movs	r1, r2
 559 0034 1800     		movs	r0, r3
 560 0036 FFF7FEFF 		bl	CyBle_Set16ByPtr
ARM GAS  C:\Users\Lucia\AppData\Local\Temp\ccHZSqc3.s 			page 16


 258:hrss.c        ****         /* The next data will be located beginning from 3rd byte */
 259:hrss.c        ****         nextPtr = 3u;
 561              		.loc 1 259 0
 562 003a 1723     		movs	r3, #23
 563 003c FB18     		adds	r3, r7, r3
 564 003e 0322     		movs	r2, #3
 565 0040 1A70     		strb	r2, [r3]
 566 0042 08E0     		b	.L36
 567              	.L35:
 260:hrss.c        ****     }
 261:hrss.c        ****     else
 262:hrss.c        ****     {
 263:hrss.c        ****         /* Else leave the CYBLE_HRS_HRM_HRVAL16 flag remains being cleared */
 264:hrss.c        ****         /* and set only LSB of the  Heart Rate value */
 265:hrss.c        ****         pdu[1u] = (uint8) hrsHeartRate.heartRateValue;
 568              		.loc 1 265 0
 569 0044 644B     		ldr	r3, .L47
 570 0046 5B88     		ldrh	r3, [r3, #2]
 571 0048 DAB2     		uxtb	r2, r3
 572 004a 3B00     		movs	r3, r7
 573 004c 5A70     		strb	r2, [r3, #1]
 266:hrss.c        ****         /* The next data will be located beginning from 2nd byte */
 267:hrss.c        ****         nextPtr = 2u;
 574              		.loc 1 267 0
 575 004e 1723     		movs	r3, #23
 576 0050 FB18     		adds	r3, r7, r3
 577 0052 0222     		movs	r2, #2
 578 0054 1A70     		strb	r2, [r3]
 579              	.L36:
 268:hrss.c        ****     }
 269:hrss.c        **** 
 270:hrss.c        ****     /* If the Energy Expended flag is set */
 271:hrss.c        ****     if(0u != (hrsHeartRate.flags & CYBLE_HRS_HRM_ENEXP))
 580              		.loc 1 271 0
 581 0056 604B     		ldr	r3, .L47
 582 0058 1B78     		ldrb	r3, [r3]
 583 005a 1A00     		movs	r2, r3
 584 005c 0823     		movs	r3, #8
 585 005e 1340     		ands	r3, r2
 586 0060 18D0     		beq	.L37
 272:hrss.c        ****     {
 273:hrss.c        ****         /* clear the CYBLE_HRS_HRM_ENEXP flag */
 274:hrss.c        ****         hrsHeartRate.flags &= (uint8) ~CYBLE_HRS_HRM_ENEXP;
 587              		.loc 1 274 0
 588 0062 5D4B     		ldr	r3, .L47
 589 0064 1B78     		ldrb	r3, [r3]
 590 0066 0822     		movs	r2, #8
 591 0068 9343     		bics	r3, r2
 592 006a DAB2     		uxtb	r2, r3
 593 006c 5A4B     		ldr	r3, .L47
 594 006e 1A70     		strb	r2, [r3]
 275:hrss.c        ****         /* and set the 2-bytes Energy Expended value */
 276:hrss.c        ****         CyBle_Set16ByPtr(&pdu[nextPtr], hrsHeartRate.energyExpendedValue);
 595              		.loc 1 276 0
 596 0070 1723     		movs	r3, #23
 597 0072 FB18     		adds	r3, r7, r3
 598 0074 1B78     		ldrb	r3, [r3]
ARM GAS  C:\Users\Lucia\AppData\Local\Temp\ccHZSqc3.s 			page 17


 599 0076 3A00     		movs	r2, r7
 600 0078 D218     		adds	r2, r2, r3
 601 007a 574B     		ldr	r3, .L47
 602 007c 9B88     		ldrh	r3, [r3, #4]
 603 007e 1900     		movs	r1, r3
 604 0080 1000     		movs	r0, r2
 605 0082 FFF7FEFF 		bl	CyBle_Set16ByPtr
 277:hrss.c        ****         /* add 2 bytes: Energy Expended value is uint16 */
 278:hrss.c        ****         nextPtr += 2u;
 606              		.loc 1 278 0
 607 0086 1723     		movs	r3, #23
 608 0088 FB18     		adds	r3, r7, r3
 609 008a 1722     		movs	r2, #23
 610 008c BA18     		adds	r2, r7, r2
 611 008e 1278     		ldrb	r2, [r2]
 612 0090 0232     		adds	r2, r2, #2
 613 0092 1A70     		strb	r2, [r3]
 614              	.L37:
 279:hrss.c        ****     }
 280:hrss.c        **** 
 281:hrss.c        ****     if(HrssAreThereRrIntervals())
 615              		.loc 1 281 0
 616 0094 504B     		ldr	r3, .L47
 617 0096 1B78     		ldrb	r3, [r3]
 618 0098 1A00     		movs	r2, r3
 619 009a 1023     		movs	r3, #16
 620 009c 1340     		ands	r3, r2
 621 009e 69D0     		beq	.L38
 282:hrss.c        ****     {
 283:hrss.c        ****         /* Calculate the actual length of pdu: the RR-interval block length should be an even numbe
 284:hrss.c        ****         length = ((CYBLE_HRS_HRM_CHAR_LEN - nextPtr) & ~0x01) + nextPtr;
 622              		.loc 1 284 0
 623 00a0 1723     		movs	r3, #23
 624 00a2 FB18     		adds	r3, r7, r3
 625 00a4 1B78     		ldrb	r3, [r3]
 626 00a6 1422     		movs	r2, #20
 627 00a8 D31A     		subs	r3, r2, r3
 628 00aa DBB2     		uxtb	r3, r3
 629 00ac 0122     		movs	r2, #1
 630 00ae 9343     		bics	r3, r2
 631 00b0 D9B2     		uxtb	r1, r3
 632 00b2 1523     		movs	r3, #21
 633 00b4 FB18     		adds	r3, r7, r3
 634 00b6 1722     		movs	r2, #23
 635 00b8 BA18     		adds	r2, r7, r2
 636 00ba 1278     		ldrb	r2, [r2]
 637 00bc 8A18     		adds	r2, r1, r2
 638 00be 1A70     		strb	r2, [r3]
 285:hrss.c        **** 
 286:hrss.c        ****         rrInt = hrssRrIntPtr;
 639              		.loc 1 286 0
 640 00c0 1623     		movs	r3, #22
 641 00c2 FB18     		adds	r3, r7, r3
 642 00c4 454A     		ldr	r2, .L47+4
 643 00c6 1278     		ldrb	r2, [r2]
 644 00c8 1A70     		strb	r2, [r3]
 287:hrss.c        **** 
ARM GAS  C:\Users\Lucia\AppData\Local\Temp\ccHZSqc3.s 			page 18


 288:hrss.c        ****         while(nextPtr < length)
 645              		.loc 1 288 0
 646 00ca 48E0     		b	.L39
 647              	.L43:
 289:hrss.c        ****         {
 290:hrss.c        ****             /* Increment the rrInterval array pointer in RR-Interval buffer size loop */
 291:hrss.c        ****             rrInt++;
 648              		.loc 1 291 0
 649 00cc 1623     		movs	r3, #22
 650 00ce FB18     		adds	r3, r7, r3
 651 00d0 1A78     		ldrb	r2, [r3]
 652 00d2 1623     		movs	r3, #22
 653 00d4 FB18     		adds	r3, r7, r3
 654 00d6 0132     		adds	r2, r2, #1
 655 00d8 1A70     		strb	r2, [r3]
 292:hrss.c        ****             if(rrInt >= CYBLE_HRS_HRM_RRSIZE)
 656              		.loc 1 292 0
 657 00da 1623     		movs	r3, #22
 658 00dc FB18     		adds	r3, r7, r3
 659 00de 1B78     		ldrb	r3, [r3]
 660 00e0 082B     		cmp	r3, #8
 661 00e2 03D9     		bls	.L40
 293:hrss.c        ****             {
 294:hrss.c        ****                 rrInt = 0;
 662              		.loc 1 294 0
 663 00e4 1623     		movs	r3, #22
 664 00e6 FB18     		adds	r3, r7, r3
 665 00e8 0022     		movs	r2, #0
 666 00ea 1A70     		strb	r2, [r3]
 667              	.L40:
 295:hrss.c        ****             }
 296:hrss.c        **** 
 297:hrss.c        ****             if(hrsHeartRate.rrInterval[rrInt] != 0)
 668              		.loc 1 297 0
 669 00ec 1623     		movs	r3, #22
 670 00ee FB18     		adds	r3, r7, r3
 671 00f0 1B78     		ldrb	r3, [r3]
 672 00f2 394A     		ldr	r2, .L47
 673 00f4 5B00     		lsls	r3, r3, #1
 674 00f6 D318     		adds	r3, r2, r3
 675 00f8 0633     		adds	r3, r3, #6
 676 00fa 1B88     		ldrh	r3, [r3]
 677 00fc 002B     		cmp	r3, #0
 678 00fe 1FD0     		beq	.L41
 298:hrss.c        ****             {
 299:hrss.c        ****                 /* Copy the non-zero RR-Interval into the pdu */
 300:hrss.c        ****                 CyBle_Set16ByPtr(&pdu[nextPtr], hrsHeartRate.rrInterval[rrInt]);
 679              		.loc 1 300 0
 680 0100 1723     		movs	r3, #23
 681 0102 FB18     		adds	r3, r7, r3
 682 0104 1B78     		ldrb	r3, [r3]
 683 0106 3A00     		movs	r2, r7
 684 0108 D018     		adds	r0, r2, r3
 685 010a 1623     		movs	r3, #22
 686 010c FB18     		adds	r3, r7, r3
 687 010e 1B78     		ldrb	r3, [r3]
 688 0110 314A     		ldr	r2, .L47
ARM GAS  C:\Users\Lucia\AppData\Local\Temp\ccHZSqc3.s 			page 19


 689 0112 5B00     		lsls	r3, r3, #1
 690 0114 D318     		adds	r3, r2, r3
 691 0116 0633     		adds	r3, r3, #6
 692 0118 1B88     		ldrh	r3, [r3]
 693 011a 1900     		movs	r1, r3
 694 011c FFF7FEFF 		bl	CyBle_Set16ByPtr
 301:hrss.c        ****                 /* Clear the current RR-Interval in the buffer */
 302:hrss.c        ****                 hrsHeartRate.rrInterval[rrInt] = 0;
 695              		.loc 1 302 0
 696 0120 1623     		movs	r3, #22
 697 0122 FB18     		adds	r3, r7, r3
 698 0124 1B78     		ldrb	r3, [r3]
 699 0126 2C4A     		ldr	r2, .L47
 700 0128 5B00     		lsls	r3, r3, #1
 701 012a D318     		adds	r3, r2, r3
 702 012c 0633     		adds	r3, r3, #6
 703 012e 0022     		movs	r2, #0
 704 0130 1A80     		strh	r2, [r3]
 303:hrss.c        ****                 /* Add 2 bytes: RR-Interval value is uint16 */
 304:hrss.c        ****                 nextPtr += 2u;
 705              		.loc 1 304 0
 706 0132 1723     		movs	r3, #23
 707 0134 FB18     		adds	r3, r7, r3
 708 0136 1722     		movs	r2, #23
 709 0138 BA18     		adds	r2, r7, r2
 710 013a 1278     		ldrb	r2, [r2]
 711 013c 0232     		adds	r2, r2, #2
 712 013e 1A70     		strb	r2, [r3]
 713              	.L41:
 305:hrss.c        ****             }
 306:hrss.c        **** 
 307:hrss.c        ****             if(rrInt == hrssRrIntPtr)
 714              		.loc 1 307 0
 715 0140 264B     		ldr	r3, .L47+4
 716 0142 1B78     		ldrb	r3, [r3]
 717 0144 1622     		movs	r2, #22
 718 0146 BA18     		adds	r2, r7, r2
 719 0148 1278     		ldrb	r2, [r2]
 720 014a 9A42     		cmp	r2, r3
 721 014c 07D1     		bne	.L39
 308:hrss.c        ****             {
 309:hrss.c        ****                 hrsHeartRate.flags &= (uint8) ~CYBLE_HRS_HRM_RRINT;
 722              		.loc 1 309 0
 723 014e 224B     		ldr	r3, .L47
 724 0150 1B78     		ldrb	r3, [r3]
 725 0152 1022     		movs	r2, #16
 726 0154 9343     		bics	r3, r2
 727 0156 DAB2     		uxtb	r2, r3
 728 0158 1F4B     		ldr	r3, .L47
 729 015a 1A70     		strb	r2, [r3]
 310:hrss.c        ****                 break;
 730              		.loc 1 310 0
 731 015c 07E0     		b	.L42
 732              	.L39:
 288:hrss.c        ****         {
 733              		.loc 1 288 0
 734 015e 1723     		movs	r3, #23
ARM GAS  C:\Users\Lucia\AppData\Local\Temp\ccHZSqc3.s 			page 20


 735 0160 FA18     		adds	r2, r7, r3
 736 0162 1523     		movs	r3, #21
 737 0164 FB18     		adds	r3, r7, r3
 738 0166 1278     		ldrb	r2, [r2]
 739 0168 1B78     		ldrb	r3, [r3]
 740 016a 9A42     		cmp	r2, r3
 741 016c AED3     		bcc	.L43
 742              	.L42:
 311:hrss.c        ****             }
 312:hrss.c        ****         }
 313:hrss.c        **** 
 314:hrss.c        ****         hrssRrIntCnt = 0;
 743              		.loc 1 314 0
 744 016e 1C4B     		ldr	r3, .L47+8
 745 0170 0022     		movs	r2, #0
 746 0172 1A70     		strb	r2, [r3]
 747              	.L38:
 315:hrss.c        ****     }
 316:hrss.c        **** 	
 317:hrss.c        **** 	apiResult = CyBle_HrssSendNotification(cyBle_connHandle, CYBLE_HRS_HRM, nextPtr, pdu);
 748              		.loc 1 317 0
 749 0174 3C00     		movs	r4, r7
 750 0176 1723     		movs	r3, #23
 751 0178 FB18     		adds	r3, r7, r3
 752 017a 1978     		ldrb	r1, [r3]
 753 017c 194B     		ldr	r3, .L47+12
 754 017e 1A78     		ldrb	r2, [r3]
 755 0180 5B78     		ldrb	r3, [r3, #1]
 756 0182 1B02     		lsls	r3, r3, #8
 757 0184 1343     		orrs	r3, r2
 758 0186 0020     		movs	r0, #0
 759 0188 1B04     		lsls	r3, r3, #16
 760 018a 1B0C     		lsrs	r3, r3, #16
 761 018c 020C     		lsrs	r2, r0, #16
 762 018e 1204     		lsls	r2, r2, #16
 763 0190 1343     		orrs	r3, r2
 764 0192 1800     		movs	r0, r3
 765 0194 2300     		movs	r3, r4
 766 0196 0A00     		movs	r2, r1
 767 0198 0021     		movs	r1, #0
 768 019a FFF7FEFF 		bl	CyBle_HrssSendNotification
 769 019e 0300     		movs	r3, r0
 770 01a0 1A00     		movs	r2, r3
 771 01a2 114B     		ldr	r3, .L47+16
 772 01a4 1A80     		strh	r2, [r3]
 318:hrss.c        ****     
 319:hrss.c        ****     if(apiResult != CYBLE_ERROR_OK)
 773              		.loc 1 319 0
 774 01a6 104B     		ldr	r3, .L47+16
 775 01a8 1B88     		ldrh	r3, [r3]
 776 01aa 002B     		cmp	r3, #0
 777 01ac 08D0     		beq	.L44
 320:hrss.c        ****     {
 321:hrss.c        ****         printf("HrssSendHeartRateNtf API Error: %x \r\n", apiResult);
 778              		.loc 1 321 0
 779 01ae 0E4B     		ldr	r3, .L47+16
 780 01b0 1B88     		ldrh	r3, [r3]
ARM GAS  C:\Users\Lucia\AppData\Local\Temp\ccHZSqc3.s 			page 21


 781 01b2 1A00     		movs	r2, r3
 782 01b4 0D4B     		ldr	r3, .L47+20
 783 01b6 1100     		movs	r1, r2
 784 01b8 1800     		movs	r0, r3
 785 01ba FFF7FEFF 		bl	printf
 322:hrss.c        ****     }
 323:hrss.c        ****     else
 324:hrss.c        ****     {
 325:hrss.c        ****         printf("Heart Rate Notification is sent successfully, Heart Rate = %d \r\n", hrsHeartRate.h
 326:hrss.c        ****     }
 327:hrss.c        **** }
 786              		.loc 1 327 0
 787 01be 07E0     		b	.L46
 788              	.L44:
 325:hrss.c        ****     }
 789              		.loc 1 325 0
 790 01c0 054B     		ldr	r3, .L47
 791 01c2 5B88     		ldrh	r3, [r3, #2]
 792 01c4 1A00     		movs	r2, r3
 793 01c6 0A4B     		ldr	r3, .L47+24
 794 01c8 1100     		movs	r1, r2
 795 01ca 1800     		movs	r0, r3
 796 01cc FFF7FEFF 		bl	printf
 797              	.L46:
 798              		.loc 1 327 0
 799 01d0 C046     		nop
 800 01d2 BD46     		mov	sp, r7
 801 01d4 07B0     		add	sp, sp, #28
 802              		@ sp needed
 803 01d6 90BD     		pop	{r4, r7, pc}
 804              	.L48:
 805              		.align	2
 806              	.L47:
 807 01d8 00000000 		.word	hrsHeartRate
 808 01dc 00000000 		.word	hrssRrIntPtr
 809 01e0 00000000 		.word	hrssRrIntCnt
 810 01e4 00000000 		.word	cyBle_connHandle
 811 01e8 00000000 		.word	apiResult
 812 01ec F8000000 		.word	.LC26
 813 01f0 20010000 		.word	.LC28
 814              		.cfi_endproc
 815              	.LFE42:
 816              		.size	HrssSendHeartRateNtf, .-HrssSendHeartRateNtf
 817              		.global	__aeabi_uidiv
 818              		.global	__aeabi_idiv
 819              		.section	.text.SimulateHeartRate,"ax",%progbits
 820              		.align	2
 821              		.global	SimulateHeartRate
 822              		.code	16
 823              		.thumb_func
 824              		.type	SimulateHeartRate, %function
 825              	SimulateHeartRate:
 826              	.LFB43:
 328:hrss.c        **** 
 329:hrss.c        **** /*******************************************************************************
 330:hrss.c        **** * Function Name: SimulateHeartRate
 331:hrss.c        **** ********************************************************************************
ARM GAS  C:\Users\Lucia\AppData\Local\Temp\ccHZSqc3.s 			page 22


 332:hrss.c        **** *
 333:hrss.c        **** * Summary:
 334:hrss.c        **** *   Simulates all constituents of the Heart Rate Measurement characteristic.
 335:hrss.c        **** *
 336:hrss.c        **** * Parameters:
 337:hrss.c        **** *   None
 338:hrss.c        **** *
 339:hrss.c        **** * Return:
 340:hrss.c        **** *   None
 341:hrss.c        **** *
 342:hrss.c        **** *******************************************************************************/
 343:hrss.c        **** void SimulateHeartRate(void)
 344:hrss.c        **** {
 827              		.loc 1 344 0
 828              		.cfi_startproc
 829              		@ args = 0, pretend = 0, frame = 8
 830              		@ frame_needed = 1, uses_anonymous_args = 0
 831 0000 90B5     		push	{r4, r7, lr}
 832              		.cfi_def_cfa_offset 12
 833              		.cfi_offset 4, -12
 834              		.cfi_offset 7, -8
 835              		.cfi_offset 14, -4
 836 0002 83B0     		sub	sp, sp, #12
 837              		.cfi_def_cfa_offset 24
 838 0004 00AF     		add	r7, sp, #0
 839              		.cfi_def_cfa_register 7
 345:hrss.c        ****     static uint32 energyExpendedTimer   = ENERGY_EXPECTED_TIMEOUT;
 346:hrss.c        ****     static uint16 heartRate             = SIM_HEART_RATE_MIN;
 347:hrss.c        ****     
 348:hrss.c        ****     uint16 rrInterval;
 349:hrss.c        ****     uint8  rrIntCnt;
 350:hrss.c        **** 
 351:hrss.c        ****     /* Heart Rate simulation */
 352:hrss.c        ****     heartRate += SIM_HEART_RATE_INCREMENT;
 840              		.loc 1 352 0
 841 0006 304B     		ldr	r3, .L55
 842 0008 1B88     		ldrh	r3, [r3]
 843 000a 0C33     		adds	r3, r3, #12
 844 000c 9AB2     		uxth	r2, r3
 845 000e 2E4B     		ldr	r3, .L55
 846 0010 1A80     		strh	r2, [r3]
 353:hrss.c        ****     if(heartRate > SIM_HEART_RATE_MAX)
 847              		.loc 1 353 0
 848 0012 2D4B     		ldr	r3, .L55
 849 0014 1A88     		ldrh	r2, [r3]
 850 0016 9623     		movs	r3, #150
 851 0018 5B00     		lsls	r3, r3, #1
 852 001a 9A42     		cmp	r2, r3
 853 001c 02D9     		bls	.L50
 354:hrss.c        ****     {
 355:hrss.c        ****         heartRate = SIM_HEART_RATE_MIN;
 854              		.loc 1 355 0
 855 001e 2A4B     		ldr	r3, .L55
 856 0020 3C22     		movs	r2, #60
 857 0022 1A80     		strh	r2, [r3]
 858              	.L50:
 356:hrss.c        ****     }
ARM GAS  C:\Users\Lucia\AppData\Local\Temp\ccHZSqc3.s 			page 23


 357:hrss.c        **** 
 358:hrss.c        ****     HrssSetHeartRate(heartRate);
 859              		.loc 1 358 0
 860 0024 284B     		ldr	r3, .L55
 861 0026 1A88     		ldrh	r2, [r3]
 862 0028 284B     		ldr	r3, .L55+4
 863 002a 5A80     		strh	r2, [r3, #2]
 359:hrss.c        ****     
 360:hrss.c        ****     /* RR-Interval calculation */    
 361:hrss.c        ****     /* rrInterval = 60 000 mSec (1 min) / heartRate */
 362:hrss.c        ****     rrInterval = 60000u / heartRate;
 864              		.loc 1 362 0
 865 002c 264B     		ldr	r3, .L55
 866 002e 1B88     		ldrh	r3, [r3]
 867 0030 BC1D     		adds	r4, r7, #6
 868 0032 1900     		movs	r1, r3
 869 0034 2648     		ldr	r0, .L55+8
 870 0036 FFF7FEFF 		bl	__aeabi_uidiv
 871 003a 0300     		movs	r3, r0
 872 003c 2380     		strh	r3, [r4]
 363:hrss.c        ****     
 364:hrss.c        ****     /* count of RR-intervals per one second (1000 mSec) */
 365:hrss.c        ****     rrIntCnt = (uint8)(1000 / rrInterval);
 873              		.loc 1 365 0
 874 003e BB1D     		adds	r3, r7, #6
 875 0040 1B88     		ldrh	r3, [r3]
 876 0042 1900     		movs	r1, r3
 877 0044 FA23     		movs	r3, #250
 878 0046 9800     		lsls	r0, r3, #2
 879 0048 FFF7FEFF 		bl	__aeabi_idiv
 880 004c 0300     		movs	r3, r0
 881 004e 1A00     		movs	r2, r3
 882 0050 7B1D     		adds	r3, r7, #5
 883 0052 1A70     		strb	r2, [r3]
 366:hrss.c        **** 
 367:hrss.c        ****     while(rrIntCnt > 0u)
 884              		.loc 1 367 0
 885 0054 12E0     		b	.L51
 886              	.L53:
 368:hrss.c        ****     {
 369:hrss.c        ****         if(!HrssIsRrIntervalBufferFull())
 887              		.loc 1 369 0
 888 0056 1F4B     		ldr	r3, .L55+12
 889 0058 1B78     		ldrb	r3, [r3]
 890 005a 082B     		cmp	r3, #8
 891 005c 04D8     		bhi	.L52
 370:hrss.c        ****         {
 371:hrss.c        ****             HrssAddRrInterval(rrInterval);
 892              		.loc 1 371 0
 893 005e BB1D     		adds	r3, r7, #6
 894 0060 1B88     		ldrh	r3, [r3]
 895 0062 1800     		movs	r0, r3
 896 0064 FFF7FEFF 		bl	HrssAddRrInterval
 897              	.L52:
 372:hrss.c        ****         }
 373:hrss.c        ****         rrInterval++;
 898              		.loc 1 373 0
ARM GAS  C:\Users\Lucia\AppData\Local\Temp\ccHZSqc3.s 			page 24


 899 0068 BB1D     		adds	r3, r7, #6
 900 006a 1A88     		ldrh	r2, [r3]
 901 006c BB1D     		adds	r3, r7, #6
 902 006e 0132     		adds	r2, r2, #1
 903 0070 1A80     		strh	r2, [r3]
 374:hrss.c        ****         rrIntCnt--;
 904              		.loc 1 374 0
 905 0072 7B1D     		adds	r3, r7, #5
 906 0074 1A78     		ldrb	r2, [r3]
 907 0076 7B1D     		adds	r3, r7, #5
 908 0078 013A     		subs	r2, r2, #1
 909 007a 1A70     		strb	r2, [r3]
 910              	.L51:
 367:hrss.c        ****     {
 911              		.loc 1 367 0
 912 007c 7B1D     		adds	r3, r7, #5
 913 007e 1B78     		ldrb	r3, [r3]
 914 0080 002B     		cmp	r3, #0
 915 0082 E8D1     		bne	.L53
 375:hrss.c        ****     }
 376:hrss.c        ****     
 377:hrss.c        ****     /* Energy Expended simulation */
 378:hrss.c        ****     if(--energyExpendedTimer == 0)
 916              		.loc 1 378 0
 917 0084 144B     		ldr	r3, .L55+16
 918 0086 1B68     		ldr	r3, [r3]
 919 0088 5A1E     		subs	r2, r3, #1
 920 008a 134B     		ldr	r3, .L55+16
 921 008c 1A60     		str	r2, [r3]
 922 008e 124B     		ldr	r3, .L55+16
 923 0090 1B68     		ldr	r3, [r3]
 924 0092 002B     		cmp	r3, #0
 925 0094 12D1     		bne	.L54
 379:hrss.c        ****     {
 380:hrss.c        ****         energyExpendedTimer = ENERGY_EXPECTED_TIMEOUT;
 926              		.loc 1 380 0
 927 0096 104B     		ldr	r3, .L55+16
 928 0098 0A22     		movs	r2, #10
 929 009a 1A60     		str	r2, [r3]
 381:hrss.c        **** 
 382:hrss.c        ****         HrssSetEnergyExpended(energyExpended);
 930              		.loc 1 382 0
 931 009c 0F4B     		ldr	r3, .L55+20
 932 009e 1B88     		ldrh	r3, [r3]
 933 00a0 1800     		movs	r0, r3
 934 00a2 FFF7FEFF 		bl	HrssSetEnergyExpended
 383:hrss.c        **** 
 384:hrss.c        ****         if(energyExpended < (CYBLE_ENERGY_EXPENDED_MAX_VALUE - SIM_ENERGY_EXPENDED_INCREMENT))
 935              		.loc 1 384 0
 936 00a6 0D4B     		ldr	r3, .L55+20
 937 00a8 1B88     		ldrh	r3, [r3]
 938 00aa 0D4A     		ldr	r2, .L55+24
 939 00ac 9342     		cmp	r3, r2
 940 00ae 05D8     		bhi	.L54
 385:hrss.c        ****         {
 386:hrss.c        ****             energyExpended += SIM_ENERGY_EXPENDED_INCREMENT;
 941              		.loc 1 386 0
ARM GAS  C:\Users\Lucia\AppData\Local\Temp\ccHZSqc3.s 			page 25


 942 00b0 0A4B     		ldr	r3, .L55+20
 943 00b2 1B88     		ldrh	r3, [r3]
 944 00b4 1433     		adds	r3, r3, #20
 945 00b6 9AB2     		uxth	r2, r3
 946 00b8 084B     		ldr	r3, .L55+20
 947 00ba 1A80     		strh	r2, [r3]
 948              	.L54:
 387:hrss.c        ****         }
 388:hrss.c        ****     }
 389:hrss.c        ****     
 390:hrss.c        ****     HrssSendHeartRateNtf();
 949              		.loc 1 390 0
 950 00bc FFF7FEFF 		bl	HrssSendHeartRateNtf
 391:hrss.c        **** }
 951              		.loc 1 391 0
 952 00c0 C046     		nop
 953 00c2 BD46     		mov	sp, r7
 954 00c4 03B0     		add	sp, sp, #12
 955              		@ sp needed
 956 00c6 90BD     		pop	{r4, r7, pc}
 957              	.L56:
 958              		.align	2
 959              	.L55:
 960 00c8 00000000 		.word	heartRate.8780
 961 00cc 00000000 		.word	hrsHeartRate
 962 00d0 60EA0000 		.word	60000
 963 00d4 00000000 		.word	hrssRrIntCnt
 964 00d8 04000000 		.word	energyExpendedTimer.8779
 965 00dc 00000000 		.word	energyExpended
 966 00e0 EAFF0000 		.word	65514
 967              		.cfi_endproc
 968              	.LFE43:
 969              		.size	SimulateHeartRate, .-SimulateHeartRate
 970              		.data
 971              		.align	1
 972              		.type	heartRate.8780, %object
 973              		.size	heartRate.8780, 2
 974              	heartRate.8780:
 975 0000 3C00     		.short	60
 976 0002 0000     		.align	2
 977              		.type	energyExpendedTimer.8779, %object
 978              		.size	energyExpendedTimer.8779, 4
 979              	energyExpendedTimer.8779:
 980 0004 0A000000 		.word	10
 981              		.text
 982              	.Letext0:
 983              		.file 2 "Generated_Source\\PSoC4/cytypes.h"
 984              		.file 3 "Generated_Source\\PSoC4/CYBLE_Stack.h"
 985              		.file 4 "Generated_Source\\PSoC4/CYBLE_StackGatt.h"
 986              		.file 5 "Generated_Source\\PSoC4/CYBLE_hrs.h"
 987              		.file 6 "Generated_Source\\PSoC4/CYBLE_dis.h"
 988              		.file 7 "Generated_Source\\PSoC4/CYBLE_eventHandler.h"
 989              		.file 8 "hrss.h"
 990              		.file 9 "common.h"