ARM GAS  C:\Users\Lucia\AppData\Local\Temp\ccRIrgWW.s 			page 1


   1              		.syntax unified
   2              		.cpu cortex-m0
   3              		.fpu softvfp
   4              		.eabi_attribute 20, 1
   5              		.eabi_attribute 21, 1
   6              		.eabi_attribute 23, 3
   7              		.eabi_attribute 24, 1
   8              		.eabi_attribute 25, 1
   9              		.eabi_attribute 26, 1
  10              		.eabi_attribute 30, 6
  11              		.eabi_attribute 34, 0
  12              		.eabi_attribute 18, 4
  13              		.thumb
  14              		.syntax unified
  15              		.file	"main.c"
  16              		.text
  17              	.Ltext0:
  18              		.cfi_sections	.debug_frame
  19              		.comm	apiResult,2,2
  20              		.section	.text.AppCallBack,"ax",%progbits
  21              		.align	2
  22              		.global	AppCallBack
  23              		.code	16
  24              		.thumb_func
  25              		.type	AppCallBack, %function
  26              	AppCallBack:
  27              	.LFB36:
  28              		.file 1 "main.c"
   1:main.c        **** /*******************************************************************************
   2:main.c        **** * File Name: main.c
   3:main.c        **** *
   4:main.c        **** * Version 1.0
   5:main.c        **** *
   6:main.c        **** * Description:
   7:main.c        **** *  This project demonstrates the operation of the Heart Rate Profile
   8:main.c        **** *  in Server (Peripheral) role.
   9:main.c        **** *
  10:main.c        **** * Note:
  11:main.c        **** *
  12:main.c        **** * Hardware Dependency:
  13:main.c        **** *  CY8CKIT-042 BLE
  14:main.c        **** *
  15:main.c        **** ********************************************************************************
  16:main.c        **** * Copyright 2014, Cypress Semiconductor Corporation.  All rights reserved.
  17:main.c        **** * You may use this file only in accordance with the license, terms, conditions,
  18:main.c        **** * disclaimers, and limitations in the end user license agreement accompanying
  19:main.c        **** * the software package with which this file was provided.
  20:main.c        **** *******************************************************************************/
  21:main.c        **** 
  22:main.c        **** #include "hrss.h"
  23:main.c        **** 
  24:main.c        **** CYBLE_API_RESULT_T apiResult;
  25:main.c        **** 
  26:main.c        **** 
  27:main.c        **** /*******************************************************************************
  28:main.c        **** * Function Name: AppCallBack()
  29:main.c        **** ********************************************************************************
ARM GAS  C:\Users\Lucia\AppData\Local\Temp\ccRIrgWW.s 			page 2


  30:main.c        **** *
  31:main.c        **** * Summary:
  32:main.c        **** *   This is an event callback function to receive events from the BLE Component.
  33:main.c        **** *
  34:main.c        **** * Parameters:
  35:main.c        **** *  event - the event code
  36:main.c        **** *  *eventParam - the event parameters
  37:main.c        **** *
  38:main.c        **** *******************************************************************************/
  39:main.c        **** void AppCallBack(uint32 event, void* eventParam)
  40:main.c        **** {
  29              		.loc 1 40 0
  30              		.cfi_startproc
  31              		@ args = 0, pretend = 0, frame = 8
  32              		@ frame_needed = 1, uses_anonymous_args = 0
  33 0000 80B5     		push	{r7, lr}
  34              		.cfi_def_cfa_offset 8
  35              		.cfi_offset 7, -8
  36              		.cfi_offset 14, -4
  37 0002 82B0     		sub	sp, sp, #8
  38              		.cfi_def_cfa_offset 16
  39 0004 00AF     		add	r7, sp, #0
  40              		.cfi_def_cfa_register 7
  41 0006 7860     		str	r0, [r7, #4]
  42 0008 3960     		str	r1, [r7]
  41:main.c        **** #ifdef DEBUG_OUT    
  42:main.c        ****     DebugOut(event, eventParam);
  43              		.loc 1 42 0
  44 000a 3A68     		ldr	r2, [r7]
  45 000c 7B68     		ldr	r3, [r7, #4]
  46 000e 1100     		movs	r1, r2
  47 0010 1800     		movs	r0, r3
  48 0012 FFF7FEFF 		bl	DebugOut
  43:main.c        **** #endif
  44:main.c        **** 
  45:main.c        ****     switch(event)
  49              		.loc 1 45 0
  50 0016 7B68     		ldr	r3, [r7, #4]
  51 0018 272B     		cmp	r3, #39
  52 001a 0AD0     		beq	.L3
  53 001c 282B     		cmp	r3, #40
  54 001e 02D0     		beq	.L4
  55 0020 012B     		cmp	r3, #1
  56 0022 00D0     		beq	.L4
  46:main.c        ****     {
  47:main.c        ****         case CYBLE_EVT_STACK_ON:
  48:main.c        ****         case CYBLE_EVT_GAP_DEVICE_DISCONNECTED:
  49:main.c        ****             heartRateSimulation = DISABLED;
  50:main.c        ****             /* Put the device into discoverable mode so that remote can search it. */
  51:main.c        ****             StartAdvertisement();
  52:main.c        ****             break;
  53:main.c        ****             
  54:main.c        ****         case CYBLE_EVT_GAP_DEVICE_CONNECTED:
  55:main.c        ****             Advertising_LED_Write(LED_OFF);
  56:main.c        ****             break;
  57:main.c        **** 
  58:main.c        ****         default:
ARM GAS  C:\Users\Lucia\AppData\Local\Temp\ccRIrgWW.s 			page 3


  59:main.c        ****             break;
  57              		.loc 1 59 0
  58 0024 09E0     		b	.L5
  59              	.L4:
  49:main.c        ****             /* Put the device into discoverable mode so that remote can search it. */
  60              		.loc 1 49 0
  61 0026 074B     		ldr	r3, .L6
  62 0028 0022     		movs	r2, #0
  63 002a 1A70     		strb	r2, [r3]
  51:main.c        ****             break;
  64              		.loc 1 51 0
  65 002c FFF7FEFF 		bl	StartAdvertisement
  52:main.c        ****             
  66              		.loc 1 52 0
  67 0030 03E0     		b	.L5
  68              	.L3:
  55:main.c        ****             break;
  69              		.loc 1 55 0
  70 0032 0120     		movs	r0, #1
  71 0034 FFF7FEFF 		bl	Advertising_LED_Write
  56:main.c        **** 
  72              		.loc 1 56 0
  73 0038 C046     		nop
  74              	.L5:
  60:main.c        ****     }
  61:main.c        **** }
  75              		.loc 1 61 0
  76 003a C046     		nop
  77 003c BD46     		mov	sp, r7
  78 003e 02B0     		add	sp, sp, #8
  79              		@ sp needed
  80 0040 80BD     		pop	{r7, pc}
  81              	.L7:
  82 0042 C046     		.align	2
  83              	.L6:
  84 0044 00000000 		.word	heartRateSimulation
  85              		.cfi_endproc
  86              	.LFE36:
  87              		.size	AppCallBack, .-AppCallBack
  88              		.section	.rodata
  89              		.align	2
  90              	.LC1:
  91 0000 424C4520 		.ascii	"BLE Heart Rate Sensor Example Project \015\000"
  91      48656172 
  91      74205261 
  91      74652053 
  91      656E736F 
  92              		.align	2
  93              	.LC5:
  94 0028 4379426C 		.ascii	"CyBle_Start API Error: %x \015\012\000"
  94      655F5374 
  94      61727420 
  94      41504920 
  94      4572726F 
  95 0045 000000   		.align	2
  96              	.LC7:
  97 0048 4379426C 		.ascii	"CyBle_GetStackLibraryVersion API Error: 0x%x \015\012"
ARM GAS  C:\Users\Lucia\AppData\Local\Temp\ccRIrgWW.s 			page 4


  97      655F4765 
  97      74537461 
  97      636B4C69 
  97      62726172 
  98 0077 00       		.ascii	"\000"
  99              		.align	2
 100              	.LC9:
 101 0078 53746163 		.ascii	"Stack Version: %d.%d.%d.%d \015\012\000"
 101      6B205665 
 101      7273696F 
 101      6E3A2025 
 101      642E2564 
 102              		.section	.text.main,"ax",%progbits
 103              		.align	2
 104              		.global	main
 105              		.code	16
 106              		.thumb_func
 107              		.type	main, %function
 108              	main:
 109              	.LFB37:
  62:main.c        **** 
  63:main.c        **** int main()
  64:main.c        **** {
 110              		.loc 1 64 0
 111              		.cfi_startproc
 112              		@ args = 0, pretend = 0, frame = 8
 113              		@ frame_needed = 1, uses_anonymous_args = 0
 114 0000 90B5     		push	{r4, r7, lr}
 115              		.cfi_def_cfa_offset 12
 116              		.cfi_offset 4, -12
 117              		.cfi_offset 7, -8
 118              		.cfi_offset 14, -4
 119 0002 85B0     		sub	sp, sp, #20
 120              		.cfi_def_cfa_offset 32
 121 0004 02AF     		add	r7, sp, #8
 122              		.cfi_def_cfa 7, 24
  65:main.c        ****     CYBLE_STACK_LIB_VERSION_T stackVersion;
  66:main.c        **** 
  67:main.c        ****     CyGlobalIntEnable;
 123              		.loc 1 67 0
 124              		.syntax divided
 125              	@ 67 "main.c" 1
 126 0006 62B6     		CPSIE   i
 127              	@ 0 "" 2
  68:main.c        ****     
  69:main.c        ****     UART_DEB_Start();               /* Start communication component */
 128              		.loc 1 69 0
 129              		.thumb
 130              		.syntax unified
 131 0008 FFF7FEFF 		bl	UART_DEB_Start
  70:main.c        ****     printf("BLE Heart Rate Sensor Example Project \r\n");
 132              		.loc 1 70 0
 133 000c 314B     		ldr	r3, .L15
 134 000e 1800     		movs	r0, r3
 135 0010 FFF7FEFF 		bl	puts
  71:main.c        ****     
  72:main.c        ****     Disconnect_LED_Write(LED_OFF);
ARM GAS  C:\Users\Lucia\AppData\Local\Temp\ccRIrgWW.s 			page 5


 136              		.loc 1 72 0
 137 0014 0120     		movs	r0, #1
 138 0016 FFF7FEFF 		bl	Disconnect_LED_Write
  73:main.c        ****     Advertising_LED_Write(LED_OFF);
 139              		.loc 1 73 0
 140 001a 0120     		movs	r0, #1
 141 001c FFF7FEFF 		bl	Advertising_LED_Write
  74:main.c        **** 
  75:main.c        ****     /* Start CYBLE component and register generic event handler */
  76:main.c        ****     apiResult = CyBle_Start(AppCallBack);
 142              		.loc 1 76 0
 143 0020 2D4B     		ldr	r3, .L15+4
 144 0022 1800     		movs	r0, r3
 145 0024 FFF7FEFF 		bl	CyBle_Start
 146 0028 0300     		movs	r3, r0
 147 002a 1A00     		movs	r2, r3
 148 002c 2B4B     		ldr	r3, .L15+8
 149 002e 1A80     		strh	r2, [r3]
  77:main.c        ****     if(apiResult != CYBLE_ERROR_OK)
 150              		.loc 1 77 0
 151 0030 2A4B     		ldr	r3, .L15+8
 152 0032 1B88     		ldrh	r3, [r3]
 153 0034 002B     		cmp	r3, #0
 154 0036 07D0     		beq	.L9
  78:main.c        ****     {
  79:main.c        ****         printf("CyBle_Start API Error: %x \r\n", apiResult);
 155              		.loc 1 79 0
 156 0038 284B     		ldr	r3, .L15+8
 157 003a 1B88     		ldrh	r3, [r3]
 158 003c 1A00     		movs	r2, r3
 159 003e 284B     		ldr	r3, .L15+12
 160 0040 1100     		movs	r1, r2
 161 0042 1800     		movs	r0, r3
 162 0044 FFF7FEFF 		bl	printf
 163              	.L9:
  80:main.c        ****     }
  81:main.c        ****     
  82:main.c        ****     apiResult = CyBle_GetStackLibraryVersion(&stackVersion);
 164              		.loc 1 82 0
 165 0048 3B00     		movs	r3, r7
 166 004a 1800     		movs	r0, r3
 167 004c FFF7FEFF 		bl	CyBle_GetStackLibraryVersion
 168 0050 0300     		movs	r3, r0
 169 0052 1A00     		movs	r2, r3
 170 0054 214B     		ldr	r3, .L15+8
 171 0056 1A80     		strh	r2, [r3]
  83:main.c        ****     if(apiResult != CYBLE_ERROR_OK)
 172              		.loc 1 83 0
 173 0058 204B     		ldr	r3, .L15+8
 174 005a 1B88     		ldrh	r3, [r3]
 175 005c 002B     		cmp	r3, #0
 176 005e 08D0     		beq	.L10
  84:main.c        ****     {
  85:main.c        ****         printf("CyBle_GetStackLibraryVersion API Error: 0x%x \r\n", apiResult);
 177              		.loc 1 85 0
 178 0060 1E4B     		ldr	r3, .L15+8
 179 0062 1B88     		ldrh	r3, [r3]
ARM GAS  C:\Users\Lucia\AppData\Local\Temp\ccRIrgWW.s 			page 6


 180 0064 1A00     		movs	r2, r3
 181 0066 1F4B     		ldr	r3, .L15+16
 182 0068 1100     		movs	r1, r2
 183 006a 1800     		movs	r0, r3
 184 006c FFF7FEFF 		bl	printf
 185 0070 0FE0     		b	.L11
 186              	.L10:
  86:main.c        ****     }
  87:main.c        ****     else
  88:main.c        ****     {
  89:main.c        ****         printf("Stack Version: %d.%d.%d.%d \r\n", stackVersion.majorVersion, 
 187              		.loc 1 89 0
 188 0072 3B00     		movs	r3, r7
 189 0074 1B88     		ldrh	r3, [r3]
 190 0076 1900     		movs	r1, r3
  90:main.c        ****             stackVersion.minorVersion, stackVersion.patch, stackVersion.buildNumber);
 191              		.loc 1 90 0
 192 0078 3B00     		movs	r3, r7
 193 007a 5B88     		ldrh	r3, [r3, #2]
  89:main.c        ****             stackVersion.minorVersion, stackVersion.patch, stackVersion.buildNumber);
 194              		.loc 1 89 0
 195 007c 1A00     		movs	r2, r3
 196              		.loc 1 90 0
 197 007e 3B00     		movs	r3, r7
 198 0080 9B88     		ldrh	r3, [r3, #4]
  89:main.c        ****             stackVersion.minorVersion, stackVersion.patch, stackVersion.buildNumber);
 199              		.loc 1 89 0
 200 0082 1C00     		movs	r4, r3
 201              		.loc 1 90 0
 202 0084 3B00     		movs	r3, r7
 203 0086 DB88     		ldrh	r3, [r3, #6]
  89:main.c        ****             stackVersion.minorVersion, stackVersion.patch, stackVersion.buildNumber);
 204              		.loc 1 89 0
 205 0088 1748     		ldr	r0, .L15+20
 206 008a 0093     		str	r3, [sp]
 207 008c 2300     		movs	r3, r4
 208 008e FFF7FEFF 		bl	printf
 209              	.L11:
  91:main.c        ****     }
  92:main.c        ****     
  93:main.c        ****     /* Services initialization */
  94:main.c        ****     HrsInit();
 210              		.loc 1 94 0
 211 0092 FFF7FEFF 		bl	HrsInit
  95:main.c        ****     CapSense_Start();
 212              		.loc 1 95 0
 213 0096 FFF7FEFF 		bl	CapSense_Start
  96:main.c        ****     
  97:main.c        ****     //Initialize baselines
  98:main.c        ****     CapSense_InitializeAllBaselines();
 214              		.loc 1 98 0
 215 009a FFF7FEFF 		bl	CapSense_InitializeAllBaselines
 216              	.L14:
  99:main.c        ****     
 100:main.c        ****     /***************************************************************************
 101:main.c        ****     * Main polling loop
 102:main.c        ****     ***************************************************************************/
ARM GAS  C:\Users\Lucia\AppData\Local\Temp\ccRIrgWW.s 			page 7


 103:main.c        ****     while(1)
 104:main.c        ****     {        
 105:main.c        ****         /***********************************************************************
 106:main.c        ****         * Wait for connection established with Central device
 107:main.c        ****         ***********************************************************************/
 108:main.c        ****         if(CyBle_GetState() == CYBLE_STATE_CONNECTED)
 217              		.loc 1 108 0
 218 009e 134B     		ldr	r3, .L15+24
 219 00a0 1B78     		ldrb	r3, [r3]
 220 00a2 022B     		cmp	r3, #2
 221 00a4 13D1     		bne	.L12
 109:main.c        ****         {
 110:main.c        ****             //Update baselines
 111:main.c        ****             CapSense_UpdateEnabledBaselines();
 222              		.loc 1 111 0
 223 00a6 FFF7FEFF 		bl	CapSense_UpdateEnabledBaselines
 112:main.c        ****             //Scan enabled sensors
 113:main.c        ****             CapSense_ScanEnabledWidgets();
 224              		.loc 1 113 0
 225 00aa FFF7FEFF 		bl	CapSense_ScanEnabledWidgets
 114:main.c        ****             //Wait for scanning to finish
 115:main.c        ****             while(CapSense_IsBusy());
 226              		.loc 1 115 0
 227 00ae C046     		nop
 228              	.L13:
 229              		.loc 1 115 0 is_stmt 0 discriminator 1
 230 00b0 FFF7FEFF 		bl	CapSense_IsBusy
 231 00b4 031E     		subs	r3, r0, #0
 232 00b6 FBD1     		bne	.L13
 116:main.c        ****             
 117:main.c        ****             /*******************************************************************
 118:main.c        ****             *  if touched, simulate heart rate and measure a battery level 
 119:main.c        ****             *  and send results to the Client
 120:main.c        ****             *******************************************************************/        
 121:main.c        ****             if(CapSense_CheckIsWidgetActive(CapSense_BUTTON0__BTN))
 233              		.loc 1 121 0 is_stmt 1
 234 00b8 0020     		movs	r0, #0
 235 00ba FFF7FEFF 		bl	CapSense_CheckIsWidgetActive
 236 00be 031E     		subs	r3, r0, #0
 237 00c0 05D0     		beq	.L12
 122:main.c        ****             {
 123:main.c        ****                 if(heartRateSimulation == ENABLED)
 238              		.loc 1 123 0
 239 00c2 0B4B     		ldr	r3, .L15+28
 240 00c4 1B78     		ldrb	r3, [r3]
 241 00c6 012B     		cmp	r3, #1
 242 00c8 01D1     		bne	.L12
 124:main.c        ****                 {
 125:main.c        ****                     SimulateHeartRate();
 243              		.loc 1 125 0
 244 00ca FFF7FEFF 		bl	SimulateHeartRate
 245              	.L12:
 126:main.c        ****                 }
 127:main.c        ****             }
 128:main.c        ****         }
 129:main.c        ****         
 130:main.c        ****         /*******************************************************************
ARM GAS  C:\Users\Lucia\AppData\Local\Temp\ccRIrgWW.s 			page 8


 131:main.c        ****         *  Process all pending BLE events in the stack
 132:main.c        ****         *******************************************************************/
 133:main.c        ****         CyBle_ProcessEvents();
 246              		.loc 1 133 0
 247 00ce FFF7FEFF 		bl	CyBle_ProcessEvents
 134:main.c        ****     }
 248              		.loc 1 134 0
 249 00d2 E4E7     		b	.L14
 250              	.L16:
 251              		.align	2
 252              	.L15:
 253 00d4 00000000 		.word	.LC1
 254 00d8 00000000 		.word	AppCallBack
 255 00dc 00000000 		.word	apiResult
 256 00e0 28000000 		.word	.LC5
 257 00e4 48000000 		.word	.LC7
 258 00e8 78000000 		.word	.LC9
 259 00ec 00000000 		.word	cyBle_state
 260 00f0 00000000 		.word	heartRateSimulation
 261              		.cfi_endproc
 262              	.LFE37:
 263              		.size	main, .-main
 264              		.text
 265              	.Letext0:
 266              		.file 2 "Generated_Source\\PSoC4/cytypes.h"
 267              		.file 3 "Generated_Source\\PSoC4/CYBLE_Stack.h"
 268              		.file 4 "Generated_Source\\PSoC4/CYBLE_hrs.h"
 269              		.file 5 "Generated_Source\\PSoC4/CYBLE_dis.h"
 270              		.file 6 "Generated_Source\\PSoC4/CYBLE_eventHandler.h"
 271              		.file 7 "hrss.h"