ARM GAS  C:\Users\Lucia\AppData\Local\Temp\ccTNxJdd.s 			page 1


   1              		.syntax unified
   2              		.cpu cortex-m0
   3              		.fpu softvfp
   4              		.eabi_attribute 20, 1
   5              		.eabi_attribute 21, 1
   6              		.eabi_attribute 23, 3
   7              		.eabi_attribute 24, 1
   8              		.eabi_attribute 25, 1
   9              		.eabi_attribute 26, 1
  10              		.eabi_attribute 30, 6
  11              		.eabi_attribute 34, 0
  12              		.eabi_attribute 18, 4
  13              		.thumb
  14              		.syntax unified
  15              		.file	"server.c"
  16              		.text
  17              	.Ltext0:
  18              		.cfi_sections	.debug_frame
  19              		.section	.rodata
  20              		.align	2
  21              	.LC1:
  22 0000 53746172 		.ascii	"StartAdvertisement API Error: %x \015\012\000"
  22      74416476 
  22      65727469 
  22      73656D65 
  22      6E742041 
  23              		.align	2
  24              	.LC3:
  25 0024 53746172 		.ascii	"Start Advertisement with addr: \000"
  25      74204164 
  25      76657274 
  25      6973656D 
  25      656E7420 
  26              		.align	2
  27              	.LC5:
  28 0044 25322E32 		.ascii	"%2.2x\000"
  28      7800
  29 004a 0000     		.align	2
  30              	.LC7:
  31 004c 0D00     		.ascii	"\015\000"
  32              		.section	.text.StartAdvertisement,"ax",%progbits
  33              		.align	2
  34              		.global	StartAdvertisement
  35              		.code	16
  36              		.thumb_func
  37              		.type	StartAdvertisement, %function
  38              	StartAdvertisement:
  39              	.LFB36:
  40              		.file 1 "server.c"
   1:server.c      **** /*******************************************************************************
   2:server.c      **** * File Name: server.c
   3:server.c      **** *
   4:server.c      **** * Version 1.0
   5:server.c      **** *
   6:server.c      **** * Description:
   7:server.c      **** *  Common BLE application code for server devices.
   8:server.c      **** *
ARM GAS  C:\Users\Lucia\AppData\Local\Temp\ccTNxJdd.s 			page 2


   9:server.c      **** *******************************************************************************
  10:server.c      **** * Copyright 2014, Cypress Semiconductor Corporation.  All rights reserved.
  11:server.c      **** * You may use this file only in accordance with the license, terms, conditions,
  12:server.c      **** * disclaimers, and limitations in the end user license agreement accompanying
  13:server.c      **** * the software package with which this file was provided.
  14:server.c      **** *******************************************************************************/
  15:server.c      **** 
  16:server.c      **** #include <project.h>
  17:server.c      **** #include <stdio.h>
  18:server.c      **** #include "common.h"
  19:server.c      **** 
  20:server.c      **** 
  21:server.c      **** /*******************************************************************************
  22:server.c      **** * Function Name: StartAdvertisement
  23:server.c      **** ********************************************************************************
  24:server.c      **** *
  25:server.c      **** * Summary:
  26:server.c      **** *   Initiates the advertisement procedure.
  27:server.c      **** *   Prints the Device Address.
  28:server.c      **** *
  29:server.c      **** * Parameters:
  30:server.c      **** *   None.
  31:server.c      **** *
  32:server.c      **** * Return:
  33:server.c      **** *   None.
  34:server.c      **** *
  35:server.c      **** *******************************************************************************/
  36:server.c      **** void StartAdvertisement(void)
  37:server.c      **** {
  41              		.loc 1 37 0
  42              		.cfi_startproc
  43              		@ args = 0, pretend = 0, frame = 16
  44              		@ frame_needed = 1, uses_anonymous_args = 0
  45 0000 80B5     		push	{r7, lr}
  46              		.cfi_def_cfa_offset 8
  47              		.cfi_offset 7, -8
  48              		.cfi_offset 14, -4
  49 0002 84B0     		sub	sp, sp, #16
  50              		.cfi_def_cfa_offset 24
  51 0004 00AF     		add	r7, sp, #0
  52              		.cfi_def_cfa_register 7
  38:server.c      ****     uint16 i;
  39:server.c      ****     CYBLE_GAP_BD_ADDR_T localAddr;
  40:server.c      ****     apiResult = CyBle_GappStartAdvertisement(CYBLE_ADVERTISING_FAST);
  53              		.loc 1 40 0
  54 0006 0020     		movs	r0, #0
  55 0008 FFF7FEFF 		bl	CyBle_GappStartAdvertisement
  56 000c 0300     		movs	r3, r0
  57 000e 1A00     		movs	r2, r3
  58 0010 1D4B     		ldr	r3, .L7
  59 0012 1A80     		strh	r2, [r3]
  41:server.c      ****     if(apiResult != CYBLE_ERROR_OK)
  60              		.loc 1 41 0
  61 0014 1C4B     		ldr	r3, .L7
  62 0016 1B88     		ldrh	r3, [r3]
  63 0018 002B     		cmp	r3, #0
  64 001a 08D0     		beq	.L2
ARM GAS  C:\Users\Lucia\AppData\Local\Temp\ccTNxJdd.s 			page 3


  42:server.c      ****     {
  43:server.c      ****         printf("StartAdvertisement API Error: %x \r\n", (int) apiResult);
  65              		.loc 1 43 0
  66 001c 1A4B     		ldr	r3, .L7
  67 001e 1B88     		ldrh	r3, [r3]
  68 0020 1A00     		movs	r2, r3
  69 0022 1A4B     		ldr	r3, .L7+4
  70 0024 1100     		movs	r1, r2
  71 0026 1800     		movs	r0, r3
  72 0028 FFF7FEFF 		bl	printf
  44:server.c      ****     }
  45:server.c      ****     else
  46:server.c      ****     {
  47:server.c      ****         printf("Start Advertisement with addr: ");
  48:server.c      ****         CyBle_GetDeviceAddress(&localAddr);
  49:server.c      ****         for(i = CYBLE_GAP_BD_ADDR_SIZE; i > 0u; i--)
  50:server.c      ****         {
  51:server.c      ****             printf("%2.2x", localAddr.bdAddr[i-1]);
  52:server.c      ****         }
  53:server.c      ****         printf("\r\n");
  54:server.c      ****     }
  55:server.c      **** }
  73              		.loc 1 55 0
  74 002c 28E0     		b	.L6
  75              	.L2:
  47:server.c      ****         CyBle_GetDeviceAddress(&localAddr);
  76              		.loc 1 47 0
  77 002e 184B     		ldr	r3, .L7+8
  78 0030 1800     		movs	r0, r3
  79 0032 FFF7FEFF 		bl	printf
  48:server.c      ****         for(i = CYBLE_GAP_BD_ADDR_SIZE; i > 0u; i--)
  80              		.loc 1 48 0
  81 0036 3B1D     		adds	r3, r7, #4
  82 0038 1800     		movs	r0, r3
  83 003a FFF7FEFF 		bl	CyBle_GetDeviceAddress
  49:server.c      ****         {
  84              		.loc 1 49 0
  85 003e 0E23     		movs	r3, #14
  86 0040 FB18     		adds	r3, r7, r3
  87 0042 0622     		movs	r2, #6
  88 0044 1A80     		strh	r2, [r3]
  89 0046 12E0     		b	.L4
  90              	.L5:
  51:server.c      ****         }
  91              		.loc 1 51 0 discriminator 3
  92 0048 0E23     		movs	r3, #14
  93 004a FB18     		adds	r3, r7, r3
  94 004c 1B88     		ldrh	r3, [r3]
  95 004e 013B     		subs	r3, r3, #1
  96 0050 3A1D     		adds	r2, r7, #4
  97 0052 D35C     		ldrb	r3, [r2, r3]
  98 0054 1A00     		movs	r2, r3
  99 0056 0F4B     		ldr	r3, .L7+12
 100 0058 1100     		movs	r1, r2
 101 005a 1800     		movs	r0, r3
 102 005c FFF7FEFF 		bl	printf
  49:server.c      ****         {
ARM GAS  C:\Users\Lucia\AppData\Local\Temp\ccTNxJdd.s 			page 4


 103              		.loc 1 49 0 discriminator 3
 104 0060 0E23     		movs	r3, #14
 105 0062 FB18     		adds	r3, r7, r3
 106 0064 1A88     		ldrh	r2, [r3]
 107 0066 0E23     		movs	r3, #14
 108 0068 FB18     		adds	r3, r7, r3
 109 006a 013A     		subs	r2, r2, #1
 110 006c 1A80     		strh	r2, [r3]
 111              	.L4:
  49:server.c      ****         {
 112              		.loc 1 49 0 is_stmt 0 discriminator 1
 113 006e 0E23     		movs	r3, #14
 114 0070 FB18     		adds	r3, r7, r3
 115 0072 1B88     		ldrh	r3, [r3]
 116 0074 002B     		cmp	r3, #0
 117 0076 E7D1     		bne	.L5
  53:server.c      ****     }
 118              		.loc 1 53 0 is_stmt 1
 119 0078 074B     		ldr	r3, .L7+16
 120 007a 1800     		movs	r0, r3
 121 007c FFF7FEFF 		bl	puts
 122              	.L6:
 123              		.loc 1 55 0
 124 0080 C046     		nop
 125 0082 BD46     		mov	sp, r7
 126 0084 04B0     		add	sp, sp, #16
 127              		@ sp needed
 128 0086 80BD     		pop	{r7, pc}
 129              	.L8:
 130              		.align	2
 131              	.L7:
 132 0088 00000000 		.word	apiResult
 133 008c 00000000 		.word	.LC1
 134 0090 24000000 		.word	.LC3
 135 0094 44000000 		.word	.LC5
 136 0098 4C000000 		.word	.LC7
 137              		.cfi_endproc
 138              	.LFE36:
 139              		.size	StartAdvertisement, .-StartAdvertisement
 140              		.section	.rodata
 141 004e 0000     		.align	2
 142              	.LC10:
 143 0050 4359424C 		.ascii	"CYBLE_EVT_GAPP_ADVERTISEMENT_START_STOP, state: %x\015"
 143      455F4556 
 143      545F4741 
 143      50505F41 
 143      44564552 
 144 0083 0A00     		.ascii	"\012\000"
 145 0085 000000   		.align	2
 146              	.LC12:
 147 0088 48696265 		.ascii	"Hibernate \015\000"
 147      726E6174 
 147      65200D00 
 148              		.align	2
 149              	.LC14:
 150 0094 4556545F 		.ascii	"EVT_GATT_WRITE_REQ: %x = \000"
 150      47415454 
ARM GAS  C:\Users\Lucia\AppData\Local\Temp\ccTNxJdd.s 			page 5


 150      5F575249 
 150      54455F52 
 150      45513A20 
 151 00ae 0000     		.align	2
 152              	.LC16:
 153 00b0 25322E32 		.ascii	"%2.2x \000"
 153      782000
 154 00b7 00       		.align	2
 155              	.LC19:
 156 00b8 4556545F 		.ascii	"EVT_GATTS_XCNHG_MTU_REQ \015\000"
 156      47415454 
 156      535F5843 
 156      4E48475F 
 156      4D54555F 
 157 00d2 0000     		.align	2
 158              	.LC21:
 159 00d4 4556545F 		.ascii	"EVT_GATTS_HANDLE_VALUE_CNF \015\000"
 159      47415454 
 159      535F4841 
 159      4E444C45 
 159      5F56414C 
 160              		.section	.text.ServerDebugOut,"ax",%progbits
 161              		.align	2
 162              		.global	ServerDebugOut
 163              		.code	16
 164              		.thumb_func
 165              		.type	ServerDebugOut, %function
 166              	ServerDebugOut:
 167              	.LFB37:
  56:server.c      **** 
  57:server.c      **** /*******************************************************************************
  58:server.c      **** * Function Name: ServerDebugOut
  59:server.c      **** ********************************************************************************
  60:server.c      **** *
  61:server.c      **** * Summary:
  62:server.c      **** *   GATT server specific event handler.
  63:server.c      **** *
  64:server.c      **** * Parameters:
  65:server.c      **** *  event - the event code.
  66:server.c      **** *  *eventParam - the event parameters.
  67:server.c      **** *
  68:server.c      **** * Return:
  69:server.c      **** *   None.
  70:server.c      **** *
  71:server.c      **** *******************************************************************************/
  72:server.c      **** void ServerDebugOut(uint32 event, void* eventParam)
  73:server.c      **** {
 168              		.loc 1 73 0
 169              		.cfi_startproc
 170              		@ args = 0, pretend = 0, frame = 16
 171              		@ frame_needed = 1, uses_anonymous_args = 0
 172 0000 80B5     		push	{r7, lr}
 173              		.cfi_def_cfa_offset 8
 174              		.cfi_offset 7, -8
 175              		.cfi_offset 14, -4
 176 0002 84B0     		sub	sp, sp, #16
 177              		.cfi_def_cfa_offset 24
ARM GAS  C:\Users\Lucia\AppData\Local\Temp\ccTNxJdd.s 			page 6


 178 0004 00AF     		add	r7, sp, #0
 179              		.cfi_def_cfa_register 7
 180 0006 7860     		str	r0, [r7, #4]
 181 0008 3960     		str	r1, [r7]
  74:server.c      ****     uint16 i;
  75:server.c      ****     switch(event)
 182              		.loc 1 75 0
 183 000a 7B68     		ldr	r3, [r7, #4]
 184 000c 432B     		cmp	r3, #67
 185 000e 00D1     		bne	.LCB113
 186 0010 64E0     		b	.L11	@long jump
 187              	.LCB113:
 188 0012 02D8     		bhi	.L12
 189 0014 262B     		cmp	r3, #38
 190 0016 05D0     		beq	.L13
  76:server.c      ****     {
  77:server.c      ****         case CYBLE_EVT_GAPP_ADVERTISEMENT_START_STOP:
  78:server.c      ****             printf("CYBLE_EVT_GAPP_ADVERTISEMENT_START_STOP, state: %x\r\n", CyBle_GetState());
  79:server.c      ****             if(CYBLE_STATE_DISCONNECTED == CyBle_GetState())
  80:server.c      ****             {   
  81:server.c      ****                 /* Fast and slow advertising period complete, go to low power  
  82:server.c      ****                  * mode (Hibernate mode) and wait for an external
  83:server.c      ****                  * user event to wake up the device again */
  84:server.c      ****                 printf("Hibernate \r\n");
  85:server.c      ****                 Advertising_LED_Write(LED_OFF);
  86:server.c      ****                 Disconnect_LED_Write(LED_ON);
  87:server.c      ****                 while((UART_DEB_SpiUartGetTxBufferSize() + UART_DEB_GET_TX_FIFO_SR_VALID) != 0);
  88:server.c      ****                 SW2_ClearInterrupt();
  89:server.c      ****                 Wakeup_Interrupt_ClearPending();
  90:server.c      ****                 Wakeup_Interrupt_Start();
  91:server.c      ****                 CySysPmHibernate();
  92:server.c      ****             }
  93:server.c      ****             break;
  94:server.c      **** 
  95:server.c      ****         case CYBLE_EVT_GATTS_WRITE_REQ:
  96:server.c      ****             printf("EVT_GATT_WRITE_REQ: %x = ",((CYBLE_GATTS_WRITE_REQ_PARAM_T *)eventParam)->handl
  97:server.c      ****             for(i = 0; i < ((CYBLE_GATTS_WRITE_REQ_PARAM_T *)eventParam)->handleValPair.value.len; 
  98:server.c      ****             {
  99:server.c      ****                 printf("%2.2x ", ((CYBLE_GATTS_WRITE_REQ_PARAM_T *)eventParam)->handleValPair.value
 100:server.c      ****             }
 101:server.c      ****             printf("\r\n");
 102:server.c      ****             break;
 103:server.c      **** 
 104:server.c      ****         case CYBLE_EVT_GATTS_XCNHG_MTU_REQ:
 105:server.c      ****             printf("EVT_GATTS_XCNHG_MTU_REQ \r\n");
 106:server.c      ****             break;
 107:server.c      **** 
 108:server.c      ****         case CYBLE_EVT_GATTS_HANDLE_VALUE_CNF:
 109:server.c      ****             printf("EVT_GATTS_HANDLE_VALUE_CNF \r\n");
 110:server.c      ****             break;
 111:server.c      **** 
 112:server.c      ****         default:
 113:server.c      ****         #if (0)
 114:server.c      ****             printf("unknown event: %lx \r\n", event);
 115:server.c      ****         #endif
 116:server.c      ****             break;
 191              		.loc 1 116 0
ARM GAS  C:\Users\Lucia\AppData\Local\Temp\ccTNxJdd.s 			page 7


 192 0018 6BE0     		b	.L20
 193              	.L12:
  75:server.c      ****     {
 194              		.loc 1 75 0
 195 001a 4C2B     		cmp	r3, #76
 196 001c 31D0     		beq	.L14
 197 001e 542B     		cmp	r3, #84
 198 0020 61D0     		beq	.L15
 199              		.loc 1 116 0
 200 0022 66E0     		b	.L20
 201              	.L13:
  78:server.c      ****             if(CYBLE_STATE_DISCONNECTED == CyBle_GetState())
 202              		.loc 1 78 0
 203 0024 354B     		ldr	r3, .L24
 204 0026 1B78     		ldrb	r3, [r3]
 205 0028 1A00     		movs	r2, r3
 206 002a 354B     		ldr	r3, .L24+4
 207 002c 1100     		movs	r1, r2
 208 002e 1800     		movs	r0, r3
 209 0030 FFF7FEFF 		bl	printf
  79:server.c      ****             {   
 210              		.loc 1 79 0
 211 0034 314B     		ldr	r3, .L24
 212 0036 1B78     		ldrb	r3, [r3]
 213 0038 042B     		cmp	r3, #4
 214 003a 59D1     		bne	.L23
  84:server.c      ****                 Advertising_LED_Write(LED_OFF);
 215              		.loc 1 84 0
 216 003c 314B     		ldr	r3, .L24+8
 217 003e 1800     		movs	r0, r3
 218 0040 FFF7FEFF 		bl	puts
  85:server.c      ****                 Disconnect_LED_Write(LED_ON);
 219              		.loc 1 85 0
 220 0044 0120     		movs	r0, #1
 221 0046 FFF7FEFF 		bl	Advertising_LED_Write
  86:server.c      ****                 while((UART_DEB_SpiUartGetTxBufferSize() + UART_DEB_GET_TX_FIFO_SR_VALID) != 0);
 222              		.loc 1 86 0
 223 004a 0020     		movs	r0, #0
 224 004c FFF7FEFF 		bl	Disconnect_LED_Write
  87:server.c      ****                 SW2_ClearInterrupt();
 225              		.loc 1 87 0
 226 0050 C046     		nop
 227              	.L19:
  87:server.c      ****                 SW2_ClearInterrupt();
 228              		.loc 1 87 0 is_stmt 0 discriminator 5
 229 0052 FFF7FEFF 		bl	UART_DEB_SpiUartGetTxBufferSize
 230 0056 0100     		movs	r1, r0
 231 0058 2B4B     		ldr	r3, .L24+12
 232 005a 1A68     		ldr	r2, [r3]
 233 005c 8023     		movs	r3, #128
 234 005e 1B02     		lsls	r3, r3, #8
 235 0060 1340     		ands	r3, r2
 236 0062 01D0     		beq	.L17
  87:server.c      ****                 SW2_ClearInterrupt();
 237              		.loc 1 87 0 discriminator 1
 238 0064 0123     		movs	r3, #1
 239 0066 00E0     		b	.L18
ARM GAS  C:\Users\Lucia\AppData\Local\Temp\ccTNxJdd.s 			page 8


 240              	.L17:
  87:server.c      ****                 SW2_ClearInterrupt();
 241              		.loc 1 87 0 discriminator 2
 242 0068 0023     		movs	r3, #0
 243              	.L18:
  87:server.c      ****                 SW2_ClearInterrupt();
 244              		.loc 1 87 0 discriminator 4
 245 006a CB18     		adds	r3, r1, r3
 246 006c 002B     		cmp	r3, #0
 247 006e F0D1     		bne	.L19
  88:server.c      ****                 Wakeup_Interrupt_ClearPending();
 248              		.loc 1 88 0 is_stmt 1
 249 0070 FFF7FEFF 		bl	SW2_ClearInterrupt
  89:server.c      ****                 Wakeup_Interrupt_Start();
 250              		.loc 1 89 0
 251 0074 FFF7FEFF 		bl	Wakeup_Interrupt_ClearPending
  90:server.c      ****                 CySysPmHibernate();
 252              		.loc 1 90 0
 253 0078 FFF7FEFF 		bl	Wakeup_Interrupt_Start
  91:server.c      ****             }
 254              		.loc 1 91 0
 255 007c FFF7FEFF 		bl	CySysPmHibernate
  93:server.c      **** 
 256              		.loc 1 93 0
 257 0080 36E0     		b	.L23
 258              	.L14:
  96:server.c      ****             for(i = 0; i < ((CYBLE_GATTS_WRITE_REQ_PARAM_T *)eventParam)->handleValPair.value.len; 
 259              		.loc 1 96 0
 260 0082 3B68     		ldr	r3, [r7]
 261 0084 9B89     		ldrh	r3, [r3, #12]
 262 0086 1A00     		movs	r2, r3
 263 0088 204B     		ldr	r3, .L24+16
 264 008a 1100     		movs	r1, r2
 265 008c 1800     		movs	r0, r3
 266 008e FFF7FEFF 		bl	printf
  97:server.c      ****             {
 267              		.loc 1 97 0
 268 0092 0E23     		movs	r3, #14
 269 0094 FB18     		adds	r3, r7, r3
 270 0096 0022     		movs	r2, #0
 271 0098 1A80     		strh	r2, [r3]
 272 009a 13E0     		b	.L21
 273              	.L22:
  99:server.c      ****             }
 274              		.loc 1 99 0 discriminator 3
 275 009c 3B68     		ldr	r3, [r7]
 276 009e 5A68     		ldr	r2, [r3, #4]
 277 00a0 0E23     		movs	r3, #14
 278 00a2 FB18     		adds	r3, r7, r3
 279 00a4 1B88     		ldrh	r3, [r3]
 280 00a6 D318     		adds	r3, r2, r3
 281 00a8 1B78     		ldrb	r3, [r3]
 282 00aa 1A00     		movs	r2, r3
 283 00ac 184B     		ldr	r3, .L24+20
 284 00ae 1100     		movs	r1, r2
 285 00b0 1800     		movs	r0, r3
 286 00b2 FFF7FEFF 		bl	printf
ARM GAS  C:\Users\Lucia\AppData\Local\Temp\ccTNxJdd.s 			page 9


  97:server.c      ****             {
 287              		.loc 1 97 0 discriminator 3
 288 00b6 0E23     		movs	r3, #14
 289 00b8 FB18     		adds	r3, r7, r3
 290 00ba 1A88     		ldrh	r2, [r3]
 291 00bc 0E23     		movs	r3, #14
 292 00be FB18     		adds	r3, r7, r3
 293 00c0 0132     		adds	r2, r2, #1
 294 00c2 1A80     		strh	r2, [r3]
 295              	.L21:
  97:server.c      ****             {
 296              		.loc 1 97 0 is_stmt 0 discriminator 1
 297 00c4 3B68     		ldr	r3, [r7]
 298 00c6 1B89     		ldrh	r3, [r3, #8]
 299 00c8 0E22     		movs	r2, #14
 300 00ca BA18     		adds	r2, r7, r2
 301 00cc 1288     		ldrh	r2, [r2]
 302 00ce 9A42     		cmp	r2, r3
 303 00d0 E4D3     		bcc	.L22
 101:server.c      ****             break;
 304              		.loc 1 101 0 is_stmt 1
 305 00d2 104B     		ldr	r3, .L24+24
 306 00d4 1800     		movs	r0, r3
 307 00d6 FFF7FEFF 		bl	puts
 102:server.c      **** 
 308              		.loc 1 102 0
 309 00da 0AE0     		b	.L20
 310              	.L11:
 105:server.c      ****             break;
 311              		.loc 1 105 0
 312 00dc 0E4B     		ldr	r3, .L24+28
 313 00de 1800     		movs	r0, r3
 314 00e0 FFF7FEFF 		bl	puts
 106:server.c      **** 
 315              		.loc 1 106 0
 316 00e4 05E0     		b	.L20
 317              	.L15:
 109:server.c      ****             break;
 318              		.loc 1 109 0
 319 00e6 0D4B     		ldr	r3, .L24+32
 320 00e8 1800     		movs	r0, r3
 321 00ea FFF7FEFF 		bl	puts
 110:server.c      **** 
 322              		.loc 1 110 0
 323 00ee 00E0     		b	.L20
 324              	.L23:
  93:server.c      **** 
 325              		.loc 1 93 0
 326 00f0 C046     		nop
 327              	.L20:
 117:server.c      ****     }
 118:server.c      **** }
 328              		.loc 1 118 0
 329 00f2 C046     		nop
 330 00f4 BD46     		mov	sp, r7
 331 00f6 04B0     		add	sp, sp, #16
 332              		@ sp needed
ARM GAS  C:\Users\Lucia\AppData\Local\Temp\ccTNxJdd.s 			page 10


 333 00f8 80BD     		pop	{r7, pc}
 334              	.L25:
 335 00fa C046     		.align	2
 336              	.L24:
 337 00fc 00000000 		.word	cyBle_state
 338 0100 50000000 		.word	.LC10
 339 0104 88000000 		.word	.LC12
 340 0108 08022440 		.word	1076101640
 341 010c 94000000 		.word	.LC14
 342 0110 B0000000 		.word	.LC16
 343 0114 4C000000 		.word	.LC7
 344 0118 B8000000 		.word	.LC19
 345 011c D4000000 		.word	.LC21
 346              		.cfi_endproc
 347              	.LFE37:
 348              		.size	ServerDebugOut, .-ServerDebugOut
 349              		.text
 350              	.Letext0:
 351              		.file 2 "Generated_Source\\PSoC4/cytypes.h"
 352              		.file 3 "Generated_Source\\PSoC4/CYBLE_Stack.h"
 353              		.file 4 "Generated_Source\\PSoC4/CYBLE_StackGatt.h"
 354              		.file 5 "Generated_Source\\PSoC4/CYBLE_StackGattServer.h"
 355              		.file 6 "Generated_Source\\PSoC4/CYBLE_eventHandler.h"
 356              		.file 7 "common.h"