ARM GAS  C:\Users\Lucia\AppData\Local\Temp\cc0KspdR.s 			page 1


   1              		.syntax unified
   2              		.cpu cortex-m0
   3              		.fpu softvfp
   4              		.eabi_attribute 20, 1
   5              		.eabi_attribute 21, 1
   6              		.eabi_attribute 23, 3
   7              		.eabi_attribute 24, 1
   8              		.eabi_attribute 25, 1
   9              		.eabi_attribute 26, 1
  10              		.eabi_attribute 30, 6
  11              		.eabi_attribute 34, 0
  12              		.eabi_attribute 18, 4
  13              		.thumb
  14              		.syntax unified
  15              		.file	"CYBLE.c"
  16              		.text
  17              	.Ltext0:
  18              		.cfi_sections	.debug_frame
  19              		.global	cyBle_initVar
  20              		.bss
  21              		.type	cyBle_initVar, %object
  22              		.size	cyBle_initVar, 1
  23              	cyBle_initVar:
  24 0000 00       		.space	1
  25              		.global	cyBle_stackMemoryRam
  26              		.section	.noinit,"aw",%progbits
  27              		.align	3
  28              		.type	cyBle_stackMemoryRam, %object
  29              		.size	cyBle_stackMemoryRam, 2784
  30              	cyBle_stackMemoryRam:
  31 0000 00000000 		.space	2784
  31      00000000 
  31      00000000 
  31      00000000 
  31      00000000 
  32              		.global	cyBle_discoveryParam
  33              		.data
  34              		.align	2
  35              		.type	cyBle_discoveryParam, %object
  36              		.size	cyBle_discoveryParam, 16
  37              	cyBle_discoveryParam:
  38 0000 2000     		.short	32
  39 0002 3000     		.short	48
  40 0004 00       		.byte	0
  41 0005 00       		.byte	0
  42 0006 00       		.byte	0
  43 0007 00       		.byte	0
  44 0008 00       		.byte	0
  45 0009 00       		.byte	0
  46 000a 50       		.byte	80
  47 000b A0       		.byte	-96
  48 000c 00       		.byte	0
  49 000d 07       		.byte	7
  50 000e 00       		.byte	0
  51 000f 00       		.space	1
  52              		.global	cyBle_discoveryData
  53              		.align	2
ARM GAS  C:\Users\Lucia\AppData\Local\Temp\cc0KspdR.s 			page 2


  54              		.type	cyBle_discoveryData, %object
  55              		.size	cyBle_discoveryData, 32
  56              	cyBle_discoveryData:
  57 0010 02       		.byte	2
  58 0011 01       		.byte	1
  59 0012 06       		.byte	6
  60 0013 12       		.byte	18
  61 0014 09       		.byte	9
  62 0015 48       		.byte	72
  63 0016 65       		.byte	101
  64 0017 61       		.byte	97
  65 0018 72       		.byte	114
  66 0019 74       		.byte	116
  67 001a 20       		.byte	32
  68 001b 52       		.byte	82
  69 001c 61       		.byte	97
  70 001d 74       		.byte	116
  71 001e 65       		.byte	101
  72 001f 20       		.byte	32
  73 0020 53       		.byte	83
  74 0021 65       		.byte	101
  75 0022 6E       		.byte	110
  76 0023 73       		.byte	115
  77 0024 6F       		.byte	111
  78 0025 72       		.byte	114
  79 0026 05       		.byte	5
  80 0027 03       		.byte	3
  81 0028 0D       		.byte	13
  82 0029 18       		.byte	24
  83 002a 0A       		.byte	10
  84 002b 18       		.byte	24
  85 002c 00       		.byte	0
  86 002d 00       		.byte	0
  87 002e 00       		.byte	0
  88 002f 1C       		.byte	28
  89              		.global	cyBle_scanRspData
  90              		.align	2
  91              		.type	cyBle_scanRspData, %object
  92              		.size	cyBle_scanRspData, 32
  93              	cyBle_scanRspData:
  94 0030 12       		.byte	18
  95 0031 09       		.byte	9
  96 0032 48       		.byte	72
  97 0033 65       		.byte	101
  98 0034 61       		.byte	97
  99 0035 72       		.byte	114
 100 0036 74       		.byte	116
 101 0037 20       		.byte	32
 102 0038 52       		.byte	82
 103 0039 61       		.byte	97
 104 003a 74       		.byte	116
 105 003b 65       		.byte	101
 106 003c 20       		.byte	32
 107 003d 53       		.byte	83
 108 003e 65       		.byte	101
 109 003f 6E       		.byte	110
 110 0040 73       		.byte	115
ARM GAS  C:\Users\Lucia\AppData\Local\Temp\cc0KspdR.s 			page 3


 111 0041 6F       		.byte	111
 112 0042 72       		.byte	114
 113 0043 03       		.byte	3
 114 0044 02       		.byte	2
 115 0045 0D       		.byte	13
 116 0046 18       		.byte	24
 117 0047 00       		.byte	0
 118 0048 00       		.byte	0
 119 0049 00       		.byte	0
 120 004a 00       		.byte	0
 121 004b 00       		.byte	0
 122 004c 00       		.byte	0
 123 004d 00       		.byte	0
 124 004e 00       		.byte	0
 125 004f 17       		.byte	23
 126              		.global	cyBle_discoveryModeInfo
 127              		.align	2
 128              		.type	cyBle_discoveryModeInfo, %object
 129              		.size	cyBle_discoveryModeInfo, 20
 130              	cyBle_discoveryModeInfo:
 131 0050 02       		.byte	2
 132 0051 000000   		.space	3
 133 0054 00000000 		.word	cyBle_discoveryParam
 134 0058 00000000 		.word	cyBle_discoveryData
 135 005c 00000000 		.word	cyBle_scanRspData
 136 0060 1E00     		.short	30
 137 0062 0000     		.space	2
 138              		.comm	CyBle_ApplCallback,4,4
 139              		.global	cyBle_deviceAddress
 140              		.align	2
 141              		.type	cyBle_deviceAddress, %object
 142              		.size	cyBle_deviceAddress, 7
 143              	cyBle_deviceAddress:
 144 0064 00       		.byte	0
 145 0065 00       		.byte	0
 146 0066 00       		.byte	0
 147 0067 50       		.byte	80
 148 0068 A0       		.byte	-96
 149 0069 00       		.byte	0
 150 006a 00       		.byte	0
 151              		.global	cyBle_sflashDeviceAddress
 152 006b 00       		.align	2
 153              		.type	cyBle_sflashDeviceAddress, %object
 154              		.size	cyBle_sflashDeviceAddress, 4
 155              	cyBle_sflashDeviceAddress:
 156 006c 00F4FF0F 		.word	268432384
 157              		.section	.text.CyBle_Init,"ax",%progbits
 158              		.align	2
 159              		.global	CyBle_Init
 160              		.code	16
 161              		.thumb_func
 162              		.type	CyBle_Init, %function
 163              	CyBle_Init:
 164              	.LFB2:
 165              		.file 1 "Generated_Source\\PSoC4\\CYBLE.c"
   1:Generated_Source\PSoC4/CYBLE.c **** /***************************************************************************//**
   2:Generated_Source\PSoC4/CYBLE.c **** * \file CYBLE.c
ARM GAS  C:\Users\Lucia\AppData\Local\Temp\cc0KspdR.s 			page 4


   3:Generated_Source\PSoC4/CYBLE.c **** * \version 3.30
   4:Generated_Source\PSoC4/CYBLE.c **** * 
   5:Generated_Source\PSoC4/CYBLE.c **** * \brief
   6:Generated_Source\PSoC4/CYBLE.c **** *  This file contains the source code for the Common APIs of the BLE Component.
   7:Generated_Source\PSoC4/CYBLE.c **** * 
   8:Generated_Source\PSoC4/CYBLE.c **** ********************************************************************************
   9:Generated_Source\PSoC4/CYBLE.c **** * \copyright
  10:Generated_Source\PSoC4/CYBLE.c **** * Copyright 2014-2016, Cypress Semiconductor Corporation.  All rights reserved.
  11:Generated_Source\PSoC4/CYBLE.c **** * You may use this file only in accordance with the license, terms, conditions,
  12:Generated_Source\PSoC4/CYBLE.c **** * disclaimers, and limitations in the end user license agreement accompanying
  13:Generated_Source\PSoC4/CYBLE.c **** * the software package with which this file was provided.
  14:Generated_Source\PSoC4/CYBLE.c **** *******************************************************************************/
  15:Generated_Source\PSoC4/CYBLE.c **** 
  16:Generated_Source\PSoC4/CYBLE.c **** #include "CYBLE_eventHandler.h"
  17:Generated_Source\PSoC4/CYBLE.c **** #include "CYBLE_HAL_PVT.h"
  18:Generated_Source\PSoC4/CYBLE.c **** #include <stdlib.h>
  19:Generated_Source\PSoC4/CYBLE.c **** 
  20:Generated_Source\PSoC4/CYBLE.c **** 
  21:Generated_Source\PSoC4/CYBLE.c **** /***************************************
  22:Generated_Source\PSoC4/CYBLE.c **** * Function Prototypes
  23:Generated_Source\PSoC4/CYBLE.c **** ***************************************/
  24:Generated_Source\PSoC4/CYBLE.c **** 
  25:Generated_Source\PSoC4/CYBLE.c **** #if(CYBLE_GATT_ROLE_SERVER)
  26:Generated_Source\PSoC4/CYBLE.c ****     #if(CYBLE_GAP_ROLE_PERIPHERAL)
  27:Generated_Source\PSoC4/CYBLE.c ****         static void CyBle_ChangeAdLocalName(const char8 name[], uint8 dest);
  28:Generated_Source\PSoC4/CYBLE.c ****     #endif /* (CYBLE_GAP_ROLE_PERIPHERAL) */
  29:Generated_Source\PSoC4/CYBLE.c **** #endif /* (CYBLE_GATT_ROLE_SERVER) */
  30:Generated_Source\PSoC4/CYBLE.c ****     
  31:Generated_Source\PSoC4/CYBLE.c **** 
  32:Generated_Source\PSoC4/CYBLE.c **** /***************************************
  33:Generated_Source\PSoC4/CYBLE.c **** * Global Variables
  34:Generated_Source\PSoC4/CYBLE.c **** ***************************************/
  35:Generated_Source\PSoC4/CYBLE.c **** 
  36:Generated_Source\PSoC4/CYBLE.c **** /* Indicates whether the BLE has been initialized. The variable is initialized to
  37:Generated_Source\PSoC4/CYBLE.c ****    0 and set to 1 the first time CyBle_Start() is called. This allows the component
  38:Generated_Source\PSoC4/CYBLE.c ****    to restart without reinitialization after the first call to the CyBle_Start() 
  39:Generated_Source\PSoC4/CYBLE.c ****    routine. If reinitialization of the component is required, the variable should 
  40:Generated_Source\PSoC4/CYBLE.c ****    be set to 0 before the CyBle_Start() routine is called. Alternatively, the BLE
  41:Generated_Source\PSoC4/CYBLE.c ****    can be reinitialized by calling the CyBle_Init() function.
  42:Generated_Source\PSoC4/CYBLE.c **** */
  43:Generated_Source\PSoC4/CYBLE.c **** uint8  cyBle_initVar = 0u;
  44:Generated_Source\PSoC4/CYBLE.c **** 
  45:Generated_Source\PSoC4/CYBLE.c **** /* Allocate RAM memory for stack. This buffer could be reused by application when 
  46:Generated_Source\PSoC4/CYBLE.c ****    BLE component is stopped. For export mode buffer is allocated in heap.
  47:Generated_Source\PSoC4/CYBLE.c **** */
  48:Generated_Source\PSoC4/CYBLE.c **** #if(CYBLE_SHARING_MODE_EXPORT)
  49:Generated_Source\PSoC4/CYBLE.c ****     
  50:Generated_Source\PSoC4/CYBLE.c **** uint8 *cyBle_stackMemoryRam = NULL;
  51:Generated_Source\PSoC4/CYBLE.c **** 
  52:Generated_Source\PSoC4/CYBLE.c **** #else
  53:Generated_Source\PSoC4/CYBLE.c **** 
  54:Generated_Source\PSoC4/CYBLE.c **** CYBLE_CYALIGNED_BEGIN CY_NOINIT uint8 cyBle_stackMemoryRam[CYBLE_STACK_RAM_SIZE] CYBLE_CYALIGNED_EN
  55:Generated_Source\PSoC4/CYBLE.c **** 
  56:Generated_Source\PSoC4/CYBLE.c **** #endif  /* CYBLE_SHARING_MODE_EXPORT */
  57:Generated_Source\PSoC4/CYBLE.c **** 
  58:Generated_Source\PSoC4/CYBLE.c **** #if(CYBLE_GAP_ROLE_PERIPHERAL || CYBLE_GAP_ROLE_BROADCASTER)
  59:Generated_Source\PSoC4/CYBLE.c **** 
ARM GAS  C:\Users\Lucia\AppData\Local\Temp\cc0KspdR.s 			page 5


  60:Generated_Source\PSoC4/CYBLE.c **** CYBLE_GAPP_DISC_PARAM_T cyBle_discoveryParam =
  61:Generated_Source\PSoC4/CYBLE.c **** {
  62:Generated_Source\PSoC4/CYBLE.c ****     0x0020u,    /* uint16 advertising_interval_min */
  63:Generated_Source\PSoC4/CYBLE.c ****     0x0030u,    /* uint16 advertising_interval_max */
  64:Generated_Source\PSoC4/CYBLE.c ****     CYBLE_GAPP_CONNECTABLE_UNDIRECTED_ADV, /* uint8 advertising_type */
  65:Generated_Source\PSoC4/CYBLE.c ****     0x00u,      /* uint8 own_addr_type */
  66:Generated_Source\PSoC4/CYBLE.c ****     0x00u,      /* uint8 direct_addr_type */
  67:Generated_Source\PSoC4/CYBLE.c ****     {0x00u, 0x00u, 0x00u, 0x50u, 0xA0u, 0x00u}, /* uint8* direct_addr */
  68:Generated_Source\PSoC4/CYBLE.c ****     0x07u,      /* uint8 advertising_channel_map */
  69:Generated_Source\PSoC4/CYBLE.c ****     0x00u,      /* uint8 advertising_filter_policy */
  70:Generated_Source\PSoC4/CYBLE.c **** };
  71:Generated_Source\PSoC4/CYBLE.c **** 
  72:Generated_Source\PSoC4/CYBLE.c **** CYBLE_GAPP_DISC_DATA_T cyBle_discoveryData =
  73:Generated_Source\PSoC4/CYBLE.c **** {
  74:Generated_Source\PSoC4/CYBLE.c ****     { 0x02u, 0x01u, 0x06u, 0x12u, 0x09u, 0x48u, 0x65u,
  75:Generated_Source\PSoC4/CYBLE.c ****     0x61u, 0x72u, 0x74u, 0x20u, 0x52u, 0x61u, 0x74u, 0x65u,
  76:Generated_Source\PSoC4/CYBLE.c ****     0x20u, 0x53u, 0x65u, 0x6Eu, 0x73u, 0x6Fu, 0x72u, 0x05u,
  77:Generated_Source\PSoC4/CYBLE.c ****     0x03u, 0x0Du, 0x18u, 0x0Au, 0x18u, 0x00u, 0x00u, 0x00u }, /* uint8 advertising_data[CYBLE_MAX_A
  78:Generated_Source\PSoC4/CYBLE.c ****     0x1Cu,      /* uint8 adv_data_length */
  79:Generated_Source\PSoC4/CYBLE.c **** };
  80:Generated_Source\PSoC4/CYBLE.c **** 
  81:Generated_Source\PSoC4/CYBLE.c **** CYBLE_GAPP_SCAN_RSP_DATA_T cyBle_scanRspData =
  82:Generated_Source\PSoC4/CYBLE.c **** {
  83:Generated_Source\PSoC4/CYBLE.c ****     { 0x12u, 0x09u, 0x48u, 0x65u, 0x61u, 0x72u, 0x74u,
  84:Generated_Source\PSoC4/CYBLE.c ****     0x20u, 0x52u, 0x61u, 0x74u, 0x65u, 0x20u, 0x53u, 0x65u,
  85:Generated_Source\PSoC4/CYBLE.c ****     0x6Eu, 0x73u, 0x6Fu, 0x72u, 0x03u, 0x02u, 0x0Du, 0x18u,
  86:Generated_Source\PSoC4/CYBLE.c ****     0x00u, 0x00u, 0x00u, 0x00u, 0x00u, 0x00u, 0x00u, 0x00u }, /* uint8 scan_rsp_data[CYBLE_MAX_SCAN
  87:Generated_Source\PSoC4/CYBLE.c ****     0x17u,      /* uint8 scan_rsp_data_length */
  88:Generated_Source\PSoC4/CYBLE.c **** };
  89:Generated_Source\PSoC4/CYBLE.c **** 
  90:Generated_Source\PSoC4/CYBLE.c **** /* This variable of type CYBLE_GAPP_DISC_MODE_INFO_T is present only when 
  91:Generated_Source\PSoC4/CYBLE.c ****    the BLE component is configured for Peripheral GAP role or Central and 
  92:Generated_Source\PSoC4/CYBLE.c ****    Peripheral GAP role. It contains the Advertisement settings and also the 
  93:Generated_Source\PSoC4/CYBLE.c ****    Advertisement and Scan response data parameters entered in the customizer.
  94:Generated_Source\PSoC4/CYBLE.c ****    This variable can be used by advanced users to change Advertisement settings,
  95:Generated_Source\PSoC4/CYBLE.c ****    Advertisement or Scan response data in runtime. 
  96:Generated_Source\PSoC4/CYBLE.c **** */
  97:Generated_Source\PSoC4/CYBLE.c **** CYBLE_GAPP_DISC_MODE_INFO_T cyBle_discoveryModeInfo =
  98:Generated_Source\PSoC4/CYBLE.c **** {
  99:Generated_Source\PSoC4/CYBLE.c ****     0x02u,      /* uint8 discMode */
 100:Generated_Source\PSoC4/CYBLE.c ****     &cyBle_discoveryParam,
 101:Generated_Source\PSoC4/CYBLE.c ****     &cyBle_discoveryData,
 102:Generated_Source\PSoC4/CYBLE.c ****     &cyBle_scanRspData,
 103:Generated_Source\PSoC4/CYBLE.c ****     0x001Eu,    /* uint16 advTo */
 104:Generated_Source\PSoC4/CYBLE.c **** };
 105:Generated_Source\PSoC4/CYBLE.c **** 
 106:Generated_Source\PSoC4/CYBLE.c **** 
 107:Generated_Source\PSoC4/CYBLE.c **** #endif /* CYBLE_GAP_ROLE_PERIPHERAL || CYBLE_GAP_ROLE_BROADCASTER */
 108:Generated_Source\PSoC4/CYBLE.c **** 
 109:Generated_Source\PSoC4/CYBLE.c **** #if(CYBLE_GAP_ROLE_CENTRAL)
 110:Generated_Source\PSoC4/CYBLE.c ****     
 111:Generated_Source\PSoC4/CYBLE.c **** CYBLE_GAPC_CONN_PARAM_T cyBle_connectionParameters;
 112:Generated_Source\PSoC4/CYBLE.c **** 
 113:Generated_Source\PSoC4/CYBLE.c **** /* Connecting timeout is set to 30 seconds in CyBle_Init function. 
 114:Generated_Source\PSoC4/CYBLE.c ****    Not zero value starts timer in CyBle_GapcConnectDevice API.
 115:Generated_Source\PSoC4/CYBLE.c **** */
 116:Generated_Source\PSoC4/CYBLE.c **** uint16 cyBle_connectingTimeout;
ARM GAS  C:\Users\Lucia\AppData\Local\Temp\cc0KspdR.s 			page 6


 117:Generated_Source\PSoC4/CYBLE.c ****     
 118:Generated_Source\PSoC4/CYBLE.c **** #endif /* CYBLE_GAP_ROLE_CENTRAL */
 119:Generated_Source\PSoC4/CYBLE.c **** 
 120:Generated_Source\PSoC4/CYBLE.c **** #if(CYBLE_GAP_ROLE_CENTRAL || CYBLE_GAP_ROLE_OBSERVER)
 121:Generated_Source\PSoC4/CYBLE.c ****     
 122:Generated_Source\PSoC4/CYBLE.c **** 
 123:Generated_Source\PSoC4/CYBLE.c ****     
 124:Generated_Source\PSoC4/CYBLE.c **** #endif /* CYBLE_GAP_ROLE_CENTRAL || CYBLE_GAP_ROLE_OBSERVER */
 125:Generated_Source\PSoC4/CYBLE.c **** 
 126:Generated_Source\PSoC4/CYBLE.c **** #if((CYBLE_GAP_ROLE_PERIPHERAL || CYBLE_GAP_ROLE_CENTRAL) && (CYBLE_BONDING_REQUIREMENT == CYBLE_BO
 127:Generated_Source\PSoC4/CYBLE.c **** 
 128:Generated_Source\PSoC4/CYBLE.c **** uint8 cyBle_peerBonding;
 129:Generated_Source\PSoC4/CYBLE.c **** uint8 cyBle_pendingFlashWrite;
 130:Generated_Source\PSoC4/CYBLE.c ****     
 131:Generated_Source\PSoC4/CYBLE.c **** #if(CYBLE_GATT_DB_CCCD_COUNT != 0u)
 132:Generated_Source\PSoC4/CYBLE.c ****     static uint8 cyBle_pendingFlashClearCccdHandle;
 133:Generated_Source\PSoC4/CYBLE.c **** #endif /* CYBLE_GATT_DB_CCCD_COUNT != 0u */
 134:Generated_Source\PSoC4/CYBLE.c ****     
 135:Generated_Source\PSoC4/CYBLE.c **** #endif  /* (CYBLE_BONDING_REQUIREMENT == CYBLE_BONDING_YES) */
 136:Generated_Source\PSoC4/CYBLE.c **** 
 137:Generated_Source\PSoC4/CYBLE.c **** CYBLE_CALLBACK_T CyBle_ApplCallback;
 138:Generated_Source\PSoC4/CYBLE.c **** CYBLE_GAP_BD_ADDR_T cyBle_deviceAddress = {{0x00u, 0x00u, 0x00u, 0x50u, 0xA0u, 0x00u}, 0x00u };
 139:Generated_Source\PSoC4/CYBLE.c **** CYBLE_GAP_BD_ADDR_T * cyBle_sflashDeviceAddress = CYBLE_SFLASH_DEVICE_ADDRESS_PTR;
 140:Generated_Source\PSoC4/CYBLE.c **** 
 141:Generated_Source\PSoC4/CYBLE.c **** 
 142:Generated_Source\PSoC4/CYBLE.c **** /******************************************************************************
 143:Generated_Source\PSoC4/CYBLE.c **** * Function Name: CyBle_Init
 144:Generated_Source\PSoC4/CYBLE.c **** ***************************************************************************//**
 145:Generated_Source\PSoC4/CYBLE.c **** *
 146:Generated_Source\PSoC4/CYBLE.c **** *   Initializes the component with the parameters set in the customizer.
 147:Generated_Source\PSoC4/CYBLE.c **** * 
 148:Generated_Source\PSoC4/CYBLE.c **** *  \return
 149:Generated_Source\PSoC4/CYBLE.c **** *   None
 150:Generated_Source\PSoC4/CYBLE.c **** * 
 151:Generated_Source\PSoC4/CYBLE.c **** ******************************************************************************/
 152:Generated_Source\PSoC4/CYBLE.c **** void CyBle_Init(void)
 153:Generated_Source\PSoC4/CYBLE.c **** {
 166              		.loc 1 153 0
 167              		.cfi_startproc
 168              		@ args = 0, pretend = 0, frame = 0
 169              		@ frame_needed = 1, uses_anonymous_args = 0
 170 0000 80B5     		push	{r7, lr}
 171              		.cfi_def_cfa_offset 8
 172              		.cfi_offset 7, -8
 173              		.cfi_offset 14, -4
 174 0002 00AF     		add	r7, sp, #0
 175              		.cfi_def_cfa_register 7
 154:Generated_Source\PSoC4/CYBLE.c ****     cyBle_eventHandlerFlag = 0u;
 176              		.loc 1 154 0
 177 0004 064B     		ldr	r3, .L2
 178 0006 0022     		movs	r2, #0
 179 0008 1A70     		strb	r2, [r3]
 155:Generated_Source\PSoC4/CYBLE.c ****     cyBle_busyStatus = CYBLE_STACK_STATE_FREE;
 180              		.loc 1 155 0
 181 000a 064B     		ldr	r3, .L2+4
 182 000c 0022     		movs	r2, #0
 183 000e 1A70     		strb	r2, [r3]
ARM GAS  C:\Users\Lucia\AppData\Local\Temp\cc0KspdR.s 			page 7


 156:Generated_Source\PSoC4/CYBLE.c **** 
 157:Generated_Source\PSoC4/CYBLE.c ****     #if(CYBLE_GAP_ROLE_PERIPHERAL || CYBLE_GAP_ROLE_BROADCASTER) 
 158:Generated_Source\PSoC4/CYBLE.c ****         cyBle_advertisingIntervalType = CYBLE_ADVERTISING_FAST; 
 184              		.loc 1 158 0
 185 0010 054B     		ldr	r3, .L2+8
 186 0012 0022     		movs	r2, #0
 187 0014 1A70     		strb	r2, [r3]
 159:Generated_Source\PSoC4/CYBLE.c ****     #endif /* (CYBLE_GAP_ROLE_PERIPHERAL || CYBLE_GAP_ROLE_BROADCASTER)  */
 160:Generated_Source\PSoC4/CYBLE.c ****     #if(CYBLE_GAP_ROLE_CENTRAL || CYBLE_GAP_ROLE_OBSERVER)
 161:Generated_Source\PSoC4/CYBLE.c ****         cyBle_scanningIntervalType = CYBLE_SCANNING_FAST; 
 162:Generated_Source\PSoC4/CYBLE.c ****     #endif /* (CYBLE_GAP_ROLE_CENTRAL || CYBLE_GAP_ROLE_OBSERVER) */
 163:Generated_Source\PSoC4/CYBLE.c ****         
 164:Generated_Source\PSoC4/CYBLE.c ****     /* Init default connection parameters. 
 165:Generated_Source\PSoC4/CYBLE.c ****        Application may change it before initiating a connection */
 166:Generated_Source\PSoC4/CYBLE.c ****     #if(CYBLE_GAP_ROLE_CENTRAL)
 167:Generated_Source\PSoC4/CYBLE.c ****         cyBle_connectionParameters.scanIntv = cyBle_discoveryInfo.scanIntv;
 168:Generated_Source\PSoC4/CYBLE.c ****         cyBle_connectionParameters.scanWindow = cyBle_discoveryInfo.scanWindow;
 169:Generated_Source\PSoC4/CYBLE.c ****         cyBle_connectionParameters.ownAddrType = cyBle_discoveryInfo.ownAddrType;
 170:Generated_Source\PSoC4/CYBLE.c ****         cyBle_connectionParameters.initiatorFilterPolicy = cyBle_discoveryInfo.scanFilterPolicy;
 171:Generated_Source\PSoC4/CYBLE.c ****         cyBle_connectionParameters.connIntvMin = CYBLE_GAPC_CONNECTION_INTERVAL_MIN;
 172:Generated_Source\PSoC4/CYBLE.c ****         cyBle_connectionParameters.connIntvMax = CYBLE_GAPC_CONNECTION_INTERVAL_MAX;
 173:Generated_Source\PSoC4/CYBLE.c ****         cyBle_connectionParameters.connLatency = CYBLE_GAPC_CONNECTION_SLAVE_LATENCY;
 174:Generated_Source\PSoC4/CYBLE.c ****         cyBle_connectionParameters.supervisionTO = CYBLE_GAPC_CONNECTION_TIME_OUT;
 175:Generated_Source\PSoC4/CYBLE.c ****         cyBle_connectionParameters.minCeLength = 0x0000u;
 176:Generated_Source\PSoC4/CYBLE.c ****         cyBle_connectionParameters.maxCeLength = 0xFFFFu;
 177:Generated_Source\PSoC4/CYBLE.c ****         
 178:Generated_Source\PSoC4/CYBLE.c ****         cyBle_connectingTimeout = CYBLE_GAPC_CONNECTING_TIMEOUT;
 179:Generated_Source\PSoC4/CYBLE.c ****     #endif /* CYBLE_GAP_ROLE_CENTRAL */
 180:Generated_Source\PSoC4/CYBLE.c **** 
 181:Generated_Source\PSoC4/CYBLE.c ****     CyBle_ServiceInit();
 188              		.loc 1 181 0
 189 0016 FFF7FEFF 		bl	CyBle_ServiceInit
 182:Generated_Source\PSoC4/CYBLE.c **** 
 183:Generated_Source\PSoC4/CYBLE.c ****     #if((CYBLE_GAP_ROLE_PERIPHERAL || CYBLE_GAP_ROLE_CENTRAL) && (CYBLE_BONDING_REQUIREMENT == CYBL
 184:Generated_Source\PSoC4/CYBLE.c ****         cyBle_pendingFlashWrite = 0u;
 185:Generated_Source\PSoC4/CYBLE.c ****         cyBle_peerBonding = CYBLE_GAP_BONDING_NONE;
 186:Generated_Source\PSoC4/CYBLE.c ****     #endif  /* (CYBLE_BONDING_REQUIREMENT == CYBLE_BONDING_YES) */
 187:Generated_Source\PSoC4/CYBLE.c **** 
 188:Generated_Source\PSoC4/CYBLE.c **** }
 190              		.loc 1 188 0
 191 001a C046     		nop
 192 001c BD46     		mov	sp, r7
 193              		@ sp needed
 194 001e 80BD     		pop	{r7, pc}
 195              	.L3:
 196              		.align	2
 197              	.L2:
 198 0020 00000000 		.word	cyBle_eventHandlerFlag
 199 0024 00000000 		.word	cyBle_busyStatus
 200 0028 00000000 		.word	cyBle_advertisingIntervalType
 201              		.cfi_endproc
 202              	.LFE2:
 203              		.size	CyBle_Init, .-CyBle_Init
 204              		.section	.text.CyBle_ServiceInit,"ax",%progbits
 205              		.align	2
 206              		.global	CyBle_ServiceInit
 207              		.code	16
ARM GAS  C:\Users\Lucia\AppData\Local\Temp\cc0KspdR.s 			page 8


 208              		.thumb_func
 209              		.type	CyBle_ServiceInit, %function
 210              	CyBle_ServiceInit:
 211              	.LFB3:
 189:Generated_Source\PSoC4/CYBLE.c **** 
 190:Generated_Source\PSoC4/CYBLE.c **** 
 191:Generated_Source\PSoC4/CYBLE.c **** /******************************************************************************
 192:Generated_Source\PSoC4/CYBLE.c **** * Function Name: CyBle_ServiceInit
 193:Generated_Source\PSoC4/CYBLE.c **** ***************************************************************************//**
 194:Generated_Source\PSoC4/CYBLE.c **** * 
 195:Generated_Source\PSoC4/CYBLE.c **** *  Initializes all included services.
 196:Generated_Source\PSoC4/CYBLE.c **** * 
 197:Generated_Source\PSoC4/CYBLE.c **** * \return
 198:Generated_Source\PSoC4/CYBLE.c **** *  None
 199:Generated_Source\PSoC4/CYBLE.c **** * 
 200:Generated_Source\PSoC4/CYBLE.c **** ******************************************************************************/
 201:Generated_Source\PSoC4/CYBLE.c **** void CyBle_ServiceInit(void)
 202:Generated_Source\PSoC4/CYBLE.c **** {
 212              		.loc 1 202 0
 213              		.cfi_startproc
 214              		@ args = 0, pretend = 0, frame = 0
 215              		@ frame_needed = 1, uses_anonymous_args = 0
 216 0000 80B5     		push	{r7, lr}
 217              		.cfi_def_cfa_offset 8
 218              		.cfi_offset 7, -8
 219              		.cfi_offset 14, -4
 220 0002 00AF     		add	r7, sp, #0
 221              		.cfi_def_cfa_register 7
 203:Generated_Source\PSoC4/CYBLE.c ****     #if(CYBLE_GATT_ROLE_CLIENT)
 204:Generated_Source\PSoC4/CYBLE.c ****         /* Check service range before clearing to support partial discovery */
 205:Generated_Source\PSoC4/CYBLE.c ****         if(cyBle_serverInfo[CYBLE_SRVI_GAP].range.startHandle == CYBLE_GATT_INVALID_ATTR_HANDLE_VAL
 206:Generated_Source\PSoC4/CYBLE.c ****         {
 207:Generated_Source\PSoC4/CYBLE.c ****             (void)memset(&cyBle_gapc, 0, sizeof(cyBle_gapc));
 208:Generated_Source\PSoC4/CYBLE.c ****         }
 209:Generated_Source\PSoC4/CYBLE.c ****         if(cyBle_serverInfo[CYBLE_SRVI_GATT].range.startHandle == CYBLE_GATT_INVALID_ATTR_HANDLE_VA
 210:Generated_Source\PSoC4/CYBLE.c ****         {
 211:Generated_Source\PSoC4/CYBLE.c ****             (void)memset(&cyBle_gattc, 0, sizeof(cyBle_gattc));
 212:Generated_Source\PSoC4/CYBLE.c ****         }
 213:Generated_Source\PSoC4/CYBLE.c ****     #endif /* CYBLE_GATT_ROLE_CLIENT */
 214:Generated_Source\PSoC4/CYBLE.c **** 
 215:Generated_Source\PSoC4/CYBLE.c ****    	#ifdef CYBLE_AIOS
 216:Generated_Source\PSoC4/CYBLE.c ****         CyBle_AiosInit();
 217:Generated_Source\PSoC4/CYBLE.c ****     #endif /* CYBLE_AIOS */
 218:Generated_Source\PSoC4/CYBLE.c **** 
 219:Generated_Source\PSoC4/CYBLE.c **** 	#ifdef CYBLE_ANCS
 220:Generated_Source\PSoC4/CYBLE.c ****         CyBle_AncsInit();
 221:Generated_Source\PSoC4/CYBLE.c ****     #endif /* CYBLE_ANCS */
 222:Generated_Source\PSoC4/CYBLE.c **** 	
 223:Generated_Source\PSoC4/CYBLE.c ****     #ifdef CYBLE_ANS
 224:Generated_Source\PSoC4/CYBLE.c ****         CyBle_AnsInit();
 225:Generated_Source\PSoC4/CYBLE.c ****     #endif /* CYBLE_ANS */
 226:Generated_Source\PSoC4/CYBLE.c ****     
 227:Generated_Source\PSoC4/CYBLE.c ****     #ifdef CYBLE_BAS
 228:Generated_Source\PSoC4/CYBLE.c ****         CyBle_BasInit();
 229:Generated_Source\PSoC4/CYBLE.c ****     #endif /* CYBLE_BAS */
 230:Generated_Source\PSoC4/CYBLE.c ****     
 231:Generated_Source\PSoC4/CYBLE.c ****     #ifdef CYBLE_BCS
ARM GAS  C:\Users\Lucia\AppData\Local\Temp\cc0KspdR.s 			page 9


 232:Generated_Source\PSoC4/CYBLE.c ****         CyBle_BcsInit();
 233:Generated_Source\PSoC4/CYBLE.c ****     #endif /* CYBLE_BCS */
 234:Generated_Source\PSoC4/CYBLE.c **** 
 235:Generated_Source\PSoC4/CYBLE.c ****     #ifdef CYBLE_BLS
 236:Generated_Source\PSoC4/CYBLE.c ****         CyBle_BlsInit();
 237:Generated_Source\PSoC4/CYBLE.c ****     #endif /* CYBLE_BLS */
 238:Generated_Source\PSoC4/CYBLE.c ****     
 239:Generated_Source\PSoC4/CYBLE.c ****     #ifdef CYBLE_BMS
 240:Generated_Source\PSoC4/CYBLE.c ****         CyBle_BmsInit();
 241:Generated_Source\PSoC4/CYBLE.c ****     #endif /* CYBLE_BMS */
 242:Generated_Source\PSoC4/CYBLE.c ****     
 243:Generated_Source\PSoC4/CYBLE.c ****     #ifdef CYBLE_CGMS
 244:Generated_Source\PSoC4/CYBLE.c ****         CyBle_CgmsInit();
 245:Generated_Source\PSoC4/CYBLE.c ****     #endif /* CYBLE_CGMS */
 246:Generated_Source\PSoC4/CYBLE.c **** 
 247:Generated_Source\PSoC4/CYBLE.c ****     #ifdef CYBLE_CPS
 248:Generated_Source\PSoC4/CYBLE.c ****         CyBle_CpsInit();
 249:Generated_Source\PSoC4/CYBLE.c ****     #endif /* CYBLE_CPS */
 250:Generated_Source\PSoC4/CYBLE.c **** 
 251:Generated_Source\PSoC4/CYBLE.c ****     #ifdef CYBLE_CSCS
 252:Generated_Source\PSoC4/CYBLE.c ****         CyBle_CscsInit();
 253:Generated_Source\PSoC4/CYBLE.c ****     #endif /* CYBLE_CSCS */
 254:Generated_Source\PSoC4/CYBLE.c ****     
 255:Generated_Source\PSoC4/CYBLE.c ****     #ifdef CYBLE_CTS
 256:Generated_Source\PSoC4/CYBLE.c ****         CyBle_CtsInit();
 257:Generated_Source\PSoC4/CYBLE.c ****     #endif /* CYBLE_CTS */
 258:Generated_Source\PSoC4/CYBLE.c **** 
 259:Generated_Source\PSoC4/CYBLE.c ****     #ifdef CYBLE_CUSTOM
 260:Generated_Source\PSoC4/CYBLE.c ****         CyBle_CustomInit();
 261:Generated_Source\PSoC4/CYBLE.c ****     #endif /* CYBLE_CUSTOM */
 262:Generated_Source\PSoC4/CYBLE.c **** 
 263:Generated_Source\PSoC4/CYBLE.c ****     #ifdef CYBLE_DIS
 264:Generated_Source\PSoC4/CYBLE.c ****         CyBle_DisInit();
 222              		.loc 1 264 0
 223 0004 FFF7FEFF 		bl	CyBle_DisInit
 265:Generated_Source\PSoC4/CYBLE.c ****     #endif /* CYBLE_DIS */
 266:Generated_Source\PSoC4/CYBLE.c **** 
 267:Generated_Source\PSoC4/CYBLE.c ****     #ifdef CYBLE_ESS
 268:Generated_Source\PSoC4/CYBLE.c ****         CyBle_EssInit();
 269:Generated_Source\PSoC4/CYBLE.c ****     #endif /* CYBLE_ESS */
 270:Generated_Source\PSoC4/CYBLE.c ****     
 271:Generated_Source\PSoC4/CYBLE.c ****     #ifdef CYBLE_GLS
 272:Generated_Source\PSoC4/CYBLE.c ****         CyBle_GlsInit();
 273:Generated_Source\PSoC4/CYBLE.c ****     #endif /* CYBLE_GLS */
 274:Generated_Source\PSoC4/CYBLE.c ****     
 275:Generated_Source\PSoC4/CYBLE.c ****     #ifdef CYBLE_HIDS
 276:Generated_Source\PSoC4/CYBLE.c ****         CyBle_HidsInit();
 277:Generated_Source\PSoC4/CYBLE.c ****     #endif /* CYBLE_HIDS */
 278:Generated_Source\PSoC4/CYBLE.c **** 
 279:Generated_Source\PSoC4/CYBLE.c ****     #ifdef CYBLE_HPS
 280:Generated_Source\PSoC4/CYBLE.c ****         CyBle_HpsInit();
 281:Generated_Source\PSoC4/CYBLE.c ****     #endif /* CYBLE_HPS */
 282:Generated_Source\PSoC4/CYBLE.c **** 
 283:Generated_Source\PSoC4/CYBLE.c ****     #ifdef CYBLE_HRS
 284:Generated_Source\PSoC4/CYBLE.c ****         CyBle_HrsInit();
 224              		.loc 1 284 0
 225 0008 FFF7FEFF 		bl	CyBle_HrsInit
ARM GAS  C:\Users\Lucia\AppData\Local\Temp\cc0KspdR.s 			page 10


 285:Generated_Source\PSoC4/CYBLE.c ****     #endif /* CYBLE_HRS */
 286:Generated_Source\PSoC4/CYBLE.c ****     
 287:Generated_Source\PSoC4/CYBLE.c ****     #ifdef CYBLE_HTS
 288:Generated_Source\PSoC4/CYBLE.c ****         CyBle_HtsInit();
 289:Generated_Source\PSoC4/CYBLE.c ****     #endif /* CYBLE_RSCS */
 290:Generated_Source\PSoC4/CYBLE.c **** 
 291:Generated_Source\PSoC4/CYBLE.c ****     #ifdef CYBLE_IAS
 292:Generated_Source\PSoC4/CYBLE.c ****         CyBle_IasInit();
 293:Generated_Source\PSoC4/CYBLE.c ****     #endif /* CYBLE_IAS */
 294:Generated_Source\PSoC4/CYBLE.c **** 
 295:Generated_Source\PSoC4/CYBLE.c ****     #ifdef CYBLE_IPS
 296:Generated_Source\PSoC4/CYBLE.c ****         CyBle_IpsInit();
 297:Generated_Source\PSoC4/CYBLE.c ****     #endif /* CYBLE_IPS */
 298:Generated_Source\PSoC4/CYBLE.c ****     
 299:Generated_Source\PSoC4/CYBLE.c ****     #ifdef CYBLE_LLS
 300:Generated_Source\PSoC4/CYBLE.c ****         CyBle_LlsInit();
 301:Generated_Source\PSoC4/CYBLE.c ****     #endif /* CYBLE_LLS */
 302:Generated_Source\PSoC4/CYBLE.c **** 
 303:Generated_Source\PSoC4/CYBLE.c ****     #ifdef CYBLE_LNS
 304:Generated_Source\PSoC4/CYBLE.c ****         CyBle_LnsInit();
 305:Generated_Source\PSoC4/CYBLE.c ****     #endif /* CYBLE_LNS */
 306:Generated_Source\PSoC4/CYBLE.c ****     
 307:Generated_Source\PSoC4/CYBLE.c ****     #ifdef CYBLE_NDCS
 308:Generated_Source\PSoC4/CYBLE.c ****         CyBle_NdcsInit();
 309:Generated_Source\PSoC4/CYBLE.c ****     #endif /* CYBLE_NDCS */
 310:Generated_Source\PSoC4/CYBLE.c ****     
 311:Generated_Source\PSoC4/CYBLE.c ****     #ifdef CYBLE_PASS
 312:Generated_Source\PSoC4/CYBLE.c ****         CyBle_PassInit();
 313:Generated_Source\PSoC4/CYBLE.c ****     #endif /* CYBLE_PASS */
 314:Generated_Source\PSoC4/CYBLE.c ****     
 315:Generated_Source\PSoC4/CYBLE.c ****     #ifdef CYBLE_PLXS
 316:Generated_Source\PSoC4/CYBLE.c ****         CyBle_PlxsInit();
 317:Generated_Source\PSoC4/CYBLE.c ****     #endif /* CYBLE_PLXS */
 318:Generated_Source\PSoC4/CYBLE.c ****     
 319:Generated_Source\PSoC4/CYBLE.c ****     #ifdef CYBLE_RSCS
 320:Generated_Source\PSoC4/CYBLE.c ****         CyBle_RscsInit();
 321:Generated_Source\PSoC4/CYBLE.c ****     #endif /* CYBLE_RSCS */
 322:Generated_Source\PSoC4/CYBLE.c **** 
 323:Generated_Source\PSoC4/CYBLE.c ****     #ifdef CYBLE_RTUS
 324:Generated_Source\PSoC4/CYBLE.c ****         CyBle_RtusInit();
 325:Generated_Source\PSoC4/CYBLE.c ****     #endif /* CYBLE_RTUS */
 326:Generated_Source\PSoC4/CYBLE.c **** 
 327:Generated_Source\PSoC4/CYBLE.c ****     #ifdef CYBLE_SCPS
 328:Generated_Source\PSoC4/CYBLE.c ****         CyBle_ScpsInit();
 329:Generated_Source\PSoC4/CYBLE.c ****     #endif /* CYBLE_SCPS */
 330:Generated_Source\PSoC4/CYBLE.c ****     
 331:Generated_Source\PSoC4/CYBLE.c ****     #ifdef CYBLE_TPS
 332:Generated_Source\PSoC4/CYBLE.c ****         CyBle_TpsInit();
 333:Generated_Source\PSoC4/CYBLE.c ****     #endif /* CYBLE_TPS */
 334:Generated_Source\PSoC4/CYBLE.c ****     
 335:Generated_Source\PSoC4/CYBLE.c ****     #ifdef CYBLE_UDS
 336:Generated_Source\PSoC4/CYBLE.c ****         CyBle_UdsInit();
 337:Generated_Source\PSoC4/CYBLE.c ****     #endif /* CYBLE_UDS */
 338:Generated_Source\PSoC4/CYBLE.c **** 
 339:Generated_Source\PSoC4/CYBLE.c ****     #ifdef CYBLE_WPTS
 340:Generated_Source\PSoC4/CYBLE.c ****         CyBle_WptsInit();
 341:Generated_Source\PSoC4/CYBLE.c ****     #endif /* CYBLE_WPTS */
ARM GAS  C:\Users\Lucia\AppData\Local\Temp\cc0KspdR.s 			page 11


 342:Generated_Source\PSoC4/CYBLE.c **** 
 343:Generated_Source\PSoC4/CYBLE.c ****     #ifdef CYBLE_WSS
 344:Generated_Source\PSoC4/CYBLE.c ****         CyBle_WssInit();
 345:Generated_Source\PSoC4/CYBLE.c ****     #endif /* CYBLE_WSS */
 346:Generated_Source\PSoC4/CYBLE.c **** }
 226              		.loc 1 346 0
 227 000c C046     		nop
 228 000e BD46     		mov	sp, r7
 229              		@ sp needed
 230 0010 80BD     		pop	{r7, pc}
 231              		.cfi_endproc
 232              	.LFE3:
 233              		.size	CyBle_ServiceInit, .-CyBle_ServiceInit
 234 0012 C046     		.section	.rodata
 235              		.align	2
 236              	.LC0:
 237 0000 2400     		.short	36
 238 0002 03       		.byte	3
 239 0003 00       		.space	1
 240 0004 3000     		.short	48
 241 0006 01       		.byte	1
 242 0007 00       		.space	1
 243 0008 2800     		.short	40
 244 000a 02       		.byte	2
 245 000b 00       		.space	1
 246 000c 2400     		.short	36
 247 000e 01       		.byte	1
 248 000f 00       		.space	1
 249 0010 2400     		.short	36
 250 0012 01       		.byte	1
 251 0013 00       		.space	1
 252              		.section	.text.CyBle_Start,"ax",%progbits
 253              		.align	2
 254              		.global	CyBle_Start
 255              		.code	16
 256              		.thumb_func
 257              		.type	CyBle_Start, %function
 258              	CyBle_Start:
 259              	.LFB4:
 347:Generated_Source\PSoC4/CYBLE.c **** 
 348:Generated_Source\PSoC4/CYBLE.c **** 
 349:Generated_Source\PSoC4/CYBLE.c **** /******************************************************************************
 350:Generated_Source\PSoC4/CYBLE.c **** * Function Name: CyBle_Start
 351:Generated_Source\PSoC4/CYBLE.c **** ***************************************************************************//**
 352:Generated_Source\PSoC4/CYBLE.c **** * 
 353:Generated_Source\PSoC4/CYBLE.c **** *  This function initializes the BLE Stack, which consists of the BLE Stack 
 354:Generated_Source\PSoC4/CYBLE.c **** *  Manager, BLE Controller, and BLE Host modules. It takes care of initializing
 355:Generated_Source\PSoC4/CYBLE.c **** *  the Profile layer, schedulers, Timer and other platform related
 356:Generated_Source\PSoC4/CYBLE.c **** *  resources required for the BLE component. It also registers the callback 
 357:Generated_Source\PSoC4/CYBLE.c **** *  function for BLE events that will be registered in the BLE stack.
 358:Generated_Source\PSoC4/CYBLE.c **** * 
 359:Generated_Source\PSoC4/CYBLE.c **** *  Note that this function does not reset the BLE Stack.
 360:Generated_Source\PSoC4/CYBLE.c **** * 
 361:Generated_Source\PSoC4/CYBLE.c **** *  For HCI-Mode of operation, this function will not initialize the BLE Host 
 362:Generated_Source\PSoC4/CYBLE.c **** *  module.
 363:Generated_Source\PSoC4/CYBLE.c **** * 
 364:Generated_Source\PSoC4/CYBLE.c **** *  Calling this function results in the generation of CYBLE_EVT_STACK_ON event
ARM GAS  C:\Users\Lucia\AppData\Local\Temp\cc0KspdR.s 			page 12


 365:Generated_Source\PSoC4/CYBLE.c **** *  on successful initialization of the BLE Stack.
 366:Generated_Source\PSoC4/CYBLE.c **** * 
 367:Generated_Source\PSoC4/CYBLE.c **** *  \param callbackFunc: Event callback function to receive events from BLE stack.
 368:Generated_Source\PSoC4/CYBLE.c **** *   CYBLE_CALLBACK_T is a function pointer type.
 369:Generated_Source\PSoC4/CYBLE.c **** * 
 370:Generated_Source\PSoC4/CYBLE.c **** * \return
 371:Generated_Source\PSoC4/CYBLE.c **** *  CYBLE_API_RESULT_T : Return value indicates if the function succeeded or 
 372:Generated_Source\PSoC4/CYBLE.c **** *  failed. Following are the possible error codes.
 373:Generated_Source\PSoC4/CYBLE.c **** * 
 374:Generated_Source\PSoC4/CYBLE.c **** *   <table>
 375:Generated_Source\PSoC4/CYBLE.c **** *  	  <tr>
 376:Generated_Source\PSoC4/CYBLE.c **** *       <th>Error codes</th>
 377:Generated_Source\PSoC4/CYBLE.c **** *       <th>Description</th>
 378:Generated_Source\PSoC4/CYBLE.c **** *     </tr>
 379:Generated_Source\PSoC4/CYBLE.c **** *     <tr>
 380:Generated_Source\PSoC4/CYBLE.c **** *       <td>CYBLE_ERROR_OK</td>
 381:Generated_Source\PSoC4/CYBLE.c **** *       <td>On successful operation.</td>
 382:Generated_Source\PSoC4/CYBLE.c **** *     </tr>
 383:Generated_Source\PSoC4/CYBLE.c **** *     <tr>
 384:Generated_Source\PSoC4/CYBLE.c **** *       <td>CYBLE_ERROR_INVALID_PARAMETER</td>
 385:Generated_Source\PSoC4/CYBLE.c **** *       <td>On passing a NULL pointer to the function. 
 386:Generated_Source\PSoC4/CYBLE.c **** *		</td>
 387:Generated_Source\PSoC4/CYBLE.c **** *     </tr>
 388:Generated_Source\PSoC4/CYBLE.c **** *     <tr>
 389:Generated_Source\PSoC4/CYBLE.c **** *       <td>CYBLE_ERROR_REPEATED_ATTEMPTS</td>
 390:Generated_Source\PSoC4/CYBLE.c **** *       <td>On invoking this function more than once without calling CyBle_Shutdown() 
 391:Generated_Source\PSoC4/CYBLE.c **** *           function between calls to this function.</td>
 392:Generated_Source\PSoC4/CYBLE.c **** *     </tr>
 393:Generated_Source\PSoC4/CYBLE.c **** *     <tr>
 394:Generated_Source\PSoC4/CYBLE.c **** *       <td>CYBLE_ERROR_MEMORY_ALLOCATION_FAILED</td>
 395:Generated_Source\PSoC4/CYBLE.c **** *       <td>There is insufficient memory available.</td>
 396:Generated_Source\PSoC4/CYBLE.c **** *     </tr>
 397:Generated_Source\PSoC4/CYBLE.c **** *   </table>
 398:Generated_Source\PSoC4/CYBLE.c **** * 
 399:Generated_Source\PSoC4/CYBLE.c **** *  \globalvars
 400:Generated_Source\PSoC4/CYBLE.c **** *   The CyBle_initVar variable is used to indicate initial
 401:Generated_Source\PSoC4/CYBLE.c **** *   configuration of this component. The variable is initialized to zero (0u)
 402:Generated_Source\PSoC4/CYBLE.c **** *   and set to one (1u) the first time CyBle_Start() is called. This
 403:Generated_Source\PSoC4/CYBLE.c **** *   allows for component initialization without re-initialization in all
 404:Generated_Source\PSoC4/CYBLE.c **** *   subsequent calls to the CyBle_Start() routine.
 405:Generated_Source\PSoC4/CYBLE.c **** * 
 406:Generated_Source\PSoC4/CYBLE.c **** ******************************************************************************/
 407:Generated_Source\PSoC4/CYBLE.c **** CYBLE_API_RESULT_T CyBle_Start(CYBLE_CALLBACK_T callbackFunc)
 408:Generated_Source\PSoC4/CYBLE.c **** {
 260              		.loc 1 408 0
 261              		.cfi_startproc
 262              		@ args = 0, pretend = 0, frame = 64
 263              		@ frame_needed = 1, uses_anonymous_args = 0
 264 0000 B0B5     		push	{r4, r5, r7, lr}
 265              		.cfi_def_cfa_offset 16
 266              		.cfi_offset 4, -16
 267              		.cfi_offset 5, -12
 268              		.cfi_offset 7, -8
 269              		.cfi_offset 14, -4
 270 0002 94B0     		sub	sp, sp, #80
 271              		.cfi_def_cfa_offset 96
 272 0004 04AF     		add	r7, sp, #16
ARM GAS  C:\Users\Lucia\AppData\Local\Temp\cc0KspdR.s 			page 13


 273              		.cfi_def_cfa 7, 80
 274 0006 7860     		str	r0, [r7, #4]
 409:Generated_Source\PSoC4/CYBLE.c ****     CYBLE_API_RESULT_T apiResult = CYBLE_ERROR_OK;
 275              		.loc 1 409 0
 276 0008 3E23     		movs	r3, #62
 277 000a FB18     		adds	r3, r7, r3
 278 000c 0022     		movs	r2, #0
 279 000e 1A80     		strh	r2, [r3]
 410:Generated_Source\PSoC4/CYBLE.c ****     
 411:Generated_Source\PSoC4/CYBLE.c ****     #if(CYBLE_MODE_PROFILE)
 412:Generated_Source\PSoC4/CYBLE.c ****     
 413:Generated_Source\PSoC4/CYBLE.c ****     CYBLE_STK_APP_DATA_BUFF_T cyBle_stackDataBuff[CYBLE_STACK_APP_MIN_POOL] = 
 280              		.loc 1 413 0
 281 0010 2823     		movs	r3, #40
 282 0012 FA18     		adds	r2, r7, r3
 283 0014 3D4B     		ldr	r3, .L12
 284 0016 1000     		movs	r0, r2
 285 0018 1900     		movs	r1, r3
 286 001a 1423     		movs	r3, #20
 287 001c 1A00     		movs	r2, r3
 288 001e FFF7FEFF 		bl	memcpy
 414:Generated_Source\PSoC4/CYBLE.c ****     {
 415:Generated_Source\PSoC4/CYBLE.c ****         {CYBLE_GATT_MTU_PLUS_L2CAP_MEM_EXT, CYBLE_GATT_MTU_BUFF_COUNT + CYBLE_GATT_MAX_ATTR_BUFF_CO
 416:Generated_Source\PSoC4/CYBLE.c ****         {CYBLE_L2CAP_PSM_PLUS_L2CAP_MEM_EXT, CYBLE_L2CAP_PSM_COUNT},
 417:Generated_Source\PSoC4/CYBLE.c ****         {CYBLE_L2CAP_CBFC_PLUS_L2CAP_MEM_EXT, 2u * CYBLE_L2CAP_LOGICAL_CHANNEL_COUNT},
 418:Generated_Source\PSoC4/CYBLE.c ****         {CYBLE_L2CAP_MTU_PLUS_L2CAP_MEM_EXT, CYBLE_L2CAP_LOGICAL_CHANNEL_COUNT},
 419:Generated_Source\PSoC4/CYBLE.c ****         {CYBLE_L2CAP_MPS_PLUS_L2CAP_MEM_EXT, CYBLE_L2CAP_LOGICAL_CHANNEL_COUNT * (CYBLE_L2CAP_MTU_M
 420:Generated_Source\PSoC4/CYBLE.c ****     }; 
 421:Generated_Source\PSoC4/CYBLE.c **** 
 422:Generated_Source\PSoC4/CYBLE.c ****     #endif /* CYBLE_MODE_PROFILE */
 423:Generated_Source\PSoC4/CYBLE.c ****     
 424:Generated_Source\PSoC4/CYBLE.c ****     /* If not initialized then initialize all the required hardware and software */
 425:Generated_Source\PSoC4/CYBLE.c ****     if(cyBle_initVar == 0u)
 289              		.loc 1 425 0
 290 0022 3B4B     		ldr	r3, .L12+4
 291 0024 1B78     		ldrb	r3, [r3]
 292 0026 002B     		cmp	r3, #0
 293 0028 04D1     		bne	.L6
 426:Generated_Source\PSoC4/CYBLE.c ****     {
 427:Generated_Source\PSoC4/CYBLE.c ****         CyBle_Init();
 294              		.loc 1 427 0
 295 002a FFF7FEFF 		bl	CyBle_Init
 428:Generated_Source\PSoC4/CYBLE.c ****         cyBle_initVar = 1u;
 296              		.loc 1 428 0
 297 002e 384B     		ldr	r3, .L12+4
 298 0030 0122     		movs	r2, #1
 299 0032 1A70     		strb	r2, [r3]
 300              	.L6:
 429:Generated_Source\PSoC4/CYBLE.c ****     }
 430:Generated_Source\PSoC4/CYBLE.c ****     
 431:Generated_Source\PSoC4/CYBLE.c ****     if(callbackFunc != NULL)
 301              		.loc 1 431 0
 302 0034 7B68     		ldr	r3, [r7, #4]
 303 0036 002B     		cmp	r3, #0
 304 0038 5CD0     		beq	.L7
 432:Generated_Source\PSoC4/CYBLE.c ****     {
 433:Generated_Source\PSoC4/CYBLE.c ****         CyBle_ApplCallback = callbackFunc;
ARM GAS  C:\Users\Lucia\AppData\Local\Temp\cc0KspdR.s 			page 14


 305              		.loc 1 433 0
 306 003a 364B     		ldr	r3, .L12+8
 307 003c 7A68     		ldr	r2, [r7, #4]
 308 003e 1A60     		str	r2, [r3]
 434:Generated_Source\PSoC4/CYBLE.c ****         
 435:Generated_Source\PSoC4/CYBLE.c ****     #if(CYBLE_SHARING_MODE_EXPORT)
 436:Generated_Source\PSoC4/CYBLE.c ****         if(cyBle_stackMemoryRam == NULL)
 437:Generated_Source\PSoC4/CYBLE.c ****         {
 438:Generated_Source\PSoC4/CYBLE.c ****             cyBle_stackMemoryRam = (uint8 *)malloc(CYBLE_STACK_RAM_SIZE);
 439:Generated_Source\PSoC4/CYBLE.c ****             if(cyBle_stackMemoryRam == NULL)
 440:Generated_Source\PSoC4/CYBLE.c ****             {
 441:Generated_Source\PSoC4/CYBLE.c ****                 apiResult = CYBLE_ERROR_MEMORY_ALLOCATION_FAILED;
 442:Generated_Source\PSoC4/CYBLE.c ****             }
 443:Generated_Source\PSoC4/CYBLE.c ****         }
 444:Generated_Source\PSoC4/CYBLE.c ****     #endif /* CYBLE_SHARING_MODE_EXPORT */
 445:Generated_Source\PSoC4/CYBLE.c ****         if(apiResult == CYBLE_ERROR_OK)
 309              		.loc 1 445 0
 310 0040 3E23     		movs	r3, #62
 311 0042 FB18     		adds	r3, r7, r3
 312 0044 1B88     		ldrh	r3, [r3]
 313 0046 002B     		cmp	r3, #0
 314 0048 29D1     		bne	.L8
 315              	.LBB2:
 446:Generated_Source\PSoC4/CYBLE.c ****         {
 447:Generated_Source\PSoC4/CYBLE.c ****             CYBLE_DLE_CONFIG_PARAM_T dleConfigParams;
 448:Generated_Source\PSoC4/CYBLE.c ****             CYBLE_PRIVACY_1_2_CONFIG_PARAM_T privacyConfigParams;
 449:Generated_Source\PSoC4/CYBLE.c ****             CYBLE_STACK_CONFIG_PARAM_T stackConfig;
 450:Generated_Source\PSoC4/CYBLE.c ****             uint16 featureHeapReq;
 451:Generated_Source\PSoC4/CYBLE.c ****             
 452:Generated_Source\PSoC4/CYBLE.c ****             stackConfig.privacyConfig = &privacyConfigParams;
 316              		.loc 1 452 0
 317 004a 1023     		movs	r3, #16
 318 004c FB18     		adds	r3, r7, r3
 319 004e 1C22     		movs	r2, #28
 320 0050 BA18     		adds	r2, r7, r2
 321 0052 5A60     		str	r2, [r3, #4]
 453:Generated_Source\PSoC4/CYBLE.c ****             stackConfig.dleConfig = &dleConfigParams;
 322              		.loc 1 453 0
 323 0054 1023     		movs	r3, #16
 324 0056 FB18     		adds	r3, r7, r3
 325 0058 2022     		movs	r2, #32
 326 005a BA18     		adds	r2, r7, r2
 327 005c 1A60     		str	r2, [r3]
 454:Generated_Source\PSoC4/CYBLE.c ****             
 455:Generated_Source\PSoC4/CYBLE.c ****             /* Configure default BLE 4.1 features and enabled 4.2 features */
 456:Generated_Source\PSoC4/CYBLE.c ****             stackConfig.feature_mask = CYBLE_DLE_FEATURE | CYBLE_LL_PRIVACY_FEATURE | 
 328              		.loc 1 456 0
 329 005e 1023     		movs	r3, #16
 330 0060 FB18     		adds	r3, r7, r3
 331 0062 0022     		movs	r2, #0
 332 0064 1A81     		strh	r2, [r3, #8]
 457:Generated_Source\PSoC4/CYBLE.c ****                                        CYBLE_SECURE_CONN_FEATURE;
 458:Generated_Source\PSoC4/CYBLE.c **** 
 459:Generated_Source\PSoC4/CYBLE.c ****             /* Configure DLE */
 460:Generated_Source\PSoC4/CYBLE.c ****             dleConfigParams.dleMaxTxCapability = CYBLE_LL_MAX_TX_PAYLOAD_SIZE;
 333              		.loc 1 460 0
 334 0066 2023     		movs	r3, #32
ARM GAS  C:\Users\Lucia\AppData\Local\Temp\cc0KspdR.s 			page 15


 335 0068 FB18     		adds	r3, r7, r3
 336 006a 1B22     		movs	r2, #27
 337 006c 1A80     		strh	r2, [r3]
 461:Generated_Source\PSoC4/CYBLE.c ****             dleConfigParams.dleMaxRxCapability = CYBLE_LL_MAX_RX_PAYLOAD_SIZE;
 338              		.loc 1 461 0
 339 006e 2023     		movs	r3, #32
 340 0070 FB18     		adds	r3, r7, r3
 341 0072 1B22     		movs	r2, #27
 342 0074 5A80     		strh	r2, [r3, #2]
 462:Generated_Source\PSoC4/CYBLE.c ****             dleConfigParams.dleNumTxBuffer = CYBLE_LL_DEFAULT_NUM_ACL_TX_PACKETS;
 343              		.loc 1 462 0
 344 0076 2023     		movs	r3, #32
 345 0078 FB18     		adds	r3, r7, r3
 346 007a 0422     		movs	r2, #4
 347 007c 1A71     		strb	r2, [r3, #4]
 463:Generated_Source\PSoC4/CYBLE.c ****         #if(CYBLE_DLE_FEATURE_ENABLED)
 464:Generated_Source\PSoC4/CYBLE.c ****             CyBle_EnableDleFeature();              /* Enable DLE code in stack */
 465:Generated_Source\PSoC4/CYBLE.c ****         #endif /* CYBLE_DLE_FEATURE_ENABLED */
 466:Generated_Source\PSoC4/CYBLE.c ****         
 467:Generated_Source\PSoC4/CYBLE.c ****             /* Configure LL Privacy */
 468:Generated_Source\PSoC4/CYBLE.c ****             privacyConfigParams.resolvingListSize = CYBLE_MAX_RESOLVABLE_DEVICES;
 348              		.loc 1 468 0
 349 007e 1C23     		movs	r3, #28
 350 0080 FB18     		adds	r3, r7, r3
 351 0082 0822     		movs	r2, #8
 352 0084 1A70     		strb	r2, [r3]
 469:Generated_Source\PSoC4/CYBLE.c ****         #if(CYBLE_LL_PRIVACY_FEATURE_ENABLED)
 470:Generated_Source\PSoC4/CYBLE.c ****             CyBle_EnablePrivacyFeature();          /* Enable LL Privacy code in stack */
 471:Generated_Source\PSoC4/CYBLE.c ****         #endif /* CYBLE_LL_PRIVACY_FEATURE_ENABLED */
 472:Generated_Source\PSoC4/CYBLE.c **** 
 473:Generated_Source\PSoC4/CYBLE.c ****             apiResult = CyBle_StackSetFeatureConfig(&stackConfig, &featureHeapReq);
 353              		.loc 1 473 0
 354 0086 3E23     		movs	r3, #62
 355 0088 FC18     		adds	r4, r7, r3
 356 008a 0E23     		movs	r3, #14
 357 008c FA18     		adds	r2, r7, r3
 358 008e 1023     		movs	r3, #16
 359 0090 FB18     		adds	r3, r7, r3
 360 0092 1100     		movs	r1, r2
 361 0094 1800     		movs	r0, r3
 362 0096 FFF7FEFF 		bl	CyBle_StackSetFeatureConfig
 363 009a 0300     		movs	r3, r0
 364 009c 2380     		strh	r3, [r4]
 365              	.L8:
 366              	.LBE2:
 474:Generated_Source\PSoC4/CYBLE.c ****             }
 475:Generated_Source\PSoC4/CYBLE.c ****     
 476:Generated_Source\PSoC4/CYBLE.c ****         if(apiResult == CYBLE_ERROR_OK)
 367              		.loc 1 476 0
 368 009e 3E23     		movs	r3, #62
 369 00a0 FB18     		adds	r3, r7, r3
 370 00a2 1B88     		ldrh	r3, [r3]
 371 00a4 002B     		cmp	r3, #0
 372 00a6 29D1     		bne	.L10
 477:Generated_Source\PSoC4/CYBLE.c ****         {
 478:Generated_Source\PSoC4/CYBLE.c ****         
 479:Generated_Source\PSoC4/CYBLE.c ****         #if(CYBLE_MODE_PROFILE)
ARM GAS  C:\Users\Lucia\AppData\Local\Temp\cc0KspdR.s 			page 16


 480:Generated_Source\PSoC4/CYBLE.c ****             #if(CYBLE_BONDING_REQUIREMENT == CYBLE_BONDING_YES)
 481:Generated_Source\PSoC4/CYBLE.c ****                 apiResult = CyBle_StackInit(&CyBle_EventHandler, cyBle_stackMemoryRam, 
 482:Generated_Source\PSoC4/CYBLE.c ****                     CYBLE_STACK_RAM_SIZE - CYBLE_GATT_PREPARE_WRITE_BUFF_LEN, cyBle_stackDataBuff, 
 483:Generated_Source\PSoC4/CYBLE.c ****                     CYBLE_STACK_APP_MIN_POOL, cyBle_flashStorage.stackFlashptr, CYBLE_STACK_FLASH_S
 484:Generated_Source\PSoC4/CYBLE.c ****             #else
 485:Generated_Source\PSoC4/CYBLE.c ****                 apiResult = CyBle_StackInit(&CyBle_EventHandler, cyBle_stackMemoryRam, 
 373              		.loc 1 485 0
 374 00a8 3E23     		movs	r3, #62
 375 00aa FC18     		adds	r4, r7, r3
 376 00ac 2823     		movs	r3, #40
 377 00ae FD18     		adds	r5, r7, r3
 378 00b0 AE23     		movs	r3, #174
 379 00b2 1A01     		lsls	r2, r3, #4
 380 00b4 1849     		ldr	r1, .L12+12
 381 00b6 1948     		ldr	r0, .L12+16
 382 00b8 0023     		movs	r3, #0
 383 00ba 0293     		str	r3, [sp, #8]
 384 00bc 0023     		movs	r3, #0
 385 00be 0193     		str	r3, [sp, #4]
 386 00c0 0523     		movs	r3, #5
 387 00c2 0093     		str	r3, [sp]
 388 00c4 2B00     		movs	r3, r5
 389 00c6 FFF7FEFF 		bl	CyBle_StackInit
 390 00ca 0300     		movs	r3, r0
 391 00cc 2380     		strh	r3, [r4]
 486:Generated_Source\PSoC4/CYBLE.c ****                     CYBLE_STACK_RAM_SIZE - CYBLE_GATT_PREPARE_WRITE_BUFF_LEN, cyBle_stackDataBuff, 
 487:Generated_Source\PSoC4/CYBLE.c ****                     CYBLE_STACK_APP_MIN_POOL, NULL, 0u);
 488:Generated_Source\PSoC4/CYBLE.c ****             #endif  /* CYBLE_BONDING_REQUIREMENT == CYBLE_BONDING_YES */
 489:Generated_Source\PSoC4/CYBLE.c ****         #else /* HCI mode */
 490:Generated_Source\PSoC4/CYBLE.c ****             /* The following will perform preparation to use HCI over UART or over
 491:Generated_Source\PSoC4/CYBLE.c ****                software. But the following fucntions will not initialize the HCI
 492:Generated_Source\PSoC4/CYBLE.c ****                Transport. This will be done as part of Stack initialization, so
 493:Generated_Source\PSoC4/CYBLE.c ****                the functions should be called prior CyBle_StackInit().
 494:Generated_Source\PSoC4/CYBLE.c ****             */
 495:Generated_Source\PSoC4/CYBLE.c ****             #if (CYBLE_HCI_TYPE == CYBLE_HCI_OVER_UART)
 496:Generated_Source\PSoC4/CYBLE.c ****                 CyBle_HciUartTransportEnable();
 497:Generated_Source\PSoC4/CYBLE.c ****             #else
 498:Generated_Source\PSoC4/CYBLE.c ****                 CyBle_HciSoftTransportEnable();
 499:Generated_Source\PSoC4/CYBLE.c ****             #endif /* (CYBLE_HCI_TYPE == CYBLE_HCI_OVER_UART) */
 500:Generated_Source\PSoC4/CYBLE.c ****             /* This will initialize BLE stack for HCI mode operation */
 501:Generated_Source\PSoC4/CYBLE.c ****             apiResult = CyBle_StackInit(&CyBle_EventHandler, cyBle_stackMemoryRam, CYBLE_STACK_RAM_
 502:Generated_Source\PSoC4/CYBLE.c ****                 NULL, 0u, NULL, 0u);
 503:Generated_Source\PSoC4/CYBLE.c ****         #endif /* CYBLE_MODE_PROFILE */
 504:Generated_Source\PSoC4/CYBLE.c **** 
 505:Generated_Source\PSoC4/CYBLE.c ****             if(apiResult == CYBLE_ERROR_OK)
 392              		.loc 1 505 0
 393 00ce 3E23     		movs	r3, #62
 394 00d0 FB18     		adds	r3, r7, r3
 395 00d2 1B88     		ldrh	r3, [r3]
 396 00d4 002B     		cmp	r3, #0
 397 00d6 11D1     		bne	.L10
 506:Generated_Source\PSoC4/CYBLE.c ****             {
 507:Generated_Source\PSoC4/CYBLE.c ****                 CyBle_SetState(CYBLE_STATE_INITIALIZING);
 398              		.loc 1 507 0
 399 00d8 114B     		ldr	r3, .L12+20
 400 00da 0122     		movs	r2, #1
 401 00dc 1A70     		strb	r2, [r3]
ARM GAS  C:\Users\Lucia\AppData\Local\Temp\cc0KspdR.s 			page 17


 508:Generated_Source\PSoC4/CYBLE.c ****                 
 509:Generated_Source\PSoC4/CYBLE.c ****             #if (CYBLE_GATT_ROLE_CLIENT)
 510:Generated_Source\PSoC4/CYBLE.c ****                 CyBle_SetClientState(CYBLE_CLIENT_STATE_DISCONNECTED);
 511:Generated_Source\PSoC4/CYBLE.c ****             #endif /* CYBLE_GATT_ROLE_CLIENT */
 512:Generated_Source\PSoC4/CYBLE.c ****                 
 513:Generated_Source\PSoC4/CYBLE.c ****             #if(CYBLE_GATT_ROLE_SERVER)
 514:Generated_Source\PSoC4/CYBLE.c ****                 apiResult = CyBle_GattsDbRegister(cyBle_gattDB, CYBLE_GATT_DB_INDEX_COUNT, CYBLE_GA
 402              		.loc 1 514 0
 403 00de 3E23     		movs	r3, #62
 404 00e0 FC18     		adds	r4, r7, r3
 405 00e2 104B     		ldr	r3, .L12+24
 406 00e4 1122     		movs	r2, #17
 407 00e6 2621     		movs	r1, #38
 408 00e8 1800     		movs	r0, r3
 409 00ea FFF7FEFF 		bl	CyBle_GattsDbRegister
 410 00ee 0300     		movs	r3, r0
 411 00f0 2380     		strh	r3, [r4]
 412 00f2 03E0     		b	.L10
 413              	.L7:
 515:Generated_Source\PSoC4/CYBLE.c ****             #endif /* CYBLE_GATT_ROLE_SERVER */
 516:Generated_Source\PSoC4/CYBLE.c ****             }
 517:Generated_Source\PSoC4/CYBLE.c ****         }
 518:Generated_Source\PSoC4/CYBLE.c ****     }
 519:Generated_Source\PSoC4/CYBLE.c ****     else
 520:Generated_Source\PSoC4/CYBLE.c ****     {
 521:Generated_Source\PSoC4/CYBLE.c ****         apiResult = CYBLE_ERROR_INVALID_PARAMETER;
 414              		.loc 1 521 0
 415 00f4 3E23     		movs	r3, #62
 416 00f6 FB18     		adds	r3, r7, r3
 417 00f8 0122     		movs	r2, #1
 418 00fa 1A80     		strh	r2, [r3]
 419              	.L10:
 522:Generated_Source\PSoC4/CYBLE.c ****     }
 523:Generated_Source\PSoC4/CYBLE.c **** 
 524:Generated_Source\PSoC4/CYBLE.c ****     return (apiResult);
 420              		.loc 1 524 0
 421 00fc 3E23     		movs	r3, #62
 422 00fe FB18     		adds	r3, r7, r3
 423 0100 1B88     		ldrh	r3, [r3]
 525:Generated_Source\PSoC4/CYBLE.c **** }
 424              		.loc 1 525 0
 425 0102 1800     		movs	r0, r3
 426 0104 BD46     		mov	sp, r7
 427 0106 10B0     		add	sp, sp, #64
 428              		@ sp needed
 429 0108 B0BD     		pop	{r4, r5, r7, pc}
 430              	.L13:
 431 010a C046     		.align	2
 432              	.L12:
 433 010c 00000000 		.word	.LC0
 434 0110 00000000 		.word	cyBle_initVar
 435 0114 00000000 		.word	CyBle_ApplCallback
 436 0118 00000000 		.word	cyBle_stackMemoryRam
 437 011c 00000000 		.word	CyBle_EventHandler
 438 0120 00000000 		.word	cyBle_state
 439 0124 00000000 		.word	cyBle_gattDB
 440              		.cfi_endproc
ARM GAS  C:\Users\Lucia\AppData\Local\Temp\cc0KspdR.s 			page 18


 441              	.LFE4:
 442              		.size	CyBle_Start, .-CyBle_Start
 443              		.section	.text.CyBle_Stop,"ax",%progbits
 444              		.align	2
 445              		.global	CyBle_Stop
 446              		.code	16
 447              		.thumb_func
 448              		.type	CyBle_Stop, %function
 449              	CyBle_Stop:
 450              	.LFB5:
 526:Generated_Source\PSoC4/CYBLE.c **** 
 527:Generated_Source\PSoC4/CYBLE.c **** 
 528:Generated_Source\PSoC4/CYBLE.c **** /******************************************************************************
 529:Generated_Source\PSoC4/CYBLE.c **** * Function Name: CyBle_Stop
 530:Generated_Source\PSoC4/CYBLE.c **** ***************************************************************************//**
 531:Generated_Source\PSoC4/CYBLE.c **** * 
 532:Generated_Source\PSoC4/CYBLE.c **** *  This function stops any ongoing operation in the BLE Stack and forces the 
 533:Generated_Source\PSoC4/CYBLE.c **** *  BLE Stack to shut down. The only function that can be called after calling
 534:Generated_Source\PSoC4/CYBLE.c **** *  this function is CyBle_Start(). 
 535:Generated_Source\PSoC4/CYBLE.c **** * 
 536:Generated_Source\PSoC4/CYBLE.c **** * \return
 537:Generated_Source\PSoC4/CYBLE.c **** *  None
 538:Generated_Source\PSoC4/CYBLE.c **** * 
 539:Generated_Source\PSoC4/CYBLE.c **** ******************************************************************************/
 540:Generated_Source\PSoC4/CYBLE.c **** void CyBle_Stop(void)
 541:Generated_Source\PSoC4/CYBLE.c **** {
 451              		.loc 1 541 0
 452              		.cfi_startproc
 453              		@ args = 0, pretend = 0, frame = 0
 454              		@ frame_needed = 1, uses_anonymous_args = 0
 455 0000 80B5     		push	{r7, lr}
 456              		.cfi_def_cfa_offset 8
 457              		.cfi_offset 7, -8
 458              		.cfi_offset 14, -4
 459 0002 00AF     		add	r7, sp, #0
 460              		.cfi_def_cfa_register 7
 542:Generated_Source\PSoC4/CYBLE.c ****     CyBle_Shutdown();                         /* Stop all ongoing activities */
 461              		.loc 1 542 0
 462 0004 FFF7FEFF 		bl	CyBle_Shutdown
 543:Generated_Source\PSoC4/CYBLE.c ****     CyBle_SetState(CYBLE_STATE_STOPPED);
 463              		.loc 1 543 0
 464 0008 024B     		ldr	r3, .L15
 465 000a 0022     		movs	r2, #0
 466 000c 1A70     		strb	r2, [r3]
 544:Generated_Source\PSoC4/CYBLE.c ****     #if(CYBLE_SHARING_MODE_EXPORT)
 545:Generated_Source\PSoC4/CYBLE.c ****         if(cyBle_stackMemoryRam != NULL)
 546:Generated_Source\PSoC4/CYBLE.c ****         {
 547:Generated_Source\PSoC4/CYBLE.c ****             free(cyBle_stackMemoryRam);
 548:Generated_Source\PSoC4/CYBLE.c ****         }
 549:Generated_Source\PSoC4/CYBLE.c ****     #endif /* CYBLE_SHARING_MODE_EXPORT */
 550:Generated_Source\PSoC4/CYBLE.c **** }
 467              		.loc 1 550 0
 468 000e C046     		nop
 469 0010 BD46     		mov	sp, r7
 470              		@ sp needed
 471 0012 80BD     		pop	{r7, pc}
 472              	.L16:
ARM GAS  C:\Users\Lucia\AppData\Local\Temp\cc0KspdR.s 			page 19


 473              		.align	2
 474              	.L15:
 475 0014 00000000 		.word	cyBle_state
 476              		.cfi_endproc
 477              	.LFE5:
 478              		.size	CyBle_Stop, .-CyBle_Stop
 479              		.section	.text.CyBle_GappStartAdvertisement,"ax",%progbits
 480              		.align	2
 481              		.global	CyBle_GappStartAdvertisement
 482              		.code	16
 483              		.thumb_func
 484              		.type	CyBle_GappStartAdvertisement, %function
 485              	CyBle_GappStartAdvertisement:
 486              	.LFB6:
 551:Generated_Source\PSoC4/CYBLE.c **** 
 552:Generated_Source\PSoC4/CYBLE.c **** 
 553:Generated_Source\PSoC4/CYBLE.c **** #if((CYBLE_GAP_ROLE_PERIPHERAL || CYBLE_GAP_ROLE_CENTRAL) && (CYBLE_BONDING_REQUIREMENT == CYBLE_BO
 554:Generated_Source\PSoC4/CYBLE.c **** 
 555:Generated_Source\PSoC4/CYBLE.c ****     
 556:Generated_Source\PSoC4/CYBLE.c **** /******************************************************************************
 557:Generated_Source\PSoC4/CYBLE.c **** * Function Name: CyBle_StoreBondingData
 558:Generated_Source\PSoC4/CYBLE.c **** ***************************************************************************//**
 559:Generated_Source\PSoC4/CYBLE.c **** * 
 560:Generated_Source\PSoC4/CYBLE.c **** *  This function writes the new bonding data from RAM to the dedicated Flash 
 561:Generated_Source\PSoC4/CYBLE.c **** *  location as defined by the component. It performs data comparing between RAM
 562:Generated_Source\PSoC4/CYBLE.c **** *  and Flash before writing to Flash. If there is no change between RAM and Flash
 563:Generated_Source\PSoC4/CYBLE.c **** *  data, then no write is performed. It writes only one flash row in one call.
 564:Generated_Source\PSoC4/CYBLE.c **** *  Application should keep calling this function till API return CYBLE_ERROR_OK. 
 565:Generated_Source\PSoC4/CYBLE.c **** *  This function is available only when Bonding requirement is selected in
 566:Generated_Source\PSoC4/CYBLE.c **** *  Security settings.    
 567:Generated_Source\PSoC4/CYBLE.c **** * 
 568:Generated_Source\PSoC4/CYBLE.c **** *  \param isForceWrite:  If value is set to 0, then stack will check if flash write 
 569:Generated_Source\PSoC4/CYBLE.c **** *                 is permissible. 
 570:Generated_Source\PSoC4/CYBLE.c **** *  
 571:Generated_Source\PSoC4/CYBLE.c **** * \return
 572:Generated_Source\PSoC4/CYBLE.c **** *  Return value is of type CYBLE_API_RESULT_T.
 573:Generated_Source\PSoC4/CYBLE.c **** *
 574:Generated_Source\PSoC4/CYBLE.c **** *   Errors codes                         | Description
 575:Generated_Source\PSoC4/CYBLE.c **** *   ----------------------------------   | ------------------------------------
 576:Generated_Source\PSoC4/CYBLE.c **** *   CYBLE_ERROR_OK                       | On successful operation
 577:Generated_Source\PSoC4/CYBLE.c **** *   CYBLE_ERROR_FLASH_WRITE_NOT_PERMITED | Flash Write is not complete
 578:Generated_Source\PSoC4/CYBLE.c **** *   CYBLE_ERROR_INVALID_PARAMETER        | Invalid input parameter  
 579:Generated_Source\PSoC4/CYBLE.c **** *   CYBLE_ERROR_FLASH_WRITE              | Error in flash Write	
 580:Generated_Source\PSoC4/CYBLE.c ****     
 581:Generated_Source\PSoC4/CYBLE.c **** *  \sideeffect
 582:Generated_Source\PSoC4/CYBLE.c **** *   For BLE devices with 128K of Flash memory this API will automatically 
 583:Generated_Source\PSoC4/CYBLE.c **** *   modify the clock settings for the device.
 584:Generated_Source\PSoC4/CYBLE.c **** *   Writing to flash requires changes to be done to the IMO (set to 48 MHz)
 585:Generated_Source\PSoC4/CYBLE.c **** *   and HFCLK (source set to IMO) settings. The configuration is restored before
 586:Generated_Source\PSoC4/CYBLE.c **** *   returning. This will impact the operation of most of the hardware in the
 587:Generated_Source\PSoC4/CYBLE.c **** *   device.
 588:Generated_Source\PSoC4/CYBLE.c **** * 
 589:Generated_Source\PSoC4/CYBLE.c **** *  \globalvars
 590:Generated_Source\PSoC4/CYBLE.c **** *   The cyBle_pendingFlashWrite variable is used to detect status
 591:Generated_Source\PSoC4/CYBLE.c **** *   of pending write to flash operation for stack data and CCCD.
 592:Generated_Source\PSoC4/CYBLE.c **** *   This API automatically clears pending bits after write operation complete.
 593:Generated_Source\PSoC4/CYBLE.c **** *     
ARM GAS  C:\Users\Lucia\AppData\Local\Temp\cc0KspdR.s 			page 20


 594:Generated_Source\PSoC4/CYBLE.c **** ******************************************************************************/
 595:Generated_Source\PSoC4/CYBLE.c **** CYBLE_API_RESULT_T CyBle_StoreBondingData(uint8 isForceWrite)
 596:Generated_Source\PSoC4/CYBLE.c **** {
 597:Generated_Source\PSoC4/CYBLE.c ****     CYBLE_API_RESULT_T apiResult = CYBLE_ERROR_OK;
 598:Generated_Source\PSoC4/CYBLE.c ****     
 599:Generated_Source\PSoC4/CYBLE.c ****     /* Store Stack data */
 600:Generated_Source\PSoC4/CYBLE.c ****     if((cyBle_pendingFlashWrite & CYBLE_PENDING_STACK_FLASH_WRITE_BIT) != 0u)
 601:Generated_Source\PSoC4/CYBLE.c ****     {
 602:Generated_Source\PSoC4/CYBLE.c ****         apiResult = CyBle_StoreStackData(isForceWrite);
 603:Generated_Source\PSoC4/CYBLE.c ****         if(apiResult == CYBLE_ERROR_OK)
 604:Generated_Source\PSoC4/CYBLE.c ****         {
 605:Generated_Source\PSoC4/CYBLE.c ****             cyBle_pendingFlashWrite &= (uint8)~CYBLE_PENDING_STACK_FLASH_WRITE_BIT;
 606:Generated_Source\PSoC4/CYBLE.c ****             /* Change apiResult if there are more pending data to store */
 607:Generated_Source\PSoC4/CYBLE.c ****             if((cyBle_pendingFlashWrite & CYBLE_PENDING_CCCD_FLASH_WRITE_BIT) != 0u)
 608:Generated_Source\PSoC4/CYBLE.c ****             {
 609:Generated_Source\PSoC4/CYBLE.c ****                 apiResult = CYBLE_ERROR_FLASH_WRITE_NOT_PERMITED;
 610:Generated_Source\PSoC4/CYBLE.c ****             }
 611:Generated_Source\PSoC4/CYBLE.c ****         }
 612:Generated_Source\PSoC4/CYBLE.c ****     }
 613:Generated_Source\PSoC4/CYBLE.c **** #if(CYBLE_GATT_DB_CCCD_COUNT != 0u)
 614:Generated_Source\PSoC4/CYBLE.c ****     /* Store CCCD values */
 615:Generated_Source\PSoC4/CYBLE.c ****     if( ((apiResult == CYBLE_ERROR_OK) || (isForceWrite != 0u)) && 
 616:Generated_Source\PSoC4/CYBLE.c ****         ((cyBle_pendingFlashWrite & CYBLE_PENDING_CCCD_FLASH_WRITE_BIT) != 0u) &&
 617:Generated_Source\PSoC4/CYBLE.c ****         (cyBle_connHandle.bdHandle <= CYBLE_GAP_MAX_BONDED_DEVICE))
 618:Generated_Source\PSoC4/CYBLE.c ****     {
 619:Generated_Source\PSoC4/CYBLE.c ****         apiResult = CyBle_StoreAppData(cyBle_attValuesCCCD, cyBle_flashStorage.attValuesCCCDFlashMe
 620:Generated_Source\PSoC4/CYBLE.c ****                         cyBle_connHandle.bdHandle], CYBLE_GATT_DB_CCCD_COUNT, isForceWrite);
 621:Generated_Source\PSoC4/CYBLE.c ****         if(apiResult == CYBLE_ERROR_OK)
 622:Generated_Source\PSoC4/CYBLE.c ****         {
 623:Generated_Source\PSoC4/CYBLE.c ****             cyBle_pendingFlashWrite &= (uint8)~CYBLE_PENDING_CCCD_FLASH_WRITE_BIT;
 624:Generated_Source\PSoC4/CYBLE.c ****         }
 625:Generated_Source\PSoC4/CYBLE.c ****     }
 626:Generated_Source\PSoC4/CYBLE.c ****     /* Clear requested CCCD values */
 627:Generated_Source\PSoC4/CYBLE.c ****     if( ((apiResult == CYBLE_ERROR_OK) || (isForceWrite != 0u)) && 
 628:Generated_Source\PSoC4/CYBLE.c ****         ((cyBle_pendingFlashWrite & CYBLE_PENDING_CCCD_FLASH_CLEAR_MASK) != 0u) )
 629:Generated_Source\PSoC4/CYBLE.c ****     {
 630:Generated_Source\PSoC4/CYBLE.c ****         if((cyBle_pendingFlashWrite & CYBLE_PENDING_CCCD_FLASH_CLEAR_ALL_BIT) != 0u)
 631:Generated_Source\PSoC4/CYBLE.c ****         {
 632:Generated_Source\PSoC4/CYBLE.c ****             /* Remove cccd values for all bonded devices */
 633:Generated_Source\PSoC4/CYBLE.c ****             uint8 defaultValuesCCCD[CYBLE_GAP_MAX_BONDED_DEVICE + 1u][CYBLE_GATT_DB_CCCD_COUNT];
 634:Generated_Source\PSoC4/CYBLE.c ****             
 635:Generated_Source\PSoC4/CYBLE.c ****             (void)memset(defaultValuesCCCD, 0, sizeof(defaultValuesCCCD));
 636:Generated_Source\PSoC4/CYBLE.c **** 
 637:Generated_Source\PSoC4/CYBLE.c ****             apiResult = CyBle_StoreAppData((uint8 *)defaultValuesCCCD, 
 638:Generated_Source\PSoC4/CYBLE.c ****                 (const uint8 *)cyBle_flashStorage.attValuesCCCDFlashMemory, sizeof(defaultValuesCCC
 639:Generated_Source\PSoC4/CYBLE.c ****             if(apiResult == CYBLE_ERROR_OK)
 640:Generated_Source\PSoC4/CYBLE.c ****             {
 641:Generated_Source\PSoC4/CYBLE.c ****                 cyBle_pendingFlashWrite &= (uint8)~CYBLE_PENDING_CCCD_FLASH_CLEAR_ALL_BIT;
 642:Generated_Source\PSoC4/CYBLE.c ****             }
 643:Generated_Source\PSoC4/CYBLE.c ****         }
 644:Generated_Source\PSoC4/CYBLE.c ****         else /* Remove cccd values for particular device */
 645:Generated_Source\PSoC4/CYBLE.c ****         {
 646:Generated_Source\PSoC4/CYBLE.c ****             uint8 defaultValuesCCCD[CYBLE_GATT_DB_CCCD_COUNT] = {0u};
 647:Generated_Source\PSoC4/CYBLE.c ****             
 648:Generated_Source\PSoC4/CYBLE.c ****             apiResult = CyBle_StoreAppData(defaultValuesCCCD, cyBle_flashStorage.attValuesCCCDFlash
 649:Generated_Source\PSoC4/CYBLE.c ****                                     cyBle_pendingFlashClearCccdHandle], CYBLE_GATT_DB_CCCD_COUNT, i
 650:Generated_Source\PSoC4/CYBLE.c ****             if(apiResult == CYBLE_ERROR_OK)
ARM GAS  C:\Users\Lucia\AppData\Local\Temp\cc0KspdR.s 			page 21


 651:Generated_Source\PSoC4/CYBLE.c ****             {
 652:Generated_Source\PSoC4/CYBLE.c ****                 cyBle_pendingFlashWrite &= (uint8)~CYBLE_PENDING_CCCD_FLASH_CLEAR_BIT;
 653:Generated_Source\PSoC4/CYBLE.c ****             }
 654:Generated_Source\PSoC4/CYBLE.c ****         }
 655:Generated_Source\PSoC4/CYBLE.c ****     }
 656:Generated_Source\PSoC4/CYBLE.c **** #endif /* CYBLE_GATT_DB_CCCD_COUNT != 0u */
 657:Generated_Source\PSoC4/CYBLE.c ****     return(apiResult);
 658:Generated_Source\PSoC4/CYBLE.c **** }
 659:Generated_Source\PSoC4/CYBLE.c **** 
 660:Generated_Source\PSoC4/CYBLE.c **** 
 661:Generated_Source\PSoC4/CYBLE.c **** /******************************************************************************
 662:Generated_Source\PSoC4/CYBLE.c **** * Function Name: CyBle_GapRemoveBondedDevice
 663:Generated_Source\PSoC4/CYBLE.c **** ***************************************************************************//**
 664:Generated_Source\PSoC4/CYBLE.c **** * 
 665:Generated_Source\PSoC4/CYBLE.c **** *  This function marks the device untrusted. It removes the bonding information
 666:Generated_Source\PSoC4/CYBLE.c **** *  of the device including CCCD values. This function removes device from the
 667:Generated_Source\PSoC4/CYBLE.c **** *  white list also when autopopulate white list with bonded devices option is
 668:Generated_Source\PSoC4/CYBLE.c **** *  enabled.
 669:Generated_Source\PSoC4/CYBLE.c **** * 
 670:Generated_Source\PSoC4/CYBLE.c **** *  This function is available only when Bonding requirement is selected in
 671:Generated_Source\PSoC4/CYBLE.c **** *  Security settings.    
 672:Generated_Source\PSoC4/CYBLE.c **** *
 673:Generated_Source\PSoC4/CYBLE.c **** *  \param bdAddr: Pointer to peer device address, of type CYBLE_GAP_BD_ADDR_T.
 674:Generated_Source\PSoC4/CYBLE.c **** *                 If device address is set to 0, then all devices shall be
 675:Generated_Source\PSoC4/CYBLE.c **** *                 removed from trusted list and white list.
 676:Generated_Source\PSoC4/CYBLE.c **** *
 677:Generated_Source\PSoC4/CYBLE.c **** * \return
 678:Generated_Source\PSoC4/CYBLE.c **** *  CYBLE_API_RESULT_T : Return value indicates if the function succeeded or
 679:Generated_Source\PSoC4/CYBLE.c **** *  failed. Following are the possible error codes.
 680:Generated_Source\PSoC4/CYBLE.c **** *
 681:Generated_Source\PSoC4/CYBLE.c **** *   Errors codes                     | Description
 682:Generated_Source\PSoC4/CYBLE.c **** *   ---------------------------------| ------------------------------------
 683:Generated_Source\PSoC4/CYBLE.c **** *   CYBLE_ERROR_OK                   | On successful operation.
 684:Generated_Source\PSoC4/CYBLE.c **** *   CYBLE_ERROR_INVALID_PARAMETER    | On specifying NULL as input parameter for 'bdAddr'.
 685:Generated_Source\PSoC4/CYBLE.c **** *   CYBLE_ERROR_INVALID_OPERATION    | Whitelist is already in use or there is pending write to fla
 686:Generated_Source\PSoC4/CYBLE.c **** *   CYBLE_ERROR_NO_DEVICE_ENTITY     | Device does not exist in the bond list.
 687:Generated_Source\PSoC4/CYBLE.c **** *
 688:Generated_Source\PSoC4/CYBLE.c **** *  \globalvars
 689:Generated_Source\PSoC4/CYBLE.c **** *   The bdHandle is set in cyBle_pendingFlashWrite variable to indicate that
 690:Generated_Source\PSoC4/CYBLE.c **** *   data should be stored to flash by CyBle_StoreBondingData afterwards. 
 691:Generated_Source\PSoC4/CYBLE.c **** *     
 692:Generated_Source\PSoC4/CYBLE.c **** ******************************************************************************/
 693:Generated_Source\PSoC4/CYBLE.c **** CYBLE_API_RESULT_T CyBle_GapRemoveBondedDevice(CYBLE_GAP_BD_ADDR_T* bdAddr)
 694:Generated_Source\PSoC4/CYBLE.c **** {
 695:Generated_Source\PSoC4/CYBLE.c ****     CYBLE_API_RESULT_T apiResult = CYBLE_ERROR_OK;
 696:Generated_Source\PSoC4/CYBLE.c ****     
 697:Generated_Source\PSoC4/CYBLE.c ****     if(cyBle_pendingFlashWrite == 0u)
 698:Generated_Source\PSoC4/CYBLE.c ****     {
 699:Generated_Source\PSoC4/CYBLE.c ****         
 700:Generated_Source\PSoC4/CYBLE.c ****     #if(CYBLE_GATT_DB_CCCD_COUNT != 0u)
 701:Generated_Source\PSoC4/CYBLE.c ****         /* Request to clear CCCD values which will be done by CyBle_StoreBondingData API */
 702:Generated_Source\PSoC4/CYBLE.c ****         uint8 bDevHandle;
 703:Generated_Source\PSoC4/CYBLE.c ****         CYBLE_GAP_BD_ADDR_T invalidBdAddr = {{0u,0u,0u,0u,0u,0u}, 0u};
 704:Generated_Source\PSoC4/CYBLE.c **** 
 705:Generated_Source\PSoC4/CYBLE.c ****         if(memcmp(((uint8 *) &(bdAddr->bdAddr)), ((uint8 *) &(invalidBdAddr.bdAddr)), CYBLE_GAP_BD_
 706:Generated_Source\PSoC4/CYBLE.c **** 	    {
 707:Generated_Source\PSoC4/CYBLE.c ****             /* Request to remove all bonded devices by cyBle_StoreBondingData API */
ARM GAS  C:\Users\Lucia\AppData\Local\Temp\cc0KspdR.s 			page 22


 708:Generated_Source\PSoC4/CYBLE.c ****             cyBle_pendingFlashWrite |= CYBLE_PENDING_CCCD_FLASH_CLEAR_ALL_BIT;
 709:Generated_Source\PSoC4/CYBLE.c ****         }
 710:Generated_Source\PSoC4/CYBLE.c ****         else
 711:Generated_Source\PSoC4/CYBLE.c ****         {
 712:Generated_Source\PSoC4/CYBLE.c ****             /* Get the BD handle from Address */
 713:Generated_Source\PSoC4/CYBLE.c ****             apiResult = CyBle_GapGetPeerBdHandle(&bDevHandle, bdAddr);
 714:Generated_Source\PSoC4/CYBLE.c ****             if(apiResult == CYBLE_ERROR_OK)
 715:Generated_Source\PSoC4/CYBLE.c ****             {
 716:Generated_Source\PSoC4/CYBLE.c ****                 /* Store BD handle to clear cccd values by CyBle_StoreBondingData API */
 717:Generated_Source\PSoC4/CYBLE.c ****                 cyBle_pendingFlashWrite |= CYBLE_PENDING_CCCD_FLASH_CLEAR_BIT;
 718:Generated_Source\PSoC4/CYBLE.c ****                 cyBle_pendingFlashClearCccdHandle = bDevHandle;
 719:Generated_Source\PSoC4/CYBLE.c ****             }
 720:Generated_Source\PSoC4/CYBLE.c ****         }
 721:Generated_Source\PSoC4/CYBLE.c ****     #endif /* CYBLE_GATT_DB_CCCD_COUNT != 0u */
 722:Generated_Source\PSoC4/CYBLE.c ****         if(apiResult == CYBLE_ERROR_OK)
 723:Generated_Source\PSoC4/CYBLE.c ****         {
 724:Generated_Source\PSoC4/CYBLE.c ****             apiResult = CyBle_GapRemoveDeviceFromWhiteList(bdAddr);
 725:Generated_Source\PSoC4/CYBLE.c ****         }
 726:Generated_Source\PSoC4/CYBLE.c ****     }
 727:Generated_Source\PSoC4/CYBLE.c ****     else
 728:Generated_Source\PSoC4/CYBLE.c ****     {
 729:Generated_Source\PSoC4/CYBLE.c ****         apiResult = CYBLE_ERROR_INVALID_OPERATION;
 730:Generated_Source\PSoC4/CYBLE.c ****     }
 731:Generated_Source\PSoC4/CYBLE.c ****     
 732:Generated_Source\PSoC4/CYBLE.c ****     return(apiResult);
 733:Generated_Source\PSoC4/CYBLE.c **** }
 734:Generated_Source\PSoC4/CYBLE.c **** 
 735:Generated_Source\PSoC4/CYBLE.c **** 
 736:Generated_Source\PSoC4/CYBLE.c **** #endif /* (CYBLE_GAP_ROLE_PERIPHERAL || CYBLE_GAP_ROLE_CENTRAL) && (CYBLE_BONDING_REQUIREMENT == CY
 737:Generated_Source\PSoC4/CYBLE.c **** 
 738:Generated_Source\PSoC4/CYBLE.c **** 
 739:Generated_Source\PSoC4/CYBLE.c **** #if(CYBLE_GAP_ROLE_PERIPHERAL || CYBLE_GAP_ROLE_BROADCASTER)
 740:Generated_Source\PSoC4/CYBLE.c **** 
 741:Generated_Source\PSoC4/CYBLE.c ****     /******************************************************************************
 742:Generated_Source\PSoC4/CYBLE.c ****     *  Function Name: CyBle_GappStartAdvertisement
 743:Generated_Source\PSoC4/CYBLE.c ****     ***************************************************************************//**
 744:Generated_Source\PSoC4/CYBLE.c ****     *     
 745:Generated_Source\PSoC4/CYBLE.c ****     *  This function is used to start the advertisement using the advertisement data 
 746:Generated_Source\PSoC4/CYBLE.c ****     *  set in the component customizer's GUI. After invoking this API, the device 
 747:Generated_Source\PSoC4/CYBLE.c ****     *  will be available for connection by the devices configured for GAP central 
 748:Generated_Source\PSoC4/CYBLE.c ****     *  role. It is only included if the device is configured for GAP Peripheral or 
 749:Generated_Source\PSoC4/CYBLE.c ****     *  GAP Peripheral + Central role.
 750:Generated_Source\PSoC4/CYBLE.c ****     *  
 751:Generated_Source\PSoC4/CYBLE.c ****     *  On start of advertisement, GAP Peripheral receives the
 752:Generated_Source\PSoC4/CYBLE.c ****     *  CYBLE_EVT_GAPP_ADVERTISEMENT_START_STOP event. The following events are 
 753:Generated_Source\PSoC4/CYBLE.c ****     *  possible on invoking this function:
 754:Generated_Source\PSoC4/CYBLE.c ****     *  
 755:Generated_Source\PSoC4/CYBLE.c ****     *  * CYBLE_EVT_GAP_DEVICE_CONNECTED - If the device connects to a GAP Central and 
 756:Generated_Source\PSoC4/CYBLE.c ****     *    Link Layer Privacy is disabled in component customizer.
 757:Generated_Source\PSoC4/CYBLE.c ****     *  * CYBLE_EVT_GAP_ENHANCE_CONN_COMPLETE - If the device connects to a GAP Central and 
 758:Generated_Source\PSoC4/CYBLE.c ****     *    Link Layer Privacy is enabled in component customizer.
 759:Generated_Source\PSoC4/CYBLE.c ****     *  * CYBLE_EVT_TIMEOUT: If no device in GAP Central mode connects to this 
 760:Generated_Source\PSoC4/CYBLE.c ****     *                       device within the specified timeout limit. Stack 
 761:Generated_Source\PSoC4/CYBLE.c ****     *                       automatically initiate stop advertising when Slow 
 762:Generated_Source\PSoC4/CYBLE.c ****     *                       advertising was initiated, or starts Slow advertising
 763:Generated_Source\PSoC4/CYBLE.c ****     *                       after Fast advertising timeout occur.
 764:Generated_Source\PSoC4/CYBLE.c ****     *  * CYBLE_EVT_GAPP_ADVERTISEMENT_START_STOP: If device started or stopped
ARM GAS  C:\Users\Lucia\AppData\Local\Temp\cc0KspdR.s 			page 23


 765:Generated_Source\PSoC4/CYBLE.c ****     *                                               advertising. Use CyBle_GetState()
 766:Generated_Source\PSoC4/CYBLE.c ****     *                                               to determine the state. Sequential 
 767:Generated_Source\PSoC4/CYBLE.c ****     *                                               advertising could be started when
 768:Generated_Source\PSoC4/CYBLE.c ****     *                                               CYBLE_STATE_DISCONNECTED state is
 769:Generated_Source\PSoC4/CYBLE.c ****     *                                               returned.
 770:Generated_Source\PSoC4/CYBLE.c ****     * 
 771:Generated_Source\PSoC4/CYBLE.c ****     *  \param advertisingIntervalType: Fast or slow advertising interval with timings
 772:Generated_Source\PSoC4/CYBLE.c ****     *                                 entered in Advertising settings section of the
 773:Generated_Source\PSoC4/CYBLE.c ****     *                                 customizer.
 774:Generated_Source\PSoC4/CYBLE.c ****     *  * CYBLE_ADVERTISING_FAST   0x00u
 775:Generated_Source\PSoC4/CYBLE.c ****     *  * CYBLE_ADVERTISING_SLOW   0x01u
 776:Generated_Source\PSoC4/CYBLE.c ****     *  * CYBLE_ADVERTISING_CUSTOM 0x02u
 777:Generated_Source\PSoC4/CYBLE.c ****     * 
 778:Generated_Source\PSoC4/CYBLE.c ****     * \return
 779:Generated_Source\PSoC4/CYBLE.c ****     *  CYBLE_API_RESULT_T : Return value indicates if the function succeeded or
 780:Generated_Source\PSoC4/CYBLE.c ****     *  failed. Following are the possible error codes.
 781:Generated_Source\PSoC4/CYBLE.c ****     * 
 782:Generated_Source\PSoC4/CYBLE.c ****     *   Errors codes                      |  Description
 783:Generated_Source\PSoC4/CYBLE.c ****     *   --------------------------------- |  --------------------------------
 784:Generated_Source\PSoC4/CYBLE.c ****     *   CYBLE_ERROR_OK                    |  On successful operation.
 785:Generated_Source\PSoC4/CYBLE.c ****     *   CYBLE_ERROR_INVALID_PARAMETER     |  On passing an invalid parameter.
 786:Generated_Source\PSoC4/CYBLE.c ****     *   CYBLE_ERROR_INVALID_STATE         |  On calling this API not in Disconnected state.
 787:Generated_Source\PSoC4/CYBLE.c ****     *
 788:Generated_Source\PSoC4/CYBLE.c ****     * 
 789:Generated_Source\PSoC4/CYBLE.c ****     *******************************************************************************/
 790:Generated_Source\PSoC4/CYBLE.c ****     CYBLE_API_RESULT_T CyBle_GappStartAdvertisement(uint8 advertisingIntervalType)
 791:Generated_Source\PSoC4/CYBLE.c ****     {
 487              		.loc 1 791 0
 488              		.cfi_startproc
 489              		@ args = 0, pretend = 0, frame = 16
 490              		@ frame_needed = 1, uses_anonymous_args = 0
 491 0000 90B5     		push	{r4, r7, lr}
 492              		.cfi_def_cfa_offset 12
 493              		.cfi_offset 4, -12
 494              		.cfi_offset 7, -8
 495              		.cfi_offset 14, -4
 496 0002 85B0     		sub	sp, sp, #20
 497              		.cfi_def_cfa_offset 32
 498 0004 00AF     		add	r7, sp, #0
 499              		.cfi_def_cfa_register 7
 500 0006 0200     		movs	r2, r0
 501 0008 FB1D     		adds	r3, r7, #7
 502 000a 1A70     		strb	r2, [r3]
 792:Generated_Source\PSoC4/CYBLE.c ****         CYBLE_API_RESULT_T apiResult;
 793:Generated_Source\PSoC4/CYBLE.c ****         
 794:Generated_Source\PSoC4/CYBLE.c ****         if(advertisingIntervalType > CYBLE_ADVERTISING_CUSTOM)
 503              		.loc 1 794 0
 504 000c FB1D     		adds	r3, r7, #7
 505 000e 1B78     		ldrb	r3, [r3]
 506 0010 022B     		cmp	r3, #2
 507 0012 04D9     		bls	.L18
 795:Generated_Source\PSoC4/CYBLE.c ****         {
 796:Generated_Source\PSoC4/CYBLE.c ****             apiResult = CYBLE_ERROR_INVALID_PARAMETER;
 508              		.loc 1 796 0
 509 0014 0E23     		movs	r3, #14
 510 0016 FB18     		adds	r3, r7, r3
 511 0018 0122     		movs	r2, #1
ARM GAS  C:\Users\Lucia\AppData\Local\Temp\cc0KspdR.s 			page 24


 512 001a 1A80     		strh	r2, [r3]
 513 001c 4AE0     		b	.L19
 514              	.L18:
 797:Generated_Source\PSoC4/CYBLE.c ****         }
 798:Generated_Source\PSoC4/CYBLE.c ****         else if((CYBLE_STATE_DISCONNECTED == CyBle_GetState()) && ((cyBle_eventHandlerFlag & CYBLE_
 515              		.loc 1 798 0
 516 001e 294B     		ldr	r3, .L25
 517 0020 1B78     		ldrb	r3, [r3]
 518 0022 042B     		cmp	r3, #4
 519 0024 41D1     		bne	.L20
 520              		.loc 1 798 0 is_stmt 0 discriminator 1
 521 0026 284B     		ldr	r3, .L25+4
 522 0028 1B78     		ldrb	r3, [r3]
 523 002a DBB2     		uxtb	r3, r3
 524 002c 1A00     		movs	r2, r3
 525 002e 0423     		movs	r3, #4
 526 0030 1340     		ands	r3, r2
 527 0032 3AD1     		bne	.L20
 799:Generated_Source\PSoC4/CYBLE.c ****         {   
 800:Generated_Source\PSoC4/CYBLE.c ****             if(advertisingIntervalType == CYBLE_ADVERTISING_FAST)
 528              		.loc 1 800 0 is_stmt 1
 529 0034 FB1D     		adds	r3, r7, #7
 530 0036 1B78     		ldrb	r3, [r3]
 531 0038 002B     		cmp	r3, #0
 532 003a 0BD1     		bne	.L21
 801:Generated_Source\PSoC4/CYBLE.c ****             {
 802:Generated_Source\PSoC4/CYBLE.c ****                 cyBle_discoveryModeInfo.advTo = CYBLE_FAST_ADV_TIMEOUT;
 533              		.loc 1 802 0
 534 003c 234B     		ldr	r3, .L25+8
 535 003e 1E22     		movs	r2, #30
 536 0040 1A82     		strh	r2, [r3, #16]
 803:Generated_Source\PSoC4/CYBLE.c ****                 cyBle_discoveryModeInfo.advParam->advIntvMin = CYBLE_FAST_ADV_INT_MIN;
 537              		.loc 1 803 0
 538 0042 224B     		ldr	r3, .L25+8
 539 0044 5B68     		ldr	r3, [r3, #4]
 540 0046 2022     		movs	r2, #32
 541 0048 1A80     		strh	r2, [r3]
 804:Generated_Source\PSoC4/CYBLE.c ****                 cyBle_discoveryModeInfo.advParam->advIntvMax = CYBLE_FAST_ADV_INT_MAX;
 542              		.loc 1 804 0
 543 004a 204B     		ldr	r3, .L25+8
 544 004c 5B68     		ldr	r3, [r3, #4]
 545 004e 3022     		movs	r2, #48
 546 0050 5A80     		strh	r2, [r3, #2]
 547 0052 10E0     		b	.L22
 548              	.L21:
 805:Generated_Source\PSoC4/CYBLE.c ****             }
 806:Generated_Source\PSoC4/CYBLE.c ****             else if(advertisingIntervalType == CYBLE_ADVERTISING_SLOW)
 549              		.loc 1 806 0
 550 0054 FB1D     		adds	r3, r7, #7
 551 0056 1B78     		ldrb	r3, [r3]
 552 0058 012B     		cmp	r3, #1
 553 005a 0CD1     		bne	.L22
 807:Generated_Source\PSoC4/CYBLE.c ****             {
 808:Generated_Source\PSoC4/CYBLE.c ****                 cyBle_discoveryModeInfo.advTo = CYBLE_SLOW_ADV_TIMEOUT;
 554              		.loc 1 808 0
 555 005c 1B4B     		ldr	r3, .L25+8
 556 005e 9622     		movs	r2, #150
ARM GAS  C:\Users\Lucia\AppData\Local\Temp\cc0KspdR.s 			page 25


 557 0060 1A82     		strh	r2, [r3, #16]
 809:Generated_Source\PSoC4/CYBLE.c ****                 cyBle_discoveryModeInfo.advParam->advIntvMin = CYBLE_SLOW_ADV_INT_MIN;
 558              		.loc 1 809 0
 559 0062 1A4B     		ldr	r3, .L25+8
 560 0064 5B68     		ldr	r3, [r3, #4]
 561 0066 C822     		movs	r2, #200
 562 0068 D200     		lsls	r2, r2, #3
 563 006a 1A80     		strh	r2, [r3]
 810:Generated_Source\PSoC4/CYBLE.c ****                 cyBle_discoveryModeInfo.advParam->advIntvMax = CYBLE_SLOW_ADV_INT_MAX;
 564              		.loc 1 810 0
 565 006c 174B     		ldr	r3, .L25+8
 566 006e 5B68     		ldr	r3, [r3, #4]
 567 0070 FA22     		movs	r2, #250
 568 0072 1201     		lsls	r2, r2, #4
 569 0074 5A80     		strh	r2, [r3, #2]
 570              	.L22:
 811:Generated_Source\PSoC4/CYBLE.c ****             }       
 812:Generated_Source\PSoC4/CYBLE.c ****             else /* Do not update advertising intervals */
 813:Generated_Source\PSoC4/CYBLE.c ****             {
 814:Generated_Source\PSoC4/CYBLE.c ****             }
 815:Generated_Source\PSoC4/CYBLE.c ****             cyBle_advertisingIntervalType = advertisingIntervalType;
 571              		.loc 1 815 0
 572 0076 164B     		ldr	r3, .L25+12
 573 0078 FA1D     		adds	r2, r7, #7
 574 007a 1278     		ldrb	r2, [r2]
 575 007c 1A70     		strb	r2, [r3]
 816:Generated_Source\PSoC4/CYBLE.c ****             apiResult = CyBle_GappEnterDiscoveryMode(&cyBle_discoveryModeInfo);
 576              		.loc 1 816 0
 577 007e 0E23     		movs	r3, #14
 578 0080 FC18     		adds	r4, r7, r3
 579 0082 124B     		ldr	r3, .L25+8
 580 0084 1800     		movs	r0, r3
 581 0086 FFF7FEFF 		bl	CyBle_GappEnterDiscoveryMode
 582 008a 0300     		movs	r3, r0
 583 008c 2380     		strh	r3, [r4]
 817:Generated_Source\PSoC4/CYBLE.c ****         
 818:Generated_Source\PSoC4/CYBLE.c ****             if(apiResult == CYBLE_ERROR_OK)
 584              		.loc 1 818 0
 585 008e 0E23     		movs	r3, #14
 586 0090 FB18     		adds	r3, r7, r3
 587 0092 1B88     		ldrh	r3, [r3]
 588 0094 002B     		cmp	r3, #0
 589 0096 0DD1     		bne	.L19
 819:Generated_Source\PSoC4/CYBLE.c ****             {
 820:Generated_Source\PSoC4/CYBLE.c ****                 cyBle_eventHandlerFlag |= CYBLE_START_FLAG;
 590              		.loc 1 820 0
 591 0098 0B4B     		ldr	r3, .L25+4
 592 009a 1B78     		ldrb	r3, [r3]
 593 009c DBB2     		uxtb	r3, r3
 594 009e 0422     		movs	r2, #4
 595 00a0 1343     		orrs	r3, r2
 596 00a2 DAB2     		uxtb	r2, r3
 597 00a4 084B     		ldr	r3, .L25+4
 598 00a6 1A70     		strb	r2, [r3]
 818:Generated_Source\PSoC4/CYBLE.c ****             {
 599              		.loc 1 818 0
 600 00a8 04E0     		b	.L19
ARM GAS  C:\Users\Lucia\AppData\Local\Temp\cc0KspdR.s 			page 26


 601              	.L20:
 821:Generated_Source\PSoC4/CYBLE.c ****             }
 822:Generated_Source\PSoC4/CYBLE.c ****         }
 823:Generated_Source\PSoC4/CYBLE.c ****         else
 824:Generated_Source\PSoC4/CYBLE.c ****         {
 825:Generated_Source\PSoC4/CYBLE.c ****             apiResult = CYBLE_ERROR_INVALID_STATE;
 602              		.loc 1 825 0
 603 00aa 0E23     		movs	r3, #14
 604 00ac FB18     		adds	r3, r7, r3
 605 00ae 0422     		movs	r2, #4
 606 00b0 FF32     		adds	r2, r2, #255
 607 00b2 1A80     		strh	r2, [r3]
 608              	.L19:
 826:Generated_Source\PSoC4/CYBLE.c ****         }
 827:Generated_Source\PSoC4/CYBLE.c **** 
 828:Generated_Source\PSoC4/CYBLE.c ****         return (apiResult);
 609              		.loc 1 828 0
 610 00b4 0E23     		movs	r3, #14
 611 00b6 FB18     		adds	r3, r7, r3
 612 00b8 1B88     		ldrh	r3, [r3]
 829:Generated_Source\PSoC4/CYBLE.c ****     }
 613              		.loc 1 829 0
 614 00ba 1800     		movs	r0, r3
 615 00bc BD46     		mov	sp, r7
 616 00be 05B0     		add	sp, sp, #20
 617              		@ sp needed
 618 00c0 90BD     		pop	{r4, r7, pc}
 619              	.L26:
 620 00c2 C046     		.align	2
 621              	.L25:
 622 00c4 00000000 		.word	cyBle_state
 623 00c8 00000000 		.word	cyBle_eventHandlerFlag
 624 00cc 00000000 		.word	cyBle_discoveryModeInfo
 625 00d0 00000000 		.word	cyBle_advertisingIntervalType
 626              		.cfi_endproc
 627              	.LFE6:
 628              		.size	CyBle_GappStartAdvertisement, .-CyBle_GappStartAdvertisement
 629              		.section	.text.CyBle_GappStopAdvertisement,"ax",%progbits
 630              		.align	2
 631              		.global	CyBle_GappStopAdvertisement
 632              		.code	16
 633              		.thumb_func
 634              		.type	CyBle_GappStopAdvertisement, %function
 635              	CyBle_GappStopAdvertisement:
 636              	.LFB7:
 830:Generated_Source\PSoC4/CYBLE.c **** 
 831:Generated_Source\PSoC4/CYBLE.c ****     
 832:Generated_Source\PSoC4/CYBLE.c ****     /******************************************************************************
 833:Generated_Source\PSoC4/CYBLE.c ****     * Function Name: CyBle_GappStopAdvertisement
 834:Generated_Source\PSoC4/CYBLE.c ****     ***************************************************************************//**
 835:Generated_Source\PSoC4/CYBLE.c ****     * 
 836:Generated_Source\PSoC4/CYBLE.c ****     *   This function can be used to exit from discovery mode. After the execution 
 837:Generated_Source\PSoC4/CYBLE.c ****     *   of this function, there will no longer be any advertisements. On stopping 
 838:Generated_Source\PSoC4/CYBLE.c ****     *   advertising, GAP Peripheral receives CYBLE_EVT_GAPP_ADVERTISEMENT_START_STOP
 839:Generated_Source\PSoC4/CYBLE.c ****     *   event. It is expected that the application layer tracks the function call 
 840:Generated_Source\PSoC4/CYBLE.c ****     *   performed before occurrence of this event as this event can occur on making 
 841:Generated_Source\PSoC4/CYBLE.c ****     *   a call to Cy_BleGappStartAdvertisement(), CyBle_GappEnterDiscoveryMode(), 
ARM GAS  C:\Users\Lucia\AppData\Local\Temp\cc0KspdR.s 			page 27


 842:Generated_Source\PSoC4/CYBLE.c ****     *   or CyBle_GappStartAdvertisement() functions as well.
 843:Generated_Source\PSoC4/CYBLE.c ****     *   
 844:Generated_Source\PSoC4/CYBLE.c ****     *   The following event occurs on invoking this function:
 845:Generated_Source\PSoC4/CYBLE.c ****     *   * CYBLE_EVT_GAPP_ADVERTISEMENT_START_STOP
 846:Generated_Source\PSoC4/CYBLE.c ****     * 
 847:Generated_Source\PSoC4/CYBLE.c ****     *  \return
 848:Generated_Source\PSoC4/CYBLE.c ****     *   None
 849:Generated_Source\PSoC4/CYBLE.c ****     * 
 850:Generated_Source\PSoC4/CYBLE.c ****     *******************************************************************************/
 851:Generated_Source\PSoC4/CYBLE.c ****     void CyBle_GappStopAdvertisement(void)
 852:Generated_Source\PSoC4/CYBLE.c ****     {
 637              		.loc 1 852 0
 638              		.cfi_startproc
 639              		@ args = 0, pretend = 0, frame = 0
 640              		@ frame_needed = 1, uses_anonymous_args = 0
 641 0000 80B5     		push	{r7, lr}
 642              		.cfi_def_cfa_offset 8
 643              		.cfi_offset 7, -8
 644              		.cfi_offset 14, -4
 645 0002 00AF     		add	r7, sp, #0
 646              		.cfi_def_cfa_register 7
 853:Generated_Source\PSoC4/CYBLE.c ****         CyBle_GappExitDiscoveryMode();
 647              		.loc 1 853 0
 648 0004 FFF7FEFF 		bl	CyBle_GappExitDiscoveryMode
 854:Generated_Source\PSoC4/CYBLE.c ****         cyBle_eventHandlerFlag |= CYBLE_STOP_FLAG;
 649              		.loc 1 854 0
 650 0008 054B     		ldr	r3, .L28
 651 000a 1B78     		ldrb	r3, [r3]
 652 000c DBB2     		uxtb	r3, r3
 653 000e 0822     		movs	r2, #8
 654 0010 1343     		orrs	r3, r2
 655 0012 DAB2     		uxtb	r2, r3
 656 0014 024B     		ldr	r3, .L28
 657 0016 1A70     		strb	r2, [r3]
 855:Generated_Source\PSoC4/CYBLE.c ****     }
 658              		.loc 1 855 0
 659 0018 C046     		nop
 660 001a BD46     		mov	sp, r7
 661              		@ sp needed
 662 001c 80BD     		pop	{r7, pc}
 663              	.L29:
 664 001e C046     		.align	2
 665              	.L28:
 666 0020 00000000 		.word	cyBle_eventHandlerFlag
 667              		.cfi_endproc
 668              	.LFE7:
 669              		.size	CyBle_GappStopAdvertisement, .-CyBle_GappStopAdvertisement
 670              		.section	.text.CyBle_ChangeAdDeviceAddress,"ax",%progbits
 671              		.align	2
 672              		.global	CyBle_ChangeAdDeviceAddress
 673              		.code	16
 674              		.thumb_func
 675              		.type	CyBle_ChangeAdDeviceAddress, %function
 676              	CyBle_ChangeAdDeviceAddress:
 677              	.LFB8:
 856:Generated_Source\PSoC4/CYBLE.c ****     
 857:Generated_Source\PSoC4/CYBLE.c ****     
ARM GAS  C:\Users\Lucia\AppData\Local\Temp\cc0KspdR.s 			page 28


 858:Generated_Source\PSoC4/CYBLE.c ****     /******************************************************************************
 859:Generated_Source\PSoC4/CYBLE.c ****     * Function Name: CyBle_ChangeAdDeviceAddress
 860:Generated_Source\PSoC4/CYBLE.c ****     ***************************************************************************//**
 861:Generated_Source\PSoC4/CYBLE.c ****     * 
 862:Generated_Source\PSoC4/CYBLE.c ****     *  This API is used to set the Bluetooth device address into the advertisement 
 863:Generated_Source\PSoC4/CYBLE.c ****     *  or scan response data structure.
 864:Generated_Source\PSoC4/CYBLE.c ****     * 
 865:Generated_Source\PSoC4/CYBLE.c ****     *  \param bdAddr: Bluetooth Device address. The variable is of type CYBLE_GAP_BD_ADDR_T
 866:Generated_Source\PSoC4/CYBLE.c ****     *  \param dest: 0 - selects advertisement structure, not zero value selects scan 
 867:Generated_Source\PSoC4/CYBLE.c ****     *               response structure.
 868:Generated_Source\PSoC4/CYBLE.c ****     * 
 869:Generated_Source\PSoC4/CYBLE.c ****     * \return
 870:Generated_Source\PSoC4/CYBLE.c ****     *  None
 871:Generated_Source\PSoC4/CYBLE.c ****     *  
 872:Generated_Source\PSoC4/CYBLE.c ****     *******************************************************************************/
 873:Generated_Source\PSoC4/CYBLE.c ****     void CyBle_ChangeAdDeviceAddress(const CYBLE_GAP_BD_ADDR_T* bdAddr, uint8 dest)
 874:Generated_Source\PSoC4/CYBLE.c ****     {
 678              		.loc 1 874 0
 679              		.cfi_startproc
 680              		@ args = 0, pretend = 0, frame = 16
 681              		@ frame_needed = 1, uses_anonymous_args = 0
 682 0000 80B5     		push	{r7, lr}
 683              		.cfi_def_cfa_offset 8
 684              		.cfi_offset 7, -8
 685              		.cfi_offset 14, -4
 686 0002 84B0     		sub	sp, sp, #16
 687              		.cfi_def_cfa_offset 24
 688 0004 00AF     		add	r7, sp, #0
 689              		.cfi_def_cfa_register 7
 690 0006 7860     		str	r0, [r7, #4]
 691 0008 0A00     		movs	r2, r1
 692 000a FB1C     		adds	r3, r7, #3
 693 000c 1A70     		strb	r2, [r3]
 875:Generated_Source\PSoC4/CYBLE.c ****         uint8 i;
 876:Generated_Source\PSoC4/CYBLE.c ****         uint8 *destBuffer = NULL;
 694              		.loc 1 876 0
 695 000e 0023     		movs	r3, #0
 696 0010 BB60     		str	r3, [r7, #8]
 877:Generated_Source\PSoC4/CYBLE.c ****         
 878:Generated_Source\PSoC4/CYBLE.c ****         if(dest == 0u)      /* Destination - advertising structure */
 879:Generated_Source\PSoC4/CYBLE.c ****         {
 880:Generated_Source\PSoC4/CYBLE.c ****             #ifdef CYBLE_ADV_PKT_INDEX_BLUETOOTH_DEVICE_ADDRESS
 881:Generated_Source\PSoC4/CYBLE.c ****                 destBuffer = &cyBle_discoveryData.advData[CYBLE_ADV_PKT_INDEX_BLUETOOTH_DEVICE_ADDR
 882:Generated_Source\PSoC4/CYBLE.c ****             #endif /* CYBLE_ADV_PKT_INDEX_BLUETOOTH_DEVICE_ADDRESS */
 883:Generated_Source\PSoC4/CYBLE.c ****         }
 884:Generated_Source\PSoC4/CYBLE.c ****         else                /* Destination - scan response structure */
 885:Generated_Source\PSoC4/CYBLE.c ****         {
 886:Generated_Source\PSoC4/CYBLE.c ****             #ifdef CYBLE_SCN_PKT_INDEX_BLUETOOTH_DEVICE_ADDRESS
 887:Generated_Source\PSoC4/CYBLE.c ****                 destBuffer = &cyBle_scanRspData.scanRspData[CYBLE_SCN_PKT_INDEX_BLUETOOTH_DEVICE_AD
 888:Generated_Source\PSoC4/CYBLE.c ****             #endif /* CYBLE_SCN_PKT_INDEX_BLUETOOTH_DEVICE_ADDRESS */    
 889:Generated_Source\PSoC4/CYBLE.c ****         }
 890:Generated_Source\PSoC4/CYBLE.c ****         
 891:Generated_Source\PSoC4/CYBLE.c ****         if(destBuffer != NULL)
 697              		.loc 1 891 0
 698 0012 BB68     		ldr	r3, [r7, #8]
 699 0014 002B     		cmp	r3, #0
 700 0016 20D0     		beq	.L34
ARM GAS  C:\Users\Lucia\AppData\Local\Temp\cc0KspdR.s 			page 29


 892:Generated_Source\PSoC4/CYBLE.c ****         {
 893:Generated_Source\PSoC4/CYBLE.c ****             /* Update Device Address type */
 894:Generated_Source\PSoC4/CYBLE.c ****             destBuffer[0u] = bdAddr->type;
 701              		.loc 1 894 0
 702 0018 7B68     		ldr	r3, [r7, #4]
 703 001a 9A79     		ldrb	r2, [r3, #6]
 704 001c BB68     		ldr	r3, [r7, #8]
 705 001e 1A70     		strb	r2, [r3]
 895:Generated_Source\PSoC4/CYBLE.c ****             
 896:Generated_Source\PSoC4/CYBLE.c ****             for(i = 0u; i < CYBLE_GAP_BD_ADDR_SIZE; i++)
 706              		.loc 1 896 0
 707 0020 0F23     		movs	r3, #15
 708 0022 FB18     		adds	r3, r7, r3
 709 0024 0022     		movs	r2, #0
 710 0026 1A70     		strb	r2, [r3]
 711 0028 12E0     		b	.L32
 712              	.L33:
 897:Generated_Source\PSoC4/CYBLE.c ****             {
 898:Generated_Source\PSoC4/CYBLE.c ****                 destBuffer[i + 1u] = bdAddr->bdAddr[i];
 713              		.loc 1 898 0 discriminator 3
 714 002a 0F23     		movs	r3, #15
 715 002c FB18     		adds	r3, r7, r3
 716 002e 1B78     		ldrb	r3, [r3]
 717 0030 0133     		adds	r3, r3, #1
 718 0032 BA68     		ldr	r2, [r7, #8]
 719 0034 D318     		adds	r3, r2, r3
 720 0036 0F22     		movs	r2, #15
 721 0038 BA18     		adds	r2, r7, r2
 722 003a 1278     		ldrb	r2, [r2]
 723 003c 7968     		ldr	r1, [r7, #4]
 724 003e 8A5C     		ldrb	r2, [r1, r2]
 725 0040 1A70     		strb	r2, [r3]
 896:Generated_Source\PSoC4/CYBLE.c ****             {
 726              		.loc 1 896 0 discriminator 3
 727 0042 0F23     		movs	r3, #15
 728 0044 FB18     		adds	r3, r7, r3
 729 0046 1A78     		ldrb	r2, [r3]
 730 0048 0F23     		movs	r3, #15
 731 004a FB18     		adds	r3, r7, r3
 732 004c 0132     		adds	r2, r2, #1
 733 004e 1A70     		strb	r2, [r3]
 734              	.L32:
 896:Generated_Source\PSoC4/CYBLE.c ****             {
 735              		.loc 1 896 0 is_stmt 0 discriminator 1
 736 0050 0F23     		movs	r3, #15
 737 0052 FB18     		adds	r3, r7, r3
 738 0054 1B78     		ldrb	r3, [r3]
 739 0056 052B     		cmp	r3, #5
 740 0058 E7D9     		bls	.L33
 741              	.L34:
 899:Generated_Source\PSoC4/CYBLE.c ****             }
 900:Generated_Source\PSoC4/CYBLE.c ****         }
 901:Generated_Source\PSoC4/CYBLE.c ****     }
 742              		.loc 1 901 0 is_stmt 1
 743 005a C046     		nop
 744 005c BD46     		mov	sp, r7
 745 005e 04B0     		add	sp, sp, #16
ARM GAS  C:\Users\Lucia\AppData\Local\Temp\cc0KspdR.s 			page 30


 746              		@ sp needed
 747 0060 80BD     		pop	{r7, pc}
 748              		.cfi_endproc
 749              	.LFE8:
 750              		.size	CyBle_ChangeAdDeviceAddress, .-CyBle_ChangeAdDeviceAddress
 751 0062 C046     		.section	.text.CyBle_ChangeAdLocalName,"ax",%progbits
 752              		.align	2
 753              		.code	16
 754              		.thumb_func
 755              		.type	CyBle_ChangeAdLocalName, %function
 756              	CyBle_ChangeAdLocalName:
 757              	.LFB9:
 902:Generated_Source\PSoC4/CYBLE.c ****   
 903:Generated_Source\PSoC4/CYBLE.c **** #endif /* CYBLE_GAP_ROLE_PERIPHERAL || CYBLE_GAP_ROLE_BROADCASTER */
 904:Generated_Source\PSoC4/CYBLE.c **** 
 905:Generated_Source\PSoC4/CYBLE.c **** 
 906:Generated_Source\PSoC4/CYBLE.c **** #if(CYBLE_GAP_ROLE_CENTRAL || CYBLE_GAP_ROLE_OBSERVER)
 907:Generated_Source\PSoC4/CYBLE.c **** 
 908:Generated_Source\PSoC4/CYBLE.c ****     /******************************************************************************
 909:Generated_Source\PSoC4/CYBLE.c ****     * Function Name: CyBle_GapcStartScan
 910:Generated_Source\PSoC4/CYBLE.c ****     ***************************************************************************//**
 911:Generated_Source\PSoC4/CYBLE.c ****     * 
 912:Generated_Source\PSoC4/CYBLE.c ****     *   This function is used for discovering GAP peripheral devices that are 
 913:Generated_Source\PSoC4/CYBLE.c ****     *   available for connection. It performs the scanning routine using the 
 914:Generated_Source\PSoC4/CYBLE.c ****     *   parameters entered in the component's customizer.
 915:Generated_Source\PSoC4/CYBLE.c ****     *   
 916:Generated_Source\PSoC4/CYBLE.c ****     *   As soon as the discovery operation starts, CYBLE_EVT_GAPC_SCAN_START_STOP 
 917:Generated_Source\PSoC4/CYBLE.c ****     *   event is generated. The CYBLE_EVT_GAPC_SCAN_PROGRESS_RESULT event is 
 918:Generated_Source\PSoC4/CYBLE.c ****     *   generated when a GAP peripheral device is located. There are three discovery
 919:Generated_Source\PSoC4/CYBLE.c ****     *   procedures can be selected in the customizer's GUI:
 920:Generated_Source\PSoC4/CYBLE.c ****     *   
 921:Generated_Source\PSoC4/CYBLE.c ****     *   * Observation procedure: A device performing the observer role receives only
 922:Generated_Source\PSoC4/CYBLE.c ****     *                            advertisement data from devices irrespective of 
 923:Generated_Source\PSoC4/CYBLE.c ****     *                            their discoverable mode settings. Advertisement 
 924:Generated_Source\PSoC4/CYBLE.c ****     *                            data received is provided by the event,      
 925:Generated_Source\PSoC4/CYBLE.c ****     *                            CYBLE_EVT_GAPC_SCAN_PROGRESS_RESULT. This procedure
 926:Generated_Source\PSoC4/CYBLE.c ****     *                            requires the scanType sub parameter to be passive
 927:Generated_Source\PSoC4/CYBLE.c ****     *                            scanning. 
 928:Generated_Source\PSoC4/CYBLE.c ****     *   
 929:Generated_Source\PSoC4/CYBLE.c ****     *   * Limited Discovery procedure: A device performing the limited discovery
 930:Generated_Source\PSoC4/CYBLE.c ****     *                                  procedure receives advertisement data and 
 931:Generated_Source\PSoC4/CYBLE.c ****     *                                  scan# response data from devices in the 
 932:Generated_Source\PSoC4/CYBLE.c ****     *                                  limited discoverable mode only. Received data
 933:Generated_Source\PSoC4/CYBLE.c ****     *                                  is provided by the event, 
 934:Generated_Source\PSoC4/CYBLE.c ****     *                                  CYBLE_EVT_GAPC_SCAN_PROGRESS_RESULT. This 
 935:Generated_Source\PSoC4/CYBLE.c ****     *                                  procedure requires the scanType sub-parameter 
 936:Generated_Source\PSoC4/CYBLE.c ****     *                                  to be active scanning.
 937:Generated_Source\PSoC4/CYBLE.c ****     *   
 938:Generated_Source\PSoC4/CYBLE.c ****     *   * General Discovery procedure: A device performing the general discovery 
 939:Generated_Source\PSoC4/CYBLE.c ****     *                                  procedure receives the advertisement data and
 940:Generated_Source\PSoC4/CYBLE.c ****     *                                  scan response data from devices in both 
 941:Generated_Source\PSoC4/CYBLE.c ****     *                                  limited discoverable mode and the general 
 942:Generated_Source\PSoC4/CYBLE.c ****     *                                  discoverable mode. Received data is provided
 943:Generated_Source\PSoC4/CYBLE.c ****     *                                  by the event,
 944:Generated_Source\PSoC4/CYBLE.c ****     *                                  CYBLE_EVT_GAPC_SCAN_PROGRESS_RESULT. This 
 945:Generated_Source\PSoC4/CYBLE.c ****     *                                  procedure requires the scanType sub-parameter
 946:Generated_Source\PSoC4/CYBLE.c ****     *                                  to be active scanning.
ARM GAS  C:\Users\Lucia\AppData\Local\Temp\cc0KspdR.s 			page 31


 947:Generated_Source\PSoC4/CYBLE.c ****     *   
 948:Generated_Source\PSoC4/CYBLE.c ****     *   Every Advertisement / Scan response packet received results in a new event, 
 949:Generated_Source\PSoC4/CYBLE.c ****     *   CYBLE_EVT_GAPC_SCAN_PROGRESS_RESULT.
 950:Generated_Source\PSoC4/CYBLE.c ****     *   If 'scanTo' sub-parameter is a non-zero value, then upon commencement of 
 951:Generated_Source\PSoC4/CYBLE.c ****     *   discovery procedure and elapsed time = 'scanTo', CYBLE_EVT_TIMEOUT event
 952:Generated_Source\PSoC4/CYBLE.c ****     *   is generated with the event parameter indicating CYBLE_GAP_SCAN_TO.
 953:Generated_Source\PSoC4/CYBLE.c ****     *   Possible generated events are:
 954:Generated_Source\PSoC4/CYBLE.c ****     *   * CYBLE_EVT_GAPC_SCAN_START_STOP: If a device started or stopped scanning. 
 955:Generated_Source\PSoC4/CYBLE.c ****     *                                     Use CyBle_GetState() to determine the 
 956:Generated_Source\PSoC4/CYBLE.c ****     *                                     state. Sequential scanning could be 
 957:Generated_Source\PSoC4/CYBLE.c ****     *                                     started when CYBLE_STATE_DISCONNECTED 
 958:Generated_Source\PSoC4/CYBLE.c ****     *                                     state is returned. 
 959:Generated_Source\PSoC4/CYBLE.c ****     *   * CYBLE_EVT_GAPC_SCAN_PROGRESS_RESULT 
 960:Generated_Source\PSoC4/CYBLE.c ****     *   * CYBLE_EVT_TIMEOUT (CYBLE_GAP_SCAN_TO)
 961:Generated_Source\PSoC4/CYBLE.c ****     * 
 962:Generated_Source\PSoC4/CYBLE.c ****     *   \param scanningIntervalType:  Fast or slow scanning interval with
 963:Generated_Source\PSoC4/CYBLE.c ****     *       timings entered in Scan settings section of the customizer.
 964:Generated_Source\PSoC4/CYBLE.c ****     * 	  * CYBLE_SCANNING_FAST   0x00u
 965:Generated_Source\PSoC4/CYBLE.c ****     * 	  * CYBLE_SCANNING_SLOW   0x01u
 966:Generated_Source\PSoC4/CYBLE.c ****     * 	  * CYBLE_SCANNING_CUSTOM 0x02u
 967:Generated_Source\PSoC4/CYBLE.c ****     * 
 968:Generated_Source\PSoC4/CYBLE.c ****     * \return
 969:Generated_Source\PSoC4/CYBLE.c ****     *  CYBLE_API_RESULT_T : Return value indicates if the function succeeded or
 970:Generated_Source\PSoC4/CYBLE.c ****     *  failed. Following are the possible error codes.
 971:Generated_Source\PSoC4/CYBLE.c ****     *
 972:Generated_Source\PSoC4/CYBLE.c ****     *   Errors codes                       | Description
 973:Generated_Source\PSoC4/CYBLE.c ****     *   ---------------------------------- | -----------------------------------
 974:Generated_Source\PSoC4/CYBLE.c ****     *   CYBLE_ERROR_OK                     | On successful operation.
 975:Generated_Source\PSoC4/CYBLE.c ****     *   CYBLE_ERROR_STACK_INTERNAL         | An error occurred in the BLE stack.
 976:Generated_Source\PSoC4/CYBLE.c ****     *   CYBLE_ERROR_INVALID_PARAMETER      | On passing an invalid parameter.
 977:Generated_Source\PSoC4/CYBLE.c ****     *  
 978:Generated_Source\PSoC4/CYBLE.c ****     *******************************************************************************/
 979:Generated_Source\PSoC4/CYBLE.c ****     CYBLE_API_RESULT_T CyBle_GapcStartScan(uint8 scanningIntervalType)
 980:Generated_Source\PSoC4/CYBLE.c ****     {
 981:Generated_Source\PSoC4/CYBLE.c ****         CYBLE_API_RESULT_T apiResult;
 982:Generated_Source\PSoC4/CYBLE.c **** 
 983:Generated_Source\PSoC4/CYBLE.c ****         if(scanningIntervalType > CYBLE_SCANNING_CUSTOM)
 984:Generated_Source\PSoC4/CYBLE.c ****         {
 985:Generated_Source\PSoC4/CYBLE.c ****             apiResult = CYBLE_ERROR_INVALID_PARAMETER;
 986:Generated_Source\PSoC4/CYBLE.c ****         }
 987:Generated_Source\PSoC4/CYBLE.c ****         else
 988:Generated_Source\PSoC4/CYBLE.c ****         {
 989:Generated_Source\PSoC4/CYBLE.c ****             if(scanningIntervalType == CYBLE_SCANNING_FAST)
 990:Generated_Source\PSoC4/CYBLE.c ****             {
 991:Generated_Source\PSoC4/CYBLE.c ****                 cyBle_discoveryInfo.scanTo = CYBLE_FAST_SCAN_TIMEOUT;
 992:Generated_Source\PSoC4/CYBLE.c ****                 cyBle_discoveryInfo.scanIntv = CYBLE_FAST_SCAN_INTERVAL;
 993:Generated_Source\PSoC4/CYBLE.c ****                 cyBle_discoveryInfo.scanWindow = CYBLE_FAST_SCAN_WINDOW;
 994:Generated_Source\PSoC4/CYBLE.c ****             }
 995:Generated_Source\PSoC4/CYBLE.c ****             else if(scanningIntervalType == CYBLE_SCANNING_SLOW)
 996:Generated_Source\PSoC4/CYBLE.c ****             {
 997:Generated_Source\PSoC4/CYBLE.c ****                 cyBle_discoveryInfo.scanTo = CYBLE_SLOW_SCAN_TIMEOUT;
 998:Generated_Source\PSoC4/CYBLE.c ****                 cyBle_discoveryInfo.scanIntv = CYBLE_SLOW_SCAN_INTERVAL;
 999:Generated_Source\PSoC4/CYBLE.c ****                 cyBle_discoveryInfo.scanWindow = CYBLE_SLOW_SCAN_WINDOW;
1000:Generated_Source\PSoC4/CYBLE.c ****             }       
1001:Generated_Source\PSoC4/CYBLE.c ****             else /* Do not update scanning intervals */
1002:Generated_Source\PSoC4/CYBLE.c ****             {
1003:Generated_Source\PSoC4/CYBLE.c ****             }
ARM GAS  C:\Users\Lucia\AppData\Local\Temp\cc0KspdR.s 			page 32


1004:Generated_Source\PSoC4/CYBLE.c ****             
1005:Generated_Source\PSoC4/CYBLE.c ****             cyBle_scanningIntervalType = scanningIntervalType;
1006:Generated_Source\PSoC4/CYBLE.c ****             apiResult = CyBle_GapcStartDiscovery(&cyBle_discoveryInfo);
1007:Generated_Source\PSoC4/CYBLE.c ****         
1008:Generated_Source\PSoC4/CYBLE.c ****             if(apiResult == CYBLE_ERROR_OK)
1009:Generated_Source\PSoC4/CYBLE.c ****             {
1010:Generated_Source\PSoC4/CYBLE.c ****                 cyBle_eventHandlerFlag |= CYBLE_START_FLAG;
1011:Generated_Source\PSoC4/CYBLE.c ****             }
1012:Generated_Source\PSoC4/CYBLE.c ****         }
1013:Generated_Source\PSoC4/CYBLE.c ****        
1014:Generated_Source\PSoC4/CYBLE.c ****         return (apiResult);
1015:Generated_Source\PSoC4/CYBLE.c ****     }
1016:Generated_Source\PSoC4/CYBLE.c ****     
1017:Generated_Source\PSoC4/CYBLE.c ****     
1018:Generated_Source\PSoC4/CYBLE.c ****     /******************************************************************************
1019:Generated_Source\PSoC4/CYBLE.c ****     * Function Name: CyBle_GapcStopScan
1020:Generated_Source\PSoC4/CYBLE.c ****     ***************************************************************************//**
1021:Generated_Source\PSoC4/CYBLE.c ****     * 
1022:Generated_Source\PSoC4/CYBLE.c ****     *   This function used to stop the discovery of devices. On stopping discovery
1023:Generated_Source\PSoC4/CYBLE.c ****     *   operation, CYBLE_EVT_GAPC_SCAN_START_STOP event is generated. Application
1024:Generated_Source\PSoC4/CYBLE.c ****     *   layer needs to keep track of the function call made before receiving this
1025:Generated_Source\PSoC4/CYBLE.c ****     *   event to associate this event with either the start or stop discovery
1026:Generated_Source\PSoC4/CYBLE.c ****     *   function.
1027:Generated_Source\PSoC4/CYBLE.c ****     * 
1028:Generated_Source\PSoC4/CYBLE.c ****     *   Possible events generated are:
1029:Generated_Source\PSoC4/CYBLE.c ****     *    * CYBLE_EVT_GAPC_SCAN_START_STOP
1030:Generated_Source\PSoC4/CYBLE.c ****     * 
1031:Generated_Source\PSoC4/CYBLE.c ****     *  \return
1032:Generated_Source\PSoC4/CYBLE.c ****     *   None
1033:Generated_Source\PSoC4/CYBLE.c ****     * 
1034:Generated_Source\PSoC4/CYBLE.c ****     *******************************************************************************/
1035:Generated_Source\PSoC4/CYBLE.c ****     void CyBle_GapcStopScan(void)
1036:Generated_Source\PSoC4/CYBLE.c ****     {
1037:Generated_Source\PSoC4/CYBLE.c ****         CyBle_GapcStopDiscovery();
1038:Generated_Source\PSoC4/CYBLE.c ****         
1039:Generated_Source\PSoC4/CYBLE.c ****         cyBle_eventHandlerFlag |= CYBLE_STOP_FLAG;
1040:Generated_Source\PSoC4/CYBLE.c ****     }
1041:Generated_Source\PSoC4/CYBLE.c **** 
1042:Generated_Source\PSoC4/CYBLE.c ****     
1043:Generated_Source\PSoC4/CYBLE.c **** #endif /* CYBLE_GAP_ROLE_CENTRAL || CYBLE_GAP_ROLE_OBSERVER */
1044:Generated_Source\PSoC4/CYBLE.c **** 
1045:Generated_Source\PSoC4/CYBLE.c **** 
1046:Generated_Source\PSoC4/CYBLE.c **** #if(CYBLE_GAP_ROLE_CENTRAL)
1047:Generated_Source\PSoC4/CYBLE.c **** 
1048:Generated_Source\PSoC4/CYBLE.c ****     /******************************************************************************
1049:Generated_Source\PSoC4/CYBLE.c ****     * Function Name: CyBle_GapcConnectDevice
1050:Generated_Source\PSoC4/CYBLE.c ****     ***************************************************************************//**
1051:Generated_Source\PSoC4/CYBLE.c ****     * 
1052:Generated_Source\PSoC4/CYBLE.c ****     *  This function is used to send a connection request to the remote device with
1053:Generated_Source\PSoC4/CYBLE.c ****     *  the connection parameters set in the component customizer. This function needs
1054:Generated_Source\PSoC4/CYBLE.c ****     *  to be called only once after the target device is discovered by 
1055:Generated_Source\PSoC4/CYBLE.c ****     *  CyBle_GapcStartScan() and further scanning has stopped. Scanning is 
1056:Generated_Source\PSoC4/CYBLE.c ****     *  successfully stopped on invoking CyBle_GapcStopScan() and then receiving the
1057:Generated_Source\PSoC4/CYBLE.c ****     *  event CYBLE_EVT_GAPC_SCAN_START_STOP with sub-parameter 'success' = 0x01u.
1058:Generated_Source\PSoC4/CYBLE.c ****     *  
1059:Generated_Source\PSoC4/CYBLE.c ****     *  On successful connection, the following events are generated at the GAP 
1060:Generated_Source\PSoC4/CYBLE.c ****     *  Central device (as well as the GAP Peripheral device), in the following order.
ARM GAS  C:\Users\Lucia\AppData\Local\Temp\cc0KspdR.s 			page 33


1061:Generated_Source\PSoC4/CYBLE.c ****     *  * CYBLE_EVT_GATT_CONNECT_IND
1062:Generated_Source\PSoC4/CYBLE.c ****     *  * CYBLE_EVT_GAP_DEVICE_CONNECTED - If the device connects to a GAP Central and 
1063:Generated_Source\PSoC4/CYBLE.c ****     *    Link Layer Privacy is disabled in component customizer.
1064:Generated_Source\PSoC4/CYBLE.c ****     *  * CYBLE_EVT_GAP_ENHANCE_CONN_COMPLETE - If the device connects to a GAP Central and 
1065:Generated_Source\PSoC4/CYBLE.c ****     *    Link Layer Privacy is enabled in component customizer.
1066:Generated_Source\PSoC4/CYBLE.c ****     *  * CYBLE_EVT_GAP_DEVICE_CONNECTED
1067:Generated_Source\PSoC4/CYBLE.c ****     *  
1068:Generated_Source\PSoC4/CYBLE.c ****     *  A procedure is considered to have timed out if a connection response packet is 
1069:Generated_Source\PSoC4/CYBLE.c ****     *  not received within time set by cyBle_connectingTimeout global variable
1070:Generated_Source\PSoC4/CYBLE.c ****     *  (30 seconds by default). CYBLE_EVT_TIMEOUT event with CYBLE_GENERIC_TO parameter
1071:Generated_Source\PSoC4/CYBLE.c ****     *  will indicate about connection procedure timeout. Connection will automatically
1072:Generated_Source\PSoC4/CYBLE.c ****     *  be canceled and state will be changed to CYBLE_STATE_DISCONNECTED.
1073:Generated_Source\PSoC4/CYBLE.c ****     * 
1074:Generated_Source\PSoC4/CYBLE.c ****     *  \param address: The device address of the remote device to connect to. 
1075:Generated_Source\PSoC4/CYBLE.c ****     *  
1076:Generated_Source\PSoC4/CYBLE.c ****     * \return
1077:Generated_Source\PSoC4/CYBLE.c ****     *  CYBLE_API_RESULT_T : Return value indicates if the function succeeded or 
1078:Generated_Source\PSoC4/CYBLE.c ****     *  failed. Following are the possible error codes.
1079:Generated_Source\PSoC4/CYBLE.c ****     *
1080:Generated_Source\PSoC4/CYBLE.c ****     *   Errors codes                       | Description
1081:Generated_Source\PSoC4/CYBLE.c ****     *   ------------                       | -----------
1082:Generated_Source\PSoC4/CYBLE.c ****     *   CYBLE_ERROR_OK                     | On successful operation.
1083:Generated_Source\PSoC4/CYBLE.c ****     *   CYBLE_ERROR_STACK_INTERNAL         | On error occurred in the BLE stack.
1084:Generated_Source\PSoC4/CYBLE.c ****     *   CYBLE_ERROR_INVALID_PARAMETER      | On passing an invalid parameter.
1085:Generated_Source\PSoC4/CYBLE.c ****     *   CYBLE_ERROR_INVALID_STATE          | On calling this API not in Disconnected state.
1086:Generated_Source\PSoC4/CYBLE.c ****     *  
1087:Generated_Source\PSoC4/CYBLE.c ****     ******************************************************************************/
1088:Generated_Source\PSoC4/CYBLE.c ****     CYBLE_API_RESULT_T CyBle_GapcConnectDevice(const CYBLE_GAP_BD_ADDR_T * address)
1089:Generated_Source\PSoC4/CYBLE.c ****     {
1090:Generated_Source\PSoC4/CYBLE.c ****         CYBLE_API_RESULT_T apiResult;
1091:Generated_Source\PSoC4/CYBLE.c ****         uint8 i;
1092:Generated_Source\PSoC4/CYBLE.c **** 
1093:Generated_Source\PSoC4/CYBLE.c ****         if(CyBle_GetState() != CYBLE_STATE_DISCONNECTED)
1094:Generated_Source\PSoC4/CYBLE.c ****         {
1095:Generated_Source\PSoC4/CYBLE.c ****             apiResult = CYBLE_ERROR_INVALID_STATE;
1096:Generated_Source\PSoC4/CYBLE.c ****         }
1097:Generated_Source\PSoC4/CYBLE.c ****         else if(address == NULL)
1098:Generated_Source\PSoC4/CYBLE.c ****         {
1099:Generated_Source\PSoC4/CYBLE.c ****             apiResult = CYBLE_ERROR_INVALID_PARAMETER;
1100:Generated_Source\PSoC4/CYBLE.c ****         }
1101:Generated_Source\PSoC4/CYBLE.c ****         else
1102:Generated_Source\PSoC4/CYBLE.c ****         {
1103:Generated_Source\PSoC4/CYBLE.c ****             for(i = 0u; i < CYBLE_GAP_BD_ADDR_SIZE; i++)
1104:Generated_Source\PSoC4/CYBLE.c ****             {
1105:Generated_Source\PSoC4/CYBLE.c ****                 cyBle_connectionParameters.peerBdAddr[i] = address->bdAddr[i];
1106:Generated_Source\PSoC4/CYBLE.c ****             }
1107:Generated_Source\PSoC4/CYBLE.c ****             cyBle_connectionParameters.peerAddrType = address -> type;
1108:Generated_Source\PSoC4/CYBLE.c ****             apiResult = CyBle_GapcInitConnection(&cyBle_connectionParameters);
1109:Generated_Source\PSoC4/CYBLE.c ****             
1110:Generated_Source\PSoC4/CYBLE.c ****             if(apiResult == CYBLE_ERROR_OK)
1111:Generated_Source\PSoC4/CYBLE.c ****             {
1112:Generated_Source\PSoC4/CYBLE.c ****                 CyBle_SetState(CYBLE_STATE_CONNECTING);
1113:Generated_Source\PSoC4/CYBLE.c ****                 if(cyBle_connectingTimeout != 0u)
1114:Generated_Source\PSoC4/CYBLE.c ****                 {
1115:Generated_Source\PSoC4/CYBLE.c ****                     (void)CyBle_StartTimer(cyBle_connectingTimeout);
1116:Generated_Source\PSoC4/CYBLE.c ****                 }
1117:Generated_Source\PSoC4/CYBLE.c ****             }
ARM GAS  C:\Users\Lucia\AppData\Local\Temp\cc0KspdR.s 			page 34


1118:Generated_Source\PSoC4/CYBLE.c ****         }
1119:Generated_Source\PSoC4/CYBLE.c ****         return (apiResult);
1120:Generated_Source\PSoC4/CYBLE.c ****     }
1121:Generated_Source\PSoC4/CYBLE.c ****     
1122:Generated_Source\PSoC4/CYBLE.c **** 
1123:Generated_Source\PSoC4/CYBLE.c ****     /******************************************************************************
1124:Generated_Source\PSoC4/CYBLE.c ****     * Function Name: CyBle_GapcCancelDeviceConnection
1125:Generated_Source\PSoC4/CYBLE.c ****     ***************************************************************************//**
1126:Generated_Source\PSoC4/CYBLE.c ****     * 
1127:Generated_Source\PSoC4/CYBLE.c ****     *  This function cancels a previously initiated connection with the remote 
1128:Generated_Source\PSoC4/CYBLE.c ****     *  device. It is a blocking function. No event is generated on calling this 
1129:Generated_Source\PSoC4/CYBLE.c ****     *  function. If the devices are already connected then this function should not
1130:Generated_Source\PSoC4/CYBLE.c ****     *  be used. If you intend to disconnect from an existing connection, the function
1131:Generated_Source\PSoC4/CYBLE.c ****     *  CyBle_GapDisconnect() should be used.
1132:Generated_Source\PSoC4/CYBLE.c ****     * 
1133:Generated_Source\PSoC4/CYBLE.c ****     * \return
1134:Generated_Source\PSoC4/CYBLE.c ****     *  CYBLE_API_RESULT_T : Return value indicates if the function succeeded or 
1135:Generated_Source\PSoC4/CYBLE.c ****     *  failed. Following are the possible error codes.
1136:Generated_Source\PSoC4/CYBLE.c ****     *
1137:Generated_Source\PSoC4/CYBLE.c ****     *   Errors codes                       | Description
1138:Generated_Source\PSoC4/CYBLE.c ****     *   ---------------------------------- | --------------------------------------
1139:Generated_Source\PSoC4/CYBLE.c ****     *   CYBLE_ERROR_OK                     | On successful operation.
1140:Generated_Source\PSoC4/CYBLE.c ****     *   CYBLE_ERROR_STACK_INTERNAL         | An error occurred in the BLE stack.
1141:Generated_Source\PSoC4/CYBLE.c ****     *   CYBLE_ERROR_INVALID_STATE          | On calling this API not in Connecting state.
1142:Generated_Source\PSoC4/CYBLE.c ****     *  
1143:Generated_Source\PSoC4/CYBLE.c ****     *******************************************************************************/
1144:Generated_Source\PSoC4/CYBLE.c ****     CYBLE_API_RESULT_T CyBle_GapcCancelDeviceConnection(void)
1145:Generated_Source\PSoC4/CYBLE.c ****     {
1146:Generated_Source\PSoC4/CYBLE.c ****         CYBLE_API_RESULT_T apiResult;
1147:Generated_Source\PSoC4/CYBLE.c ****         
1148:Generated_Source\PSoC4/CYBLE.c ****         if(CyBle_GetState() != CYBLE_STATE_CONNECTING)
1149:Generated_Source\PSoC4/CYBLE.c ****         {
1150:Generated_Source\PSoC4/CYBLE.c ****             apiResult = CYBLE_ERROR_INVALID_STATE;
1151:Generated_Source\PSoC4/CYBLE.c ****         }
1152:Generated_Source\PSoC4/CYBLE.c ****         else 
1153:Generated_Source\PSoC4/CYBLE.c ****         {
1154:Generated_Source\PSoC4/CYBLE.c ****             apiResult = CyBle_GapcCancelConnection();
1155:Generated_Source\PSoC4/CYBLE.c ****             
1156:Generated_Source\PSoC4/CYBLE.c ****             if(cyBle_connectingTimeout != 0u)
1157:Generated_Source\PSoC4/CYBLE.c ****             {
1158:Generated_Source\PSoC4/CYBLE.c ****                 (void)CyBle_StopTimer();
1159:Generated_Source\PSoC4/CYBLE.c ****             }
1160:Generated_Source\PSoC4/CYBLE.c **** 
1161:Generated_Source\PSoC4/CYBLE.c ****             if(apiResult == CYBLE_ERROR_OK)
1162:Generated_Source\PSoC4/CYBLE.c ****             {
1163:Generated_Source\PSoC4/CYBLE.c ****                 CyBle_SetState(CYBLE_STATE_DISCONNECTED);
1164:Generated_Source\PSoC4/CYBLE.c ****             }
1165:Generated_Source\PSoC4/CYBLE.c ****         }
1166:Generated_Source\PSoC4/CYBLE.c ****         return (apiResult);
1167:Generated_Source\PSoC4/CYBLE.c ****     }    
1168:Generated_Source\PSoC4/CYBLE.c **** 
1169:Generated_Source\PSoC4/CYBLE.c ****     
1170:Generated_Source\PSoC4/CYBLE.c **** #endif /* CYBLE_GAP_ROLE_CENTRAL */
1171:Generated_Source\PSoC4/CYBLE.c **** 
1172:Generated_Source\PSoC4/CYBLE.c **** 
1173:Generated_Source\PSoC4/CYBLE.c **** #if(CYBLE_GATT_ROLE_SERVER)
1174:Generated_Source\PSoC4/CYBLE.c **** 
ARM GAS  C:\Users\Lucia\AppData\Local\Temp\cc0KspdR.s 			page 35


1175:Generated_Source\PSoC4/CYBLE.c **** #if(CYBLE_GAP_ROLE_PERIPHERAL)
1176:Generated_Source\PSoC4/CYBLE.c **** 
1177:Generated_Source\PSoC4/CYBLE.c ****         /******************************************************************************
1178:Generated_Source\PSoC4/CYBLE.c ****         * Function Name: CyBle_ChangeAdLocalName
1179:Generated_Source\PSoC4/CYBLE.c ****         ***************************************************************************//**
1180:Generated_Source\PSoC4/CYBLE.c ****         *  This API is used to set the local device name in the advertisement or scan 
1181:Generated_Source\PSoC4/CYBLE.c ****         *  response data structure.
1182:Generated_Source\PSoC4/CYBLE.c ****         * 
1183:Generated_Source\PSoC4/CYBLE.c ****         *  \param name: The local device name string to be set in advertisement data 
1184:Generated_Source\PSoC4/CYBLE.c ****         *            structure.
1185:Generated_Source\PSoC4/CYBLE.c ****         *  \param dest: 0 - advertisement structure, not zero value selects scan response
1186:Generated_Source\PSoC4/CYBLE.c ****         *              structure.
1187:Generated_Source\PSoC4/CYBLE.c ****         * 
1188:Generated_Source\PSoC4/CYBLE.c ****         * \return
1189:Generated_Source\PSoC4/CYBLE.c ****         *  None
1190:Generated_Source\PSoC4/CYBLE.c ****         *  
1191:Generated_Source\PSoC4/CYBLE.c ****         *******************************************************************************/
1192:Generated_Source\PSoC4/CYBLE.c ****         static void CyBle_ChangeAdLocalName(const char8 name[], uint8 dest)
1193:Generated_Source\PSoC4/CYBLE.c ****         {
 758              		.loc 1 1193 0
 759              		.cfi_startproc
 760              		@ args = 0, pretend = 0, frame = 24
 761              		@ frame_needed = 1, uses_anonymous_args = 0
 762 0000 80B5     		push	{r7, lr}
 763              		.cfi_def_cfa_offset 8
 764              		.cfi_offset 7, -8
 765              		.cfi_offset 14, -4
 766 0002 86B0     		sub	sp, sp, #24
 767              		.cfi_def_cfa_offset 32
 768 0004 00AF     		add	r7, sp, #0
 769              		.cfi_def_cfa_register 7
 770 0006 7860     		str	r0, [r7, #4]
 771 0008 0A00     		movs	r2, r1
 772 000a FB1C     		adds	r3, r7, #3
 773 000c 1A70     		strb	r2, [r3]
1194:Generated_Source\PSoC4/CYBLE.c ****             uint8 i;
1195:Generated_Source\PSoC4/CYBLE.c ****             uint8 flag = 0u;
 774              		.loc 1 1195 0
 775 000e 1623     		movs	r3, #22
 776 0010 FB18     		adds	r3, r7, r3
 777 0012 0022     		movs	r2, #0
 778 0014 1A70     		strb	r2, [r3]
1196:Generated_Source\PSoC4/CYBLE.c ****             uint8 adLength = 0u;
 779              		.loc 1 1196 0
 780 0016 1523     		movs	r3, #21
 781 0018 FB18     		adds	r3, r7, r3
 782 001a 0022     		movs	r2, #0
 783 001c 1A70     		strb	r2, [r3]
1197:Generated_Source\PSoC4/CYBLE.c ****             uint8 byteCounter = 0u;
 784              		.loc 1 1197 0
 785 001e 1423     		movs	r3, #20
 786 0020 FB18     		adds	r3, r7, r3
 787 0022 0022     		movs	r2, #0
 788 0024 1A70     		strb	r2, [r3]
1198:Generated_Source\PSoC4/CYBLE.c ****             uint8 *destBuffer;
1199:Generated_Source\PSoC4/CYBLE.c ****             uint8 maxLength;
1200:Generated_Source\PSoC4/CYBLE.c ****             
ARM GAS  C:\Users\Lucia\AppData\Local\Temp\cc0KspdR.s 			page 36


1201:Generated_Source\PSoC4/CYBLE.c ****             if(dest == 0u)      /* Destination - advertising structure */
 789              		.loc 1 1201 0
 790 0026 FB1C     		adds	r3, r7, #3
 791 0028 1B78     		ldrb	r3, [r3]
 792 002a 002B     		cmp	r3, #0
 793 002c 07D1     		bne	.L36
1202:Generated_Source\PSoC4/CYBLE.c ****             {
1203:Generated_Source\PSoC4/CYBLE.c ****                 destBuffer = cyBle_discoveryData.advData;
 794              		.loc 1 1203 0
 795 002e 5C4B     		ldr	r3, .L53
 796 0030 3B61     		str	r3, [r7, #16]
1204:Generated_Source\PSoC4/CYBLE.c ****                 maxLength = cyBle_discoveryData.advDataLen;
 797              		.loc 1 1204 0
 798 0032 0F23     		movs	r3, #15
 799 0034 FB18     		adds	r3, r7, r3
 800 0036 5A4A     		ldr	r2, .L53
 801 0038 D27F     		ldrb	r2, [r2, #31]
 802 003a 1A70     		strb	r2, [r3]
 803 003c 3BE0     		b	.L38
 804              	.L36:
1205:Generated_Source\PSoC4/CYBLE.c ****             }
1206:Generated_Source\PSoC4/CYBLE.c ****             else                /* Destination - scan response structure */
1207:Generated_Source\PSoC4/CYBLE.c ****             {
1208:Generated_Source\PSoC4/CYBLE.c ****                 destBuffer = cyBle_scanRspData.scanRspData;
 805              		.loc 1 1208 0
 806 003e 594B     		ldr	r3, .L53+4
 807 0040 3B61     		str	r3, [r7, #16]
1209:Generated_Source\PSoC4/CYBLE.c ****                 maxLength = cyBle_scanRspData.scanRspDataLen;
 808              		.loc 1 1209 0
 809 0042 0F23     		movs	r3, #15
 810 0044 FB18     		adds	r3, r7, r3
 811 0046 574A     		ldr	r2, .L53+4
 812 0048 D27F     		ldrb	r2, [r2, #31]
 813 004a 1A70     		strb	r2, [r3]
1210:Generated_Source\PSoC4/CYBLE.c ****             }
1211:Generated_Source\PSoC4/CYBLE.c ****             
1212:Generated_Source\PSoC4/CYBLE.c ****             while((byteCounter < maxLength) && (flag == 0u))
 814              		.loc 1 1212 0
 815 004c 33E0     		b	.L38
 816              	.L44:
1213:Generated_Source\PSoC4/CYBLE.c ****             {
1214:Generated_Source\PSoC4/CYBLE.c ****                 adLength = destBuffer[byteCounter];
 817              		.loc 1 1214 0
 818 004e 1423     		movs	r3, #20
 819 0050 FB18     		adds	r3, r7, r3
 820 0052 1B78     		ldrb	r3, [r3]
 821 0054 3A69     		ldr	r2, [r7, #16]
 822 0056 D218     		adds	r2, r2, r3
 823 0058 1523     		movs	r3, #21
 824 005a FB18     		adds	r3, r7, r3
 825 005c 1278     		ldrb	r2, [r2]
 826 005e 1A70     		strb	r2, [r3]
1215:Generated_Source\PSoC4/CYBLE.c ****                 
1216:Generated_Source\PSoC4/CYBLE.c ****                 if(0u != adLength)
 827              		.loc 1 1216 0
 828 0060 1523     		movs	r3, #21
 829 0062 FB18     		adds	r3, r7, r3
ARM GAS  C:\Users\Lucia\AppData\Local\Temp\cc0KspdR.s 			page 37


 830 0064 1B78     		ldrb	r3, [r3]
 831 0066 002B     		cmp	r3, #0
 832 0068 33D0     		beq	.L51
1217:Generated_Source\PSoC4/CYBLE.c ****                 {
1218:Generated_Source\PSoC4/CYBLE.c ****                     /* Increment byte counter so it can point to AD type */
1219:Generated_Source\PSoC4/CYBLE.c ****                     byteCounter++;
 833              		.loc 1 1219 0
 834 006a 1423     		movs	r3, #20
 835 006c FB18     		adds	r3, r7, r3
 836 006e 1A78     		ldrb	r2, [r3]
 837 0070 1423     		movs	r3, #20
 838 0072 FB18     		adds	r3, r7, r3
 839 0074 0132     		adds	r2, r2, #1
 840 0076 1A70     		strb	r2, [r3]
1220:Generated_Source\PSoC4/CYBLE.c ****                     
1221:Generated_Source\PSoC4/CYBLE.c ****                     if((destBuffer[byteCounter] == CYBLE_SHORT_LOCAL_NAME) || 
 841              		.loc 1 1221 0
 842 0078 1423     		movs	r3, #20
 843 007a FB18     		adds	r3, r7, r3
 844 007c 1B78     		ldrb	r3, [r3]
 845 007e 3A69     		ldr	r2, [r7, #16]
 846 0080 D318     		adds	r3, r2, r3
 847 0082 1B78     		ldrb	r3, [r3]
 848 0084 082B     		cmp	r3, #8
 849 0086 07D0     		beq	.L40
1222:Generated_Source\PSoC4/CYBLE.c ****                        (destBuffer[byteCounter] == CYBLE_COMPLETE_LOCAL_NAME))
 850              		.loc 1 1222 0 discriminator 1
 851 0088 1423     		movs	r3, #20
 852 008a FB18     		adds	r3, r7, r3
 853 008c 1B78     		ldrb	r3, [r3]
 854 008e 3A69     		ldr	r2, [r7, #16]
 855 0090 D318     		adds	r3, r2, r3
 856 0092 1B78     		ldrb	r3, [r3]
1221:Generated_Source\PSoC4/CYBLE.c ****                        (destBuffer[byteCounter] == CYBLE_COMPLETE_LOCAL_NAME))
 857              		.loc 1 1221 0 discriminator 1
 858 0094 092B     		cmp	r3, #9
 859 0096 04D1     		bne	.L41
 860              	.L40:
1223:Generated_Source\PSoC4/CYBLE.c ****                     {
1224:Generated_Source\PSoC4/CYBLE.c ****                         /* Start of the Local Name AD type was fount. Set flag and exit the loop. *
1225:Generated_Source\PSoC4/CYBLE.c ****                         flag = 1u;
 861              		.loc 1 1225 0
 862 0098 1623     		movs	r3, #22
 863 009a FB18     		adds	r3, r7, r3
 864 009c 0122     		movs	r2, #1
 865 009e 1A70     		strb	r2, [r3]
 866 00a0 09E0     		b	.L38
 867              	.L41:
1226:Generated_Source\PSoC4/CYBLE.c ****                     }
1227:Generated_Source\PSoC4/CYBLE.c ****                     else
1228:Generated_Source\PSoC4/CYBLE.c ****                     {
1229:Generated_Source\PSoC4/CYBLE.c ****                         byteCounter += adLength;
 868              		.loc 1 1229 0
 869 00a2 1423     		movs	r3, #20
 870 00a4 FB18     		adds	r3, r7, r3
 871 00a6 1422     		movs	r2, #20
 872 00a8 B918     		adds	r1, r7, r2
ARM GAS  C:\Users\Lucia\AppData\Local\Temp\cc0KspdR.s 			page 38


 873 00aa 1522     		movs	r2, #21
 874 00ac BA18     		adds	r2, r7, r2
 875 00ae 0978     		ldrb	r1, [r1]
 876 00b0 1278     		ldrb	r2, [r2]
 877 00b2 8A18     		adds	r2, r1, r2
 878 00b4 1A70     		strb	r2, [r3]
 879              	.L38:
1212:Generated_Source\PSoC4/CYBLE.c ****             {
 880              		.loc 1 1212 0
 881 00b6 1423     		movs	r3, #20
 882 00b8 FA18     		adds	r2, r7, r3
 883 00ba 0F23     		movs	r3, #15
 884 00bc FB18     		adds	r3, r7, r3
 885 00be 1278     		ldrb	r2, [r2]
 886 00c0 1B78     		ldrb	r3, [r3]
 887 00c2 9A42     		cmp	r2, r3
 888 00c4 06D2     		bcs	.L43
1212:Generated_Source\PSoC4/CYBLE.c ****             {
 889              		.loc 1 1212 0 is_stmt 0 discriminator 1
 890 00c6 1623     		movs	r3, #22
 891 00c8 FB18     		adds	r3, r7, r3
 892 00ca 1B78     		ldrb	r3, [r3]
 893 00cc 002B     		cmp	r3, #0
 894 00ce BED0     		beq	.L44
 895 00d0 00E0     		b	.L43
 896              	.L51:
1230:Generated_Source\PSoC4/CYBLE.c ****                     }
1231:Generated_Source\PSoC4/CYBLE.c ****                 }
1232:Generated_Source\PSoC4/CYBLE.c ****                 else
1233:Generated_Source\PSoC4/CYBLE.c ****                 {
1234:Generated_Source\PSoC4/CYBLE.c ****                     /* The end of advertisement data structure was encountered though exit the loop
1235:Generated_Source\PSoC4/CYBLE.c ****                     break;
 897              		.loc 1 1235 0 is_stmt 1
 898 00d2 C046     		nop
 899              	.L43:
1236:Generated_Source\PSoC4/CYBLE.c ****                 }
1237:Generated_Source\PSoC4/CYBLE.c ****             }
1238:Generated_Source\PSoC4/CYBLE.c ****             
1239:Generated_Source\PSoC4/CYBLE.c ****             if(0u != flag)
 900              		.loc 1 1239 0
 901 00d4 1623     		movs	r3, #22
 902 00d6 FB18     		adds	r3, r7, r3
 903 00d8 1B78     		ldrb	r3, [r3]
 904 00da 002B     		cmp	r3, #0
 905 00dc 5BD0     		beq	.L52
1240:Generated_Source\PSoC4/CYBLE.c ****             {
1241:Generated_Source\PSoC4/CYBLE.c ****                 /* Reuse "adLength" to hold location of the last character of local name in 
1242:Generated_Source\PSoC4/CYBLE.c ****                    AD structure. */
1243:Generated_Source\PSoC4/CYBLE.c ****                 adLength += byteCounter;
 906              		.loc 1 1243 0
 907 00de 1523     		movs	r3, #21
 908 00e0 FB18     		adds	r3, r7, r3
 909 00e2 1522     		movs	r2, #21
 910 00e4 B918     		adds	r1, r7, r2
 911 00e6 1422     		movs	r2, #20
 912 00e8 BA18     		adds	r2, r7, r2
 913 00ea 0978     		ldrb	r1, [r1]
ARM GAS  C:\Users\Lucia\AppData\Local\Temp\cc0KspdR.s 			page 39


 914 00ec 1278     		ldrb	r2, [r2]
 915 00ee 8A18     		adds	r2, r1, r2
 916 00f0 1A70     		strb	r2, [r3]
1244:Generated_Source\PSoC4/CYBLE.c ****                 
1245:Generated_Source\PSoC4/CYBLE.c ****                 /* Increment byte counter to point to start of the local Name string */
1246:Generated_Source\PSoC4/CYBLE.c ****                 byteCounter++;
 917              		.loc 1 1246 0
 918 00f2 1423     		movs	r3, #20
 919 00f4 FB18     		adds	r3, r7, r3
 920 00f6 1A78     		ldrb	r2, [r3]
 921 00f8 1423     		movs	r3, #20
 922 00fa FB18     		adds	r3, r7, r3
 923 00fc 0132     		adds	r2, r2, #1
 924 00fe 1A70     		strb	r2, [r3]
1247:Generated_Source\PSoC4/CYBLE.c ****                 
1248:Generated_Source\PSoC4/CYBLE.c ****                 for(i = byteCounter; ((i < (adLength)) && (CYBLE_NULL_CHARCTER != name[i - byteCoun
 925              		.loc 1 1248 0
 926 0100 1723     		movs	r3, #23
 927 0102 FB18     		adds	r3, r7, r3
 928 0104 1422     		movs	r2, #20
 929 0106 BA18     		adds	r2, r7, r2
 930 0108 1278     		ldrb	r2, [r2]
 931 010a 1A70     		strb	r2, [r3]
 932 010c 17E0     		b	.L46
 933              	.L48:
1249:Generated_Source\PSoC4/CYBLE.c ****                 {
1250:Generated_Source\PSoC4/CYBLE.c ****                     destBuffer[i] = (uint8)name[i - byteCounter];
 934              		.loc 1 1250 0 discriminator 4
 935 010e 1723     		movs	r3, #23
 936 0110 FB18     		adds	r3, r7, r3
 937 0112 1B78     		ldrb	r3, [r3]
 938 0114 3A69     		ldr	r2, [r7, #16]
 939 0116 D318     		adds	r3, r2, r3
 940 0118 1722     		movs	r2, #23
 941 011a BA18     		adds	r2, r7, r2
 942 011c 1178     		ldrb	r1, [r2]
 943 011e 1422     		movs	r2, #20
 944 0120 BA18     		adds	r2, r7, r2
 945 0122 1278     		ldrb	r2, [r2]
 946 0124 8A1A     		subs	r2, r1, r2
 947 0126 1100     		movs	r1, r2
 948 0128 7A68     		ldr	r2, [r7, #4]
 949 012a 5218     		adds	r2, r2, r1
 950 012c 1278     		ldrb	r2, [r2]
 951 012e 1A70     		strb	r2, [r3]
1248:Generated_Source\PSoC4/CYBLE.c ****                 {
 952              		.loc 1 1248 0 discriminator 4
 953 0130 1723     		movs	r3, #23
 954 0132 FB18     		adds	r3, r7, r3
 955 0134 1A78     		ldrb	r2, [r3]
 956 0136 1723     		movs	r3, #23
 957 0138 FB18     		adds	r3, r7, r3
 958 013a 0132     		adds	r2, r2, #1
 959 013c 1A70     		strb	r2, [r3]
 960              	.L46:
1248:Generated_Source\PSoC4/CYBLE.c ****                 {
 961              		.loc 1 1248 0 is_stmt 0 discriminator 1
ARM GAS  C:\Users\Lucia\AppData\Local\Temp\cc0KspdR.s 			page 40


 962 013e 1723     		movs	r3, #23
 963 0140 FA18     		adds	r2, r7, r3
 964 0142 1523     		movs	r3, #21
 965 0144 FB18     		adds	r3, r7, r3
 966 0146 1278     		ldrb	r2, [r2]
 967 0148 1B78     		ldrb	r3, [r3]
 968 014a 9A42     		cmp	r2, r3
 969 014c 1BD2     		bcs	.L49
1248:Generated_Source\PSoC4/CYBLE.c ****                 {
 970              		.loc 1 1248 0 discriminator 3
 971 014e 1723     		movs	r3, #23
 972 0150 FB18     		adds	r3, r7, r3
 973 0152 1A78     		ldrb	r2, [r3]
 974 0154 1423     		movs	r3, #20
 975 0156 FB18     		adds	r3, r7, r3
 976 0158 1B78     		ldrb	r3, [r3]
 977 015a D31A     		subs	r3, r2, r3
 978 015c 1A00     		movs	r2, r3
 979 015e 7B68     		ldr	r3, [r7, #4]
 980 0160 9B18     		adds	r3, r3, r2
 981 0162 1B78     		ldrb	r3, [r3]
 982 0164 002B     		cmp	r3, #0
 983 0166 D2D1     		bne	.L48
1251:Generated_Source\PSoC4/CYBLE.c ****                 }
1252:Generated_Source\PSoC4/CYBLE.c ****                 
1253:Generated_Source\PSoC4/CYBLE.c ****                 /* This loop handles the case when new local name is shorted than old one.
1254:Generated_Source\PSoC4/CYBLE.c ****                    In this case all remaining characters should be null characters. */
1255:Generated_Source\PSoC4/CYBLE.c ****                 while(adLength > i)
 984              		.loc 1 1255 0 is_stmt 1
 985 0168 0DE0     		b	.L49
 986              	.L50:
1256:Generated_Source\PSoC4/CYBLE.c ****                 {
1257:Generated_Source\PSoC4/CYBLE.c ****                     /* Terminate string */
1258:Generated_Source\PSoC4/CYBLE.c ****                     destBuffer[i] = (uint8)CYBLE_NULL_CHARCTER;
 987              		.loc 1 1258 0
 988 016a 1723     		movs	r3, #23
 989 016c FB18     		adds	r3, r7, r3
 990 016e 1B78     		ldrb	r3, [r3]
 991 0170 3A69     		ldr	r2, [r7, #16]
 992 0172 D318     		adds	r3, r2, r3
 993 0174 0022     		movs	r2, #0
 994 0176 1A70     		strb	r2, [r3]
1259:Generated_Source\PSoC4/CYBLE.c ****                     i++;
 995              		.loc 1 1259 0
 996 0178 1723     		movs	r3, #23
 997 017a FB18     		adds	r3, r7, r3
 998 017c 1A78     		ldrb	r2, [r3]
 999 017e 1723     		movs	r3, #23
 1000 0180 FB18     		adds	r3, r7, r3
 1001 0182 0132     		adds	r2, r2, #1
 1002 0184 1A70     		strb	r2, [r3]
 1003              	.L49:
1255:Generated_Source\PSoC4/CYBLE.c ****                 {
 1004              		.loc 1 1255 0
 1005 0186 1523     		movs	r3, #21
 1006 0188 FA18     		adds	r2, r7, r3
 1007 018a 1723     		movs	r3, #23
ARM GAS  C:\Users\Lucia\AppData\Local\Temp\cc0KspdR.s 			page 41


 1008 018c FB18     		adds	r3, r7, r3
 1009 018e 1278     		ldrb	r2, [r2]
 1010 0190 1B78     		ldrb	r3, [r3]
 1011 0192 9A42     		cmp	r2, r3
 1012 0194 E9D8     		bhi	.L50
 1013              	.L52:
1260:Generated_Source\PSoC4/CYBLE.c ****                 }
1261:Generated_Source\PSoC4/CYBLE.c ****             }
1262:Generated_Source\PSoC4/CYBLE.c ****         }
 1014              		.loc 1 1262 0
 1015 0196 C046     		nop
 1016 0198 BD46     		mov	sp, r7
 1017 019a 06B0     		add	sp, sp, #24
 1018              		@ sp needed
 1019 019c 80BD     		pop	{r7, pc}
 1020              	.L54:
 1021 019e C046     		.align	2
 1022              	.L53:
 1023 01a0 00000000 		.word	cyBle_discoveryData
 1024 01a4 00000000 		.word	cyBle_scanRspData
 1025              		.cfi_endproc
 1026              	.LFE9:
 1027              		.size	CyBle_ChangeAdLocalName, .-CyBle_ChangeAdLocalName
 1028              		.section	.text.CyBle_GapSetLocalName,"ax",%progbits
 1029              		.align	2
 1030              		.global	CyBle_GapSetLocalName
 1031              		.code	16
 1032              		.thumb_func
 1033              		.type	CyBle_GapSetLocalName, %function
 1034              	CyBle_GapSetLocalName:
 1035              	.LFB10:
1263:Generated_Source\PSoC4/CYBLE.c ****         
1264:Generated_Source\PSoC4/CYBLE.c **** #endif /* (CYBLE_GAP_ROLE_PERIPHERAL) */  
1265:Generated_Source\PSoC4/CYBLE.c ****     
1266:Generated_Source\PSoC4/CYBLE.c ****     
1267:Generated_Source\PSoC4/CYBLE.c ****     /******************************************************************************
1268:Generated_Source\PSoC4/CYBLE.c ****     * Function Name: CyBle_GapSetLocalName
1269:Generated_Source\PSoC4/CYBLE.c ****     ***************************************************************************//**
1270:Generated_Source\PSoC4/CYBLE.c ****     *  This API is used to set the local device name - a Characteristic of the 
1271:Generated_Source\PSoC4/CYBLE.c ****     *  GAP Service. If the characteristic length entered in the component customizer
1272:Generated_Source\PSoC4/CYBLE.c ****     *  is shorter than the string specified by the "name" parameter, the local device
1273:Generated_Source\PSoC4/CYBLE.c ****     *  name will be cut to the length specified in the customizer.
1274:Generated_Source\PSoC4/CYBLE.c ****     * 
1275:Generated_Source\PSoC4/CYBLE.c ****     *  \param name: The local device name string. The name string to be written as
1276:Generated_Source\PSoC4/CYBLE.c ****     *              the local device name. It represents a UTF-8 encoded User
1277:Generated_Source\PSoC4/CYBLE.c ****     *              Friendly Descriptive Name for the device. The length of the local
1278:Generated_Source\PSoC4/CYBLE.c ****     *              device string is entered into the component customizer and it can
1279:Generated_Source\PSoC4/CYBLE.c ****     *              be set to a value from 0 to 248 bytes. If the name contained in
1280:Generated_Source\PSoC4/CYBLE.c ****     *              the parameter is shorter than the length from the customizer, the
1281:Generated_Source\PSoC4/CYBLE.c ****     *              end of the name is indicated by a NULL octet (0x00).
1282:Generated_Source\PSoC4/CYBLE.c ****     * 
1283:Generated_Source\PSoC4/CYBLE.c ****     * \return
1284:Generated_Source\PSoC4/CYBLE.c ****     *  CYBLE_API_RESULT_T : Return value indicates if the function succeeded or 
1285:Generated_Source\PSoC4/CYBLE.c ****     *  failed. Following are the possible error codes.
1286:Generated_Source\PSoC4/CYBLE.c ****     *
1287:Generated_Source\PSoC4/CYBLE.c ****     *   Errors codes                       | Description
1288:Generated_Source\PSoC4/CYBLE.c ****     *   ------------                       | -----------
ARM GAS  C:\Users\Lucia\AppData\Local\Temp\cc0KspdR.s 			page 42


1289:Generated_Source\PSoC4/CYBLE.c ****     *   CYBLE_ERROR_OK                     | Function completed successfully.
1290:Generated_Source\PSoC4/CYBLE.c ****     *   CYBLE_ERROR_INVALID_PARAMETER      | On specifying NULL as input parameter
1291:Generated_Source\PSoC4/CYBLE.c ****     *  
1292:Generated_Source\PSoC4/CYBLE.c ****     *******************************************************************************/
1293:Generated_Source\PSoC4/CYBLE.c ****     CYBLE_API_RESULT_T CyBle_GapSetLocalName(const char8 name[])
1294:Generated_Source\PSoC4/CYBLE.c ****     {
 1036              		.loc 1 1294 0
 1037              		.cfi_startproc
 1038              		@ args = 0, pretend = 0, frame = 24
 1039              		@ frame_needed = 1, uses_anonymous_args = 0
 1040 0000 80B5     		push	{r7, lr}
 1041              		.cfi_def_cfa_offset 8
 1042              		.cfi_offset 7, -8
 1043              		.cfi_offset 14, -4
 1044 0002 86B0     		sub	sp, sp, #24
 1045              		.cfi_def_cfa_offset 32
 1046 0004 00AF     		add	r7, sp, #0
 1047              		.cfi_def_cfa_register 7
 1048 0006 7860     		str	r0, [r7, #4]
1295:Generated_Source\PSoC4/CYBLE.c ****         CYBLE_API_RESULT_T apiResult = CYBLE_ERROR_OK;
 1049              		.loc 1 1295 0
 1050 0008 1623     		movs	r3, #22
 1051 000a FB18     		adds	r3, r7, r3
 1052 000c 0022     		movs	r2, #0
 1053 000e 1A80     		strh	r2, [r3]
1296:Generated_Source\PSoC4/CYBLE.c ****         uint8 i;
1297:Generated_Source\PSoC4/CYBLE.c ****         char8 *ptr;
1298:Generated_Source\PSoC4/CYBLE.c ****         uint8 charLen;
1299:Generated_Source\PSoC4/CYBLE.c **** 
1300:Generated_Source\PSoC4/CYBLE.c ****         if(NULL != name)
 1054              		.loc 1 1300 0
 1055 0010 7B68     		ldr	r3, [r7, #4]
 1056 0012 002B     		cmp	r3, #0
 1057 0014 5CD0     		beq	.L56
1301:Generated_Source\PSoC4/CYBLE.c ****         {
1302:Generated_Source\PSoC4/CYBLE.c ****             /* Get the pointer to the Device Name characteristic  */
1303:Generated_Source\PSoC4/CYBLE.c ****             ptr = (char8 *) CYBLE_GATT_DB_ATTR_GET_ATTR_GEN_PTR(cyBle_gaps.deviceNameCharHandle);
 1058              		.loc 1 1303 0
 1059 0016 344B     		ldr	r3, .L63
 1060 0018 5B88     		ldrh	r3, [r3, #2]
 1061 001a 5A1E     		subs	r2, r3, #1
 1062 001c 3349     		ldr	r1, .L63+4
 1063 001e 1300     		movs	r3, r2
 1064 0020 9B00     		lsls	r3, r3, #2
 1065 0022 9B18     		adds	r3, r3, r2
 1066 0024 9B00     		lsls	r3, r3, #2
 1067 0026 CB18     		adds	r3, r1, r3
 1068 0028 1033     		adds	r3, r3, #16
 1069 002a 1B68     		ldr	r3, [r3]
 1070 002c 5B68     		ldr	r3, [r3, #4]
 1071 002e 3B61     		str	r3, [r7, #16]
1304:Generated_Source\PSoC4/CYBLE.c **** 
1305:Generated_Source\PSoC4/CYBLE.c ****             /* First need to get the maximum length of the characteristic data in the GATT
1306:Generated_Source\PSoC4/CYBLE.c ****                 database to make sure there is enough place for the data. The length
1307:Generated_Source\PSoC4/CYBLE.c ****                 can't be longer than 248, so only the LSB of 16 bit of length is to
1308:Generated_Source\PSoC4/CYBLE.c ****                 be used. */
1309:Generated_Source\PSoC4/CYBLE.c ****             charLen = (uint8)CYBLE_GATT_DB_ATTR_GET_ATTR_GEN_MAX_LEN(cyBle_gaps.deviceNameCharHandl
ARM GAS  C:\Users\Lucia\AppData\Local\Temp\cc0KspdR.s 			page 43


 1072              		.loc 1 1309 0
 1073 0030 2D4B     		ldr	r3, .L63
 1074 0032 5B88     		ldrh	r3, [r3, #2]
 1075 0034 5A1E     		subs	r2, r3, #1
 1076 0036 2D49     		ldr	r1, .L63+4
 1077 0038 1300     		movs	r3, r2
 1078 003a 9B00     		lsls	r3, r3, #2
 1079 003c 9B18     		adds	r3, r3, r2
 1080 003e 9B00     		lsls	r3, r3, #2
 1081 0040 CB18     		adds	r3, r1, r3
 1082 0042 0C33     		adds	r3, r3, #12
 1083 0044 1A88     		ldrh	r2, [r3]
 1084 0046 0F23     		movs	r3, #15
 1085 0048 FB18     		adds	r3, r7, r3
 1086 004a 1A70     		strb	r2, [r3]
1310:Generated_Source\PSoC4/CYBLE.c **** 
1311:Generated_Source\PSoC4/CYBLE.c ****             /* Copy name into characteristic */
1312:Generated_Source\PSoC4/CYBLE.c ****             for(i = 0u; ((i < charLen) && (CYBLE_NULL_CHARCTER != name[i])); i++)
 1087              		.loc 1 1312 0
 1088 004c 1523     		movs	r3, #21
 1089 004e FB18     		adds	r3, r7, r3
 1090 0050 0022     		movs	r2, #0
 1091 0052 1A70     		strb	r2, [r3]
 1092 0054 12E0     		b	.L57
 1093              	.L59:
1313:Generated_Source\PSoC4/CYBLE.c ****             {
1314:Generated_Source\PSoC4/CYBLE.c ****                 ptr[i] = name[i];
 1094              		.loc 1 1314 0 discriminator 4
 1095 0056 1523     		movs	r3, #21
 1096 0058 FB18     		adds	r3, r7, r3
 1097 005a 1B78     		ldrb	r3, [r3]
 1098 005c 3A69     		ldr	r2, [r7, #16]
 1099 005e D318     		adds	r3, r2, r3
 1100 0060 1522     		movs	r2, #21
 1101 0062 BA18     		adds	r2, r7, r2
 1102 0064 1278     		ldrb	r2, [r2]
 1103 0066 7968     		ldr	r1, [r7, #4]
 1104 0068 8A18     		adds	r2, r1, r2
 1105 006a 1278     		ldrb	r2, [r2]
 1106 006c 1A70     		strb	r2, [r3]
1312:Generated_Source\PSoC4/CYBLE.c ****             {
 1107              		.loc 1 1312 0 discriminator 4
 1108 006e 1523     		movs	r3, #21
 1109 0070 FB18     		adds	r3, r7, r3
 1110 0072 1A78     		ldrb	r2, [r3]
 1111 0074 1523     		movs	r3, #21
 1112 0076 FB18     		adds	r3, r7, r3
 1113 0078 0132     		adds	r2, r2, #1
 1114 007a 1A70     		strb	r2, [r3]
 1115              	.L57:
1312:Generated_Source\PSoC4/CYBLE.c ****             {
 1116              		.loc 1 1312 0 is_stmt 0 discriminator 1
 1117 007c 1523     		movs	r3, #21
 1118 007e FA18     		adds	r2, r7, r3
 1119 0080 0F23     		movs	r3, #15
 1120 0082 FB18     		adds	r3, r7, r3
 1121 0084 1278     		ldrb	r2, [r2]
ARM GAS  C:\Users\Lucia\AppData\Local\Temp\cc0KspdR.s 			page 44


 1122 0086 1B78     		ldrb	r3, [r3]
 1123 0088 9A42     		cmp	r2, r3
 1124 008a 07D2     		bcs	.L58
1312:Generated_Source\PSoC4/CYBLE.c ****             {
 1125              		.loc 1 1312 0 discriminator 3
 1126 008c 1523     		movs	r3, #21
 1127 008e FB18     		adds	r3, r7, r3
 1128 0090 1B78     		ldrb	r3, [r3]
 1129 0092 7A68     		ldr	r2, [r7, #4]
 1130 0094 D318     		adds	r3, r2, r3
 1131 0096 1B78     		ldrb	r3, [r3]
 1132 0098 002B     		cmp	r3, #0
 1133 009a DCD1     		bne	.L59
 1134              	.L58:
1315:Generated_Source\PSoC4/CYBLE.c ****             }
1316:Generated_Source\PSoC4/CYBLE.c **** 
1317:Generated_Source\PSoC4/CYBLE.c ****             if(i < charLen)
 1135              		.loc 1 1317 0 is_stmt 1
 1136 009c 1523     		movs	r3, #21
 1137 009e FA18     		adds	r2, r7, r3
 1138 00a0 0F23     		movs	r3, #15
 1139 00a2 FB18     		adds	r3, r7, r3
 1140 00a4 1278     		ldrb	r2, [r2]
 1141 00a6 1B78     		ldrb	r3, [r3]
 1142 00a8 9A42     		cmp	r2, r3
 1143 00aa 06D2     		bcs	.L60
1318:Generated_Source\PSoC4/CYBLE.c ****             {
1319:Generated_Source\PSoC4/CYBLE.c ****                 /* Terminate string */
1320:Generated_Source\PSoC4/CYBLE.c ****                 ptr[i] = CYBLE_NULL_CHARCTER;
 1144              		.loc 1 1320 0
 1145 00ac 1523     		movs	r3, #21
 1146 00ae FB18     		adds	r3, r7, r3
 1147 00b0 1B78     		ldrb	r3, [r3]
 1148 00b2 3A69     		ldr	r2, [r7, #16]
 1149 00b4 D318     		adds	r3, r2, r3
 1150 00b6 0022     		movs	r2, #0
 1151 00b8 1A70     		strb	r2, [r3]
 1152              	.L60:
1321:Generated_Source\PSoC4/CYBLE.c ****             }
1322:Generated_Source\PSoC4/CYBLE.c ****             
1323:Generated_Source\PSoC4/CYBLE.c ****             /* Set new actual length */
1324:Generated_Source\PSoC4/CYBLE.c ****             
1325:Generated_Source\PSoC4/CYBLE.c ****             /* Update device name in advertising and scan response structure */
1326:Generated_Source\PSoC4/CYBLE.c ****             #if(CYBLE_GAP_ROLE_PERIPHERAL)
1327:Generated_Source\PSoC4/CYBLE.c ****                 CyBle_ChangeAdLocalName(name, 0u);
 1153              		.loc 1 1327 0
 1154 00ba 7B68     		ldr	r3, [r7, #4]
 1155 00bc 0021     		movs	r1, #0
 1156 00be 1800     		movs	r0, r3
 1157 00c0 FFF7FEFF 		bl	CyBle_ChangeAdLocalName
1328:Generated_Source\PSoC4/CYBLE.c ****                 CyBle_ChangeAdLocalName(name, 1u);
 1158              		.loc 1 1328 0
 1159 00c4 7B68     		ldr	r3, [r7, #4]
 1160 00c6 0121     		movs	r1, #1
 1161 00c8 1800     		movs	r0, r3
 1162 00ca FFF7FEFF 		bl	CyBle_ChangeAdLocalName
 1163 00ce 03E0     		b	.L61
ARM GAS  C:\Users\Lucia\AppData\Local\Temp\cc0KspdR.s 			page 45


 1164              	.L56:
1329:Generated_Source\PSoC4/CYBLE.c ****             #endif /* (CYBLE_GAP_ROLE_PERIPHERAL) */
1330:Generated_Source\PSoC4/CYBLE.c ****         }
1331:Generated_Source\PSoC4/CYBLE.c ****         else
1332:Generated_Source\PSoC4/CYBLE.c ****         {
1333:Generated_Source\PSoC4/CYBLE.c ****             apiResult = CYBLE_ERROR_INVALID_PARAMETER;
 1165              		.loc 1 1333 0
 1166 00d0 1623     		movs	r3, #22
 1167 00d2 FB18     		adds	r3, r7, r3
 1168 00d4 0122     		movs	r2, #1
 1169 00d6 1A80     		strh	r2, [r3]
 1170              	.L61:
1334:Generated_Source\PSoC4/CYBLE.c ****         }
1335:Generated_Source\PSoC4/CYBLE.c ****         
1336:Generated_Source\PSoC4/CYBLE.c ****         return(apiResult);
 1171              		.loc 1 1336 0
 1172 00d8 1623     		movs	r3, #22
 1173 00da FB18     		adds	r3, r7, r3
 1174 00dc 1B88     		ldrh	r3, [r3]
1337:Generated_Source\PSoC4/CYBLE.c ****     }
 1175              		.loc 1 1337 0
 1176 00de 1800     		movs	r0, r3
 1177 00e0 BD46     		mov	sp, r7
 1178 00e2 06B0     		add	sp, sp, #24
 1179              		@ sp needed
 1180 00e4 80BD     		pop	{r7, pc}
 1181              	.L64:
 1182 00e6 C046     		.align	2
 1183              	.L63:
 1184 00e8 00000000 		.word	cyBle_gaps
 1185 00ec 00000000 		.word	cyBle_gattDB
 1186              		.cfi_endproc
 1187              	.LFE10:
 1188              		.size	CyBle_GapSetLocalName, .-CyBle_GapSetLocalName
 1189              		.section	.text.CyBle_GapGetLocalName,"ax",%progbits
 1190              		.align	2
 1191              		.global	CyBle_GapGetLocalName
 1192              		.code	16
 1193              		.thumb_func
 1194              		.type	CyBle_GapGetLocalName, %function
 1195              	CyBle_GapGetLocalName:
 1196              	.LFB11:
1338:Generated_Source\PSoC4/CYBLE.c **** 
1339:Generated_Source\PSoC4/CYBLE.c **** 
1340:Generated_Source\PSoC4/CYBLE.c ****     /******************************************************************************
1341:Generated_Source\PSoC4/CYBLE.c ****     * Function Name: CyBle_GapGetLocalName
1342:Generated_Source\PSoC4/CYBLE.c ****     ***************************************************************************//**
1343:Generated_Source\PSoC4/CYBLE.c ****     *  
1344:Generated_Source\PSoC4/CYBLE.c ****     *  This API is used to read the local device name - a Characteristic of the 
1345:Generated_Source\PSoC4/CYBLE.c ****     *  GAP Service.
1346:Generated_Source\PSoC4/CYBLE.c ****     * 
1347:Generated_Source\PSoC4/CYBLE.c ****     * \param name: The local device name string. Used to read the local name to the
1348:Generated_Source\PSoC4/CYBLE.c ****     *             given string array. It represents a UTF-8 encoded User Friendly 
1349:Generated_Source\PSoC4/CYBLE.c ****     *             Descriptive Name for the device. The length of the local device
1350:Generated_Source\PSoC4/CYBLE.c ****     *             string is entered into the component customizer and it can be set
1351:Generated_Source\PSoC4/CYBLE.c ****     *             to a value from 0 to 248 bytes. If the name contained in the
1352:Generated_Source\PSoC4/CYBLE.c ****     *             parameter is shorter than the length from the customizer, the end
ARM GAS  C:\Users\Lucia\AppData\Local\Temp\cc0KspdR.s 			page 46


1353:Generated_Source\PSoC4/CYBLE.c ****     *             of the name is indicated by a NULL octet (0x00).
1354:Generated_Source\PSoC4/CYBLE.c ****     * 
1355:Generated_Source\PSoC4/CYBLE.c ****     * \return
1356:Generated_Source\PSoC4/CYBLE.c ****     *  CYBLE_API_RESULT_T : Return value indicates if the function succeeded or 
1357:Generated_Source\PSoC4/CYBLE.c ****     *  failed. Following are the possible error codes.
1358:Generated_Source\PSoC4/CYBLE.c ****     *
1359:Generated_Source\PSoC4/CYBLE.c ****     *   Errors codes                       | Description
1360:Generated_Source\PSoC4/CYBLE.c ****     *   ------------                       | -----------
1361:Generated_Source\PSoC4/CYBLE.c ****     *   CYBLE_ERROR_OK                     | Function completed successfully.
1362:Generated_Source\PSoC4/CYBLE.c ****     *   CYBLE_ERROR_INVALID_PARAMETER      | On specifying NULL as input parameter
1363:Generated_Source\PSoC4/CYBLE.c ****     *
1364:Generated_Source\PSoC4/CYBLE.c ****     *******************************************************************************/
1365:Generated_Source\PSoC4/CYBLE.c ****     CYBLE_API_RESULT_T CyBle_GapGetLocalName(char8 name[])
1366:Generated_Source\PSoC4/CYBLE.c ****     {
 1197              		.loc 1 1366 0
 1198              		.cfi_startproc
 1199              		@ args = 0, pretend = 0, frame = 24
 1200              		@ frame_needed = 1, uses_anonymous_args = 0
 1201 0000 80B5     		push	{r7, lr}
 1202              		.cfi_def_cfa_offset 8
 1203              		.cfi_offset 7, -8
 1204              		.cfi_offset 14, -4
 1205 0002 86B0     		sub	sp, sp, #24
 1206              		.cfi_def_cfa_offset 32
 1207 0004 00AF     		add	r7, sp, #0
 1208              		.cfi_def_cfa_register 7
 1209 0006 7860     		str	r0, [r7, #4]
1367:Generated_Source\PSoC4/CYBLE.c ****         CYBLE_API_RESULT_T apiResult = CYBLE_ERROR_OK;
 1210              		.loc 1 1367 0
 1211 0008 1623     		movs	r3, #22
 1212 000a FB18     		adds	r3, r7, r3
 1213 000c 0022     		movs	r2, #0
 1214 000e 1A80     		strh	r2, [r3]
1368:Generated_Source\PSoC4/CYBLE.c ****         uint8 charLen;
1369:Generated_Source\PSoC4/CYBLE.c ****         uint8 i;
1370:Generated_Source\PSoC4/CYBLE.c ****         char8 *ptr;
1371:Generated_Source\PSoC4/CYBLE.c **** 
1372:Generated_Source\PSoC4/CYBLE.c ****         if(NULL != name)
 1215              		.loc 1 1372 0
 1216 0010 7B68     		ldr	r3, [r7, #4]
 1217 0012 002B     		cmp	r3, #0
 1218 0014 4BD0     		beq	.L66
1373:Generated_Source\PSoC4/CYBLE.c ****         {
1374:Generated_Source\PSoC4/CYBLE.c ****             /* Get the pointer to the Device Name characteristic  */
1375:Generated_Source\PSoC4/CYBLE.c ****             ptr = (char8 *) CYBLE_GATT_DB_ATTR_GET_ATTR_GEN_PTR(cyBle_gaps.deviceNameCharHandle);
 1219              		.loc 1 1375 0
 1220 0016 2B4B     		ldr	r3, .L72
 1221 0018 5B88     		ldrh	r3, [r3, #2]
 1222 001a 5A1E     		subs	r2, r3, #1
 1223 001c 2A49     		ldr	r1, .L72+4
 1224 001e 1300     		movs	r3, r2
 1225 0020 9B00     		lsls	r3, r3, #2
 1226 0022 9B18     		adds	r3, r3, r2
 1227 0024 9B00     		lsls	r3, r3, #2
 1228 0026 CB18     		adds	r3, r1, r3
 1229 0028 1033     		adds	r3, r3, #16
 1230 002a 1B68     		ldr	r3, [r3]
ARM GAS  C:\Users\Lucia\AppData\Local\Temp\cc0KspdR.s 			page 47


 1231 002c 5B68     		ldr	r3, [r3, #4]
 1232 002e 3B61     		str	r3, [r7, #16]
1376:Generated_Source\PSoC4/CYBLE.c **** 
1377:Generated_Source\PSoC4/CYBLE.c ****             /* First need to get the length of the characteristic data in the GATT
1378:Generated_Source\PSoC4/CYBLE.c ****                 database to make sure there is enough place for the data. The length
1379:Generated_Source\PSoC4/CYBLE.c ****                 can't be longer than 248, so only the LSB of 16 bit of length is to
1380:Generated_Source\PSoC4/CYBLE.c ****                 be used. */
1381:Generated_Source\PSoC4/CYBLE.c ****             charLen = (uint8)CYBLE_GATT_DB_ATTR_GET_ATTR_GEN_LEN(cyBle_gaps.deviceNameCharHandle);
 1233              		.loc 1 1381 0
 1234 0030 244B     		ldr	r3, .L72
 1235 0032 5B88     		ldrh	r3, [r3, #2]
 1236 0034 5A1E     		subs	r2, r3, #1
 1237 0036 2449     		ldr	r1, .L72+4
 1238 0038 1300     		movs	r3, r2
 1239 003a 9B00     		lsls	r3, r3, #2
 1240 003c 9B18     		adds	r3, r3, r2
 1241 003e 9B00     		lsls	r3, r3, #2
 1242 0040 CB18     		adds	r3, r1, r3
 1243 0042 1033     		adds	r3, r3, #16
 1244 0044 1B68     		ldr	r3, [r3]
 1245 0046 1A88     		ldrh	r2, [r3]
 1246 0048 0F23     		movs	r3, #15
 1247 004a FB18     		adds	r3, r7, r3
 1248 004c 1A70     		strb	r2, [r3]
1382:Generated_Source\PSoC4/CYBLE.c **** 
1383:Generated_Source\PSoC4/CYBLE.c ****             /* Copy name from characteristic */
1384:Generated_Source\PSoC4/CYBLE.c ****             for(i = 0u; ((i < charLen) && (CYBLE_NULL_CHARCTER != ptr[i])); i++)
 1249              		.loc 1 1384 0
 1250 004e 1523     		movs	r3, #21
 1251 0050 FB18     		adds	r3, r7, r3
 1252 0052 0022     		movs	r2, #0
 1253 0054 1A70     		strb	r2, [r3]
 1254 0056 12E0     		b	.L67
 1255              	.L69:
1385:Generated_Source\PSoC4/CYBLE.c ****             {
1386:Generated_Source\PSoC4/CYBLE.c ****                 name[i] = ptr[i];
 1256              		.loc 1 1386 0 discriminator 4
 1257 0058 1523     		movs	r3, #21
 1258 005a FB18     		adds	r3, r7, r3
 1259 005c 1B78     		ldrb	r3, [r3]
 1260 005e 7A68     		ldr	r2, [r7, #4]
 1261 0060 D318     		adds	r3, r2, r3
 1262 0062 1522     		movs	r2, #21
 1263 0064 BA18     		adds	r2, r7, r2
 1264 0066 1278     		ldrb	r2, [r2]
 1265 0068 3969     		ldr	r1, [r7, #16]
 1266 006a 8A18     		adds	r2, r1, r2
 1267 006c 1278     		ldrb	r2, [r2]
 1268 006e 1A70     		strb	r2, [r3]
1384:Generated_Source\PSoC4/CYBLE.c ****             {
 1269              		.loc 1 1384 0 discriminator 4
 1270 0070 1523     		movs	r3, #21
 1271 0072 FB18     		adds	r3, r7, r3
 1272 0074 1A78     		ldrb	r2, [r3]
 1273 0076 1523     		movs	r3, #21
 1274 0078 FB18     		adds	r3, r7, r3
 1275 007a 0132     		adds	r2, r2, #1
ARM GAS  C:\Users\Lucia\AppData\Local\Temp\cc0KspdR.s 			page 48


 1276 007c 1A70     		strb	r2, [r3]
 1277              	.L67:
1384:Generated_Source\PSoC4/CYBLE.c ****             {
 1278              		.loc 1 1384 0 is_stmt 0 discriminator 1
 1279 007e 1523     		movs	r3, #21
 1280 0080 FA18     		adds	r2, r7, r3
 1281 0082 0F23     		movs	r3, #15
 1282 0084 FB18     		adds	r3, r7, r3
 1283 0086 1278     		ldrb	r2, [r2]
 1284 0088 1B78     		ldrb	r3, [r3]
 1285 008a 9A42     		cmp	r2, r3
 1286 008c 07D2     		bcs	.L68
1384:Generated_Source\PSoC4/CYBLE.c ****             {
 1287              		.loc 1 1384 0 discriminator 3
 1288 008e 1523     		movs	r3, #21
 1289 0090 FB18     		adds	r3, r7, r3
 1290 0092 1B78     		ldrb	r3, [r3]
 1291 0094 3A69     		ldr	r2, [r7, #16]
 1292 0096 D318     		adds	r3, r2, r3
 1293 0098 1B78     		ldrb	r3, [r3]
 1294 009a 002B     		cmp	r3, #0
 1295 009c DCD1     		bne	.L69
 1296              	.L68:
1387:Generated_Source\PSoC4/CYBLE.c ****             }
1388:Generated_Source\PSoC4/CYBLE.c **** 
1389:Generated_Source\PSoC4/CYBLE.c ****             /* Terminate string */
1390:Generated_Source\PSoC4/CYBLE.c ****             name[i] = CYBLE_NULL_CHARCTER;
 1297              		.loc 1 1390 0 is_stmt 1
 1298 009e 1523     		movs	r3, #21
 1299 00a0 FB18     		adds	r3, r7, r3
 1300 00a2 1B78     		ldrb	r3, [r3]
 1301 00a4 7A68     		ldr	r2, [r7, #4]
 1302 00a6 D318     		adds	r3, r2, r3
 1303 00a8 0022     		movs	r2, #0
 1304 00aa 1A70     		strb	r2, [r3]
 1305 00ac 03E0     		b	.L70
 1306              	.L66:
1391:Generated_Source\PSoC4/CYBLE.c ****         }
1392:Generated_Source\PSoC4/CYBLE.c ****         else
1393:Generated_Source\PSoC4/CYBLE.c ****         {
1394:Generated_Source\PSoC4/CYBLE.c ****             apiResult = CYBLE_ERROR_INVALID_PARAMETER;
 1307              		.loc 1 1394 0
 1308 00ae 1623     		movs	r3, #22
 1309 00b0 FB18     		adds	r3, r7, r3
 1310 00b2 0122     		movs	r2, #1
 1311 00b4 1A80     		strh	r2, [r3]
 1312              	.L70:
1395:Generated_Source\PSoC4/CYBLE.c ****         }
1396:Generated_Source\PSoC4/CYBLE.c ****         
1397:Generated_Source\PSoC4/CYBLE.c ****         return(apiResult);
 1313              		.loc 1 1397 0
 1314 00b6 1623     		movs	r3, #22
 1315 00b8 FB18     		adds	r3, r7, r3
 1316 00ba 1B88     		ldrh	r3, [r3]
1398:Generated_Source\PSoC4/CYBLE.c ****     }
 1317              		.loc 1 1398 0
 1318 00bc 1800     		movs	r0, r3
ARM GAS  C:\Users\Lucia\AppData\Local\Temp\cc0KspdR.s 			page 49


 1319 00be BD46     		mov	sp, r7
 1320 00c0 06B0     		add	sp, sp, #24
 1321              		@ sp needed
 1322 00c2 80BD     		pop	{r7, pc}
 1323              	.L73:
 1324              		.align	2
 1325              	.L72:
 1326 00c4 00000000 		.word	cyBle_gaps
 1327 00c8 00000000 		.word	cyBle_gattDB
 1328              		.cfi_endproc
 1329              	.LFE11:
 1330              		.size	CyBle_GapGetLocalName, .-CyBle_GapGetLocalName
 1331              		.section	.text.CyBle_Get16ByPtr,"ax",%progbits
 1332              		.align	2
 1333              		.global	CyBle_Get16ByPtr
 1334              		.code	16
 1335              		.thumb_func
 1336              		.type	CyBle_Get16ByPtr, %function
 1337              	CyBle_Get16ByPtr:
 1338              	.LFB12:
1399:Generated_Source\PSoC4/CYBLE.c **** 
1400:Generated_Source\PSoC4/CYBLE.c **** #endif /* (CYBLE_GATT_ROLE_SERVER) */
1401:Generated_Source\PSoC4/CYBLE.c **** 
1402:Generated_Source\PSoC4/CYBLE.c **** 
1403:Generated_Source\PSoC4/CYBLE.c **** /******************************************************************************
1404:Generated_Source\PSoC4/CYBLE.c **** * Function Name: CyBle_Get16ByPtr
1405:Generated_Source\PSoC4/CYBLE.c **** ***************************************************************************//**
1406:Generated_Source\PSoC4/CYBLE.c **** * 
1407:Generated_Source\PSoC4/CYBLE.c **** *  Returns the two-bytes value by using a pointer to the LSB.
1408:Generated_Source\PSoC4/CYBLE.c **** * 
1409:Generated_Source\PSoC4/CYBLE.c **** *  \param ptr: Pointer to the LSB of two-bytes data (little endian).
1410:Generated_Source\PSoC4/CYBLE.c **** * 
1411:Generated_Source\PSoC4/CYBLE.c **** *  \return
1412:Generated_Source\PSoC4/CYBLE.c **** *  uint16: Two-bytes data.
1413:Generated_Source\PSoC4/CYBLE.c **** * 
1414:Generated_Source\PSoC4/CYBLE.c **** ******************************************************************************/
1415:Generated_Source\PSoC4/CYBLE.c **** uint16 CyBle_Get16ByPtr(const uint8 ptr[])
1416:Generated_Source\PSoC4/CYBLE.c **** {
 1339              		.loc 1 1416 0
 1340              		.cfi_startproc
 1341              		@ args = 0, pretend = 0, frame = 8
 1342              		@ frame_needed = 1, uses_anonymous_args = 0
 1343 0000 80B5     		push	{r7, lr}
 1344              		.cfi_def_cfa_offset 8
 1345              		.cfi_offset 7, -8
 1346              		.cfi_offset 14, -4
 1347 0002 82B0     		sub	sp, sp, #8
 1348              		.cfi_def_cfa_offset 16
 1349 0004 00AF     		add	r7, sp, #0
 1350              		.cfi_def_cfa_register 7
 1351 0006 7860     		str	r0, [r7, #4]
1417:Generated_Source\PSoC4/CYBLE.c ****     return ((uint16) ptr[0u] | ((uint16) (((uint16) ptr[1u]) << 8u)));
 1352              		.loc 1 1417 0
 1353 0008 7B68     		ldr	r3, [r7, #4]
 1354 000a 1B78     		ldrb	r3, [r3]
 1355 000c 9AB2     		uxth	r2, r3
 1356 000e 7B68     		ldr	r3, [r7, #4]
ARM GAS  C:\Users\Lucia\AppData\Local\Temp\cc0KspdR.s 			page 50


 1357 0010 0133     		adds	r3, r3, #1
 1358 0012 1B78     		ldrb	r3, [r3]
 1359 0014 9BB2     		uxth	r3, r3
 1360 0016 1B02     		lsls	r3, r3, #8
 1361 0018 9BB2     		uxth	r3, r3
 1362 001a 1343     		orrs	r3, r2
 1363 001c 9BB2     		uxth	r3, r3
1418:Generated_Source\PSoC4/CYBLE.c **** }
 1364              		.loc 1 1418 0
 1365 001e 1800     		movs	r0, r3
 1366 0020 BD46     		mov	sp, r7
 1367 0022 02B0     		add	sp, sp, #8
 1368              		@ sp needed
 1369 0024 80BD     		pop	{r7, pc}
 1370              		.cfi_endproc
 1371              	.LFE12:
 1372              		.size	CyBle_Get16ByPtr, .-CyBle_Get16ByPtr
 1373 0026 C046     		.section	.text.CyBle_Set16ByPtr,"ax",%progbits
 1374              		.align	2
 1375              		.global	CyBle_Set16ByPtr
 1376              		.code	16
 1377              		.thumb_func
 1378              		.type	CyBle_Set16ByPtr, %function
 1379              	CyBle_Set16ByPtr:
 1380              	.LFB13:
1419:Generated_Source\PSoC4/CYBLE.c **** 
1420:Generated_Source\PSoC4/CYBLE.c **** 
1421:Generated_Source\PSoC4/CYBLE.c **** /******************************************************************************
1422:Generated_Source\PSoC4/CYBLE.c **** * Function Name: CyBle_Set16ByPtr
1423:Generated_Source\PSoC4/CYBLE.c **** ***************************************************************************//**
1424:Generated_Source\PSoC4/CYBLE.c **** * 
1425:Generated_Source\PSoC4/CYBLE.c **** *  Sets the two-bytes value by using a pointer to the LSB.
1426:Generated_Source\PSoC4/CYBLE.c **** * 
1427:Generated_Source\PSoC4/CYBLE.c **** *  \param ptr:    Pointer to the LSB of two-bytes data (little endian).
1428:Generated_Source\PSoC4/CYBLE.c **** *  \param value:  Two-bytes data to be written.
1429:Generated_Source\PSoC4/CYBLE.c **** * 
1430:Generated_Source\PSoC4/CYBLE.c **** *  \return
1431:Generated_Source\PSoC4/CYBLE.c **** *  None
1432:Generated_Source\PSoC4/CYBLE.c **** * 
1433:Generated_Source\PSoC4/CYBLE.c **** ******************************************************************************/
1434:Generated_Source\PSoC4/CYBLE.c **** void CyBle_Set16ByPtr(uint8 ptr[], uint16 value)
1435:Generated_Source\PSoC4/CYBLE.c **** {
 1381              		.loc 1 1435 0
 1382              		.cfi_startproc
 1383              		@ args = 0, pretend = 0, frame = 8
 1384              		@ frame_needed = 1, uses_anonymous_args = 0
 1385 0000 80B5     		push	{r7, lr}
 1386              		.cfi_def_cfa_offset 8
 1387              		.cfi_offset 7, -8
 1388              		.cfi_offset 14, -4
 1389 0002 82B0     		sub	sp, sp, #8
 1390              		.cfi_def_cfa_offset 16
 1391 0004 00AF     		add	r7, sp, #0
 1392              		.cfi_def_cfa_register 7
 1393 0006 7860     		str	r0, [r7, #4]
 1394 0008 0A00     		movs	r2, r1
 1395 000a BB1C     		adds	r3, r7, #2
ARM GAS  C:\Users\Lucia\AppData\Local\Temp\cc0KspdR.s 			page 51


 1396 000c 1A80     		strh	r2, [r3]
1436:Generated_Source\PSoC4/CYBLE.c ****     ptr[0u] = (uint8) value;
 1397              		.loc 1 1436 0
 1398 000e BB1C     		adds	r3, r7, #2
 1399 0010 1B88     		ldrh	r3, [r3]
 1400 0012 DAB2     		uxtb	r2, r3
 1401 0014 7B68     		ldr	r3, [r7, #4]
 1402 0016 1A70     		strb	r2, [r3]
1437:Generated_Source\PSoC4/CYBLE.c ****     ptr[1u] = (uint8) (value >> 8u);
 1403              		.loc 1 1437 0
 1404 0018 7B68     		ldr	r3, [r7, #4]
 1405 001a 0133     		adds	r3, r3, #1
 1406 001c BA1C     		adds	r2, r7, #2
 1407 001e 1288     		ldrh	r2, [r2]
 1408 0020 120A     		lsrs	r2, r2, #8
 1409 0022 92B2     		uxth	r2, r2
 1410 0024 D2B2     		uxtb	r2, r2
 1411 0026 1A70     		strb	r2, [r3]
1438:Generated_Source\PSoC4/CYBLE.c **** }
 1412              		.loc 1 1438 0
 1413 0028 C046     		nop
 1414 002a BD46     		mov	sp, r7
 1415 002c 02B0     		add	sp, sp, #8
 1416              		@ sp needed
 1417 002e 80BD     		pop	{r7, pc}
 1418              		.cfi_endproc
 1419              	.LFE13:
 1420              		.size	CyBle_Set16ByPtr, .-CyBle_Set16ByPtr
 1421              		.text
 1422              	.Letext0:
 1423              		.file 2 "Generated_Source\\PSoC4\\cytypes.h"
 1424              		.file 3 "Generated_Source\\PSoC4\\CYBLE_Stack.h"
 1425              		.file 4 "Generated_Source\\PSoC4\\CYBLE_StackGap.h"
 1426              		.file 5 "Generated_Source\\PSoC4\\CYBLE_StackGatt.h"
 1427              		.file 6 "Generated_Source\\PSoC4\\CYBLE_StackGattDb.h"
 1428              		.file 7 "Generated_Source\\PSoC4\\CYBLE.h"
 1429              		.file 8 "Generated_Source\\PSoC4\\CYBLE_dis.h"
 1430              		.file 9 "Generated_Source\\PSoC4\\CYBLE_hrs.h"
 1431              		.file 10 "Generated_Source\\PSoC4\\CYBLE_eventHandler.h"
 1432              		.file 11 "Generated_Source\\PSoC4\\CYBLE_gatt.h"
 1433              		.section	.debug_info,"",%progbits
 1434              	.Ldebug_info0:
 1435 0000 860C0000 		.4byte	0xc86
 1436 0004 0400     		.2byte	0x4
 1437 0006 00000000 		.4byte	.Ldebug_abbrev0
 1438 000a 04       		.byte	0x4
 1439 000b 01       		.uleb128 0x1
 1440 000c 2F080000 		.4byte	.LASF252
 1441 0010 0C       		.byte	0xc
 1442 0011 3A0E0000 		.4byte	.LASF253
 1443 0015 19160000 		.4byte	.LASF254
 1444 0019 00000000 		.4byte	.Ldebug_ranges0+0
 1445 001d 00000000 		.4byte	0
 1446 0021 00000000 		.4byte	.Ldebug_line0
 1447 0025 02       		.uleb128 0x2
 1448 0026 01       		.byte	0x1
 1449 0027 06       		.byte	0x6
ARM GAS  C:\Users\Lucia\AppData\Local\Temp\cc0KspdR.s 			page 52


 1450 0028 FA030000 		.4byte	.LASF0
 1451 002c 02       		.uleb128 0x2
 1452 002d 01       		.byte	0x1
 1453 002e 08       		.byte	0x8
 1454 002f 75040000 		.4byte	.LASF1
 1455 0033 02       		.uleb128 0x2
 1456 0034 02       		.byte	0x2
 1457 0035 05       		.byte	0x5
 1458 0036 E5120000 		.4byte	.LASF2
 1459 003a 02       		.uleb128 0x2
 1460 003b 02       		.byte	0x2
 1461 003c 07       		.byte	0x7
 1462 003d E5150000 		.4byte	.LASF3
 1463 0041 02       		.uleb128 0x2
 1464 0042 04       		.byte	0x4
 1465 0043 05       		.byte	0x5
 1466 0044 8B020000 		.4byte	.LASF4
 1467 0048 02       		.uleb128 0x2
 1468 0049 04       		.byte	0x4
 1469 004a 07       		.byte	0x7
 1470 004b 67090000 		.4byte	.LASF5
 1471 004f 02       		.uleb128 0x2
 1472 0050 08       		.byte	0x8
 1473 0051 05       		.byte	0x5
 1474 0052 070B0000 		.4byte	.LASF6
 1475 0056 02       		.uleb128 0x2
 1476 0057 08       		.byte	0x8
 1477 0058 07       		.byte	0x7
 1478 0059 66100000 		.4byte	.LASF7
 1479 005d 03       		.uleb128 0x3
 1480 005e 04       		.byte	0x4
 1481 005f 05       		.byte	0x5
 1482 0060 696E7400 		.ascii	"int\000"
 1483 0064 02       		.uleb128 0x2
 1484 0065 04       		.byte	0x4
 1485 0066 07       		.byte	0x7
 1486 0067 070D0000 		.4byte	.LASF8
 1487 006b 04       		.uleb128 0x4
 1488 006c AD120000 		.4byte	.LASF9
 1489 0070 02       		.byte	0x2
 1490 0071 B901     		.2byte	0x1b9
 1491 0073 2C000000 		.4byte	0x2c
 1492 0077 04       		.uleb128 0x4
 1493 0078 DA170000 		.4byte	.LASF10
 1494 007c 02       		.byte	0x2
 1495 007d BA01     		.2byte	0x1ba
 1496 007f 3A000000 		.4byte	0x3a
 1497 0083 04       		.uleb128 0x4
 1498 0084 AF000000 		.4byte	.LASF11
 1499 0088 02       		.byte	0x2
 1500 0089 BB01     		.2byte	0x1bb
 1501 008b 48000000 		.4byte	0x48
 1502 008f 02       		.uleb128 0x2
 1503 0090 04       		.byte	0x4
 1504 0091 04       		.byte	0x4
 1505 0092 A40C0000 		.4byte	.LASF12
 1506 0096 02       		.uleb128 0x2
ARM GAS  C:\Users\Lucia\AppData\Local\Temp\cc0KspdR.s 			page 53


 1507 0097 08       		.byte	0x8
 1508 0098 04       		.byte	0x4
 1509 0099 870B0000 		.4byte	.LASF13
 1510 009d 04       		.uleb128 0x4
 1511 009e 09010000 		.4byte	.LASF14
 1512 00a2 02       		.byte	0x2
 1513 00a3 CA01     		.2byte	0x1ca
 1514 00a5 A9000000 		.4byte	0xa9
 1515 00a9 02       		.uleb128 0x2
 1516 00aa 01       		.byte	0x1
 1517 00ab 08       		.byte	0x8
 1518 00ac 92050000 		.4byte	.LASF15
 1519 00b0 05       		.uleb128 0x5
 1520 00b1 6B000000 		.4byte	0x6b
 1521 00b5 02       		.uleb128 0x2
 1522 00b6 08       		.byte	0x8
 1523 00b7 04       		.byte	0x4
 1524 00b8 760F0000 		.4byte	.LASF16
 1525 00bc 02       		.uleb128 0x2
 1526 00bd 04       		.byte	0x4
 1527 00be 07       		.byte	0x7
 1528 00bf 21000000 		.4byte	.LASF17
 1529 00c3 06       		.uleb128 0x6
 1530 00c4 04       		.byte	0x4
 1531 00c5 07       		.uleb128 0x7
 1532 00c6 04       		.byte	0x4
 1533 00c7 CB000000 		.4byte	0xcb
 1534 00cb 08       		.uleb128 0x8
 1535 00cc DB000000 		.4byte	0xdb
 1536 00d0 09       		.uleb128 0x9
 1537 00d1 83000000 		.4byte	0x83
 1538 00d5 09       		.uleb128 0x9
 1539 00d6 C3000000 		.4byte	0xc3
 1540 00da 00       		.byte	0
 1541 00db 0A       		.uleb128 0xa
 1542 00dc 01       		.byte	0x1
 1543 00dd 2C000000 		.4byte	0x2c
 1544 00e1 03       		.byte	0x3
 1545 00e2 4D01     		.2byte	0x14d
 1546 00e4 99020000 		.4byte	0x299
 1547 00e8 0B       		.uleb128 0xb
 1548 00e9 C4050000 		.4byte	.LASF18
 1549 00ed 00       		.byte	0
 1550 00ee 0B       		.uleb128 0xb
 1551 00ef EE020000 		.4byte	.LASF19
 1552 00f3 01       		.byte	0x1
 1553 00f4 0B       		.uleb128 0xb
 1554 00f5 7D100000 		.4byte	.LASF20
 1555 00f9 02       		.byte	0x2
 1556 00fa 0B       		.uleb128 0xb
 1557 00fb 12040000 		.4byte	.LASF21
 1558 00ff 03       		.byte	0x3
 1559 0100 0B       		.uleb128 0xb
 1560 0101 1D170000 		.4byte	.LASF22
 1561 0105 04       		.byte	0x4
 1562 0106 0B       		.uleb128 0xb
 1563 0107 56150000 		.4byte	.LASF23
ARM GAS  C:\Users\Lucia\AppData\Local\Temp\cc0KspdR.s 			page 54


 1564 010b 05       		.byte	0x5
 1565 010c 0B       		.uleb128 0xb
 1566 010d 8D0F0000 		.4byte	.LASF24
 1567 0111 06       		.byte	0x6
 1568 0112 0B       		.uleb128 0xb
 1569 0113 EF130000 		.4byte	.LASF25
 1570 0117 20       		.byte	0x20
 1571 0118 0B       		.uleb128 0xb
 1572 0119 8B010000 		.4byte	.LASF26
 1573 011d 21       		.byte	0x21
 1574 011e 0B       		.uleb128 0xb
 1575 011f A70A0000 		.4byte	.LASF27
 1576 0123 22       		.byte	0x22
 1577 0124 0B       		.uleb128 0xb
 1578 0125 710E0000 		.4byte	.LASF28
 1579 0129 23       		.byte	0x23
 1580 012a 0B       		.uleb128 0xb
 1581 012b DF080000 		.4byte	.LASF29
 1582 012f 24       		.byte	0x24
 1583 0130 0B       		.uleb128 0xb
 1584 0131 0B090000 		.4byte	.LASF30
 1585 0135 25       		.byte	0x25
 1586 0136 0B       		.uleb128 0xb
 1587 0137 57120000 		.4byte	.LASF31
 1588 013b 26       		.byte	0x26
 1589 013c 0B       		.uleb128 0xb
 1590 013d 5D000000 		.4byte	.LASF32
 1591 0141 27       		.byte	0x27
 1592 0142 0B       		.uleb128 0xb
 1593 0143 97170000 		.4byte	.LASF33
 1594 0147 28       		.byte	0x28
 1595 0148 0B       		.uleb128 0xb
 1596 0149 CC0F0000 		.4byte	.LASF34
 1597 014d 29       		.byte	0x29
 1598 014e 0B       		.uleb128 0xb
 1599 014f 0C0A0000 		.4byte	.LASF35
 1600 0153 2A       		.byte	0x2a
 1601 0154 0B       		.uleb128 0xb
 1602 0155 C40D0000 		.4byte	.LASF36
 1603 0159 2B       		.byte	0x2b
 1604 015a 0B       		.uleb128 0xb
 1605 015b 72150000 		.4byte	.LASF37
 1606 015f 2C       		.byte	0x2c
 1607 0160 0B       		.uleb128 0xb
 1608 0161 2A000000 		.4byte	.LASF38
 1609 0165 2D       		.byte	0x2d
 1610 0166 0B       		.uleb128 0xb
 1611 0167 C1120000 		.4byte	.LASF39
 1612 016b 2E       		.byte	0x2e
 1613 016c 0B       		.uleb128 0xb
 1614 016d 08020000 		.4byte	.LASF40
 1615 0171 2F       		.byte	0x2f
 1616 0172 0B       		.uleb128 0xb
 1617 0173 71050000 		.4byte	.LASF41
 1618 0177 30       		.byte	0x30
 1619 0178 0B       		.uleb128 0xb
 1620 0179 100C0000 		.4byte	.LASF42
ARM GAS  C:\Users\Lucia\AppData\Local\Temp\cc0KspdR.s 			page 55


 1621 017d 31       		.byte	0x31
 1622 017e 0B       		.uleb128 0xb
 1623 017f F1050000 		.4byte	.LASF43
 1624 0183 32       		.byte	0x32
 1625 0184 0B       		.uleb128 0xb
 1626 0185 A1040000 		.4byte	.LASF44
 1627 0189 33       		.byte	0x33
 1628 018a 0B       		.uleb128 0xb
 1629 018b C8040000 		.4byte	.LASF45
 1630 018f 34       		.byte	0x34
 1631 0190 0B       		.uleb128 0xb
 1632 0191 60140000 		.4byte	.LASF46
 1633 0195 35       		.byte	0x35
 1634 0196 0B       		.uleb128 0xb
 1635 0197 CF010000 		.4byte	.LASF47
 1636 019b 36       		.byte	0x36
 1637 019c 0B       		.uleb128 0xb
 1638 019d 15100000 		.4byte	.LASF48
 1639 01a1 37       		.byte	0x37
 1640 01a2 0B       		.uleb128 0xb
 1641 01a3 66130000 		.4byte	.LASF49
 1642 01a7 40       		.byte	0x40
 1643 01a8 0B       		.uleb128 0xb
 1644 01a9 7C000000 		.4byte	.LASF50
 1645 01ad 41       		.byte	0x41
 1646 01ae 0B       		.uleb128 0xb
 1647 01af 32170000 		.4byte	.LASF51
 1648 01b3 42       		.byte	0x42
 1649 01b4 0B       		.uleb128 0xb
 1650 01b5 E90F0000 		.4byte	.LASF52
 1651 01b9 43       		.byte	0x43
 1652 01ba 0B       		.uleb128 0xb
 1653 01bb 83040000 		.4byte	.LASF53
 1654 01bf 44       		.byte	0x44
 1655 01c0 0B       		.uleb128 0xb
 1656 01c1 3A040000 		.4byte	.LASF54
 1657 01c5 45       		.byte	0x45
 1658 01c6 0B       		.uleb128 0xb
 1659 01c7 A4110000 		.4byte	.LASF55
 1660 01cb 46       		.byte	0x46
 1661 01cc 0B       		.uleb128 0xb
 1662 01cd 86110000 		.4byte	.LASF56
 1663 01d1 47       		.byte	0x47
 1664 01d2 0B       		.uleb128 0xb
 1665 01d3 4A050000 		.4byte	.LASF57
 1666 01d7 48       		.byte	0x48
 1667 01d8 0B       		.uleb128 0xb
 1668 01d9 C90E0000 		.4byte	.LASF58
 1669 01dd 49       		.byte	0x49
 1670 01de 0B       		.uleb128 0xb
 1671 01df 2F060000 		.4byte	.LASF59
 1672 01e3 4A       		.byte	0x4a
 1673 01e4 0B       		.uleb128 0xb
 1674 01e5 A5050000 		.4byte	.LASF60
 1675 01e9 4B       		.byte	0x4b
 1676 01ea 0B       		.uleb128 0xb
 1677 01eb F40D0000 		.4byte	.LASF61
ARM GAS  C:\Users\Lucia\AppData\Local\Temp\cc0KspdR.s 			page 56


 1678 01ef 4C       		.byte	0x4c
 1679 01f0 0B       		.uleb128 0xb
 1680 01f1 ED110000 		.4byte	.LASF62
 1681 01f5 4D       		.byte	0x4d
 1682 01f6 0B       		.uleb128 0xb
 1683 01f7 4A020000 		.4byte	.LASF63
 1684 01fb 4E       		.byte	0x4e
 1685 01fc 0B       		.uleb128 0xb
 1686 01fd 210D0000 		.4byte	.LASF64
 1687 0201 4F       		.byte	0x4f
 1688 0202 0B       		.uleb128 0xb
 1689 0203 D0130000 		.4byte	.LASF65
 1690 0207 50       		.byte	0x50
 1691 0208 0B       		.uleb128 0xb
 1692 0209 4D060000 		.4byte	.LASF66
 1693 020d 51       		.byte	0x51
 1694 020e 0B       		.uleb128 0xb
 1695 020f 6A010000 		.4byte	.LASF67
 1696 0213 52       		.byte	0x52
 1697 0214 0B       		.uleb128 0xb
 1698 0215 1E150000 		.4byte	.LASF68
 1699 0219 53       		.byte	0x53
 1700 021a 0B       		.uleb128 0xb
 1701 021b B9170000 		.4byte	.LASF69
 1702 021f 54       		.byte	0x54
 1703 0220 0B       		.uleb128 0xb
 1704 0221 160E0000 		.4byte	.LASF70
 1705 0225 55       		.byte	0x55
 1706 0226 0B       		.uleb128 0xb
 1707 0227 8E060000 		.4byte	.LASF71
 1708 022b 56       		.byte	0x56
 1709 022c 0B       		.uleb128 0xb
 1710 022d CF0C0000 		.4byte	.LASF72
 1711 0231 57       		.byte	0x57
 1712 0232 0B       		.uleb128 0xb
 1713 0233 74170000 		.4byte	.LASF73
 1714 0237 58       		.byte	0x58
 1715 0238 0B       		.uleb128 0xb
 1716 0239 96150000 		.4byte	.LASF74
 1717 023d 70       		.byte	0x70
 1718 023e 0B       		.uleb128 0xb
 1719 023f F7070000 		.4byte	.LASF75
 1720 0243 71       		.byte	0x71
 1721 0244 0B       		.uleb128 0xb
 1722 0245 A4030000 		.4byte	.LASF76
 1723 0249 72       		.byte	0x72
 1724 024a 0B       		.uleb128 0xb
 1725 024b B2130000 		.4byte	.LASF77
 1726 024f 73       		.byte	0x73
 1727 0250 0B       		.uleb128 0xb
 1728 0251 0E0F0000 		.4byte	.LASF78
 1729 0255 74       		.byte	0x74
 1730 0256 0B       		.uleb128 0xb
 1731 0257 7B0A0000 		.4byte	.LASF79
 1732 025b 75       		.byte	0x75
 1733 025c 0B       		.uleb128 0xb
 1734 025d 29050000 		.4byte	.LASF80
ARM GAS  C:\Users\Lucia\AppData\Local\Temp\cc0KspdR.s 			page 57


 1735 0261 76       		.byte	0x76
 1736 0262 0B       		.uleb128 0xb
 1737 0263 C5100000 		.4byte	.LASF81
 1738 0267 77       		.byte	0x77
 1739 0268 0B       		.uleb128 0xb
 1740 0269 0F010000 		.4byte	.LASF82
 1741 026d 78       		.byte	0x78
 1742 026e 0B       		.uleb128 0xb
 1743 026f 68020000 		.4byte	.LASF83
 1744 0273 79       		.byte	0x79
 1745 0274 0B       		.uleb128 0xb
 1746 0275 50170000 		.4byte	.LASF84
 1747 0279 7A       		.byte	0x7a
 1748 027a 0B       		.uleb128 0xb
 1749 027b B00B0000 		.4byte	.LASF85
 1750 027f FA       		.byte	0xfa
 1751 0280 0B       		.uleb128 0xb
 1752 0281 EC140000 		.4byte	.LASF86
 1753 0285 FB       		.byte	0xfb
 1754 0286 0B       		.uleb128 0xb
 1755 0287 1D080000 		.4byte	.LASF87
 1756 028b FC       		.byte	0xfc
 1757 028c 0B       		.uleb128 0xb
 1758 028d 5E0F0000 		.4byte	.LASF88
 1759 0291 FD       		.byte	0xfd
 1760 0292 0B       		.uleb128 0xb
 1761 0293 B60D0000 		.4byte	.LASF89
 1762 0297 FF       		.byte	0xff
 1763 0298 00       		.byte	0
 1764 0299 0A       		.uleb128 0xa
 1765 029a 02       		.byte	0x2
 1766 029b 3A000000 		.4byte	0x3a
 1767 029f 03       		.byte	0x3
 1768 02a0 0204     		.2byte	0x402
 1769 02a2 72030000 		.4byte	0x372
 1770 02a6 0B       		.uleb128 0xb
 1771 02a7 2B040000 		.4byte	.LASF90
 1772 02ab 00       		.byte	0
 1773 02ac 0B       		.uleb128 0xb
 1774 02ad 2A070000 		.4byte	.LASF91
 1775 02b1 01       		.byte	0x1
 1776 02b2 0B       		.uleb128 0xb
 1777 02b3 F6160000 		.4byte	.LASF92
 1778 02b7 02       		.byte	0x2
 1779 02b8 0B       		.uleb128 0xb
 1780 02b9 96070000 		.4byte	.LASF93
 1781 02bd 03       		.byte	0x3
 1782 02be 0B       		.uleb128 0xb
 1783 02bf 44090000 		.4byte	.LASF94
 1784 02c3 04       		.byte	0x4
 1785 02c4 0B       		.uleb128 0xb
 1786 02c5 690B0000 		.4byte	.LASF95
 1787 02c9 05       		.byte	0x5
 1788 02ca 0B       		.uleb128 0xb
 1789 02cb C6140000 		.4byte	.LASF96
 1790 02cf 06       		.byte	0x6
 1791 02d0 0B       		.uleb128 0xb
ARM GAS  C:\Users\Lucia\AppData\Local\Temp\cc0KspdR.s 			page 58


 1792 02d1 12060000 		.4byte	.LASF97
 1793 02d5 07       		.byte	0x7
 1794 02d6 0B       		.uleb128 0xb
 1795 02d7 860C0000 		.4byte	.LASF98
 1796 02db 08       		.byte	0x8
 1797 02dc 0B       		.uleb128 0xb
 1798 02dd 36140000 		.4byte	.LASF99
 1799 02e1 09       		.byte	0x9
 1800 02e2 0B       		.uleb128 0xb
 1801 02e3 ED170000 		.4byte	.LASF100
 1802 02e7 0A       		.byte	0xa
 1803 02e8 0B       		.uleb128 0xb
 1804 02e9 AF010000 		.4byte	.LASF101
 1805 02ed 0B       		.byte	0xb
 1806 02ee 0B       		.uleb128 0xb
 1807 02ef 3F150000 		.4byte	.LASF102
 1808 02f3 0C       		.byte	0xc
 1809 02f4 0B       		.uleb128 0xb
 1810 02f5 7B0D0000 		.4byte	.LASF103
 1811 02f9 0D       		.byte	0xd
 1812 02fa 0B       		.uleb128 0xb
 1813 02fb BE090000 		.4byte	.LASF104
 1814 02ff 0E       		.byte	0xe
 1815 0300 0B       		.uleb128 0xb
 1816 0301 440B0000 		.4byte	.LASF105
 1817 0305 0F       		.byte	0xf
 1818 0306 0B       		.uleb128 0xb
 1819 0307 BF000000 		.4byte	.LASF106
 1820 030b 10       		.byte	0x10
 1821 030c 0B       		.uleb128 0xb
 1822 030d 340C0000 		.4byte	.LASF107
 1823 0311 11       		.byte	0x11
 1824 0312 0B       		.uleb128 0xb
 1825 0313 01030000 		.4byte	.LASF108
 1826 0317 12       		.byte	0x12
 1827 0318 0B       		.uleb128 0xb
 1828 0319 D2030000 		.4byte	.LASF109
 1829 031d 13       		.byte	0x13
 1830 031e 0B       		.uleb128 0xb
 1831 031f 8E0B0000 		.4byte	.LASF110
 1832 0323 27       		.byte	0x27
 1833 0324 0B       		.uleb128 0xb
 1834 0325 AA0C0000 		.4byte	.LASF111
 1835 0329 28       		.byte	0x28
 1836 032a 0B       		.uleb128 0xb
 1837 032b ED000000 		.4byte	.LASF112
 1838 032f 29       		.byte	0x29
 1839 0330 0B       		.uleb128 0xb
 1840 0331 34130000 		.4byte	.LASF113
 1841 0335 2A       		.byte	0x2a
 1842 0336 0B       		.uleb128 0xb
 1843 0337 79090000 		.4byte	.LASF114
 1844 033b 2B       		.byte	0x2b
 1845 033c 0B       		.uleb128 0xb
 1846 033d 06110000 		.4byte	.LASF115
 1847 0341 2C       		.byte	0x2c
 1848 0342 0B       		.uleb128 0xb
ARM GAS  C:\Users\Lucia\AppData\Local\Temp\cc0KspdR.s 			page 59


 1849 0343 0E070000 		.4byte	.LASF116
 1850 0347 FE       		.byte	0xfe
 1851 0348 0B       		.uleb128 0xb
 1852 0349 D5070000 		.4byte	.LASF117
 1853 034d FF       		.byte	0xff
 1854 034e 0C       		.uleb128 0xc
 1855 034f B00E0000 		.4byte	.LASF118
 1856 0353 0001     		.2byte	0x100
 1857 0355 0C       		.uleb128 0xc
 1858 0356 970E0000 		.4byte	.LASF119
 1859 035a 0101     		.2byte	0x101
 1860 035c 0C       		.uleb128 0xc
 1861 035d 4F030000 		.4byte	.LASF120
 1862 0361 0201     		.2byte	0x102
 1863 0363 0C       		.uleb128 0xc
 1864 0364 8F100000 		.4byte	.LASF121
 1865 0368 0301     		.2byte	0x103
 1866 036a 0C       		.uleb128 0xc
 1867 036b 25090000 		.4byte	.LASF122
 1868 036f 0401     		.2byte	0x104
 1869 0371 00       		.byte	0
 1870 0372 04       		.uleb128 0x4
 1871 0373 0B150000 		.4byte	.LASF123
 1872 0377 03       		.byte	0x3
 1873 0378 7104     		.2byte	0x471
 1874 037a 99020000 		.4byte	0x299
 1875 037e 0D       		.uleb128 0xd
 1876 037f 07       		.byte	0x7
 1877 0380 03       		.byte	0x3
 1878 0381 3F05     		.2byte	0x53f
 1879 0383 A2030000 		.4byte	0x3a2
 1880 0387 0E       		.uleb128 0xe
 1881 0388 9D140000 		.4byte	.LASF124
 1882 038c 03       		.byte	0x3
 1883 038d 4205     		.2byte	0x542
 1884 038f A2030000 		.4byte	0x3a2
 1885 0393 00       		.byte	0
 1886 0394 0E       		.uleb128 0xe
 1887 0395 3D010000 		.4byte	.LASF125
 1888 0399 03       		.byte	0x3
 1889 039a 4405     		.2byte	0x544
 1890 039c 6B000000 		.4byte	0x6b
 1891 03a0 06       		.byte	0x6
 1892 03a1 00       		.byte	0
 1893 03a2 0F       		.uleb128 0xf
 1894 03a3 6B000000 		.4byte	0x6b
 1895 03a7 B2030000 		.4byte	0x3b2
 1896 03ab 10       		.uleb128 0x10
 1897 03ac BC000000 		.4byte	0xbc
 1898 03b0 05       		.byte	0x5
 1899 03b1 00       		.byte	0
 1900 03b2 04       		.uleb128 0x4
 1901 03b3 2B110000 		.4byte	.LASF126
 1902 03b7 03       		.byte	0x3
 1903 03b8 4505     		.2byte	0x545
 1904 03ba 7E030000 		.4byte	0x37e
 1905 03be 0D       		.uleb128 0xd
ARM GAS  C:\Users\Lucia\AppData\Local\Temp\cc0KspdR.s 			page 60


 1906 03bf 04       		.byte	0x4
 1907 03c0 03       		.byte	0x3
 1908 03c1 4F05     		.2byte	0x54f
 1909 03c3 E2030000 		.4byte	0x3e2
 1910 03c7 0E       		.uleb128 0xe
 1911 03c8 820F0000 		.4byte	.LASF127
 1912 03cc 03       		.byte	0x3
 1913 03cd 5205     		.2byte	0x552
 1914 03cf 77000000 		.4byte	0x77
 1915 03d3 00       		.byte	0
 1916 03d4 0E       		.uleb128 0xe
 1917 03d5 06040000 		.4byte	.LASF128
 1918 03d9 03       		.byte	0x3
 1919 03da 5405     		.2byte	0x554
 1920 03dc 6B000000 		.4byte	0x6b
 1921 03e0 02       		.byte	0x2
 1922 03e1 00       		.byte	0
 1923 03e2 04       		.uleb128 0x4
 1924 03e3 BE020000 		.4byte	.LASF129
 1925 03e7 03       		.byte	0x3
 1926 03e8 5505     		.2byte	0x555
 1927 03ea BE030000 		.4byte	0x3be
 1928 03ee 0D       		.uleb128 0xd
 1929 03ef 06       		.byte	0x6
 1930 03f0 03       		.byte	0x3
 1931 03f1 5905     		.2byte	0x559
 1932 03f3 1F040000 		.4byte	0x41f
 1933 03f7 0E       		.uleb128 0xe
 1934 03f8 E60A0000 		.4byte	.LASF130
 1935 03fc 03       		.byte	0x3
 1936 03fd 5C05     		.2byte	0x55c
 1937 03ff 77000000 		.4byte	0x77
 1938 0403 00       		.byte	0
 1939 0404 0E       		.uleb128 0xe
 1940 0405 AF160000 		.4byte	.LASF131
 1941 0409 03       		.byte	0x3
 1942 040a 5F05     		.2byte	0x55f
 1943 040c 77000000 		.4byte	0x77
 1944 0410 02       		.byte	0x2
 1945 0411 0E       		.uleb128 0xe
 1946 0412 F80C0000 		.4byte	.LASF132
 1947 0416 03       		.byte	0x3
 1948 0417 6205     		.2byte	0x562
 1949 0419 6B000000 		.4byte	0x6b
 1950 041d 04       		.byte	0x4
 1951 041e 00       		.byte	0
 1952 041f 04       		.uleb128 0x4
 1953 0420 31020000 		.4byte	.LASF133
 1954 0424 03       		.byte	0x3
 1955 0425 6305     		.2byte	0x563
 1956 0427 EE030000 		.4byte	0x3ee
 1957 042b 0D       		.uleb128 0xd
 1958 042c 01       		.byte	0x1
 1959 042d 03       		.byte	0x3
 1960 042e 6605     		.2byte	0x566
 1961 0430 42040000 		.4byte	0x442
 1962 0434 0E       		.uleb128 0xe
ARM GAS  C:\Users\Lucia\AppData\Local\Temp\cc0KspdR.s 			page 61


 1963 0435 AC090000 		.4byte	.LASF134
 1964 0439 03       		.byte	0x3
 1965 043a 6905     		.2byte	0x569
 1966 043c 6B000000 		.4byte	0x6b
 1967 0440 00       		.byte	0
 1968 0441 00       		.byte	0
 1969 0442 04       		.uleb128 0x4
 1970 0443 580C0000 		.4byte	.LASF135
 1971 0447 03       		.byte	0x3
 1972 0448 6A05     		.2byte	0x56a
 1973 044a 2B040000 		.4byte	0x42b
 1974 044e 0D       		.uleb128 0xd
 1975 044f 0C       		.byte	0xc
 1976 0450 03       		.byte	0x3
 1977 0451 7005     		.2byte	0x570
 1978 0453 7F040000 		.4byte	0x47f
 1979 0457 0E       		.uleb128 0xe
 1980 0458 D8020000 		.4byte	.LASF136
 1981 045c 03       		.byte	0x3
 1982 045d 7305     		.2byte	0x573
 1983 045f 7F040000 		.4byte	0x47f
 1984 0463 00       		.byte	0
 1985 0464 0E       		.uleb128 0xe
 1986 0465 3F110000 		.4byte	.LASF137
 1987 0469 03       		.byte	0x3
 1988 046a 7605     		.2byte	0x576
 1989 046c 85040000 		.4byte	0x485
 1990 0470 04       		.byte	0x4
 1991 0471 0E       		.uleb128 0xe
 1992 0472 140D0000 		.4byte	.LASF138
 1993 0476 03       		.byte	0x3
 1994 0477 7C05     		.2byte	0x57c
 1995 0479 77000000 		.4byte	0x77
 1996 047d 08       		.byte	0x8
 1997 047e 00       		.byte	0
 1998 047f 07       		.uleb128 0x7
 1999 0480 04       		.byte	0x4
 2000 0481 1F040000 		.4byte	0x41f
 2001 0485 07       		.uleb128 0x7
 2002 0486 04       		.byte	0x4
 2003 0487 42040000 		.4byte	0x442
 2004 048b 04       		.uleb128 0x4
 2005 048c CB0A0000 		.4byte	.LASF139
 2006 0490 03       		.byte	0x3
 2007 0491 7D05     		.2byte	0x57d
 2008 0493 4E040000 		.4byte	0x44e
 2009 0497 07       		.uleb128 0x7
 2010 0498 04       		.byte	0x4
 2011 0499 6B000000 		.4byte	0x6b
 2012 049d 11       		.uleb128 0x11
 2013 049e 01       		.byte	0x1
 2014 049f 2C000000 		.4byte	0x2c
 2015 04a3 04       		.byte	0x4
 2016 04a4 E0       		.byte	0xe0
 2017 04a5 C8040000 		.4byte	0x4c8
 2018 04a9 0B       		.uleb128 0xb
 2019 04aa D0160000 		.4byte	.LASF140
ARM GAS  C:\Users\Lucia\AppData\Local\Temp\cc0KspdR.s 			page 62


 2020 04ae 00       		.byte	0
 2021 04af 0B       		.uleb128 0xb
 2022 04b0 E20E0000 		.4byte	.LASF141
 2023 04b4 01       		.byte	0x1
 2024 04b5 0B       		.uleb128 0xb
 2025 04b6 8E130000 		.4byte	.LASF142
 2026 04ba 02       		.byte	0x2
 2027 04bb 0B       		.uleb128 0xb
 2028 04bc 7A030000 		.4byte	.LASF143
 2029 04c0 03       		.byte	0x3
 2030 04c1 0B       		.uleb128 0xb
 2031 04c2 6B070000 		.4byte	.LASF144
 2032 04c6 04       		.byte	0x4
 2033 04c7 00       		.byte	0
 2034 04c8 12       		.uleb128 0x12
 2035 04c9 E30D0000 		.4byte	.LASF145
 2036 04cd 04       		.byte	0x4
 2037 04ce F0       		.byte	0xf0
 2038 04cf 9D040000 		.4byte	0x49d
 2039 04d3 0D       		.uleb128 0xd
 2040 04d4 10       		.byte	0x10
 2041 04d5 04       		.byte	0x4
 2042 04d6 2102     		.2byte	0x221
 2043 04d8 45050000 		.4byte	0x545
 2044 04dc 0E       		.uleb128 0xe
 2045 04dd E0040000 		.4byte	.LASF146
 2046 04e1 04       		.byte	0x4
 2047 04e2 2702     		.2byte	0x227
 2048 04e4 77000000 		.4byte	0x77
 2049 04e8 00       		.byte	0
 2050 04e9 0E       		.uleb128 0xe
 2051 04ea 07180000 		.4byte	.LASF147
 2052 04ee 04       		.byte	0x4
 2053 04ef 2D02     		.2byte	0x22d
 2054 04f1 77000000 		.4byte	0x77
 2055 04f5 02       		.byte	0x2
 2056 04f6 0E       		.uleb128 0xe
 2057 04f7 3C090000 		.4byte	.LASF148
 2058 04fb 04       		.byte	0x4
 2059 04fc 3602     		.2byte	0x236
 2060 04fe C8040000 		.4byte	0x4c8
 2061 0502 04       		.byte	0x4
 2062 0503 0E       		.uleb128 0xe
 2063 0504 E1170000 		.4byte	.LASF149
 2064 0508 04       		.byte	0x4
 2065 0509 3E02     		.2byte	0x23e
 2066 050b 6B000000 		.4byte	0x6b
 2067 050f 05       		.byte	0x5
 2068 0510 0E       		.uleb128 0xe
 2069 0511 010C0000 		.4byte	.LASF150
 2070 0515 04       		.byte	0x4
 2071 0516 4502     		.2byte	0x245
 2072 0518 6B000000 		.4byte	0x6b
 2073 051c 06       		.byte	0x6
 2074 051d 0E       		.uleb128 0xe
 2075 051e F8150000 		.4byte	.LASF151
 2076 0522 04       		.byte	0x4
ARM GAS  C:\Users\Lucia\AppData\Local\Temp\cc0KspdR.s 			page 63


 2077 0523 4B02     		.2byte	0x24b
 2078 0525 A2030000 		.4byte	0x3a2
 2079 0529 07       		.byte	0x7
 2080 052a 0E       		.uleb128 0xe
 2081 052b C2160000 		.4byte	.LASF152
 2082 052f 04       		.byte	0x4
 2083 0530 5302     		.2byte	0x253
 2084 0532 6B000000 		.4byte	0x6b
 2085 0536 0D       		.byte	0xd
 2086 0537 0E       		.uleb128 0xe
 2087 0538 FB080000 		.4byte	.LASF153
 2088 053c 04       		.byte	0x4
 2089 053d 5F02     		.2byte	0x25f
 2090 053f 6B000000 		.4byte	0x6b
 2091 0543 0E       		.byte	0xe
 2092 0544 00       		.byte	0
 2093 0545 04       		.uleb128 0x4
 2094 0546 BD080000 		.4byte	.LASF154
 2095 054a 04       		.byte	0x4
 2096 054b 6102     		.2byte	0x261
 2097 054d D3040000 		.4byte	0x4d3
 2098 0551 0D       		.uleb128 0xd
 2099 0552 20       		.byte	0x20
 2100 0553 04       		.byte	0x4
 2101 0554 6402     		.2byte	0x264
 2102 0556 75050000 		.4byte	0x575
 2103 055a 0E       		.uleb128 0xe
 2104 055b 0E0E0000 		.4byte	.LASF155
 2105 055f 04       		.byte	0x4
 2106 0560 6702     		.2byte	0x267
 2107 0562 75050000 		.4byte	0x575
 2108 0566 00       		.byte	0
 2109 0567 0E       		.uleb128 0xe
 2110 0568 5A110000 		.4byte	.LASF156
 2111 056c 04       		.byte	0x4
 2112 056d 6A02     		.2byte	0x26a
 2113 056f 6B000000 		.4byte	0x6b
 2114 0573 1F       		.byte	0x1f
 2115 0574 00       		.byte	0
 2116 0575 0F       		.uleb128 0xf
 2117 0576 6B000000 		.4byte	0x6b
 2118 057a 85050000 		.4byte	0x585
 2119 057e 10       		.uleb128 0x10
 2120 057f BC000000 		.4byte	0xbc
 2121 0583 1E       		.byte	0x1e
 2122 0584 00       		.byte	0
 2123 0585 04       		.uleb128 0x4
 2124 0586 12050000 		.4byte	.LASF157
 2125 058a 04       		.byte	0x4
 2126 058b 6C02     		.2byte	0x26c
 2127 058d 51050000 		.4byte	0x551
 2128 0591 0D       		.uleb128 0xd
 2129 0592 20       		.byte	0x20
 2130 0593 04       		.byte	0x4
 2131 0594 6F02     		.2byte	0x26f
 2132 0596 B5050000 		.4byte	0x5b5
 2133 059a 0E       		.uleb128 0xe
ARM GAS  C:\Users\Lucia\AppData\Local\Temp\cc0KspdR.s 			page 64


 2134 059b 00000000 		.4byte	.LASF158
 2135 059f 04       		.byte	0x4
 2136 05a0 7302     		.2byte	0x273
 2137 05a2 75050000 		.4byte	0x575
 2138 05a6 00       		.byte	0
 2139 05a7 0E       		.uleb128 0xe
 2140 05a8 25130000 		.4byte	.LASF159
 2141 05ac 04       		.byte	0x4
 2142 05ad 7602     		.2byte	0x276
 2143 05af 6B000000 		.4byte	0x6b
 2144 05b3 1F       		.byte	0x1f
 2145 05b4 00       		.byte	0
 2146 05b5 04       		.uleb128 0x4
 2147 05b6 7F120000 		.4byte	.LASF160
 2148 05ba 04       		.byte	0x4
 2149 05bb 7802     		.2byte	0x278
 2150 05bd 91050000 		.4byte	0x591
 2151 05c1 0D       		.uleb128 0xd
 2152 05c2 14       		.byte	0x14
 2153 05c3 04       		.byte	0x4
 2154 05c4 7B02     		.2byte	0x27b
 2155 05c6 0C060000 		.4byte	0x60c
 2156 05ca 0E       		.uleb128 0xe
 2157 05cb B6000000 		.4byte	.LASF161
 2158 05cf 04       		.byte	0x4
 2159 05d0 8302     		.2byte	0x283
 2160 05d2 6B000000 		.4byte	0x6b
 2161 05d6 00       		.byte	0
 2162 05d7 0E       		.uleb128 0xe
 2163 05d8 3B0B0000 		.4byte	.LASF162
 2164 05dc 04       		.byte	0x4
 2165 05dd 8602     		.2byte	0x286
 2166 05df 0C060000 		.4byte	0x60c
 2167 05e3 04       		.byte	0x4
 2168 05e4 0E       		.uleb128 0xe
 2169 05e5 0E0E0000 		.4byte	.LASF155
 2170 05e9 04       		.byte	0x4
 2171 05ea 8802     		.2byte	0x288
 2172 05ec 12060000 		.4byte	0x612
 2173 05f0 08       		.byte	0x8
 2174 05f1 0E       		.uleb128 0xe
 2175 05f2 00000000 		.4byte	.LASF158
 2176 05f6 04       		.byte	0x4
 2177 05f7 8A02     		.2byte	0x28a
 2178 05f9 18060000 		.4byte	0x618
 2179 05fd 0C       		.byte	0xc
 2180 05fe 0E       		.uleb128 0xe
 2181 05ff B0060000 		.4byte	.LASF163
 2182 0603 04       		.byte	0x4
 2183 0604 9402     		.2byte	0x294
 2184 0606 77000000 		.4byte	0x77
 2185 060a 10       		.byte	0x10
 2186 060b 00       		.byte	0
 2187 060c 07       		.uleb128 0x7
 2188 060d 04       		.byte	0x4
 2189 060e 45050000 		.4byte	0x545
 2190 0612 07       		.uleb128 0x7
ARM GAS  C:\Users\Lucia\AppData\Local\Temp\cc0KspdR.s 			page 65


 2191 0613 04       		.byte	0x4
 2192 0614 85050000 		.4byte	0x585
 2193 0618 07       		.uleb128 0x7
 2194 0619 04       		.byte	0x4
 2195 061a B5050000 		.4byte	0x5b5
 2196 061e 04       		.uleb128 0x4
 2197 061f 6A110000 		.4byte	.LASF164
 2198 0623 04       		.byte	0x4
 2199 0624 9602     		.2byte	0x296
 2200 0626 C1050000 		.4byte	0x5c1
 2201 062a 04       		.uleb128 0x4
 2202 062b A9100000 		.4byte	.LASF165
 2203 062f 05       		.byte	0x5
 2204 0630 8901     		.2byte	0x189
 2205 0632 77000000 		.4byte	0x77
 2206 0636 13       		.uleb128 0x13
 2207 0637 08       		.byte	0x8
 2208 0638 06       		.byte	0x6
 2209 0639 C8       		.byte	0xc8
 2210 063a 57060000 		.4byte	0x657
 2211 063e 14       		.uleb128 0x14
 2212 063f 4D110000 		.4byte	.LASF166
 2213 0643 06       		.byte	0x6
 2214 0644 CB       		.byte	0xcb
 2215 0645 77000000 		.4byte	0x77
 2216 0649 00       		.byte	0
 2217 064a 14       		.uleb128 0x14
 2218 064b 9A120000 		.4byte	.LASF167
 2219 064f 06       		.byte	0x6
 2220 0650 D0       		.byte	0xd0
 2221 0651 C3000000 		.4byte	0xc3
 2222 0655 04       		.byte	0x4
 2223 0656 00       		.byte	0
 2224 0657 12       		.uleb128 0x12
 2225 0658 400F0000 		.4byte	.LASF168
 2226 065c 06       		.byte	0x6
 2227 065d D2       		.byte	0xd2
 2228 065e 36060000 		.4byte	0x636
 2229 0662 13       		.uleb128 0x13
 2230 0663 08       		.byte	0x8
 2231 0664 06       		.byte	0x6
 2232 0665 D5       		.byte	0xd5
 2233 0666 83060000 		.4byte	0x683
 2234 066a 14       		.uleb128 0x14
 2235 066b 97050000 		.4byte	.LASF169
 2236 066f 06       		.byte	0x6
 2237 0670 D8       		.byte	0xd8
 2238 0671 77000000 		.4byte	0x77
 2239 0675 00       		.byte	0
 2240 0676 14       		.uleb128 0x14
 2241 0677 05130000 		.4byte	.LASF170
 2242 067b 06       		.byte	0x6
 2243 067c DD       		.byte	0xdd
 2244 067d 83060000 		.4byte	0x683
 2245 0681 04       		.byte	0x4
 2246 0682 00       		.byte	0
 2247 0683 07       		.uleb128 0x7
ARM GAS  C:\Users\Lucia\AppData\Local\Temp\cc0KspdR.s 			page 66


 2248 0684 04       		.byte	0x4
 2249 0685 57060000 		.4byte	0x657
 2250 0689 12       		.uleb128 0x12
 2251 068a 38120000 		.4byte	.LASF171
 2252 068e 06       		.byte	0x6
 2253 068f DF       		.byte	0xdf
 2254 0690 62060000 		.4byte	0x662
 2255 0694 15       		.uleb128 0x15
 2256 0695 08       		.byte	0x8
 2257 0696 06       		.byte	0x6
 2258 0697 E2       		.byte	0xe2
 2259 0698 B3060000 		.4byte	0x6b3
 2260 069c 16       		.uleb128 0x16
 2261 069d 16130000 		.4byte	.LASF172
 2262 06a1 06       		.byte	0x6
 2263 06a2 E9       		.byte	0xe9
 2264 06a3 89060000 		.4byte	0x689
 2265 06a7 16       		.uleb128 0x16
 2266 06a8 E7090000 		.4byte	.LASF173
 2267 06ac 06       		.byte	0x6
 2268 06ad EC       		.byte	0xec
 2269 06ae 77000000 		.4byte	0x77
 2270 06b2 00       		.byte	0
 2271 06b3 12       		.uleb128 0x12
 2272 06b4 20120000 		.4byte	.LASF174
 2273 06b8 06       		.byte	0x6
 2274 06b9 EE       		.byte	0xee
 2275 06ba 94060000 		.4byte	0x694
 2276 06be 13       		.uleb128 0x13
 2277 06bf 14       		.byte	0x14
 2278 06c0 06       		.byte	0x6
 2279 06c1 F1       		.byte	0xf1
 2280 06c2 06070000 		.4byte	0x706
 2281 06c6 14       		.uleb128 0x14
 2282 06c7 EB040000 		.4byte	.LASF175
 2283 06cb 06       		.byte	0x6
 2284 06cc F4       		.byte	0xf4
 2285 06cd 77000000 		.4byte	0x77
 2286 06d1 00       		.byte	0
 2287 06d2 14       		.uleb128 0x14
 2288 06d3 72030000 		.4byte	.LASF176
 2289 06d7 06       		.byte	0x6
 2290 06d8 FA       		.byte	0xfa
 2291 06d9 77000000 		.4byte	0x77
 2292 06dd 02       		.byte	0x2
 2293 06de 0E       		.uleb128 0xe
 2294 06df 32010000 		.4byte	.LASF177
 2295 06e3 06       		.byte	0x6
 2296 06e4 0501     		.2byte	0x105
 2297 06e6 83000000 		.4byte	0x83
 2298 06ea 04       		.byte	0x4
 2299 06eb 0E       		.uleb128 0xe
 2300 06ec 400D0000 		.4byte	.LASF178
 2301 06f0 06       		.byte	0x6
 2302 06f1 0801     		.2byte	0x108
 2303 06f3 77000000 		.4byte	0x77
 2304 06f7 08       		.byte	0x8
ARM GAS  C:\Users\Lucia\AppData\Local\Temp\cc0KspdR.s 			page 67


 2305 06f8 0E       		.uleb128 0xe
 2306 06f9 EA100000 		.4byte	.LASF179
 2307 06fd 06       		.byte	0x6
 2308 06fe 1101     		.2byte	0x111
 2309 0700 B3060000 		.4byte	0x6b3
 2310 0704 0C       		.byte	0xc
 2311 0705 00       		.byte	0
 2312 0706 04       		.uleb128 0x4
 2313 0707 CD060000 		.4byte	.LASF180
 2314 070b 06       		.byte	0x6
 2315 070c 1201     		.2byte	0x112
 2316 070e BE060000 		.4byte	0x6be
 2317 0712 04       		.uleb128 0x4
 2318 0713 42010000 		.4byte	.LASF181
 2319 0717 07       		.byte	0x7
 2320 0718 0502     		.2byte	0x205
 2321 071a C5000000 		.4byte	0xc5
 2322 071e 11       		.uleb128 0x11
 2323 071f 01       		.byte	0x1
 2324 0720 2C000000 		.4byte	0x2c
 2325 0724 08       		.byte	0x8
 2326 0725 22       		.byte	0x22
 2327 0726 67070000 		.4byte	0x767
 2328 072a 0B       		.uleb128 0xb
 2329 072b 4A100000 		.4byte	.LASF182
 2330 072f 00       		.byte	0
 2331 0730 0B       		.uleb128 0xb
 2332 0731 B6060000 		.4byte	.LASF183
 2333 0735 01       		.byte	0x1
 2334 0736 0B       		.uleb128 0xb
 2335 0737 F4090000 		.4byte	.LASF184
 2336 073b 02       		.byte	0x2
 2337 073c 0B       		.uleb128 0xb
 2338 073d 24030000 		.4byte	.LASF185
 2339 0741 03       		.byte	0x3
 2340 0742 0B       		.uleb128 0xb
 2341 0743 53010000 		.4byte	.LASF186
 2342 0747 04       		.byte	0x4
 2343 0748 0B       		.uleb128 0xb
 2344 0749 77060000 		.4byte	.LASF187
 2345 074d 05       		.byte	0x5
 2346 074e 0B       		.uleb128 0xb
 2347 074f FA060000 		.4byte	.LASF188
 2348 0753 06       		.byte	0x6
 2349 0754 0B       		.uleb128 0xb
 2350 0755 4D0D0000 		.4byte	.LASF189
 2351 0759 07       		.byte	0x7
 2352 075a 0B       		.uleb128 0xb
 2353 075b 150B0000 		.4byte	.LASF190
 2354 075f 08       		.byte	0x8
 2355 0760 0B       		.uleb128 0xb
 2356 0761 0C000000 		.4byte	.LASF191
 2357 0765 09       		.byte	0x9
 2358 0766 00       		.byte	0
 2359 0767 11       		.uleb128 0x11
 2360 0768 01       		.byte	0x1
 2361 0769 2C000000 		.4byte	0x2c
ARM GAS  C:\Users\Lucia\AppData\Local\Temp\cc0KspdR.s 			page 68


 2362 076d 09       		.byte	0x9
 2363 076e 28       		.byte	0x28
 2364 076f 8C070000 		.4byte	0x78c
 2365 0773 0B       		.uleb128 0xb
 2366 0774 07100000 		.4byte	.LASF192
 2367 0778 00       		.byte	0
 2368 0779 0B       		.uleb128 0xb
 2369 077a F90A0000 		.4byte	.LASF193
 2370 077e 01       		.byte	0x1
 2371 077f 0B       		.uleb128 0xb
 2372 0780 A80D0000 		.4byte	.LASF194
 2373 0784 02       		.byte	0x2
 2374 0785 0B       		.uleb128 0xb
 2375 0786 51130000 		.4byte	.LASF195
 2376 078a 03       		.byte	0x3
 2377 078b 00       		.byte	0
 2378 078c 0A       		.uleb128 0xa
 2379 078d 01       		.byte	0x1
 2380 078e 2C000000 		.4byte	0x2c
 2381 0792 0A       		.byte	0xa
 2382 0793 5008     		.2byte	0x850
 2383 0795 B8070000 		.4byte	0x7b8
 2384 0799 0B       		.uleb128 0xb
 2385 079a 61040000 		.4byte	.LASF196
 2386 079e 00       		.byte	0
 2387 079f 0B       		.uleb128 0xb
 2388 07a0 620A0000 		.4byte	.LASF197
 2389 07a4 01       		.byte	0x1
 2390 07a5 0B       		.uleb128 0xb
 2391 07a6 03160000 		.4byte	.LASF198
 2392 07aa 02       		.byte	0x2
 2393 07ab 0B       		.uleb128 0xb
 2394 07ac F0010000 		.4byte	.LASF199
 2395 07b0 03       		.byte	0x3
 2396 07b1 0B       		.uleb128 0xb
 2397 07b2 07120000 		.4byte	.LASF200
 2398 07b6 04       		.byte	0x4
 2399 07b7 00       		.byte	0
 2400 07b8 04       		.uleb128 0x4
 2401 07b9 80130000 		.4byte	.LASF201
 2402 07bd 0A       		.byte	0xa
 2403 07be 5E08     		.2byte	0x85e
 2404 07c0 8C070000 		.4byte	0x78c
 2405 07c4 0D       		.uleb128 0xd
 2406 07c5 0C       		.byte	0xc
 2407 07c6 0A       		.byte	0xa
 2408 07c7 9909     		.2byte	0x999
 2409 07c9 1C080000 		.4byte	0x81c
 2410 07cd 0E       		.uleb128 0xe
 2411 07ce D0150000 		.4byte	.LASF202
 2412 07d2 0A       		.byte	0xa
 2413 07d3 9C09     		.2byte	0x99c
 2414 07d5 2A060000 		.4byte	0x62a
 2415 07d9 00       		.byte	0
 2416 07da 0E       		.uleb128 0xe
 2417 07db EC0B0000 		.4byte	.LASF203
 2418 07df 0A       		.byte	0xa
ARM GAS  C:\Users\Lucia\AppData\Local\Temp\cc0KspdR.s 			page 69


 2419 07e0 9E09     		.2byte	0x99e
 2420 07e2 2A060000 		.4byte	0x62a
 2421 07e6 02       		.byte	0x2
 2422 07e7 0E       		.uleb128 0xe
 2423 07e8 B70F0000 		.4byte	.LASF204
 2424 07ec 0A       		.byte	0xa
 2425 07ed A009     		.2byte	0x9a0
 2426 07ef 2A060000 		.4byte	0x62a
 2427 07f3 04       		.byte	0x4
 2428 07f4 0E       		.uleb128 0xe
 2429 07f5 590E0000 		.4byte	.LASF205
 2430 07f9 0A       		.byte	0xa
 2431 07fa A309     		.2byte	0x9a3
 2432 07fc 2A060000 		.4byte	0x62a
 2433 0800 06       		.byte	0x6
 2434 0801 0E       		.uleb128 0xe
 2435 0802 7D140000 		.4byte	.LASF206
 2436 0806 0A       		.byte	0xa
 2437 0807 A509     		.2byte	0x9a5
 2438 0809 2A060000 		.4byte	0x62a
 2439 080d 08       		.byte	0x8
 2440 080e 0E       		.uleb128 0xe
 2441 080f C0030000 		.4byte	.LASF207
 2442 0813 0A       		.byte	0xa
 2443 0814 A709     		.2byte	0x9a7
 2444 0816 2A060000 		.4byte	0x62a
 2445 081a 0A       		.byte	0xa
 2446 081b 00       		.byte	0
 2447 081c 04       		.uleb128 0x4
 2448 081d 1E110000 		.4byte	.LASF208
 2449 0821 0A       		.byte	0xa
 2450 0822 A809     		.2byte	0x9a8
 2451 0824 C4070000 		.4byte	0x7c4
 2452 0828 17       		.uleb128 0x17
 2453 0829 6C060000 		.4byte	.LASF209
 2454 082d 01       		.byte	0x1
 2455 082e 98       		.byte	0x98
 2456 082f 00000000 		.4byte	.LFB2
 2457 0833 2C000000 		.4byte	.LFE2-.LFB2
 2458 0837 01       		.uleb128 0x1
 2459 0838 9C       		.byte	0x9c
 2460 0839 17       		.uleb128 0x17
 2461 083a 94020000 		.4byte	.LASF210
 2462 083e 01       		.byte	0x1
 2463 083f C9       		.byte	0xc9
 2464 0840 00000000 		.4byte	.LFB3
 2465 0844 12000000 		.4byte	.LFE3-.LFB3
 2466 0848 01       		.uleb128 0x1
 2467 0849 9C       		.byte	0x9c
 2468 084a 18       		.uleb128 0x18
 2469 084b C5110000 		.4byte	.LASF218
 2470 084f 01       		.byte	0x1
 2471 0850 9701     		.2byte	0x197
 2472 0852 72030000 		.4byte	0x372
 2473 0856 00000000 		.4byte	.LFB4
 2474 085a 28010000 		.4byte	.LFE4-.LFB4
 2475 085e 01       		.uleb128 0x1
ARM GAS  C:\Users\Lucia\AppData\Local\Temp\cc0KspdR.s 			page 70


 2476 085f 9C       		.byte	0x9c
 2477 0860 DA080000 		.4byte	0x8da
 2478 0864 19       		.uleb128 0x19
 2479 0865 A2010000 		.4byte	.LASF220
 2480 0869 01       		.byte	0x1
 2481 086a 9701     		.2byte	0x197
 2482 086c 12070000 		.4byte	0x712
 2483 0870 03       		.uleb128 0x3
 2484 0871 91       		.byte	0x91
 2485 0872 B47F     		.sleb128 -76
 2486 0874 1A       		.uleb128 0x1a
 2487 0875 53000000 		.4byte	.LASF211
 2488 0879 01       		.byte	0x1
 2489 087a 9901     		.2byte	0x199
 2490 087c 72030000 		.4byte	0x372
 2491 0880 02       		.uleb128 0x2
 2492 0881 91       		.byte	0x91
 2493 0882 6E       		.sleb128 -18
 2494 0883 1A       		.uleb128 0x1a
 2495 0884 48070000 		.4byte	.LASF212
 2496 0888 01       		.byte	0x1
 2497 0889 9D01     		.2byte	0x19d
 2498 088b DA080000 		.4byte	0x8da
 2499 088f 02       		.uleb128 0x2
 2500 0890 91       		.byte	0x91
 2501 0891 58       		.sleb128 -40
 2502 0892 1B       		.uleb128 0x1b
 2503 0893 4A000000 		.4byte	.LBB2
 2504 0897 54000000 		.4byte	.LBE2-.LBB2
 2505 089b 1A       		.uleb128 0x1a
 2506 089c DD110000 		.4byte	.LASF213
 2507 08a0 01       		.byte	0x1
 2508 08a1 BF01     		.2byte	0x1bf
 2509 08a3 1F040000 		.4byte	0x41f
 2510 08a7 02       		.uleb128 0x2
 2511 08a8 91       		.byte	0x91
 2512 08a9 50       		.sleb128 -48
 2513 08aa 1A       		.uleb128 0x1a
 2514 08ab 2C0F0000 		.4byte	.LASF214
 2515 08af 01       		.byte	0x1
 2516 08b0 C001     		.2byte	0x1c0
 2517 08b2 42040000 		.4byte	0x442
 2518 08b6 02       		.uleb128 0x2
 2519 08b7 91       		.byte	0x91
 2520 08b8 4C       		.sleb128 -52
 2521 08b9 1A       		.uleb128 0x1a
 2522 08ba E2020000 		.4byte	.LASF215
 2523 08be 01       		.byte	0x1
 2524 08bf C101     		.2byte	0x1c1
 2525 08c1 8B040000 		.4byte	0x48b
 2526 08c5 02       		.uleb128 0x2
 2527 08c6 91       		.byte	0x91
 2528 08c7 40       		.sleb128 -64
 2529 08c8 1A       		.uleb128 0x1a
 2530 08c9 5C070000 		.4byte	.LASF216
 2531 08cd 01       		.byte	0x1
 2532 08ce C201     		.2byte	0x1c2
ARM GAS  C:\Users\Lucia\AppData\Local\Temp\cc0KspdR.s 			page 71


 2533 08d0 77000000 		.4byte	0x77
 2534 08d4 03       		.uleb128 0x3
 2535 08d5 91       		.byte	0x91
 2536 08d6 BE7F     		.sleb128 -66
 2537 08d8 00       		.byte	0
 2538 08d9 00       		.byte	0
 2539 08da 0F       		.uleb128 0xf
 2540 08db E2030000 		.4byte	0x3e2
 2541 08df EA080000 		.4byte	0x8ea
 2542 08e3 10       		.uleb128 0x10
 2543 08e4 BC000000 		.4byte	0xbc
 2544 08e8 04       		.byte	0x4
 2545 08e9 00       		.byte	0
 2546 08ea 1C       		.uleb128 0x1c
 2547 08eb 9C0A0000 		.4byte	.LASF217
 2548 08ef 01       		.byte	0x1
 2549 08f0 1C02     		.2byte	0x21c
 2550 08f2 00000000 		.4byte	.LFB5
 2551 08f6 18000000 		.4byte	.LFE5-.LFB5
 2552 08fa 01       		.uleb128 0x1
 2553 08fb 9C       		.byte	0x9c
 2554 08fc 18       		.uleb128 0x18
 2555 08fd F5040000 		.4byte	.LASF219
 2556 0901 01       		.byte	0x1
 2557 0902 1603     		.2byte	0x316
 2558 0904 72030000 		.4byte	0x372
 2559 0908 00000000 		.4byte	.LFB6
 2560 090c D4000000 		.4byte	.LFE6-.LFB6
 2561 0910 01       		.uleb128 0x1
 2562 0911 9C       		.byte	0x9c
 2563 0912 35090000 		.4byte	0x935
 2564 0916 19       		.uleb128 0x19
 2565 0917 A6020000 		.4byte	.LASF221
 2566 091b 01       		.byte	0x1
 2567 091c 1603     		.2byte	0x316
 2568 091e 6B000000 		.4byte	0x6b
 2569 0922 02       		.uleb128 0x2
 2570 0923 91       		.byte	0x91
 2571 0924 67       		.sleb128 -25
 2572 0925 1A       		.uleb128 0x1a
 2573 0926 53000000 		.4byte	.LASF211
 2574 092a 01       		.byte	0x1
 2575 092b 1803     		.2byte	0x318
 2576 092d 72030000 		.4byte	0x372
 2577 0931 02       		.uleb128 0x2
 2578 0932 91       		.byte	0x91
 2579 0933 6E       		.sleb128 -18
 2580 0934 00       		.byte	0
 2581 0935 1C       		.uleb128 0x1c
 2582 0936 DE060000 		.4byte	.LASF222
 2583 093a 01       		.byte	0x1
 2584 093b 5303     		.2byte	0x353
 2585 093d 00000000 		.4byte	.LFB7
 2586 0941 24000000 		.4byte	.LFE7-.LFB7
 2587 0945 01       		.uleb128 0x1
 2588 0946 9C       		.byte	0x9c
 2589 0947 1D       		.uleb128 0x1d
ARM GAS  C:\Users\Lucia\AppData\Local\Temp\cc0KspdR.s 			page 72


 2590 0948 460A0000 		.4byte	.LASF234
 2591 094c 01       		.byte	0x1
 2592 094d 6903     		.2byte	0x369
 2593 094f 00000000 		.4byte	.LFB8
 2594 0953 62000000 		.4byte	.LFE8-.LFB8
 2595 0957 01       		.uleb128 0x1
 2596 0958 9C       		.byte	0x9c
 2597 0959 98090000 		.4byte	0x998
 2598 095d 19       		.uleb128 0x19
 2599 095e 9D140000 		.4byte	.LASF124
 2600 0962 01       		.byte	0x1
 2601 0963 6903     		.2byte	0x369
 2602 0965 98090000 		.4byte	0x998
 2603 0969 02       		.uleb128 0x2
 2604 096a 91       		.byte	0x91
 2605 096b 6C       		.sleb128 -20
 2606 096c 19       		.uleb128 0x19
 2607 096d 65110000 		.4byte	.LASF223
 2608 0971 01       		.byte	0x1
 2609 0972 6903     		.2byte	0x369
 2610 0974 6B000000 		.4byte	0x6b
 2611 0978 02       		.uleb128 0x2
 2612 0979 91       		.byte	0x91
 2613 097a 6B       		.sleb128 -21
 2614 097b 1E       		.uleb128 0x1e
 2615 097c 6900     		.ascii	"i\000"
 2616 097e 01       		.byte	0x1
 2617 097f 6B03     		.2byte	0x36b
 2618 0981 6B000000 		.4byte	0x6b
 2619 0985 02       		.uleb128 0x2
 2620 0986 91       		.byte	0x91
 2621 0987 77       		.sleb128 -9
 2622 0988 1A       		.uleb128 0x1a
 2623 0989 13140000 		.4byte	.LASF224
 2624 098d 01       		.byte	0x1
 2625 098e 6C03     		.2byte	0x36c
 2626 0990 97040000 		.4byte	0x497
 2627 0994 02       		.uleb128 0x2
 2628 0995 91       		.byte	0x91
 2629 0996 70       		.sleb128 -16
 2630 0997 00       		.byte	0
 2631 0998 07       		.uleb128 0x7
 2632 0999 04       		.byte	0x4
 2633 099a 9E090000 		.4byte	0x99e
 2634 099e 1F       		.uleb128 0x1f
 2635 099f B2030000 		.4byte	0x3b2
 2636 09a3 20       		.uleb128 0x20
 2637 09a4 97000000 		.4byte	.LASF255
 2638 09a8 01       		.byte	0x1
 2639 09a9 A804     		.2byte	0x4a8
 2640 09ab 00000000 		.4byte	.LFB9
 2641 09af A8010000 		.4byte	.LFE9-.LFB9
 2642 09b3 01       		.uleb128 0x1
 2643 09b4 9C       		.byte	0x9c
 2644 09b5 300A0000 		.4byte	0xa30
 2645 09b9 19       		.uleb128 0x19
 2646 09ba A8120000 		.4byte	.LASF225
ARM GAS  C:\Users\Lucia\AppData\Local\Temp\cc0KspdR.s 			page 73


 2647 09be 01       		.byte	0x1
 2648 09bf A804     		.2byte	0x4a8
 2649 09c1 300A0000 		.4byte	0xa30
 2650 09c5 02       		.uleb128 0x2
 2651 09c6 91       		.byte	0x91
 2652 09c7 64       		.sleb128 -28
 2653 09c8 19       		.uleb128 0x19
 2654 09c9 65110000 		.4byte	.LASF223
 2655 09cd 01       		.byte	0x1
 2656 09ce A804     		.2byte	0x4a8
 2657 09d0 6B000000 		.4byte	0x6b
 2658 09d4 02       		.uleb128 0x2
 2659 09d5 91       		.byte	0x91
 2660 09d6 63       		.sleb128 -29
 2661 09d7 1E       		.uleb128 0x1e
 2662 09d8 6900     		.ascii	"i\000"
 2663 09da 01       		.byte	0x1
 2664 09db AA04     		.2byte	0x4aa
 2665 09dd 6B000000 		.4byte	0x6b
 2666 09e1 02       		.uleb128 0x2
 2667 09e2 91       		.byte	0x91
 2668 09e3 77       		.sleb128 -9
 2669 09e4 1A       		.uleb128 0x1a
 2670 09e5 650D0000 		.4byte	.LASF226
 2671 09e9 01       		.byte	0x1
 2672 09ea AB04     		.2byte	0x4ab
 2673 09ec 6B000000 		.4byte	0x6b
 2674 09f0 02       		.uleb128 0x2
 2675 09f1 91       		.byte	0x91
 2676 09f2 76       		.sleb128 -10
 2677 09f3 1A       		.uleb128 0x1a
 2678 09f4 14170000 		.4byte	.LASF227
 2679 09f8 01       		.byte	0x1
 2680 09f9 AC04     		.2byte	0x4ac
 2681 09fb 6B000000 		.4byte	0x6b
 2682 09ff 02       		.uleb128 0x2
 2683 0a00 91       		.byte	0x91
 2684 0a01 75       		.sleb128 -11
 2685 0a02 1A       		.uleb128 0x1a
 2686 0a03 E0140000 		.4byte	.LASF228
 2687 0a07 01       		.byte	0x1
 2688 0a08 AD04     		.2byte	0x4ad
 2689 0a0a 6B000000 		.4byte	0x6b
 2690 0a0e 02       		.uleb128 0x2
 2691 0a0f 91       		.byte	0x91
 2692 0a10 74       		.sleb128 -12
 2693 0a11 1A       		.uleb128 0x1a
 2694 0a12 13140000 		.4byte	.LASF224
 2695 0a16 01       		.byte	0x1
 2696 0a17 AE04     		.2byte	0x4ae
 2697 0a19 97040000 		.4byte	0x497
 2698 0a1d 02       		.uleb128 0x2
 2699 0a1e 91       		.byte	0x91
 2700 0a1f 70       		.sleb128 -16
 2701 0a20 1A       		.uleb128 0x1a
 2702 0a21 D5080000 		.4byte	.LASF229
 2703 0a25 01       		.byte	0x1
ARM GAS  C:\Users\Lucia\AppData\Local\Temp\cc0KspdR.s 			page 74


 2704 0a26 AF04     		.2byte	0x4af
 2705 0a28 6B000000 		.4byte	0x6b
 2706 0a2c 02       		.uleb128 0x2
 2707 0a2d 91       		.byte	0x91
 2708 0a2e 6F       		.sleb128 -17
 2709 0a2f 00       		.byte	0
 2710 0a30 07       		.uleb128 0x7
 2711 0a31 04       		.byte	0x4
 2712 0a32 360A0000 		.4byte	0xa36
 2713 0a36 1F       		.uleb128 0x1f
 2714 0a37 9D000000 		.4byte	0x9d
 2715 0a3b 18       		.uleb128 0x18
 2716 0a3c EF120000 		.4byte	.LASF230
 2717 0a40 01       		.byte	0x1
 2718 0a41 0D05     		.2byte	0x50d
 2719 0a43 72030000 		.4byte	0x372
 2720 0a47 00000000 		.4byte	.LFB10
 2721 0a4b F0000000 		.4byte	.LFE10-.LFB10
 2722 0a4f 01       		.uleb128 0x1
 2723 0a50 9C       		.byte	0x9c
 2724 0a51 9F0A0000 		.4byte	0xa9f
 2725 0a55 19       		.uleb128 0x19
 2726 0a56 A8120000 		.4byte	.LASF225
 2727 0a5a 01       		.byte	0x1
 2728 0a5b 0D05     		.2byte	0x50d
 2729 0a5d 300A0000 		.4byte	0xa30
 2730 0a61 02       		.uleb128 0x2
 2731 0a62 91       		.byte	0x91
 2732 0a63 64       		.sleb128 -28
 2733 0a64 1A       		.uleb128 0x1a
 2734 0a65 53000000 		.4byte	.LASF211
 2735 0a69 01       		.byte	0x1
 2736 0a6a 0F05     		.2byte	0x50f
 2737 0a6c 72030000 		.4byte	0x372
 2738 0a70 02       		.uleb128 0x2
 2739 0a71 91       		.byte	0x91
 2740 0a72 76       		.sleb128 -10
 2741 0a73 1E       		.uleb128 0x1e
 2742 0a74 6900     		.ascii	"i\000"
 2743 0a76 01       		.byte	0x1
 2744 0a77 1005     		.2byte	0x510
 2745 0a79 6B000000 		.4byte	0x6b
 2746 0a7d 02       		.uleb128 0x2
 2747 0a7e 91       		.byte	0x91
 2748 0a7f 75       		.sleb128 -11
 2749 0a80 1E       		.uleb128 0x1e
 2750 0a81 70747200 		.ascii	"ptr\000"
 2751 0a85 01       		.byte	0x1
 2752 0a86 1105     		.2byte	0x511
 2753 0a88 9F0A0000 		.4byte	0xa9f
 2754 0a8c 02       		.uleb128 0x2
 2755 0a8d 91       		.byte	0x91
 2756 0a8e 70       		.sleb128 -16
 2757 0a8f 1A       		.uleb128 0x1a
 2758 0a90 A00D0000 		.4byte	.LASF231
 2759 0a94 01       		.byte	0x1
 2760 0a95 1205     		.2byte	0x512
ARM GAS  C:\Users\Lucia\AppData\Local\Temp\cc0KspdR.s 			page 75


 2761 0a97 6B000000 		.4byte	0x6b
 2762 0a9b 02       		.uleb128 0x2
 2763 0a9c 91       		.byte	0x91
 2764 0a9d 6F       		.sleb128 -17
 2765 0a9e 00       		.byte	0
 2766 0a9f 07       		.uleb128 0x7
 2767 0aa0 04       		.byte	0x4
 2768 0aa1 9D000000 		.4byte	0x9d
 2769 0aa5 21       		.uleb128 0x21
 2770 0aa6 DB050000 		.4byte	.LASF232
 2771 0aaa 01       		.byte	0x1
 2772 0aab 5505     		.2byte	0x555
 2773 0aad 72030000 		.4byte	0x372
 2774 0ab1 00000000 		.4byte	.LFB11
 2775 0ab5 CC000000 		.4byte	.LFE11-.LFB11
 2776 0ab9 01       		.uleb128 0x1
 2777 0aba 9C       		.byte	0x9c
 2778 0abb 090B0000 		.4byte	0xb09
 2779 0abf 19       		.uleb128 0x19
 2780 0ac0 A8120000 		.4byte	.LASF225
 2781 0ac4 01       		.byte	0x1
 2782 0ac5 5505     		.2byte	0x555
 2783 0ac7 9F0A0000 		.4byte	0xa9f
 2784 0acb 02       		.uleb128 0x2
 2785 0acc 91       		.byte	0x91
 2786 0acd 64       		.sleb128 -28
 2787 0ace 1A       		.uleb128 0x1a
 2788 0acf 53000000 		.4byte	.LASF211
 2789 0ad3 01       		.byte	0x1
 2790 0ad4 5705     		.2byte	0x557
 2791 0ad6 72030000 		.4byte	0x372
 2792 0ada 02       		.uleb128 0x2
 2793 0adb 91       		.byte	0x91
 2794 0adc 76       		.sleb128 -10
 2795 0add 1A       		.uleb128 0x1a
 2796 0ade A00D0000 		.4byte	.LASF231
 2797 0ae2 01       		.byte	0x1
 2798 0ae3 5805     		.2byte	0x558
 2799 0ae5 6B000000 		.4byte	0x6b
 2800 0ae9 02       		.uleb128 0x2
 2801 0aea 91       		.byte	0x91
 2802 0aeb 6F       		.sleb128 -17
 2803 0aec 1E       		.uleb128 0x1e
 2804 0aed 6900     		.ascii	"i\000"
 2805 0aef 01       		.byte	0x1
 2806 0af0 5905     		.2byte	0x559
 2807 0af2 6B000000 		.4byte	0x6b
 2808 0af6 02       		.uleb128 0x2
 2809 0af7 91       		.byte	0x91
 2810 0af8 75       		.sleb128 -11
 2811 0af9 1E       		.uleb128 0x1e
 2812 0afa 70747200 		.ascii	"ptr\000"
 2813 0afe 01       		.byte	0x1
 2814 0aff 5A05     		.2byte	0x55a
 2815 0b01 9F0A0000 		.4byte	0xa9f
 2816 0b05 02       		.uleb128 0x2
 2817 0b06 91       		.byte	0x91
ARM GAS  C:\Users\Lucia\AppData\Local\Temp\cc0KspdR.s 			page 76


 2818 0b07 70       		.sleb128 -16
 2819 0b08 00       		.byte	0
 2820 0b09 21       		.uleb128 0x21
 2821 0b0a A60F0000 		.4byte	.LASF233
 2822 0b0e 01       		.byte	0x1
 2823 0b0f 8705     		.2byte	0x587
 2824 0b11 77000000 		.4byte	0x77
 2825 0b15 00000000 		.4byte	.LFB12
 2826 0b19 26000000 		.4byte	.LFE12-.LFB12
 2827 0b1d 01       		.uleb128 0x1
 2828 0b1e 9C       		.byte	0x9c
 2829 0b1f 330B0000 		.4byte	0xb33
 2830 0b23 22       		.uleb128 0x22
 2831 0b24 70747200 		.ascii	"ptr\000"
 2832 0b28 01       		.byte	0x1
 2833 0b29 8705     		.2byte	0x587
 2834 0b2b 330B0000 		.4byte	0xb33
 2835 0b2f 02       		.uleb128 0x2
 2836 0b30 91       		.byte	0x91
 2837 0b31 74       		.sleb128 -12
 2838 0b32 00       		.byte	0
 2839 0b33 07       		.uleb128 0x7
 2840 0b34 04       		.byte	0x4
 2841 0b35 390B0000 		.4byte	0xb39
 2842 0b39 1F       		.uleb128 0x1f
 2843 0b3a 6B000000 		.4byte	0x6b
 2844 0b3e 1D       		.uleb128 0x1d
 2845 0b3f 6A0D0000 		.4byte	.LASF235
 2846 0b43 01       		.byte	0x1
 2847 0b44 9A05     		.2byte	0x59a
 2848 0b46 00000000 		.4byte	.LFB13
 2849 0b4a 30000000 		.4byte	.LFE13-.LFB13
 2850 0b4e 01       		.uleb128 0x1
 2851 0b4f 9C       		.byte	0x9c
 2852 0b50 730B0000 		.4byte	0xb73
 2853 0b54 22       		.uleb128 0x22
 2854 0b55 70747200 		.ascii	"ptr\000"
 2855 0b59 01       		.byte	0x1
 2856 0b5a 9A05     		.2byte	0x59a
 2857 0b5c 97040000 		.4byte	0x497
 2858 0b60 02       		.uleb128 0x2
 2859 0b61 91       		.byte	0x91
 2860 0b62 74       		.sleb128 -12
 2861 0b63 19       		.uleb128 0x19
 2862 0b64 E4100000 		.4byte	.LASF236
 2863 0b68 01       		.byte	0x1
 2864 0b69 9A05     		.2byte	0x59a
 2865 0b6b 77000000 		.4byte	0x77
 2866 0b6f 02       		.uleb128 0x2
 2867 0b70 91       		.byte	0x91
 2868 0b71 72       		.sleb128 -14
 2869 0b72 00       		.byte	0
 2870 0b73 23       		.uleb128 0x23
 2871 0b74 F3100000 		.4byte	.LASF237
 2872 0b78 01       		.byte	0x1
 2873 0b79 89       		.byte	0x89
 2874 0b7a 12070000 		.4byte	0x712
ARM GAS  C:\Users\Lucia\AppData\Local\Temp\cc0KspdR.s 			page 77


 2875 0b7e 05       		.uleb128 0x5
 2876 0b7f 03       		.byte	0x3
 2877 0b80 00000000 		.4byte	CyBle_ApplCallback
 2878 0b84 23       		.uleb128 0x23
 2879 0b85 B3120000 		.4byte	.LASF238
 2880 0b89 01       		.byte	0x1
 2881 0b8a 2B       		.byte	0x2b
 2882 0b8b 6B000000 		.4byte	0x6b
 2883 0b8f 05       		.uleb128 0x5
 2884 0b90 03       		.byte	0x3
 2885 0b91 00000000 		.4byte	cyBle_initVar
 2886 0b95 0F       		.uleb128 0xf
 2887 0b96 6B000000 		.4byte	0x6b
 2888 0b9a A60B0000 		.4byte	0xba6
 2889 0b9e 24       		.uleb128 0x24
 2890 0b9f BC000000 		.4byte	0xbc
 2891 0ba3 DF0A     		.2byte	0xadf
 2892 0ba5 00       		.byte	0
 2893 0ba6 23       		.uleb128 0x23
 2894 0ba7 4B140000 		.4byte	.LASF239
 2895 0bab 01       		.byte	0x1
 2896 0bac 36       		.byte	0x36
 2897 0bad 950B0000 		.4byte	0xb95
 2898 0bb1 05       		.uleb128 0x5
 2899 0bb2 03       		.byte	0x3
 2900 0bb3 00000000 		.4byte	cyBle_stackMemoryRam
 2901 0bb7 25       		.uleb128 0x25
 2902 0bb8 AF140000 		.4byte	.LASF240
 2903 0bbc 07       		.byte	0x7
 2904 0bbd A502     		.2byte	0x2a5
 2905 0bbf B0000000 		.4byte	0xb0
 2906 0bc3 23       		.uleb128 0x23
 2907 0bc4 3B030000 		.4byte	.LASF241
 2908 0bc8 01       		.byte	0x1
 2909 0bc9 8A       		.byte	0x8a
 2910 0bca B2030000 		.4byte	0x3b2
 2911 0bce 05       		.uleb128 0x5
 2912 0bcf 03       		.byte	0x3
 2913 0bd0 00000000 		.4byte	cyBle_deviceAddress
 2914 0bd4 23       		.uleb128 0x23
 2915 0bd5 BB070000 		.4byte	.LASF242
 2916 0bd9 01       		.byte	0x1
 2917 0bda 8B       		.byte	0x8b
 2918 0bdb E50B0000 		.4byte	0xbe5
 2919 0bdf 05       		.uleb128 0x5
 2920 0be0 03       		.byte	0x3
 2921 0be1 00000000 		.4byte	cyBle_sflashDeviceAddress
 2922 0be5 07       		.uleb128 0x7
 2923 0be6 04       		.byte	0x4
 2924 0be7 B2030000 		.4byte	0x3b2
 2925 0beb 23       		.uleb128 0x23
 2926 0bec 260B0000 		.4byte	.LASF243
 2927 0bf0 01       		.byte	0x1
 2928 0bf1 3C       		.byte	0x3c
 2929 0bf2 45050000 		.4byte	0x545
 2930 0bf6 05       		.uleb128 0x5
 2931 0bf7 03       		.byte	0x3
ARM GAS  C:\Users\Lucia\AppData\Local\Temp\cc0KspdR.s 			page 78


 2932 0bf8 00000000 		.4byte	cyBle_discoveryParam
 2933 0bfc 23       		.uleb128 0x23
 2934 0bfd BC150000 		.4byte	.LASF244
 2935 0c01 01       		.byte	0x1
 2936 0c02 48       		.byte	0x48
 2937 0c03 85050000 		.4byte	0x585
 2938 0c07 05       		.uleb128 0x5
 2939 0c08 03       		.byte	0x3
 2940 0c09 00000000 		.4byte	cyBle_discoveryData
 2941 0c0d 23       		.uleb128 0x23
 2942 0c0e E5070000 		.4byte	.LASF245
 2943 0c12 01       		.byte	0x1
 2944 0c13 51       		.byte	0x51
 2945 0c14 B5050000 		.4byte	0x5b5
 2946 0c18 05       		.uleb128 0x5
 2947 0c19 03       		.byte	0x3
 2948 0c1a 00000000 		.4byte	cyBle_scanRspData
 2949 0c1e 23       		.uleb128 0x23
 2950 0c1f 1E140000 		.4byte	.LASF246
 2951 0c23 01       		.byte	0x1
 2952 0c24 61       		.byte	0x61
 2953 0c25 1E060000 		.4byte	0x61e
 2954 0c29 05       		.uleb128 0x5
 2955 0c2a 03       		.byte	0x3
 2956 0c2b 00000000 		.4byte	cyBle_discoveryModeInfo
 2957 0c2f 0F       		.uleb128 0xf
 2958 0c30 3F0C0000 		.4byte	0xc3f
 2959 0c34 3F0C0000 		.4byte	0xc3f
 2960 0c38 10       		.uleb128 0x10
 2961 0c39 BC000000 		.4byte	0xbc
 2962 0c3d 25       		.byte	0x25
 2963 0c3e 00       		.byte	0
 2964 0c3f 1F       		.uleb128 0x1f
 2965 0c40 06070000 		.4byte	0x706
 2966 0c44 26       		.uleb128 0x26
 2967 0c45 790C0000 		.4byte	.LASF247
 2968 0c49 0B       		.byte	0xb
 2969 0c4a EA       		.byte	0xea
 2970 0c4b 4F0C0000 		.4byte	0xc4f
 2971 0c4f 1F       		.uleb128 0x1f
 2972 0c50 2F0C0000 		.4byte	0xc2f
 2973 0c54 25       		.uleb128 0x25
 2974 0c55 D1110000 		.4byte	.LASF248
 2975 0c59 0A       		.byte	0xa
 2976 0c5a A90A     		.2byte	0xaa9
 2977 0c5c B8070000 		.4byte	0x7b8
 2978 0c60 25       		.uleb128 0x25
 2979 0c61 350A0000 		.4byte	.LASF249
 2980 0c65 0A       		.byte	0xa
 2981 0c66 AB0A     		.2byte	0xaab
 2982 0c68 B0000000 		.4byte	0xb0
 2983 0c6c 25       		.uleb128 0x25
 2984 0c6d A4140000 		.4byte	.LASF250
 2985 0c71 0A       		.byte	0xa
 2986 0c72 AC0A     		.2byte	0xaac
 2987 0c74 780C0000 		.4byte	0xc78
 2988 0c78 1F       		.uleb128 0x1f
ARM GAS  C:\Users\Lucia\AppData\Local\Temp\cc0KspdR.s 			page 79


 2989 0c79 1C080000 		.4byte	0x81c
 2990 0c7d 25       		.uleb128 0x25
 2991 0c7e CE0B0000 		.4byte	.LASF251
 2992 0c82 0A       		.byte	0xa
 2993 0c83 AF0A     		.2byte	0xaaf
 2994 0c85 6B000000 		.4byte	0x6b
 2995 0c89 00       		.byte	0
 2996              		.section	.debug_abbrev,"",%progbits
 2997              	.Ldebug_abbrev0:
 2998 0000 01       		.uleb128 0x1
 2999 0001 11       		.uleb128 0x11
 3000 0002 01       		.byte	0x1
 3001 0003 25       		.uleb128 0x25
 3002 0004 0E       		.uleb128 0xe
 3003 0005 13       		.uleb128 0x13
 3004 0006 0B       		.uleb128 0xb
 3005 0007 03       		.uleb128 0x3
 3006 0008 0E       		.uleb128 0xe
 3007 0009 1B       		.uleb128 0x1b
 3008 000a 0E       		.uleb128 0xe
 3009 000b 55       		.uleb128 0x55
 3010 000c 17       		.uleb128 0x17
 3011 000d 11       		.uleb128 0x11
 3012 000e 01       		.uleb128 0x1
 3013 000f 10       		.uleb128 0x10
 3014 0010 17       		.uleb128 0x17
 3015 0011 00       		.byte	0
 3016 0012 00       		.byte	0
 3017 0013 02       		.uleb128 0x2
 3018 0014 24       		.uleb128 0x24
 3019 0015 00       		.byte	0
 3020 0016 0B       		.uleb128 0xb
 3021 0017 0B       		.uleb128 0xb
 3022 0018 3E       		.uleb128 0x3e
 3023 0019 0B       		.uleb128 0xb
 3024 001a 03       		.uleb128 0x3
 3025 001b 0E       		.uleb128 0xe
 3026 001c 00       		.byte	0
 3027 001d 00       		.byte	0
 3028 001e 03       		.uleb128 0x3
 3029 001f 24       		.uleb128 0x24
 3030 0020 00       		.byte	0
 3031 0021 0B       		.uleb128 0xb
 3032 0022 0B       		.uleb128 0xb
 3033 0023 3E       		.uleb128 0x3e
 3034 0024 0B       		.uleb128 0xb
 3035 0025 03       		.uleb128 0x3
 3036 0026 08       		.uleb128 0x8
 3037 0027 00       		.byte	0
 3038 0028 00       		.byte	0
 3039 0029 04       		.uleb128 0x4
 3040 002a 16       		.uleb128 0x16
 3041 002b 00       		.byte	0
 3042 002c 03       		.uleb128 0x3
 3043 002d 0E       		.uleb128 0xe
 3044 002e 3A       		.uleb128 0x3a
 3045 002f 0B       		.uleb128 0xb
ARM GAS  C:\Users\Lucia\AppData\Local\Temp\cc0KspdR.s 			page 80


 3046 0030 3B       		.uleb128 0x3b
 3047 0031 05       		.uleb128 0x5
 3048 0032 49       		.uleb128 0x49
 3049 0033 13       		.uleb128 0x13
 3050 0034 00       		.byte	0
 3051 0035 00       		.byte	0
 3052 0036 05       		.uleb128 0x5
 3053 0037 35       		.uleb128 0x35
 3054 0038 00       		.byte	0
 3055 0039 49       		.uleb128 0x49
 3056 003a 13       		.uleb128 0x13
 3057 003b 00       		.byte	0
 3058 003c 00       		.byte	0
 3059 003d 06       		.uleb128 0x6
 3060 003e 0F       		.uleb128 0xf
 3061 003f 00       		.byte	0
 3062 0040 0B       		.uleb128 0xb
 3063 0041 0B       		.uleb128 0xb
 3064 0042 00       		.byte	0
 3065 0043 00       		.byte	0
 3066 0044 07       		.uleb128 0x7
 3067 0045 0F       		.uleb128 0xf
 3068 0046 00       		.byte	0
 3069 0047 0B       		.uleb128 0xb
 3070 0048 0B       		.uleb128 0xb
 3071 0049 49       		.uleb128 0x49
 3072 004a 13       		.uleb128 0x13
 3073 004b 00       		.byte	0
 3074 004c 00       		.byte	0
 3075 004d 08       		.uleb128 0x8
 3076 004e 15       		.uleb128 0x15
 3077 004f 01       		.byte	0x1
 3078 0050 27       		.uleb128 0x27
 3079 0051 19       		.uleb128 0x19
 3080 0052 01       		.uleb128 0x1
 3081 0053 13       		.uleb128 0x13
 3082 0054 00       		.byte	0
 3083 0055 00       		.byte	0
 3084 0056 09       		.uleb128 0x9
 3085 0057 05       		.uleb128 0x5
 3086 0058 00       		.byte	0
 3087 0059 49       		.uleb128 0x49
 3088 005a 13       		.uleb128 0x13
 3089 005b 00       		.byte	0
 3090 005c 00       		.byte	0
 3091 005d 0A       		.uleb128 0xa
 3092 005e 04       		.uleb128 0x4
 3093 005f 01       		.byte	0x1
 3094 0060 0B       		.uleb128 0xb
 3095 0061 0B       		.uleb128 0xb
 3096 0062 49       		.uleb128 0x49
 3097 0063 13       		.uleb128 0x13
 3098 0064 3A       		.uleb128 0x3a
 3099 0065 0B       		.uleb128 0xb
 3100 0066 3B       		.uleb128 0x3b
 3101 0067 05       		.uleb128 0x5
 3102 0068 01       		.uleb128 0x1
ARM GAS  C:\Users\Lucia\AppData\Local\Temp\cc0KspdR.s 			page 81


 3103 0069 13       		.uleb128 0x13
 3104 006a 00       		.byte	0
 3105 006b 00       		.byte	0
 3106 006c 0B       		.uleb128 0xb
 3107 006d 28       		.uleb128 0x28
 3108 006e 00       		.byte	0
 3109 006f 03       		.uleb128 0x3
 3110 0070 0E       		.uleb128 0xe
 3111 0071 1C       		.uleb128 0x1c
 3112 0072 0B       		.uleb128 0xb
 3113 0073 00       		.byte	0
 3114 0074 00       		.byte	0
 3115 0075 0C       		.uleb128 0xc
 3116 0076 28       		.uleb128 0x28
 3117 0077 00       		.byte	0
 3118 0078 03       		.uleb128 0x3
 3119 0079 0E       		.uleb128 0xe
 3120 007a 1C       		.uleb128 0x1c
 3121 007b 05       		.uleb128 0x5
 3122 007c 00       		.byte	0
 3123 007d 00       		.byte	0
 3124 007e 0D       		.uleb128 0xd
 3125 007f 13       		.uleb128 0x13
 3126 0080 01       		.byte	0x1
 3127 0081 0B       		.uleb128 0xb
 3128 0082 0B       		.uleb128 0xb
 3129 0083 3A       		.uleb128 0x3a
 3130 0084 0B       		.uleb128 0xb
 3131 0085 3B       		.uleb128 0x3b
 3132 0086 05       		.uleb128 0x5
 3133 0087 01       		.uleb128 0x1
 3134 0088 13       		.uleb128 0x13
 3135 0089 00       		.byte	0
 3136 008a 00       		.byte	0
 3137 008b 0E       		.uleb128 0xe
 3138 008c 0D       		.uleb128 0xd
 3139 008d 00       		.byte	0
 3140 008e 03       		.uleb128 0x3
 3141 008f 0E       		.uleb128 0xe
 3142 0090 3A       		.uleb128 0x3a
 3143 0091 0B       		.uleb128 0xb
 3144 0092 3B       		.uleb128 0x3b
 3145 0093 05       		.uleb128 0x5
 3146 0094 49       		.uleb128 0x49
 3147 0095 13       		.uleb128 0x13
 3148 0096 38       		.uleb128 0x38
 3149 0097 0B       		.uleb128 0xb
 3150 0098 00       		.byte	0
 3151 0099 00       		.byte	0
 3152 009a 0F       		.uleb128 0xf
 3153 009b 01       		.uleb128 0x1
 3154 009c 01       		.byte	0x1
 3155 009d 49       		.uleb128 0x49
 3156 009e 13       		.uleb128 0x13
 3157 009f 01       		.uleb128 0x1
 3158 00a0 13       		.uleb128 0x13
 3159 00a1 00       		.byte	0
ARM GAS  C:\Users\Lucia\AppData\Local\Temp\cc0KspdR.s 			page 82


 3160 00a2 00       		.byte	0
 3161 00a3 10       		.uleb128 0x10
 3162 00a4 21       		.uleb128 0x21
 3163 00a5 00       		.byte	0
 3164 00a6 49       		.uleb128 0x49
 3165 00a7 13       		.uleb128 0x13
 3166 00a8 2F       		.uleb128 0x2f
 3167 00a9 0B       		.uleb128 0xb
 3168 00aa 00       		.byte	0
 3169 00ab 00       		.byte	0
 3170 00ac 11       		.uleb128 0x11
 3171 00ad 04       		.uleb128 0x4
 3172 00ae 01       		.byte	0x1
 3173 00af 0B       		.uleb128 0xb
 3174 00b0 0B       		.uleb128 0xb
 3175 00b1 49       		.uleb128 0x49
 3176 00b2 13       		.uleb128 0x13
 3177 00b3 3A       		.uleb128 0x3a
 3178 00b4 0B       		.uleb128 0xb
 3179 00b5 3B       		.uleb128 0x3b
 3180 00b6 0B       		.uleb128 0xb
 3181 00b7 01       		.uleb128 0x1
 3182 00b8 13       		.uleb128 0x13
 3183 00b9 00       		.byte	0
 3184 00ba 00       		.byte	0
 3185 00bb 12       		.uleb128 0x12
 3186 00bc 16       		.uleb128 0x16
 3187 00bd 00       		.byte	0
 3188 00be 03       		.uleb128 0x3
 3189 00bf 0E       		.uleb128 0xe
 3190 00c0 3A       		.uleb128 0x3a
 3191 00c1 0B       		.uleb128 0xb
 3192 00c2 3B       		.uleb128 0x3b
 3193 00c3 0B       		.uleb128 0xb
 3194 00c4 49       		.uleb128 0x49
 3195 00c5 13       		.uleb128 0x13
 3196 00c6 00       		.byte	0
 3197 00c7 00       		.byte	0
 3198 00c8 13       		.uleb128 0x13
 3199 00c9 13       		.uleb128 0x13
 3200 00ca 01       		.byte	0x1
 3201 00cb 0B       		.uleb128 0xb
 3202 00cc 0B       		.uleb128 0xb
 3203 00cd 3A       		.uleb128 0x3a
 3204 00ce 0B       		.uleb128 0xb
 3205 00cf 3B       		.uleb128 0x3b
 3206 00d0 0B       		.uleb128 0xb
 3207 00d1 01       		.uleb128 0x1
 3208 00d2 13       		.uleb128 0x13
 3209 00d3 00       		.byte	0
 3210 00d4 00       		.byte	0
 3211 00d5 14       		.uleb128 0x14
 3212 00d6 0D       		.uleb128 0xd
 3213 00d7 00       		.byte	0
 3214 00d8 03       		.uleb128 0x3
 3215 00d9 0E       		.uleb128 0xe
 3216 00da 3A       		.uleb128 0x3a
ARM GAS  C:\Users\Lucia\AppData\Local\Temp\cc0KspdR.s 			page 83


 3217 00db 0B       		.uleb128 0xb
 3218 00dc 3B       		.uleb128 0x3b
 3219 00dd 0B       		.uleb128 0xb
 3220 00de 49       		.uleb128 0x49
 3221 00df 13       		.uleb128 0x13
 3222 00e0 38       		.uleb128 0x38
 3223 00e1 0B       		.uleb128 0xb
 3224 00e2 00       		.byte	0
 3225 00e3 00       		.byte	0
 3226 00e4 15       		.uleb128 0x15
 3227 00e5 17       		.uleb128 0x17
 3228 00e6 01       		.byte	0x1
 3229 00e7 0B       		.uleb128 0xb
 3230 00e8 0B       		.uleb128 0xb
 3231 00e9 3A       		.uleb128 0x3a
 3232 00ea 0B       		.uleb128 0xb
 3233 00eb 3B       		.uleb128 0x3b
 3234 00ec 0B       		.uleb128 0xb
 3235 00ed 01       		.uleb128 0x1
 3236 00ee 13       		.uleb128 0x13
 3237 00ef 00       		.byte	0
 3238 00f0 00       		.byte	0
 3239 00f1 16       		.uleb128 0x16
 3240 00f2 0D       		.uleb128 0xd
 3241 00f3 00       		.byte	0
 3242 00f4 03       		.uleb128 0x3
 3243 00f5 0E       		.uleb128 0xe
 3244 00f6 3A       		.uleb128 0x3a
 3245 00f7 0B       		.uleb128 0xb
 3246 00f8 3B       		.uleb128 0x3b
 3247 00f9 0B       		.uleb128 0xb
 3248 00fa 49       		.uleb128 0x49
 3249 00fb 13       		.uleb128 0x13
 3250 00fc 00       		.byte	0
 3251 00fd 00       		.byte	0
 3252 00fe 17       		.uleb128 0x17
 3253 00ff 2E       		.uleb128 0x2e
 3254 0100 00       		.byte	0
 3255 0101 3F       		.uleb128 0x3f
 3256 0102 19       		.uleb128 0x19
 3257 0103 03       		.uleb128 0x3
 3258 0104 0E       		.uleb128 0xe
 3259 0105 3A       		.uleb128 0x3a
 3260 0106 0B       		.uleb128 0xb
 3261 0107 3B       		.uleb128 0x3b
 3262 0108 0B       		.uleb128 0xb
 3263 0109 27       		.uleb128 0x27
 3264 010a 19       		.uleb128 0x19
 3265 010b 11       		.uleb128 0x11
 3266 010c 01       		.uleb128 0x1
 3267 010d 12       		.uleb128 0x12
 3268 010e 06       		.uleb128 0x6
 3269 010f 40       		.uleb128 0x40
 3270 0110 18       		.uleb128 0x18
 3271 0111 9642     		.uleb128 0x2116
 3272 0113 19       		.uleb128 0x19
 3273 0114 00       		.byte	0
ARM GAS  C:\Users\Lucia\AppData\Local\Temp\cc0KspdR.s 			page 84


 3274 0115 00       		.byte	0
 3275 0116 18       		.uleb128 0x18
 3276 0117 2E       		.uleb128 0x2e
 3277 0118 01       		.byte	0x1
 3278 0119 3F       		.uleb128 0x3f
 3279 011a 19       		.uleb128 0x19
 3280 011b 03       		.uleb128 0x3
 3281 011c 0E       		.uleb128 0xe
 3282 011d 3A       		.uleb128 0x3a
 3283 011e 0B       		.uleb128 0xb
 3284 011f 3B       		.uleb128 0x3b
 3285 0120 05       		.uleb128 0x5
 3286 0121 27       		.uleb128 0x27
 3287 0122 19       		.uleb128 0x19
 3288 0123 49       		.uleb128 0x49
 3289 0124 13       		.uleb128 0x13
 3290 0125 11       		.uleb128 0x11
 3291 0126 01       		.uleb128 0x1
 3292 0127 12       		.uleb128 0x12
 3293 0128 06       		.uleb128 0x6
 3294 0129 40       		.uleb128 0x40
 3295 012a 18       		.uleb128 0x18
 3296 012b 9642     		.uleb128 0x2116
 3297 012d 19       		.uleb128 0x19
 3298 012e 01       		.uleb128 0x1
 3299 012f 13       		.uleb128 0x13
 3300 0130 00       		.byte	0
 3301 0131 00       		.byte	0
 3302 0132 19       		.uleb128 0x19
 3303 0133 05       		.uleb128 0x5
 3304 0134 00       		.byte	0
 3305 0135 03       		.uleb128 0x3
 3306 0136 0E       		.uleb128 0xe
 3307 0137 3A       		.uleb128 0x3a
 3308 0138 0B       		.uleb128 0xb
 3309 0139 3B       		.uleb128 0x3b
 3310 013a 05       		.uleb128 0x5
 3311 013b 49       		.uleb128 0x49
 3312 013c 13       		.uleb128 0x13
 3313 013d 02       		.uleb128 0x2
 3314 013e 18       		.uleb128 0x18
 3315 013f 00       		.byte	0
 3316 0140 00       		.byte	0
 3317 0141 1A       		.uleb128 0x1a
 3318 0142 34       		.uleb128 0x34
 3319 0143 00       		.byte	0
 3320 0144 03       		.uleb128 0x3
 3321 0145 0E       		.uleb128 0xe
 3322 0146 3A       		.uleb128 0x3a
 3323 0147 0B       		.uleb128 0xb
 3324 0148 3B       		.uleb128 0x3b
 3325 0149 05       		.uleb128 0x5
 3326 014a 49       		.uleb128 0x49
 3327 014b 13       		.uleb128 0x13
 3328 014c 02       		.uleb128 0x2
 3329 014d 18       		.uleb128 0x18
 3330 014e 00       		.byte	0
ARM GAS  C:\Users\Lucia\AppData\Local\Temp\cc0KspdR.s 			page 85


 3331 014f 00       		.byte	0
 3332 0150 1B       		.uleb128 0x1b
 3333 0151 0B       		.uleb128 0xb
 3334 0152 01       		.byte	0x1
 3335 0153 11       		.uleb128 0x11
 3336 0154 01       		.uleb128 0x1
 3337 0155 12       		.uleb128 0x12
 3338 0156 06       		.uleb128 0x6
 3339 0157 00       		.byte	0
 3340 0158 00       		.byte	0
 3341 0159 1C       		.uleb128 0x1c
 3342 015a 2E       		.uleb128 0x2e
 3343 015b 00       		.byte	0
 3344 015c 3F       		.uleb128 0x3f
 3345 015d 19       		.uleb128 0x19
 3346 015e 03       		.uleb128 0x3
 3347 015f 0E       		.uleb128 0xe
 3348 0160 3A       		.uleb128 0x3a
 3349 0161 0B       		.uleb128 0xb
 3350 0162 3B       		.uleb128 0x3b
 3351 0163 05       		.uleb128 0x5
 3352 0164 27       		.uleb128 0x27
 3353 0165 19       		.uleb128 0x19
 3354 0166 11       		.uleb128 0x11
 3355 0167 01       		.uleb128 0x1
 3356 0168 12       		.uleb128 0x12
 3357 0169 06       		.uleb128 0x6
 3358 016a 40       		.uleb128 0x40
 3359 016b 18       		.uleb128 0x18
 3360 016c 9642     		.uleb128 0x2116
 3361 016e 19       		.uleb128 0x19
 3362 016f 00       		.byte	0
 3363 0170 00       		.byte	0
 3364 0171 1D       		.uleb128 0x1d
 3365 0172 2E       		.uleb128 0x2e
 3366 0173 01       		.byte	0x1
 3367 0174 3F       		.uleb128 0x3f
 3368 0175 19       		.uleb128 0x19
 3369 0176 03       		.uleb128 0x3
 3370 0177 0E       		.uleb128 0xe
 3371 0178 3A       		.uleb128 0x3a
 3372 0179 0B       		.uleb128 0xb
 3373 017a 3B       		.uleb128 0x3b
 3374 017b 05       		.uleb128 0x5
 3375 017c 27       		.uleb128 0x27
 3376 017d 19       		.uleb128 0x19
 3377 017e 11       		.uleb128 0x11
 3378 017f 01       		.uleb128 0x1
 3379 0180 12       		.uleb128 0x12
 3380 0181 06       		.uleb128 0x6
 3381 0182 40       		.uleb128 0x40
 3382 0183 18       		.uleb128 0x18
 3383 0184 9742     		.uleb128 0x2117
 3384 0186 19       		.uleb128 0x19
 3385 0187 01       		.uleb128 0x1
 3386 0188 13       		.uleb128 0x13
 3387 0189 00       		.byte	0
ARM GAS  C:\Users\Lucia\AppData\Local\Temp\cc0KspdR.s 			page 86


 3388 018a 00       		.byte	0
 3389 018b 1E       		.uleb128 0x1e
 3390 018c 34       		.uleb128 0x34
 3391 018d 00       		.byte	0
 3392 018e 03       		.uleb128 0x3
 3393 018f 08       		.uleb128 0x8
 3394 0190 3A       		.uleb128 0x3a
 3395 0191 0B       		.uleb128 0xb
 3396 0192 3B       		.uleb128 0x3b
 3397 0193 05       		.uleb128 0x5
 3398 0194 49       		.uleb128 0x49
 3399 0195 13       		.uleb128 0x13
 3400 0196 02       		.uleb128 0x2
 3401 0197 18       		.uleb128 0x18
 3402 0198 00       		.byte	0
 3403 0199 00       		.byte	0
 3404 019a 1F       		.uleb128 0x1f
 3405 019b 26       		.uleb128 0x26
 3406 019c 00       		.byte	0
 3407 019d 49       		.uleb128 0x49
 3408 019e 13       		.uleb128 0x13
 3409 019f 00       		.byte	0
 3410 01a0 00       		.byte	0
 3411 01a1 20       		.uleb128 0x20
 3412 01a2 2E       		.uleb128 0x2e
 3413 01a3 01       		.byte	0x1
 3414 01a4 03       		.uleb128 0x3
 3415 01a5 0E       		.uleb128 0xe
 3416 01a6 3A       		.uleb128 0x3a
 3417 01a7 0B       		.uleb128 0xb
 3418 01a8 3B       		.uleb128 0x3b
 3419 01a9 05       		.uleb128 0x5
 3420 01aa 27       		.uleb128 0x27
 3421 01ab 19       		.uleb128 0x19
 3422 01ac 11       		.uleb128 0x11
 3423 01ad 01       		.uleb128 0x1
 3424 01ae 12       		.uleb128 0x12
 3425 01af 06       		.uleb128 0x6
 3426 01b0 40       		.uleb128 0x40
 3427 01b1 18       		.uleb128 0x18
 3428 01b2 9742     		.uleb128 0x2117
 3429 01b4 19       		.uleb128 0x19
 3430 01b5 01       		.uleb128 0x1
 3431 01b6 13       		.uleb128 0x13
 3432 01b7 00       		.byte	0
 3433 01b8 00       		.byte	0
 3434 01b9 21       		.uleb128 0x21
 3435 01ba 2E       		.uleb128 0x2e
 3436 01bb 01       		.byte	0x1
 3437 01bc 3F       		.uleb128 0x3f
 3438 01bd 19       		.uleb128 0x19
 3439 01be 03       		.uleb128 0x3
 3440 01bf 0E       		.uleb128 0xe
 3441 01c0 3A       		.uleb128 0x3a
 3442 01c1 0B       		.uleb128 0xb
 3443 01c2 3B       		.uleb128 0x3b
 3444 01c3 05       		.uleb128 0x5
ARM GAS  C:\Users\Lucia\AppData\Local\Temp\cc0KspdR.s 			page 87


 3445 01c4 27       		.uleb128 0x27
 3446 01c5 19       		.uleb128 0x19
 3447 01c6 49       		.uleb128 0x49
 3448 01c7 13       		.uleb128 0x13
 3449 01c8 11       		.uleb128 0x11
 3450 01c9 01       		.uleb128 0x1
 3451 01ca 12       		.uleb128 0x12
 3452 01cb 06       		.uleb128 0x6
 3453 01cc 40       		.uleb128 0x40
 3454 01cd 18       		.uleb128 0x18
 3455 01ce 9742     		.uleb128 0x2117
 3456 01d0 19       		.uleb128 0x19
 3457 01d1 01       		.uleb128 0x1
 3458 01d2 13       		.uleb128 0x13
 3459 01d3 00       		.byte	0
 3460 01d4 00       		.byte	0
 3461 01d5 22       		.uleb128 0x22
 3462 01d6 05       		.uleb128 0x5
 3463 01d7 00       		.byte	0
 3464 01d8 03       		.uleb128 0x3
 3465 01d9 08       		.uleb128 0x8
 3466 01da 3A       		.uleb128 0x3a
 3467 01db 0B       		.uleb128 0xb
 3468 01dc 3B       		.uleb128 0x3b
 3469 01dd 05       		.uleb128 0x5
 3470 01de 49       		.uleb128 0x49
 3471 01df 13       		.uleb128 0x13
 3472 01e0 02       		.uleb128 0x2
 3473 01e1 18       		.uleb128 0x18
 3474 01e2 00       		.byte	0
 3475 01e3 00       		.byte	0
 3476 01e4 23       		.uleb128 0x23
 3477 01e5 34       		.uleb128 0x34
 3478 01e6 00       		.byte	0
 3479 01e7 03       		.uleb128 0x3
 3480 01e8 0E       		.uleb128 0xe
 3481 01e9 3A       		.uleb128 0x3a
 3482 01ea 0B       		.uleb128 0xb
 3483 01eb 3B       		.uleb128 0x3b
 3484 01ec 0B       		.uleb128 0xb
 3485 01ed 49       		.uleb128 0x49
 3486 01ee 13       		.uleb128 0x13
 3487 01ef 3F       		.uleb128 0x3f
 3488 01f0 19       		.uleb128 0x19
 3489 01f1 02       		.uleb128 0x2
 3490 01f2 18       		.uleb128 0x18
 3491 01f3 00       		.byte	0
 3492 01f4 00       		.byte	0
 3493 01f5 24       		.uleb128 0x24
 3494 01f6 21       		.uleb128 0x21
 3495 01f7 00       		.byte	0
 3496 01f8 49       		.uleb128 0x49
 3497 01f9 13       		.uleb128 0x13
 3498 01fa 2F       		.uleb128 0x2f
 3499 01fb 05       		.uleb128 0x5
 3500 01fc 00       		.byte	0
 3501 01fd 00       		.byte	0
ARM GAS  C:\Users\Lucia\AppData\Local\Temp\cc0KspdR.s 			page 88


 3502 01fe 25       		.uleb128 0x25
 3503 01ff 34       		.uleb128 0x34
 3504 0200 00       		.byte	0
 3505 0201 03       		.uleb128 0x3
 3506 0202 0E       		.uleb128 0xe
 3507 0203 3A       		.uleb128 0x3a
 3508 0204 0B       		.uleb128 0xb
 3509 0205 3B       		.uleb128 0x3b
 3510 0206 05       		.uleb128 0x5
 3511 0207 49       		.uleb128 0x49
 3512 0208 13       		.uleb128 0x13
 3513 0209 3F       		.uleb128 0x3f
 3514 020a 19       		.uleb128 0x19
 3515 020b 3C       		.uleb128 0x3c
 3516 020c 19       		.uleb128 0x19
 3517 020d 00       		.byte	0
 3518 020e 00       		.byte	0
 3519 020f 26       		.uleb128 0x26
 3520 0210 34       		.uleb128 0x34
 3521 0211 00       		.byte	0
 3522 0212 03       		.uleb128 0x3
 3523 0213 0E       		.uleb128 0xe
 3524 0214 3A       		.uleb128 0x3a
 3525 0215 0B       		.uleb128 0xb
 3526 0216 3B       		.uleb128 0x3b
 3527 0217 0B       		.uleb128 0xb
 3528 0218 49       		.uleb128 0x49
 3529 0219 13       		.uleb128 0x13
 3530 021a 3F       		.uleb128 0x3f
 3531 021b 19       		.uleb128 0x19
 3532 021c 3C       		.uleb128 0x3c
 3533 021d 19       		.uleb128 0x19
 3534 021e 00       		.byte	0
 3535 021f 00       		.byte	0
 3536 0220 00       		.byte	0
 3537              		.section	.debug_aranges,"",%progbits
 3538 0000 74000000 		.4byte	0x74
 3539 0004 0200     		.2byte	0x2
 3540 0006 00000000 		.4byte	.Ldebug_info0
 3541 000a 04       		.byte	0x4
 3542 000b 00       		.byte	0
 3543 000c 0000     		.2byte	0
 3544 000e 0000     		.2byte	0
 3545 0010 00000000 		.4byte	.LFB2
 3546 0014 2C000000 		.4byte	.LFE2-.LFB2
 3547 0018 00000000 		.4byte	.LFB3
 3548 001c 12000000 		.4byte	.LFE3-.LFB3
 3549 0020 00000000 		.4byte	.LFB4
 3550 0024 28010000 		.4byte	.LFE4-.LFB4
 3551 0028 00000000 		.4byte	.LFB5
 3552 002c 18000000 		.4byte	.LFE5-.LFB5
 3553 0030 00000000 		.4byte	.LFB6
 3554 0034 D4000000 		.4byte	.LFE6-.LFB6
 3555 0038 00000000 		.4byte	.LFB7
 3556 003c 24000000 		.4byte	.LFE7-.LFB7
 3557 0040 00000000 		.4byte	.LFB8
 3558 0044 62000000 		.4byte	.LFE8-.LFB8
ARM GAS  C:\Users\Lucia\AppData\Local\Temp\cc0KspdR.s 			page 89


 3559 0048 00000000 		.4byte	.LFB9
 3560 004c A8010000 		.4byte	.LFE9-.LFB9
 3561 0050 00000000 		.4byte	.LFB10
 3562 0054 F0000000 		.4byte	.LFE10-.LFB10
 3563 0058 00000000 		.4byte	.LFB11
 3564 005c CC000000 		.4byte	.LFE11-.LFB11
 3565 0060 00000000 		.4byte	.LFB12
 3566 0064 26000000 		.4byte	.LFE12-.LFB12
 3567 0068 00000000 		.4byte	.LFB13
 3568 006c 30000000 		.4byte	.LFE13-.LFB13
 3569 0070 00000000 		.4byte	0
 3570 0074 00000000 		.4byte	0
 3571              		.section	.debug_ranges,"",%progbits
 3572              	.Ldebug_ranges0:
 3573 0000 00000000 		.4byte	.LFB2
 3574 0004 2C000000 		.4byte	.LFE2
 3575 0008 00000000 		.4byte	.LFB3
 3576 000c 12000000 		.4byte	.LFE3
 3577 0010 00000000 		.4byte	.LFB4
 3578 0014 28010000 		.4byte	.LFE4
 3579 0018 00000000 		.4byte	.LFB5
 3580 001c 18000000 		.4byte	.LFE5
 3581 0020 00000000 		.4byte	.LFB6
 3582 0024 D4000000 		.4byte	.LFE6
 3583 0028 00000000 		.4byte	.LFB7
 3584 002c 24000000 		.4byte	.LFE7
 3585 0030 00000000 		.4byte	.LFB8
 3586 0034 62000000 		.4byte	.LFE8
 3587 0038 00000000 		.4byte	.LFB9
 3588 003c A8010000 		.4byte	.LFE9
 3589 0040 00000000 		.4byte	.LFB10
 3590 0044 F0000000 		.4byte	.LFE10
 3591 0048 00000000 		.4byte	.LFB11
 3592 004c CC000000 		.4byte	.LFE11
 3593 0050 00000000 		.4byte	.LFB12
 3594 0054 26000000 		.4byte	.LFE12
 3595 0058 00000000 		.4byte	.LFB13
 3596 005c 30000000 		.4byte	.LFE13
 3597 0060 00000000 		.4byte	0
 3598 0064 00000000 		.4byte	0
 3599              		.section	.debug_line,"",%progbits
 3600              	.Ldebug_line0:
 3601 0000 9E020000 		.section	.debug_str,"MS",%progbits,1
 3601      0200E400 
 3601      00000201 
 3601      FB0E0D00 
 3601      01010101 
 3602              	.LASF158:
 3603 0000 7363616E 		.ascii	"scanRspData\000"
 3603      52737044 
 3603      61746100 
 3604              	.LASF191:
 3605 000c 4359424C 		.ascii	"CYBLE_DIS_CHAR_COUNT\000"
 3605      455F4449 
 3605      535F4348 
 3605      41525F43 
 3605      4F554E54 
ARM GAS  C:\Users\Lucia\AppData\Local\Temp\cc0KspdR.s 			page 90


 3606              	.LASF17:
 3607 0021 73697A65 		.ascii	"sizetype\000"
 3607      74797065 
 3607      00
 3608              	.LASF38:
 3609 002a 4359424C 		.ascii	"CYBLE_EVT_GAP_NUMERIC_COMPARISON_REQUEST\000"
 3609      455F4556 
 3609      545F4741 
 3609      505F4E55 
 3609      4D455249 
 3610              	.LASF211:
 3611 0053 61706952 		.ascii	"apiResult\000"
 3611      6573756C 
 3611      7400
 3612              	.LASF32:
 3613 005d 4359424C 		.ascii	"CYBLE_EVT_GAP_DEVICE_CONNECTED\000"
 3613      455F4556 
 3613      545F4741 
 3613      505F4445 
 3613      56494345 
 3614              	.LASF50:
 3615 007c 4359424C 		.ascii	"CYBLE_EVT_GATT_CONNECT_IND\000"
 3615      455F4556 
 3615      545F4741 
 3615      54545F43 
 3615      4F4E4E45 
 3616              	.LASF255:
 3617 0097 4379426C 		.ascii	"CyBle_ChangeAdLocalName\000"
 3617      655F4368 
 3617      616E6765 
 3617      41644C6F 
 3617      63616C4E 
 3618              	.LASF11:
 3619 00af 75696E74 		.ascii	"uint32\000"
 3619      333200
 3620              	.LASF161:
 3621 00b6 64697363 		.ascii	"discMode\000"
 3621      4D6F6465 
 3621      00
 3622              	.LASF106:
 3623 00bf 4359424C 		.ascii	"CYBLE_ERROR_L2CAP_CONNECTION_ENTITY_NOT_FOUND\000"
 3623      455F4552 
 3623      524F525F 
 3623      4C324341 
 3623      505F434F 
 3624              	.LASF112:
 3625 00ed 4359424C 		.ascii	"CYBLE_ERROR_MIC_AUTH_FAILED\000"
 3625      455F4552 
 3625      524F525F 
 3625      4D49435F 
 3625      41555448 
 3626              	.LASF14:
 3627 0109 63686172 		.ascii	"char8\000"
 3627      3800
 3628              	.LASF82:
 3629 010f 4359424C 		.ascii	"CYBLE_EVT_L2CAP_CBFC_RX_CREDIT_IND\000"
 3629      455F4556 
ARM GAS  C:\Users\Lucia\AppData\Local\Temp\cc0KspdR.s 			page 91


 3629      545F4C32 
 3629      4341505F 
 3629      43424643 
 3630              	.LASF177:
 3631 0132 7065726D 		.ascii	"permission\000"
 3631      69737369 
 3631      6F6E00
 3632              	.LASF125:
 3633 013d 74797065 		.ascii	"type\000"
 3633      00
 3634              	.LASF181:
 3635 0142 4359424C 		.ascii	"CYBLE_CALLBACK_T\000"
 3635      455F4341 
 3635      4C4C4241 
 3635      434B5F54 
 3635      00
 3636              	.LASF186:
 3637 0153 4359424C 		.ascii	"CYBLE_DIS_FIRMWARE_REV\000"
 3637      455F4449 
 3637      535F4649 
 3637      524D5741 
 3637      52455F52 
 3638              	.LASF67:
 3639 016a 4359424C 		.ascii	"CYBLE_EVT_GATTC_HANDLE_VALUE_NTF\000"
 3639      455F4556 
 3639      545F4741 
 3639      5454435F 
 3639      48414E44 
 3640              	.LASF26:
 3641 018b 4359424C 		.ascii	"CYBLE_EVT_GAP_AUTH_REQ\000"
 3641      455F4556 
 3641      545F4741 
 3641      505F4155 
 3641      54485F52 
 3642              	.LASF220:
 3643 01a2 63616C6C 		.ascii	"callbackFunc\000"
 3643      6261636B 
 3643      46756E63 
 3643      00
 3644              	.LASF101:
 3645 01af 4359424C 		.ascii	"CYBLE_ERROR_BT_ON_NOT_COMPLETED\000"
 3645      455F4552 
 3645      524F525F 
 3645      42545F4F 
 3645      4E5F4E4F 
 3646              	.LASF47:
 3647 01cf 4359424C 		.ascii	"CYBLE_EVT_GAP_AUTH_REQ_REPLY_ERR\000"
 3647      455F4556 
 3647      545F4741 
 3647      505F4155 
 3647      54485F52 
 3648              	.LASF199:
 3649 01f0 4359424C 		.ascii	"CYBLE_STATE_ADVERTISING\000"
 3649      455F5354 
 3649      4154455F 
 3649      41445645 
 3649      52544953 
ARM GAS  C:\Users\Lucia\AppData\Local\Temp\cc0KspdR.s 			page 92


 3650              	.LASF40:
 3651 0208 4359424C 		.ascii	"CYBLE_EVT_GAP_OOB_GENERATED_NOTIFICATION\000"
 3651      455F4556 
 3651      545F4741 
 3651      505F4F4F 
 3651      425F4745 
 3652              	.LASF133:
 3653 0231 4359424C 		.ascii	"CYBLE_DLE_CONFIG_PARAM_T\000"
 3653      455F444C 
 3653      455F434F 
 3653      4E464947 
 3653      5F504152 
 3654              	.LASF63:
 3655 024a 4359424C 		.ascii	"CYBLE_EVT_GATTS_WRITE_CMD_REQ\000"
 3655      455F4556 
 3655      545F4741 
 3655      5454535F 
 3655      57524954 
 3656              	.LASF83:
 3657 0268 4359424C 		.ascii	"CYBLE_EVT_L2CAP_CBFC_TX_CREDIT_IND\000"
 3657      455F4556 
 3657      545F4C32 
 3657      4341505F 
 3657      43424643 
 3658              	.LASF4:
 3659 028b 6C6F6E67 		.ascii	"long int\000"
 3659      20696E74 
 3659      00
 3660              	.LASF210:
 3661 0294 4379426C 		.ascii	"CyBle_ServiceInit\000"
 3661      655F5365 
 3661      72766963 
 3661      65496E69 
 3661      7400
 3662              	.LASF221:
 3663 02a6 61647665 		.ascii	"advertisingIntervalType\000"
 3663      72746973 
 3663      696E6749 
 3663      6E746572 
 3663      76616C54 
 3664              	.LASF129:
 3665 02be 4359424C 		.ascii	"CYBLE_STK_APP_DATA_BUFF_T\000"
 3665      455F5354 
 3665      4B5F4150 
 3665      505F4441 
 3665      54415F42 
 3666              	.LASF136:
 3667 02d8 646C6543 		.ascii	"dleConfig\000"
 3667      6F6E6669 
 3667      6700
 3668              	.LASF215:
 3669 02e2 73746163 		.ascii	"stackConfig\000"
 3669      6B436F6E 
 3669      66696700 
 3670              	.LASF19:
 3671 02ee 4359424C 		.ascii	"CYBLE_EVT_STACK_ON\000"
 3671      455F4556 
ARM GAS  C:\Users\Lucia\AppData\Local\Temp\cc0KspdR.s 			page 93


 3671      545F5354 
 3671      41434B5F 
 3671      4F4E00
 3672              	.LASF108:
 3673 0301 4359424C 		.ascii	"CYBLE_ERROR_L2CAP_PSM_NOT_IN_RANGE\000"
 3673      455F4552 
 3673      524F525F 
 3673      4C324341 
 3673      505F5053 
 3674              	.LASF185:
 3675 0324 4359424C 		.ascii	"CYBLE_DIS_HARDWARE_REV\000"
 3675      455F4449 
 3675      535F4841 
 3675      52445741 
 3675      52455F52 
 3676              	.LASF241:
 3677 033b 6379426C 		.ascii	"cyBle_deviceAddress\000"
 3677      655F6465 
 3677      76696365 
 3677      41646472 
 3677      65737300 
 3678              	.LASF120:
 3679 034f 4359424C 		.ascii	"CYBLE_ERROR_CHAR_IS_NOT_DISCOVERED\000"
 3679      455F4552 
 3679      524F525F 
 3679      43484152 
 3679      5F49535F 
 3680              	.LASF176:
 3681 0372 61747454 		.ascii	"attType\000"
 3681      79706500 
 3682              	.LASF143:
 3683 037a 4359424C 		.ascii	"CYBLE_GAPP_NON_CONNECTABLE_UNDIRECTED_ADV\000"
 3683      455F4741 
 3683      50505F4E 
 3683      4F4E5F43 
 3683      4F4E4E45 
 3684              	.LASF76:
 3685 03a4 4359424C 		.ascii	"CYBLE_EVT_L2CAP_COMMAND_REJ\000"
 3685      455F4556 
 3685      545F4C32 
 3685      4341505F 
 3685      434F4D4D 
 3686              	.LASF207:
 3687 03c0 7270614F 		.ascii	"rpaOnlyCharHandle\000"
 3687      6E6C7943 
 3687      68617248 
 3687      616E646C 
 3687      6500
 3688              	.LASF109:
 3689 03d2 4359424C 		.ascii	"CYBLE_ERROR_GATT_DB_INVALID_ATTR_HANDLE\000"
 3689      455F4552 
 3689      524F525F 
 3689      47415454 
 3689      5F44425F 
 3690              	.LASF0:
 3691 03fa 7369676E 		.ascii	"signed char\000"
 3691      65642063 
ARM GAS  C:\Users\Lucia\AppData\Local\Temp\cc0KspdR.s 			page 94


 3691      68617200 
 3692              	.LASF128:
 3693 0406 62756666 		.ascii	"bufferUnits\000"
 3693      6572556E 
 3693      69747300 
 3694              	.LASF21:
 3695 0412 4359424C 		.ascii	"CYBLE_EVT_HARDWARE_ERROR\000"
 3695      455F4556 
 3695      545F4841 
 3695      52445741 
 3695      52455F45 
 3696              	.LASF90:
 3697 042b 4359424C 		.ascii	"CYBLE_ERROR_OK\000"
 3697      455F4552 
 3697      524F525F 
 3697      4F4B00
 3698              	.LASF54:
 3699 043a 4359424C 		.ascii	"CYBLE_EVT_GATTC_READ_BY_GROUP_TYPE_RSP\000"
 3699      455F4556 
 3699      545F4741 
 3699      5454435F 
 3699      52454144 
 3700              	.LASF196:
 3701 0461 4359424C 		.ascii	"CYBLE_STATE_STOPPED\000"
 3701      455F5354 
 3701      4154455F 
 3701      53544F50 
 3701      50454400 
 3702              	.LASF1:
 3703 0475 756E7369 		.ascii	"unsigned char\000"
 3703      676E6564 
 3703      20636861 
 3703      7200
 3704              	.LASF53:
 3705 0483 4359424C 		.ascii	"CYBLE_EVT_GATTC_XCHNG_MTU_RSP\000"
 3705      455F4556 
 3705      545F4741 
 3705      5454435F 
 3705      5843484E 
 3706              	.LASF44:
 3707 04a1 4359424C 		.ascii	"CYBLE_EVT_GAP_SMP_NEGOTIATED_AUTH_INFO\000"
 3707      455F4556 
 3707      545F4741 
 3707      505F534D 
 3707      505F4E45 
 3708              	.LASF45:
 3709 04c8 4359424C 		.ascii	"CYBLE_EVT_GAP_CONN_ESTB\000"
 3709      455F4556 
 3709      545F4741 
 3709      505F434F 
 3709      4E4E5F45 
 3710              	.LASF146:
 3711 04e0 61647649 		.ascii	"advIntvMin\000"
 3711      6E74764D 
 3711      696E00
 3712              	.LASF175:
 3713 04eb 61747448 		.ascii	"attHandle\000"
ARM GAS  C:\Users\Lucia\AppData\Local\Temp\cc0KspdR.s 			page 95


 3713      616E646C 
 3713      6500
 3714              	.LASF219:
 3715 04f5 4379426C 		.ascii	"CyBle_GappStartAdvertisement\000"
 3715      655F4761 
 3715      70705374 
 3715      61727441 
 3715      64766572 
 3716              	.LASF157:
 3717 0512 4359424C 		.ascii	"CYBLE_GAPP_DISC_DATA_T\000"
 3717      455F4741 
 3717      50505F44 
 3717      4953435F 
 3717      44415441 
 3718              	.LASF80:
 3719 0529 4359424C 		.ascii	"CYBLE_EVT_L2CAP_CBFC_DISCONN_CNF\000"
 3719      455F4556 
 3719      545F4C32 
 3719      4341505F 
 3719      43424643 
 3720              	.LASF57:
 3721 054a 4359424C 		.ascii	"CYBLE_EVT_GATTC_FIND_BY_TYPE_VALUE_RSP\000"
 3721      455F4556 
 3721      545F4741 
 3721      5454435F 
 3721      46494E44 
 3722              	.LASF41:
 3723 0571 4359424C 		.ascii	"CYBLE_EVT_GAP_DATA_LENGTH_CHANGE\000"
 3723      455F4556 
 3723      545F4741 
 3723      505F4441 
 3723      54415F4C 
 3724              	.LASF15:
 3725 0592 63686172 		.ascii	"char\000"
 3725      00
 3726              	.LASF169:
 3727 0597 6D617841 		.ascii	"maxAttrLength\000"
 3727      7474724C 
 3727      656E6774 
 3727      6800
 3728              	.LASF60:
 3729 05a5 4359424C 		.ascii	"CYBLE_EVT_GATTC_READ_MULTI_RSP\000"
 3729      455F4556 
 3729      545F4741 
 3729      5454435F 
 3729      52454144 
 3730              	.LASF18:
 3731 05c4 4359424C 		.ascii	"CYBLE_EVT_HOST_INVALID\000"
 3731      455F4556 
 3731      545F484F 
 3731      53545F49 
 3731      4E56414C 
 3732              	.LASF232:
 3733 05db 4379426C 		.ascii	"CyBle_GapGetLocalName\000"
 3733      655F4761 
 3733      70476574 
 3733      4C6F6361 
ARM GAS  C:\Users\Lucia\AppData\Local\Temp\cc0KspdR.s 			page 96


 3733      6C4E616D 
 3734              	.LASF43:
 3735 05f1 4359424C 		.ascii	"CYBLE_EVT_GAPC_DIRECT_ADV_REPORT\000"
 3735      455F4556 
 3735      545F4741 
 3735      50435F44 
 3735      49524543 
 3736              	.LASF97:
 3737 0612 4359424C 		.ascii	"CYBLE_ERROR_NO_DEVICE_ENTITY\000"
 3737      455F4552 
 3737      524F525F 
 3737      4E4F5F44 
 3737      45564943 
 3738              	.LASF59:
 3739 062f 4359424C 		.ascii	"CYBLE_EVT_GATTC_READ_BLOB_RSP\000"
 3739      455F4556 
 3739      545F4741 
 3739      5454435F 
 3739      52454144 
 3740              	.LASF66:
 3741 064d 4359424C 		.ascii	"CYBLE_EVT_GATTC_EXEC_WRITE_RSP\000"
 3741      455F4556 
 3741      545F4741 
 3741      5454435F 
 3741      45584543 
 3742              	.LASF209:
 3743 066c 4379426C 		.ascii	"CyBle_Init\000"
 3743      655F496E 
 3743      697400
 3744              	.LASF187:
 3745 0677 4359424C 		.ascii	"CYBLE_DIS_SOFTWARE_REV\000"
 3745      455F4449 
 3745      535F534F 
 3745      46545741 
 3745      52455F52 
 3746              	.LASF71:
 3747 068e 4359424C 		.ascii	"CYBLE_EVT_GATTC_STOP_CMD_COMPLETE\000"
 3747      455F4556 
 3747      545F4741 
 3747      5454435F 
 3747      53544F50 
 3748              	.LASF163:
 3749 06b0 61647654 		.ascii	"advTo\000"
 3749      6F00
 3750              	.LASF183:
 3751 06b6 4359424C 		.ascii	"CYBLE_DIS_MODEL_NUMBER\000"
 3751      455F4449 
 3751      535F4D4F 
 3751      44454C5F 
 3751      4E554D42 
 3752              	.LASF180:
 3753 06cd 4359424C 		.ascii	"CYBLE_GATTS_DB_T\000"
 3753      455F4741 
 3753      5454535F 
 3753      44425F54 
 3753      00
 3754              	.LASF222:
ARM GAS  C:\Users\Lucia\AppData\Local\Temp\cc0KspdR.s 			page 97


 3755 06de 4379426C 		.ascii	"CyBle_GappStopAdvertisement\000"
 3755      655F4761 
 3755      70705374 
 3755      6F704164 
 3755      76657274 
 3756              	.LASF188:
 3757 06fa 4359424C 		.ascii	"CYBLE_DIS_SYSTEM_ID\000"
 3757      455F4449 
 3757      535F5359 
 3757      5354454D 
 3757      5F494400 
 3758              	.LASF116:
 3759 070e 4359424C 		.ascii	"CYBLE_ERROR_CONTROLLER_BUSY\000"
 3759      455F4552 
 3759      524F525F 
 3759      434F4E54 
 3759      524F4C4C 
 3760              	.LASF91:
 3761 072a 4359424C 		.ascii	"CYBLE_ERROR_INVALID_PARAMETER\000"
 3761      455F4552 
 3761      524F525F 
 3761      494E5641 
 3761      4C49445F 
 3762              	.LASF212:
 3763 0748 6379426C 		.ascii	"cyBle_stackDataBuff\000"
 3763      655F7374 
 3763      61636B44 
 3763      61746142 
 3763      75666600 
 3764              	.LASF216:
 3765 075c 66656174 		.ascii	"featureHeapReq\000"
 3765      75726548 
 3765      65617052 
 3765      657100
 3766              	.LASF144:
 3767 076b 4359424C 		.ascii	"CYBLE_GAPP_CONNECTABLE_LOW_DC_DIRECTED_ADV\000"
 3767      455F4741 
 3767      50505F43 
 3767      4F4E4E45 
 3767      43544142 
 3768              	.LASF93:
 3769 0796 4359424C 		.ascii	"CYBLE_ERROR_MEMORY_ALLOCATION_FAILED\000"
 3769      455F4552 
 3769      524F525F 
 3769      4D454D4F 
 3769      52595F41 
 3770              	.LASF242:
 3771 07bb 6379426C 		.ascii	"cyBle_sflashDeviceAddress\000"
 3771      655F7366 
 3771      6C617368 
 3771      44657669 
 3771      63654164 
 3772              	.LASF117:
 3773 07d5 4359424C 		.ascii	"CYBLE_ERROR_MAX\000"
 3773      455F4552 
 3773      524F525F 
 3773      4D415800 
ARM GAS  C:\Users\Lucia\AppData\Local\Temp\cc0KspdR.s 			page 98


 3774              	.LASF245:
 3775 07e5 6379426C 		.ascii	"cyBle_scanRspData\000"
 3775      655F7363 
 3775      616E5273 
 3775      70446174 
 3775      6100
 3776              	.LASF75:
 3777 07f7 4359424C 		.ascii	"CYBLE_EVT_L2CAP_CONN_PARAM_UPDATE_RSP\000"
 3777      455F4556 
 3777      545F4C32 
 3777      4341505F 
 3777      434F4E4E 
 3778              	.LASF87:
 3779 081d 4359424C 		.ascii	"CYBLE_EVT_HCI_PKT\000"
 3779      455F4556 
 3779      545F4843 
 3779      495F504B 
 3779      5400
 3780              	.LASF252:
 3781 082f 474E5520 		.ascii	"GNU C11 5.4.1 20160609 (release) [ARM/embedded-5-br"
 3781      43313120 
 3781      352E342E 
 3781      31203230 
 3781      31363036 
 3782 0862 616E6368 		.ascii	"anch revision 237715] -mcpu=cortex-m0 -mthumb -g -O"
 3782      20726576 
 3782      6973696F 
 3782      6E203233 
 3782      37373135 
 3783 0895 30202D66 		.ascii	"0 -ffunction-sections -ffat-lto-objects\000"
 3783      66756E63 
 3783      74696F6E 
 3783      2D736563 
 3783      74696F6E 
 3784              	.LASF154:
 3785 08bd 4359424C 		.ascii	"CYBLE_GAPP_DISC_PARAM_T\000"
 3785      455F4741 
 3785      50505F44 
 3785      4953435F 
 3785      50415241 
 3786              	.LASF229:
 3787 08d5 6D61784C 		.ascii	"maxLength\000"
 3787      656E6774 
 3787      6800
 3788              	.LASF29:
 3789 08df 4359424C 		.ascii	"CYBLE_EVT_GAP_AUTH_COMPLETE\000"
 3789      455F4556 
 3789      545F4741 
 3789      505F4155 
 3789      54485F43 
 3790              	.LASF153:
 3791 08fb 61647646 		.ascii	"advFilterPolicy\000"
 3791      696C7465 
 3791      72506F6C 
 3791      69637900 
 3792              	.LASF30:
 3793 090b 4359424C 		.ascii	"CYBLE_EVT_GAP_AUTH_FAILED\000"
ARM GAS  C:\Users\Lucia\AppData\Local\Temp\cc0KspdR.s 			page 99


 3793      455F4556 
 3793      545F4741 
 3793      505F4155 
 3793      54485F46 
 3794              	.LASF122:
 3795 0925 4359424C 		.ascii	"CYBLE_ERROR_STACK_BUSY\000"
 3795      455F4552 
 3795      524F525F 
 3795      53544143 
 3795      4B5F4255 
 3796              	.LASF148:
 3797 093c 61647654 		.ascii	"advType\000"
 3797      79706500 
 3798              	.LASF94:
 3799 0944 4359424C 		.ascii	"CYBLE_ERROR_INSUFFICIENT_RESOURCES\000"
 3799      455F4552 
 3799      524F525F 
 3799      494E5355 
 3799      46464943 
 3800              	.LASF5:
 3801 0967 6C6F6E67 		.ascii	"long unsigned int\000"
 3801      20756E73 
 3801      69676E65 
 3801      6420696E 
 3801      7400
 3802              	.LASF114:
 3803 0979 4359424C 		.ascii	"CYBLE_ERROR_UNSUPPORTED_FEATURE_OR_PARAMETER_VALUE\000"
 3803      455F4552 
 3803      524F525F 
 3803      554E5355 
 3803      50504F52 
 3804              	.LASF134:
 3805 09ac 7265736F 		.ascii	"resolvingListSize\000"
 3805      6C76696E 
 3805      674C6973 
 3805      7453697A 
 3805      6500
 3806              	.LASF104:
 3807 09be 4359424C 		.ascii	"CYBLE_ERROR_L2CAP_PSM_ALREADY_REGISTERED\000"
 3807      455F4552 
 3807      524F525F 
 3807      4C324341 
 3807      505F5053 
 3808              	.LASF173:
 3809 09e7 61747456 		.ascii	"attValueUuid\000"
 3809      616C7565 
 3809      55756964 
 3809      00
 3810              	.LASF184:
 3811 09f4 4359424C 		.ascii	"CYBLE_DIS_SERIAL_NUMBER\000"
 3811      455F4449 
 3811      535F5345 
 3811      5249414C 
 3811      5F4E554D 
 3812              	.LASF35:
 3813 0a0c 4359424C 		.ascii	"CYBLE_EVT_GAP_CONNECTION_UPDATE_COMPLETE\000"
 3813      455F4556 
ARM GAS  C:\Users\Lucia\AppData\Local\Temp\cc0KspdR.s 			page 100


 3813      545F4741 
 3813      505F434F 
 3813      4E4E4543 
 3814              	.LASF249:
 3815 0a35 6379426C 		.ascii	"cyBle_busyStatus\000"
 3815      655F6275 
 3815      73795374 
 3815      61747573 
 3815      00
 3816              	.LASF234:
 3817 0a46 4379426C 		.ascii	"CyBle_ChangeAdDeviceAddress\000"
 3817      655F4368 
 3817      616E6765 
 3817      41644465 
 3817      76696365 
 3818              	.LASF197:
 3819 0a62 4359424C 		.ascii	"CYBLE_STATE_INITIALIZING\000"
 3819      455F5354 
 3819      4154455F 
 3819      494E4954 
 3819      49414C49 
 3820              	.LASF79:
 3821 0a7b 4359424C 		.ascii	"CYBLE_EVT_L2CAP_CBFC_DISCONN_IND\000"
 3821      455F4556 
 3821      545F4C32 
 3821      4341505F 
 3821      43424643 
 3822              	.LASF217:
 3823 0a9c 4379426C 		.ascii	"CyBle_Stop\000"
 3823      655F5374 
 3823      6F7000
 3824              	.LASF27:
 3825 0aa7 4359424C 		.ascii	"CYBLE_EVT_GAP_PASSKEY_ENTRY_REQUEST\000"
 3825      455F4556 
 3825      545F4741 
 3825      505F5041 
 3825      53534B45 
 3826              	.LASF139:
 3827 0acb 4359424C 		.ascii	"CYBLE_STACK_CONFIG_PARAM_T\000"
 3827      455F5354 
 3827      41434B5F 
 3827      434F4E46 
 3827      49475F50 
 3828              	.LASF130:
 3829 0ae6 646C654D 		.ascii	"dleMaxTxCapability\000"
 3829      61785478 
 3829      43617061 
 3829      62696C69 
 3829      747900
 3830              	.LASF193:
 3831 0af9 4359424C 		.ascii	"CYBLE_HRS_BSL\000"
 3831      455F4852 
 3831      535F4253 
 3831      4C00
 3832              	.LASF6:
 3833 0b07 6C6F6E67 		.ascii	"long long int\000"
 3833      206C6F6E 
ARM GAS  C:\Users\Lucia\AppData\Local\Temp\cc0KspdR.s 			page 101


 3833      6720696E 
 3833      7400
 3834              	.LASF190:
 3835 0b15 4359424C 		.ascii	"CYBLE_DIS_PNP_ID\000"
 3835      455F4449 
 3835      535F504E 
 3835      505F4944 
 3835      00
 3836              	.LASF243:
 3837 0b26 6379426C 		.ascii	"cyBle_discoveryParam\000"
 3837      655F6469 
 3837      73636F76 
 3837      65727950 
 3837      6172616D 
 3838              	.LASF162:
 3839 0b3b 61647650 		.ascii	"advParam\000"
 3839      6172616D 
 3839      00
 3840              	.LASF105:
 3841 0b44 4359424C 		.ascii	"CYBLE_ERROR_L2CAP_PSM_NOT_REGISTERED\000"
 3841      455F4552 
 3841      524F525F 
 3841      4C324341 
 3841      505F5053 
 3842              	.LASF95:
 3843 0b69 4359424C 		.ascii	"CYBLE_ERROR_OOB_NOT_AVAILABLE\000"
 3843      455F4552 
 3843      524F525F 
 3843      4F4F425F 
 3843      4E4F545F 
 3844              	.LASF13:
 3845 0b87 646F7562 		.ascii	"double\000"
 3845      6C6500
 3846              	.LASF110:
 3847 0b8e 4359424C 		.ascii	"CYBLE_ERROR_DEVICE_ALREADY_EXISTS\000"
 3847      455F4552 
 3847      524F525F 
 3847      44455649 
 3847      43455F41 
 3848              	.LASF85:
 3849 0bb0 4359424C 		.ascii	"CYBLE_EVT_PENDING_FLASH_WRITE\000"
 3849      455F4556 
 3849      545F5045 
 3849      4E44494E 
 3849      475F464C 
 3850              	.LASF251:
 3851 0bce 6379426C 		.ascii	"cyBle_advertisingIntervalType\000"
 3851      655F6164 
 3851      76657274 
 3851      6973696E 
 3851      67496E74 
 3852              	.LASF203:
 3853 0bec 64657669 		.ascii	"deviceNameCharHandle\000"
 3853      63654E61 
 3853      6D654368 
 3853      61724861 
 3853      6E646C65 
ARM GAS  C:\Users\Lucia\AppData\Local\Temp\cc0KspdR.s 			page 102


 3854              	.LASF150:
 3855 0c01 64697265 		.ascii	"directAddrType\000"
 3855      63744164 
 3855      64725479 
 3855      706500
 3856              	.LASF42:
 3857 0c10 4359424C 		.ascii	"CYBLE_EVT_GAP_ENHANCE_CONN_COMPLETE\000"
 3857      455F4556 
 3857      545F4741 
 3857      505F454E 
 3857      48414E43 
 3858              	.LASF107:
 3859 0c34 4359424C 		.ascii	"CYBLE_ERROR_L2CAP_CHANNEL_NOT_FOUND\000"
 3859      455F4552 
 3859      524F525F 
 3859      4C324341 
 3859      505F4348 
 3860              	.LASF135:
 3861 0c58 4359424C 		.ascii	"CYBLE_PRIVACY_1_2_CONFIG_PARAM_T\000"
 3861      455F5052 
 3861      49564143 
 3861      595F315F 
 3861      325F434F 
 3862              	.LASF247:
 3863 0c79 6379426C 		.ascii	"cyBle_gattDB\000"
 3863      655F6761 
 3863      74744442 
 3863      00
 3864              	.LASF98:
 3865 0c86 4359424C 		.ascii	"CYBLE_ERROR_REPEATED_ATTEMPTS\000"
 3865      455F4552 
 3865      524F525F 
 3865      52455045 
 3865      41544544 
 3866              	.LASF12:
 3867 0ca4 666C6F61 		.ascii	"float\000"
 3867      7400
 3868              	.LASF111:
 3869 0caa 4359424C 		.ascii	"CYBLE_ERROR_FLASH_WRITE_NOT_PERMITED\000"
 3869      455F4552 
 3869      524F525F 
 3869      464C4153 
 3869      485F5752 
 3870              	.LASF72:
 3871 0ccf 4359424C 		.ascii	"CYBLE_EVT_GATTS_READ_CHAR_VAL_ACCESS_REQ\000"
 3871      455F4556 
 3871      545F4741 
 3871      5454535F 
 3871      52454144 
 3872              	.LASF132:
 3873 0cf8 646C654E 		.ascii	"dleNumTxBuffer\000"
 3873      756D5478 
 3873      42756666 
 3873      657200
 3874              	.LASF8:
 3875 0d07 756E7369 		.ascii	"unsigned int\000"
 3875      676E6564 
ARM GAS  C:\Users\Lucia\AppData\Local\Temp\cc0KspdR.s 			page 103


 3875      20696E74 
 3875      00
 3876              	.LASF138:
 3877 0d14 66656174 		.ascii	"feature_mask\000"
 3877      7572655F 
 3877      6D61736B 
 3877      00
 3878              	.LASF64:
 3879 0d21 4359424C 		.ascii	"CYBLE_EVT_GATTS_PREP_WRITE_REQ\000"
 3879      455F4556 
 3879      545F4741 
 3879      5454535F 
 3879      50524550 
 3880              	.LASF178:
 3881 0d40 61747445 		.ascii	"attEndHandle\000"
 3881      6E644861 
 3881      6E646C65 
 3881      00
 3882              	.LASF189:
 3883 0d4d 4359424C 		.ascii	"CYBLE_DIS_REG_CERT_DATA\000"
 3883      455F4449 
 3883      535F5245 
 3883      475F4345 
 3883      52545F44 
 3884              	.LASF226:
 3885 0d65 666C6167 		.ascii	"flag\000"
 3885      00
 3886              	.LASF235:
 3887 0d6a 4379426C 		.ascii	"CyBle_Set16ByPtr\000"
 3887      655F5365 
 3887      74313642 
 3887      79507472 
 3887      00
 3888              	.LASF103:
 3889 0d7b 4359424C 		.ascii	"CYBLE_ERROR_L2CAP_PSM_WRONG_ENCODING\000"
 3889      455F4552 
 3889      524F525F 
 3889      4C324341 
 3889      505F5053 
 3890              	.LASF231:
 3891 0da0 63686172 		.ascii	"charLen\000"
 3891      4C656E00 
 3892              	.LASF194:
 3893 0da8 4359424C 		.ascii	"CYBLE_HRS_CPT\000"
 3893      455F4852 
 3893      535F4350 
 3893      5400
 3894              	.LASF89:
 3895 0db6 4359424C 		.ascii	"CYBLE_EVT_MAX\000"
 3895      455F4556 
 3895      545F4D41 
 3895      5800
 3896              	.LASF36:
 3897 0dc4 4359424C 		.ascii	"CYBLE_EVT_GAPC_SCAN_START_STOP\000"
 3897      455F4556 
 3897      545F4741 
 3897      50435F53 
ARM GAS  C:\Users\Lucia\AppData\Local\Temp\cc0KspdR.s 			page 104


 3897      43414E5F 
 3898              	.LASF145:
 3899 0de3 4359424C 		.ascii	"CYBLE_GAPP_ADV_T\000"
 3899      455F4741 
 3899      50505F41 
 3899      44565F54 
 3899      00
 3900              	.LASF61:
 3901 0df4 4359424C 		.ascii	"CYBLE_EVT_GATTS_WRITE_REQ\000"
 3901      455F4556 
 3901      545F4741 
 3901      5454535F 
 3901      57524954 
 3902              	.LASF155:
 3903 0e0e 61647644 		.ascii	"advData\000"
 3903      61746100 
 3904              	.LASF70:
 3905 0e16 4359424C 		.ascii	"CYBLE_EVT_GATTS_DATA_SIGNED_CMD_REQ\000"
 3905      455F4556 
 3905      545F4741 
 3905      5454535F 
 3905      44415441 
 3906              	.LASF253:
 3907 0e3a 47656E65 		.ascii	"Generated_Source\\PSoC4\\CYBLE.c\000"
 3907      72617465 
 3907      645F536F 
 3907      75726365 
 3907      5C50536F 
 3908              	.LASF205:
 3909 0e59 70726566 		.ascii	"prefConnParamCharHandle\000"
 3909      436F6E6E 
 3909      50617261 
 3909      6D436861 
 3909      7248616E 
 3910              	.LASF28:
 3911 0e71 4359424C 		.ascii	"CYBLE_EVT_GAP_PASSKEY_DISPLAY_REQUEST\000"
 3911      455F4556 
 3911      545F4741 
 3911      505F5041 
 3911      53534B45 
 3912              	.LASF119:
 3913 0e97 4359424C 		.ascii	"CYBLE_ERROR_IND_DISABLED\000"
 3913      455F4552 
 3913      524F525F 
 3913      494E445F 
 3913      44495341 
 3914              	.LASF118:
 3915 0eb0 4359424C 		.ascii	"CYBLE_ERROR_NTF_DISABLED\000"
 3915      455F4552 
 3915      524F525F 
 3915      4E54465F 
 3915      44495341 
 3916              	.LASF58:
 3917 0ec9 4359424C 		.ascii	"CYBLE_EVT_GATTC_READ_RSP\000"
 3917      455F4556 
 3917      545F4741 
 3917      5454435F 
ARM GAS  C:\Users\Lucia\AppData\Local\Temp\cc0KspdR.s 			page 105


 3917      52454144 
 3918              	.LASF141:
 3919 0ee2 4359424C 		.ascii	"CYBLE_GAPP_CONNECTABLE_HIGH_DC_DIRECTED_ADV\000"
 3919      455F4741 
 3919      50505F43 
 3919      4F4E4E45 
 3919      43544142 
 3920              	.LASF78:
 3921 0f0e 4359424C 		.ascii	"CYBLE_EVT_L2CAP_CBFC_CONN_CNF\000"
 3921      455F4556 
 3921      545F4C32 
 3921      4341505F 
 3921      43424643 
 3922              	.LASF214:
 3923 0f2c 70726976 		.ascii	"privacyConfigParams\000"
 3923      61637943 
 3923      6F6E6669 
 3923      67506172 
 3923      616D7300 
 3924              	.LASF168:
 3925 0f40 4359424C 		.ascii	"CYBLE_GATTS_ATT_GEN_VAL_LEN_T\000"
 3925      455F4741 
 3925      5454535F 
 3925      4154545F 
 3925      47454E5F 
 3926              	.LASF88:
 3927 0f5e 4359424C 		.ascii	"CYBLE_EVT_FLASH_CORRUPT\000"
 3927      455F4556 
 3927      545F464C 
 3927      4153485F 
 3927      434F5252 
 3928              	.LASF16:
 3929 0f76 6C6F6E67 		.ascii	"long double\000"
 3929      20646F75 
 3929      626C6500 
 3930              	.LASF127:
 3931 0f82 62756666 		.ascii	"bufferSize\000"
 3931      65725369 
 3931      7A6500
 3932              	.LASF24:
 3933 0f8d 4359424C 		.ascii	"CYBLE_EVT_MEMORY_REQUEST\000"
 3933      455F4556 
 3933      545F4D45 
 3933      4D4F5259 
 3933      5F524551 
 3934              	.LASF233:
 3935 0fa6 4379426C 		.ascii	"CyBle_Get16ByPtr\000"
 3935      655F4765 
 3935      74313642 
 3935      79507472 
 3935      00
 3936              	.LASF204:
 3937 0fb7 61707065 		.ascii	"appearanceCharHandle\000"
 3937      6172616E 
 3937      63654368 
 3937      61724861 
 3937      6E646C65 
ARM GAS  C:\Users\Lucia\AppData\Local\Temp\cc0KspdR.s 			page 106


 3938              	.LASF34:
 3939 0fcc 4359424C 		.ascii	"CYBLE_EVT_GAP_ENCRYPT_CHANGE\000"
 3939      455F4556 
 3939      545F4741 
 3939      505F454E 
 3939      43525950 
 3940              	.LASF52:
 3941 0fe9 4359424C 		.ascii	"CYBLE_EVT_GATTS_XCNHG_MTU_REQ\000"
 3941      455F4556 
 3941      545F4741 
 3941      5454535F 
 3941      58434E48 
 3942              	.LASF192:
 3943 1007 4359424C 		.ascii	"CYBLE_HRS_HRM\000"
 3943      455F4852 
 3943      535F4852 
 3943      4D00
 3944              	.LASF48:
 3945 1015 4359424C 		.ascii	"CYBLE_EVT_GAP_SMP_LOC_P256_KEYS_GEN_AND_SET_COMPLET"
 3945      455F4556 
 3945      545F4741 
 3945      505F534D 
 3945      505F4C4F 
 3946 1048 4500     		.ascii	"E\000"
 3947              	.LASF182:
 3948 104a 4359424C 		.ascii	"CYBLE_DIS_MANUFACTURER_NAME\000"
 3948      455F4449 
 3948      535F4D41 
 3948      4E554641 
 3948      43545552 
 3949              	.LASF7:
 3950 1066 6C6F6E67 		.ascii	"long long unsigned int\000"
 3950      206C6F6E 
 3950      6720756E 
 3950      7369676E 
 3950      65642069 
 3951              	.LASF20:
 3952 107d 4359424C 		.ascii	"CYBLE_EVT_TIMEOUT\000"
 3952      455F4556 
 3952      545F5449 
 3952      4D454F55 
 3952      5400
 3953              	.LASF121:
 3954 108f 4359424C 		.ascii	"CYBLE_ERROR_INVALID_STATE\000"
 3954      455F4552 
 3954      524F525F 
 3954      494E5641 
 3954      4C49445F 
 3955              	.LASF165:
 3956 10a9 4359424C 		.ascii	"CYBLE_GATT_DB_ATTR_HANDLE_T\000"
 3956      455F4741 
 3956      54545F44 
 3956      425F4154 
 3956      54525F48 
 3957              	.LASF81:
 3958 10c5 4359424C 		.ascii	"CYBLE_EVT_L2CAP_CBFC_DATA_READ\000"
 3958      455F4556 
ARM GAS  C:\Users\Lucia\AppData\Local\Temp\cc0KspdR.s 			page 107


 3958      545F4C32 
 3958      4341505F 
 3958      43424643 
 3959              	.LASF236:
 3960 10e4 76616C75 		.ascii	"value\000"
 3960      6500
 3961              	.LASF179:
 3962 10ea 61747456 		.ascii	"attValue\000"
 3962      616C7565 
 3962      00
 3963              	.LASF237:
 3964 10f3 4379426C 		.ascii	"CyBle_ApplCallback\000"
 3964      655F4170 
 3964      706C4361 
 3964      6C6C6261 
 3964      636B00
 3965              	.LASF115:
 3966 1106 4359424C 		.ascii	"CYBLE_ERROR_FLASH_WRITE\000"
 3966      455F4552 
 3966      524F525F 
 3966      464C4153 
 3966      485F5752 
 3967              	.LASF208:
 3968 111e 4359424C 		.ascii	"CYBLE_GAPS_T\000"
 3968      455F4741 
 3968      50535F54 
 3968      00
 3969              	.LASF126:
 3970 112b 4359424C 		.ascii	"CYBLE_GAP_BD_ADDR_T\000"
 3970      455F4741 
 3970      505F4244 
 3970      5F414444 
 3970      525F5400 
 3971              	.LASF137:
 3972 113f 70726976 		.ascii	"privacyConfig\000"
 3972      61637943 
 3972      6F6E6669 
 3972      6700
 3973              	.LASF166:
 3974 114d 61637475 		.ascii	"actualLength\000"
 3974      616C4C65 
 3974      6E677468 
 3974      00
 3975              	.LASF156:
 3976 115a 61647644 		.ascii	"advDataLen\000"
 3976      6174614C 
 3976      656E00
 3977              	.LASF223:
 3978 1165 64657374 		.ascii	"dest\000"
 3978      00
 3979              	.LASF164:
 3980 116a 4359424C 		.ascii	"CYBLE_GAPP_DISC_MODE_INFO_T\000"
 3980      455F4741 
 3980      50505F44 
 3980      4953435F 
 3980      4D4F4445 
 3981              	.LASF56:
ARM GAS  C:\Users\Lucia\AppData\Local\Temp\cc0KspdR.s 			page 108


 3982 1186 4359424C 		.ascii	"CYBLE_EVT_GATTC_FIND_INFO_RSP\000"
 3982      455F4556 
 3982      545F4741 
 3982      5454435F 
 3982      46494E44 
 3983              	.LASF55:
 3984 11a4 4359424C 		.ascii	"CYBLE_EVT_GATTC_READ_BY_TYPE_RSP\000"
 3984      455F4556 
 3984      545F4741 
 3984      5454435F 
 3984      52454144 
 3985              	.LASF218:
 3986 11c5 4379426C 		.ascii	"CyBle_Start\000"
 3986      655F5374 
 3986      61727400 
 3987              	.LASF248:
 3988 11d1 6379426C 		.ascii	"cyBle_state\000"
 3988      655F7374 
 3988      61746500 
 3989              	.LASF213:
 3990 11dd 646C6543 		.ascii	"dleConfigParams\000"
 3990      6F6E6669 
 3990      67506172 
 3990      616D7300 
 3991              	.LASF62:
 3992 11ed 4359424C 		.ascii	"CYBLE_EVT_GATTC_WRITE_RSP\000"
 3992      455F4556 
 3992      545F4741 
 3992      5454435F 
 3992      57524954 
 3993              	.LASF200:
 3994 1207 4359424C 		.ascii	"CYBLE_STATE_DISCONNECTED\000"
 3994      455F5354 
 3994      4154455F 
 3994      44495343 
 3994      4F4E4E45 
 3995              	.LASF174:
 3996 1220 4359424C 		.ascii	"CYBLE_GATTS_ATT_VALUE_T\000"
 3996      455F4741 
 3996      5454535F 
 3996      4154545F 
 3996      56414C55 
 3997              	.LASF171:
 3998 1238 4359424C 		.ascii	"CYBLE_GATTS_ATT_PACK_VAL_LEN_T\000"
 3998      455F4741 
 3998      5454535F 
 3998      4154545F 
 3998      5041434B 
 3999              	.LASF31:
 4000 1257 4359424C 		.ascii	"CYBLE_EVT_GAPP_ADVERTISEMENT_START_STOP\000"
 4000      455F4556 
 4000      545F4741 
 4000      50505F41 
 4000      44564552 
 4001              	.LASF160:
 4002 127f 4359424C 		.ascii	"CYBLE_GAPP_SCAN_RSP_DATA_T\000"
 4002      455F4741 
ARM GAS  C:\Users\Lucia\AppData\Local\Temp\cc0KspdR.s 			page 109


 4002      50505F53 
 4002      43414E5F 
 4002      5253505F 
 4003              	.LASF167:
 4004 129a 61747447 		.ascii	"attGenericVal\000"
 4004      656E6572 
 4004      69635661 
 4004      6C00
 4005              	.LASF225:
 4006 12a8 6E616D65 		.ascii	"name\000"
 4006      00
 4007              	.LASF9:
 4008 12ad 75696E74 		.ascii	"uint8\000"
 4008      3800
 4009              	.LASF238:
 4010 12b3 6379426C 		.ascii	"cyBle_initVar\000"
 4010      655F696E 
 4010      69745661 
 4010      7200
 4011              	.LASF39:
 4012 12c1 4359424C 		.ascii	"CYBLE_EVT_GAP_KEYPRESS_NOTIFICATION\000"
 4012      455F4556 
 4012      545F4741 
 4012      505F4B45 
 4012      59505245 
 4013              	.LASF2:
 4014 12e5 73686F72 		.ascii	"short int\000"
 4014      7420696E 
 4014      7400
 4015              	.LASF230:
 4016 12ef 4379426C 		.ascii	"CyBle_GapSetLocalName\000"
 4016      655F4761 
 4016      70536574 
 4016      4C6F6361 
 4016      6C4E616D 
 4017              	.LASF170:
 4018 1305 61747447 		.ascii	"attGenericValLen\000"
 4018      656E6572 
 4018      69635661 
 4018      6C4C656E 
 4018      00
 4019              	.LASF172:
 4020 1316 61747446 		.ascii	"attFormatValue\000"
 4020      6F726D61 
 4020      7456616C 
 4020      756500
 4021              	.LASF159:
 4022 1325 7363616E 		.ascii	"scanRspDataLen\000"
 4022      52737044 
 4022      6174614C 
 4022      656E00
 4023              	.LASF113:
 4024 1334 4359424C 		.ascii	"CYBLE_ERROR_HARDWARE_FAILURE\000"
 4024      455F4552 
 4024      524F525F 
 4024      48415244 
 4024      57415245 
ARM GAS  C:\Users\Lucia\AppData\Local\Temp\cc0KspdR.s 			page 110


 4025              	.LASF195:
 4026 1351 4359424C 		.ascii	"CYBLE_HRS_CHAR_COUNT\000"
 4026      455F4852 
 4026      535F4348 
 4026      41525F43 
 4026      4F554E54 
 4027              	.LASF49:
 4028 1366 4359424C 		.ascii	"CYBLE_EVT_GATTC_ERROR_RSP\000"
 4028      455F4556 
 4028      545F4741 
 4028      5454435F 
 4028      4552524F 
 4029              	.LASF201:
 4030 1380 4359424C 		.ascii	"CYBLE_STATE_T\000"
 4030      455F5354 
 4030      4154455F 
 4030      5400
 4031              	.LASF142:
 4032 138e 4359424C 		.ascii	"CYBLE_GAPP_SCANNABLE_UNDIRECTED_ADV\000"
 4032      455F4741 
 4032      50505F53 
 4032      43414E4E 
 4032      41424C45 
 4033              	.LASF77:
 4034 13b2 4359424C 		.ascii	"CYBLE_EVT_L2CAP_CBFC_CONN_IND\000"
 4034      455F4556 
 4034      545F4C32 
 4034      4341505F 
 4034      43424643 
 4035              	.LASF65:
 4036 13d0 4359424C 		.ascii	"CYBLE_EVT_GATTS_EXEC_WRITE_REQ\000"
 4036      455F4556 
 4036      545F4741 
 4036      5454535F 
 4036      45584543 
 4037              	.LASF25:
 4038 13ef 4359424C 		.ascii	"CYBLE_EVT_GAPC_SCAN_PROGRESS_RESULT\000"
 4038      455F4556 
 4038      545F4741 
 4038      50435F53 
 4038      43414E5F 
 4039              	.LASF224:
 4040 1413 64657374 		.ascii	"destBuffer\000"
 4040      42756666 
 4040      657200
 4041              	.LASF246:
 4042 141e 6379426C 		.ascii	"cyBle_discoveryModeInfo\000"
 4042      655F6469 
 4042      73636F76 
 4042      6572794D 
 4042      6F646549 
 4043              	.LASF99:
 4044 1436 4359424C 		.ascii	"CYBLE_ERROR_GAP_ROLE\000"
 4044      455F4552 
 4044      524F525F 
 4044      4741505F 
 4044      524F4C45 
ARM GAS  C:\Users\Lucia\AppData\Local\Temp\cc0KspdR.s 			page 111


 4045              	.LASF239:
 4046 144b 6379426C 		.ascii	"cyBle_stackMemoryRam\000"
 4046      655F7374 
 4046      61636B4D 
 4046      656D6F72 
 4046      7952616D 
 4047              	.LASF46:
 4048 1460 4359424C 		.ascii	"CYBLE_EVT_GAP_SCAN_REQ_RECVD\000"
 4048      455F4556 
 4048      545F4741 
 4048      505F5343 
 4048      414E5F52 
 4049              	.LASF206:
 4050 147d 63656E74 		.ascii	"centralAddrResolutionCharHandle\000"
 4050      72616C41 
 4050      64647252 
 4050      65736F6C 
 4050      7574696F 
 4051              	.LASF124:
 4052 149d 62644164 		.ascii	"bdAddr\000"
 4052      647200
 4053              	.LASF250:
 4054 14a4 6379426C 		.ascii	"cyBle_gaps\000"
 4054      655F6761 
 4054      707300
 4055              	.LASF240:
 4056 14af 6379426C 		.ascii	"cyBle_eventHandlerFlag\000"
 4056      655F6576 
 4056      656E7448 
 4056      616E646C 
 4056      6572466C 
 4057              	.LASF96:
 4058 14c6 4359424C 		.ascii	"CYBLE_ERROR_NO_CONNECTION\000"
 4058      455F4552 
 4058      524F525F 
 4058      4E4F5F43 
 4058      4F4E4E45 
 4059              	.LASF228:
 4060 14e0 62797465 		.ascii	"byteCounter\000"
 4060      436F756E 
 4060      74657200 
 4061              	.LASF86:
 4062 14ec 4359424C 		.ascii	"CYBLE_EVT_LE_PING_AUTH_TIMEOUT\000"
 4062      455F4556 
 4062      545F4C45 
 4062      5F50494E 
 4062      475F4155 
 4063              	.LASF123:
 4064 150b 4359424C 		.ascii	"CYBLE_API_RESULT_T\000"
 4064      455F4150 
 4064      495F5245 
 4064      53554C54 
 4064      5F5400
 4065              	.LASF68:
 4066 151e 4359424C 		.ascii	"CYBLE_EVT_GATTC_HANDLE_VALUE_IND\000"
 4066      455F4556 
 4066      545F4741 
ARM GAS  C:\Users\Lucia\AppData\Local\Temp\cc0KspdR.s 			page 112


 4066      5454435F 
 4066      48414E44 
 4067              	.LASF102:
 4068 153f 4359424C 		.ascii	"CYBLE_ERROR_SEC_FAILED\000"
 4068      455F4552 
 4068      524F525F 
 4068      5345435F 
 4068      4641494C 
 4069              	.LASF23:
 4070 1556 4359424C 		.ascii	"CYBLE_EVT_STACK_BUSY_STATUS\000"
 4070      455F4556 
 4070      545F5354 
 4070      41434B5F 
 4070      42555359 
 4071              	.LASF37:
 4072 1572 4359424C 		.ascii	"CYBLE_EVT_GAP_KEYINFO_EXCHNGE_CMPLT\000"
 4072      455F4556 
 4072      545F4741 
 4072      505F4B45 
 4072      59494E46 
 4073              	.LASF74:
 4074 1596 4359424C 		.ascii	"CYBLE_EVT_L2CAP_CONN_PARAM_UPDATE_REQ\000"
 4074      455F4556 
 4074      545F4C32 
 4074      4341505F 
 4074      434F4E4E 
 4075              	.LASF244:
 4076 15bc 6379426C 		.ascii	"cyBle_discoveryData\000"
 4076      655F6469 
 4076      73636F76 
 4076      65727944 
 4076      61746100 
 4077              	.LASF202:
 4078 15d0 67617053 		.ascii	"gapServiceCharHandle\000"
 4078      65727669 
 4078      63654368 
 4078      61724861 
 4078      6E646C65 
 4079              	.LASF3:
 4080 15e5 73686F72 		.ascii	"short unsigned int\000"
 4080      7420756E 
 4080      7369676E 
 4080      65642069 
 4080      6E7400
 4081              	.LASF151:
 4082 15f8 64697265 		.ascii	"directAddr\000"
 4082      63744164 
 4082      647200
 4083              	.LASF198:
 4084 1603 4359424C 		.ascii	"CYBLE_STATE_CONNECTED\000"
 4084      455F5354 
 4084      4154455F 
 4084      434F4E4E 
 4084      45435445 
 4085              	.LASF254:
 4086 1619 413A5C44 		.ascii	"A:\\Documents\\School\\ECEG-721_Embedded_Systems\\L"
 4086      6F63756D 
ARM GAS  C:\Users\Lucia\AppData\Local\Temp\cc0KspdR.s 			page 113


 4086      656E7473 
 4086      5C536368 
 4086      6F6F6C5C 
 4087 1648 6162735C 		.ascii	"abs\\Project\\Day002_Heart_Rate_Sensor\\PSoC 4 BLE "
 4087      50726F6A 
 4087      6563745C 
 4087      44617930 
 4087      30325F48 
 4088 1678 2D204865 		.ascii	"- Heart Rate Sensor\\PSoC 4 BLE_Heart_Rate_Sensor.c"
 4088      61727420 
 4088      52617465 
 4088      2053656E 
 4088      736F725C 
 4089 16aa 7964736E 		.ascii	"ydsn\000"
 4089      00
 4090              	.LASF131:
 4091 16af 646C654D 		.ascii	"dleMaxRxCapability\000"
 4091      61785278 
 4091      43617061 
 4091      62696C69 
 4091      747900
 4092              	.LASF152:
 4093 16c2 61647643 		.ascii	"advChannelMap\000"
 4093      68616E6E 
 4093      656C4D61 
 4093      7000
 4094              	.LASF140:
 4095 16d0 4359424C 		.ascii	"CYBLE_GAPP_CONNECTABLE_UNDIRECTED_ADV\000"
 4095      455F4741 
 4095      50505F43 
 4095      4F4E4E45 
 4095      43544142 
 4096              	.LASF92:
 4097 16f6 4359424C 		.ascii	"CYBLE_ERROR_INVALID_OPERATION\000"
 4097      455F4552 
 4097      524F525F 
 4097      494E5641 
 4097      4C49445F 
 4098              	.LASF227:
 4099 1714 61644C65 		.ascii	"adLength\000"
 4099      6E677468 
 4099      00
 4100              	.LASF22:
 4101 171d 4359424C 		.ascii	"CYBLE_EVT_HCI_STATUS\000"
 4101      455F4556 
 4101      545F4843 
 4101      495F5354 
 4101      41545553 
 4102              	.LASF51:
 4103 1732 4359424C 		.ascii	"CYBLE_EVT_GATT_DISCONNECT_IND\000"
 4103      455F4556 
 4103      545F4741 
 4103      54545F44 
 4103      4953434F 
 4104              	.LASF84:
 4105 1750 4359424C 		.ascii	"CYBLE_EVT_L2CAP_CBFC_DATA_WRITE_IND\000"
 4105      455F4556 
ARM GAS  C:\Users\Lucia\AppData\Local\Temp\cc0KspdR.s 			page 114


 4105      545F4C32 
 4105      4341505F 
 4105      43424643 
 4106              	.LASF73:
 4107 1774 4359424C 		.ascii	"CYBLE_EVT_GATTC_LONG_PROCEDURE_END\000"
 4107      455F4556 
 4107      545F4741 
 4107      5454435F 
 4107      4C4F4E47 
 4108              	.LASF33:
 4109 1797 4359424C 		.ascii	"CYBLE_EVT_GAP_DEVICE_DISCONNECTED\000"
 4109      455F4556 
 4109      545F4741 
 4109      505F4445 
 4109      56494345 
 4110              	.LASF69:
 4111 17b9 4359424C 		.ascii	"CYBLE_EVT_GATTS_HANDLE_VALUE_CNF\000"
 4111      455F4556 
 4111      545F4741 
 4111      5454535F 
 4111      48414E44 
 4112              	.LASF10:
 4113 17da 75696E74 		.ascii	"uint16\000"
 4113      313600
 4114              	.LASF149:
 4115 17e1 6F776E41 		.ascii	"ownAddrType\000"
 4115      64647254 
 4115      79706500 
 4116              	.LASF100:
 4117 17ed 4359424C 		.ascii	"CYBLE_ERROR_TX_POWER_READ\000"
 4117      455F4552 
 4117      524F525F 
 4117      54585F50 
 4117      4F574552 
 4118              	.LASF147:
 4119 1807 61647649 		.ascii	"advIntvMax\000"
 4119      6E74764D 
 4119      617800
 4120              		.ident	"GCC: (GNU Tools for ARM Embedded Processors) 5.4.1 20160609 (release) [ARM/embedded-5-bran
