ARM GAS  C:\Users\Lucia\AppData\Local\Temp\cckdaJ7p.s 			page 1


   1              		.syntax unified
   2              		.cpu cortex-m0
   3              		.fpu softvfp
   4              		.eabi_attribute 20, 1
   5              		.eabi_attribute 21, 1
   6              		.eabi_attribute 23, 3
   7              		.eabi_attribute 24, 1
   8              		.eabi_attribute 25, 1
   9              		.eabi_attribute 26, 1
  10              		.eabi_attribute 30, 6
  11              		.eabi_attribute 34, 0
  12              		.eabi_attribute 18, 4
  13              		.thumb
  14              		.syntax unified
  15              		.file	"CYBLE_hrs.c"
  16              		.text
  17              	.Ltext0:
  18              		.cfi_sections	.debug_frame
  19              		.bss
  20              		.align	2
  21              	CyBle_HrsApplCallback:
  22 0000 00000000 		.space	4
  23              		.global	cyBle_hrss
  24              		.section	.rodata
  25              		.align	2
  26              		.type	cyBle_hrss, %object
  27              		.size	cyBle_hrss, 10
  28              	cyBle_hrss:
  29 0000 0C00     		.short	12
  30 0002 0E00     		.short	14
  31 0004 1100     		.short	17
  32 0006 1300     		.short	19
  33 0008 0F00     		.short	15
  34              		.section	.text.CyBle_HrsInit,"ax",%progbits
  35              		.align	2
  36              		.global	CyBle_HrsInit
  37              		.code	16
  38              		.thumb_func
  39              		.type	CyBle_HrsInit, %function
  40              	CyBle_HrsInit:
  41              	.LFB2:
  42              		.file 1 "Generated_Source\\PSoC4\\CYBLE_hrs.c"
   1:Generated_Source\PSoC4/CYBLE_hrs.c **** /***************************************************************************//**
   2:Generated_Source\PSoC4/CYBLE_hrs.c **** * \file CYBLE_hrs.c
   3:Generated_Source\PSoC4/CYBLE_hrs.c **** * \version 3.66
   4:Generated_Source\PSoC4/CYBLE_hrs.c **** * 
   5:Generated_Source\PSoC4/CYBLE_hrs.c **** * \brief
   6:Generated_Source\PSoC4/CYBLE_hrs.c **** *  This file contains the source code for the Heart Rate Service of 
   7:Generated_Source\PSoC4/CYBLE_hrs.c **** *  the BLE Component.
   8:Generated_Source\PSoC4/CYBLE_hrs.c **** * 
   9:Generated_Source\PSoC4/CYBLE_hrs.c **** ********************************************************************************
  10:Generated_Source\PSoC4/CYBLE_hrs.c **** * \copyright
  11:Generated_Source\PSoC4/CYBLE_hrs.c **** * Copyright 2014-2020, Cypress Semiconductor Corporation.  All rights reserved.
  12:Generated_Source\PSoC4/CYBLE_hrs.c **** * You may use this file only in accordance with the license, terms, conditions,
  13:Generated_Source\PSoC4/CYBLE_hrs.c **** * disclaimers, and limitations in the end user license agreement accompanying
  14:Generated_Source\PSoC4/CYBLE_hrs.c **** * the software package with which this file was provided.
  15:Generated_Source\PSoC4/CYBLE_hrs.c **** *******************************************************************************/
ARM GAS  C:\Users\Lucia\AppData\Local\Temp\cckdaJ7p.s 			page 2


  16:Generated_Source\PSoC4/CYBLE_hrs.c **** 
  17:Generated_Source\PSoC4/CYBLE_hrs.c **** 
  18:Generated_Source\PSoC4/CYBLE_hrs.c **** #include "CYBLE_eventHandler.h"
  19:Generated_Source\PSoC4/CYBLE_hrs.c **** 
  20:Generated_Source\PSoC4/CYBLE_hrs.c **** static CYBLE_CALLBACK_T CyBle_HrsApplCallback;
  21:Generated_Source\PSoC4/CYBLE_hrs.c **** 
  22:Generated_Source\PSoC4/CYBLE_hrs.c **** #ifdef CYBLE_HRS_SERVER
  23:Generated_Source\PSoC4/CYBLE_hrs.c **** 
  24:Generated_Source\PSoC4/CYBLE_hrs.c **** const CYBLE_HRSS_T cyBle_hrss =
  25:Generated_Source\PSoC4/CYBLE_hrs.c **** {
  26:Generated_Source\PSoC4/CYBLE_hrs.c ****     0x000Cu,    /* Handle of the HRS service */
  27:Generated_Source\PSoC4/CYBLE_hrs.c ****     {
  28:Generated_Source\PSoC4/CYBLE_hrs.c ****         0x000Eu, /* Handle of the Heart Rate Measurement characteristic */ 
  29:Generated_Source\PSoC4/CYBLE_hrs.c ****         0x0011u, /* Handle of the Body Sensor Location characteristic */ 
  30:Generated_Source\PSoC4/CYBLE_hrs.c ****         0x0013u, /* Handle of the Heart Rate Control Point characteristic */ 
  31:Generated_Source\PSoC4/CYBLE_hrs.c ****     },
  32:Generated_Source\PSoC4/CYBLE_hrs.c ****     0x000Fu,    /* Handle of the Client Characteristic Configuration descriptor */
  33:Generated_Source\PSoC4/CYBLE_hrs.c **** };
  34:Generated_Source\PSoC4/CYBLE_hrs.c **** 
  35:Generated_Source\PSoC4/CYBLE_hrs.c **** #endif /* CYBLE_HRS_SERVER */
  36:Generated_Source\PSoC4/CYBLE_hrs.c **** 
  37:Generated_Source\PSoC4/CYBLE_hrs.c **** #ifdef CYBLE_HRS_CLIENT
  38:Generated_Source\PSoC4/CYBLE_hrs.c ****     
  39:Generated_Source\PSoC4/CYBLE_hrs.c **** /* Server's Heart Rate Service characteristics GATT DB handles structure */
  40:Generated_Source\PSoC4/CYBLE_hrs.c **** CYBLE_HRSC_T cyBle_hrsc;
  41:Generated_Source\PSoC4/CYBLE_hrs.c **** 
  42:Generated_Source\PSoC4/CYBLE_hrs.c **** /* Internal storage for last request handle to check the response */
  43:Generated_Source\PSoC4/CYBLE_hrs.c **** static CYBLE_GATT_DB_ATTR_HANDLE_T cyBle_hrscReqHandle;
  44:Generated_Source\PSoC4/CYBLE_hrs.c **** #endif /* CYBLE_HRS_CLIENT */
  45:Generated_Source\PSoC4/CYBLE_hrs.c **** 
  46:Generated_Source\PSoC4/CYBLE_hrs.c **** 
  47:Generated_Source\PSoC4/CYBLE_hrs.c **** /****************************************************************************** 
  48:Generated_Source\PSoC4/CYBLE_hrs.c **** * Function Name: CyBle_HrsInit
  49:Generated_Source\PSoC4/CYBLE_hrs.c **** ***************************************************************************//**
  50:Generated_Source\PSoC4/CYBLE_hrs.c **** * 
  51:Generated_Source\PSoC4/CYBLE_hrs.c **** *  Initializes the profile internals.
  52:Generated_Source\PSoC4/CYBLE_hrs.c **** * 
  53:Generated_Source\PSoC4/CYBLE_hrs.c **** ******************************************************************************/
  54:Generated_Source\PSoC4/CYBLE_hrs.c **** void CyBle_HrsInit(void)
  55:Generated_Source\PSoC4/CYBLE_hrs.c **** {
  43              		.loc 1 55 0
  44              		.cfi_startproc
  45              		@ args = 0, pretend = 0, frame = 0
  46              		@ frame_needed = 1, uses_anonymous_args = 0
  47 0000 80B5     		push	{r7, lr}
  48              		.cfi_def_cfa_offset 8
  49              		.cfi_offset 7, -8
  50              		.cfi_offset 14, -4
  51 0002 00AF     		add	r7, sp, #0
  52              		.cfi_def_cfa_register 7
  56:Generated_Source\PSoC4/CYBLE_hrs.c **** #ifdef CYBLE_HRS_CLIENT
  57:Generated_Source\PSoC4/CYBLE_hrs.c ****     if(cyBle_serverInfo[CYBLE_SRVI_HRS].range.startHandle == CYBLE_GATT_INVALID_ATTR_HANDLE_VALUE)
  58:Generated_Source\PSoC4/CYBLE_hrs.c ****     {
  59:Generated_Source\PSoC4/CYBLE_hrs.c ****         (void)memset(&cyBle_hrsc, 0, sizeof(cyBle_hrsc));
  60:Generated_Source\PSoC4/CYBLE_hrs.c ****     }
  61:Generated_Source\PSoC4/CYBLE_hrs.c ****     cyBle_hrscReqHandle = CYBLE_GATT_INVALID_ATTR_HANDLE_VALUE;
  62:Generated_Source\PSoC4/CYBLE_hrs.c **** #endif /* CYBLE_GATT_ROLE_CLIENT */
ARM GAS  C:\Users\Lucia\AppData\Local\Temp\cckdaJ7p.s 			page 3


  63:Generated_Source\PSoC4/CYBLE_hrs.c **** }
  53              		.loc 1 63 0
  54 0004 C046     		nop
  55 0006 BD46     		mov	sp, r7
  56              		@ sp needed
  57 0008 80BD     		pop	{r7, pc}
  58              		.cfi_endproc
  59              	.LFE2:
  60              		.size	CyBle_HrsInit, .-CyBle_HrsInit
  61 000a C046     		.section	.text.CyBle_HrsRegisterAttrCallback,"ax",%progbits
  62              		.align	2
  63              		.global	CyBle_HrsRegisterAttrCallback
  64              		.code	16
  65              		.thumb_func
  66              		.type	CyBle_HrsRegisterAttrCallback, %function
  67              	CyBle_HrsRegisterAttrCallback:
  68              	.LFB3:
  64:Generated_Source\PSoC4/CYBLE_hrs.c **** 
  65:Generated_Source\PSoC4/CYBLE_hrs.c **** 
  66:Generated_Source\PSoC4/CYBLE_hrs.c **** /****************************************************************************** 
  67:Generated_Source\PSoC4/CYBLE_hrs.c **** * Function Name: CyBle_HrsRegisterAttrCallback
  68:Generated_Source\PSoC4/CYBLE_hrs.c **** ***************************************************************************//**
  69:Generated_Source\PSoC4/CYBLE_hrs.c **** * 
  70:Generated_Source\PSoC4/CYBLE_hrs.c **** *  Registers a callback function for service specific attribute operations.
  71:Generated_Source\PSoC4/CYBLE_hrs.c **** *  Service specific write requests from peer device will not be handled with
  72:Generated_Source\PSoC4/CYBLE_hrs.c **** *  unregistered callback function.
  73:Generated_Source\PSoC4/CYBLE_hrs.c **** * 
  74:Generated_Source\PSoC4/CYBLE_hrs.c **** *  \param callbackFunc: An application layer event callback function to receive 
  75:Generated_Source\PSoC4/CYBLE_hrs.c **** *                    events from the BLE Component. The definition of 
  76:Generated_Source\PSoC4/CYBLE_hrs.c **** *                    CYBLE_CALLBACK_T for HRS Service is: \n
  77:Generated_Source\PSoC4/CYBLE_hrs.c **** *                    typedef void (* CYBLE_CALLBACK_T) (uint32 eventCode, 
  78:Generated_Source\PSoC4/CYBLE_hrs.c **** *                                                       void *eventParam)
  79:Generated_Source\PSoC4/CYBLE_hrs.c **** *                    * eventCode indicates the event that triggered this 
  80:Generated_Source\PSoC4/CYBLE_hrs.c **** *                      callback (e.g. CYBLE_EVT_HRSS_NOTIFICATION_ENABLED).
  81:Generated_Source\PSoC4/CYBLE_hrs.c **** *                    * eventParam contains the parameters corresponding to the 
  82:Generated_Source\PSoC4/CYBLE_hrs.c **** *                      current event. (e.g. pointer to CYBLE_HRS_CHAR_VALUE_T
  83:Generated_Source\PSoC4/CYBLE_hrs.c **** *                      structure that contains details of the characteristic 
  84:Generated_Source\PSoC4/CYBLE_hrs.c **** *                      for which notification enabled event was triggered).
  85:Generated_Source\PSoC4/CYBLE_hrs.c **** *
  86:Generated_Source\PSoC4/CYBLE_hrs.c **** ******************************************************************************/
  87:Generated_Source\PSoC4/CYBLE_hrs.c **** void CyBle_HrsRegisterAttrCallback(CYBLE_CALLBACK_T callbackFunc)
  88:Generated_Source\PSoC4/CYBLE_hrs.c **** {
  69              		.loc 1 88 0
  70              		.cfi_startproc
  71              		@ args = 0, pretend = 0, frame = 8
  72              		@ frame_needed = 1, uses_anonymous_args = 0
  73 0000 80B5     		push	{r7, lr}
  74              		.cfi_def_cfa_offset 8
  75              		.cfi_offset 7, -8
  76              		.cfi_offset 14, -4
  77 0002 82B0     		sub	sp, sp, #8
  78              		.cfi_def_cfa_offset 16
  79 0004 00AF     		add	r7, sp, #0
  80              		.cfi_def_cfa_register 7
  81 0006 7860     		str	r0, [r7, #4]
  89:Generated_Source\PSoC4/CYBLE_hrs.c ****     CyBle_HrsApplCallback = callbackFunc;
  82              		.loc 1 89 0
ARM GAS  C:\Users\Lucia\AppData\Local\Temp\cckdaJ7p.s 			page 4


  83 0008 034B     		ldr	r3, .L3
  84 000a 7A68     		ldr	r2, [r7, #4]
  85 000c 1A60     		str	r2, [r3]
  90:Generated_Source\PSoC4/CYBLE_hrs.c **** }
  86              		.loc 1 90 0
  87 000e C046     		nop
  88 0010 BD46     		mov	sp, r7
  89 0012 02B0     		add	sp, sp, #8
  90              		@ sp needed
  91 0014 80BD     		pop	{r7, pc}
  92              	.L4:
  93 0016 C046     		.align	2
  94              	.L3:
  95 0018 00000000 		.word	CyBle_HrsApplCallback
  96              		.cfi_endproc
  97              	.LFE3:
  98              		.size	CyBle_HrsRegisterAttrCallback, .-CyBle_HrsRegisterAttrCallback
  99              		.section	.text.CyBle_HrssSetCharacteristicValue,"ax",%progbits
 100              		.align	2
 101              		.global	CyBle_HrssSetCharacteristicValue
 102              		.code	16
 103              		.thumb_func
 104              		.type	CyBle_HrssSetCharacteristicValue, %function
 105              	CyBle_HrssSetCharacteristicValue:
 106              	.LFB4:
  91:Generated_Source\PSoC4/CYBLE_hrs.c **** 
  92:Generated_Source\PSoC4/CYBLE_hrs.c **** 
  93:Generated_Source\PSoC4/CYBLE_hrs.c **** #ifdef CYBLE_HRS_SERVER
  94:Generated_Source\PSoC4/CYBLE_hrs.c **** 
  95:Generated_Source\PSoC4/CYBLE_hrs.c **** 
  96:Generated_Source\PSoC4/CYBLE_hrs.c **** /****************************************************************************** 
  97:Generated_Source\PSoC4/CYBLE_hrs.c **** * Function Name: CyBle_HrssSetCharacteristicValue
  98:Generated_Source\PSoC4/CYBLE_hrs.c **** ***************************************************************************//**
  99:Generated_Source\PSoC4/CYBLE_hrs.c **** * 
 100:Generated_Source\PSoC4/CYBLE_hrs.c **** *  Sets local characteristic value of the specified Heart Rate Service 
 101:Generated_Source\PSoC4/CYBLE_hrs.c **** *  characteristic.
 102:Generated_Source\PSoC4/CYBLE_hrs.c **** * 
 103:Generated_Source\PSoC4/CYBLE_hrs.c **** *  \param charIndex: The index of a service characteristic.
 104:Generated_Source\PSoC4/CYBLE_hrs.c **** *  \param attrSize:  The size of the characteristic value attribute.
 105:Generated_Source\PSoC4/CYBLE_hrs.c **** *  \param attrValue: The pointer to the characteristic value data that should 
 106:Generated_Source\PSoC4/CYBLE_hrs.c **** *                    be stored in the GATT database.
 107:Generated_Source\PSoC4/CYBLE_hrs.c **** * 
 108:Generated_Source\PSoC4/CYBLE_hrs.c **** * \return
 109:Generated_Source\PSoC4/CYBLE_hrs.c **** *  Return value is of type CYBLE_API_RESULT_T.
 110:Generated_Source\PSoC4/CYBLE_hrs.c **** *  * CYBLE_ERROR_OK - The request handled successfully.
 111:Generated_Source\PSoC4/CYBLE_hrs.c **** *  * CYBLE_ERROR_INVALID_PARAMETER - Validation of the input parameter failed.
 112:Generated_Source\PSoC4/CYBLE_hrs.c **** *  * CYBLE_ERROR_GATT_DB_INVALID_ATTR_HANDLE - Optional characteristic is 
 113:Generated_Source\PSoC4/CYBLE_hrs.c **** *                                              absent.
 114:Generated_Source\PSoC4/CYBLE_hrs.c **** *
 115:Generated_Source\PSoC4/CYBLE_hrs.c **** ******************************************************************************/
 116:Generated_Source\PSoC4/CYBLE_hrs.c **** CYBLE_API_RESULT_T CyBle_HrssSetCharacteristicValue(CYBLE_HRS_CHAR_INDEX_T charIndex, uint8 attrSiz
 117:Generated_Source\PSoC4/CYBLE_hrs.c **** {
 107              		.loc 1 117 0
 108              		.cfi_startproc
 109              		@ args = 0, pretend = 0, frame = 24
 110              		@ frame_needed = 1, uses_anonymous_args = 0
 111 0000 80B5     		push	{r7, lr}
ARM GAS  C:\Users\Lucia\AppData\Local\Temp\cckdaJ7p.s 			page 5


 112              		.cfi_def_cfa_offset 8
 113              		.cfi_offset 7, -8
 114              		.cfi_offset 14, -4
 115 0002 86B0     		sub	sp, sp, #24
 116              		.cfi_def_cfa_offset 32
 117 0004 00AF     		add	r7, sp, #0
 118              		.cfi_def_cfa_register 7
 119 0006 3A60     		str	r2, [r7]
 120 0008 FB1D     		adds	r3, r7, #7
 121 000a 021C     		adds	r2, r0, #0
 122 000c 1A70     		strb	r2, [r3]
 123 000e BB1D     		adds	r3, r7, #6
 124 0010 0A1C     		adds	r2, r1, #0
 125 0012 1A70     		strb	r2, [r3]
 118:Generated_Source\PSoC4/CYBLE_hrs.c ****     CYBLE_API_RESULT_T apiResult = CYBLE_ERROR_OK;
 126              		.loc 1 118 0
 127 0014 1623     		movs	r3, #22
 128 0016 FB18     		adds	r3, r7, r3
 129 0018 0022     		movs	r2, #0
 130 001a 1A80     		strh	r2, [r3]
 119:Generated_Source\PSoC4/CYBLE_hrs.c ****     CYBLE_GATT_HANDLE_VALUE_PAIR_T locHandleValuePair;
 120:Generated_Source\PSoC4/CYBLE_hrs.c **** 
 121:Generated_Source\PSoC4/CYBLE_hrs.c ****     if(charIndex >= CYBLE_HRS_CHAR_COUNT)
 131              		.loc 1 121 0
 132 001c FB1D     		adds	r3, r7, #7
 133 001e 1B78     		ldrb	r3, [r3]
 134 0020 022B     		cmp	r3, #2
 135 0022 04D9     		bls	.L6
 122:Generated_Source\PSoC4/CYBLE_hrs.c ****     {
 123:Generated_Source\PSoC4/CYBLE_hrs.c ****         apiResult = CYBLE_ERROR_INVALID_PARAMETER;
 136              		.loc 1 123 0
 137 0024 1623     		movs	r3, #22
 138 0026 FB18     		adds	r3, r7, r3
 139 0028 0122     		movs	r2, #1
 140 002a 1A80     		strh	r2, [r3]
 141 002c 2CE0     		b	.L7
 142              	.L6:
 124:Generated_Source\PSoC4/CYBLE_hrs.c ****     }
 125:Generated_Source\PSoC4/CYBLE_hrs.c **** 	else if((charIndex == CYBLE_HRS_BSL) && (!CYBLE_HRS_IS_BSL_SUPPORTED))
 143              		.loc 1 125 0
 144 002e FB1D     		adds	r3, r7, #7
 145 0030 1B78     		ldrb	r3, [r3]
 146 0032 012B     		cmp	r3, #1
 147 0034 07D1     		bne	.L8
 148              		.loc 1 125 0 is_stmt 0 discriminator 1
 149 0036 1123     		movs	r3, #17
 150 0038 002B     		cmp	r3, #0
 151 003a 04D1     		bne	.L8
 126:Generated_Source\PSoC4/CYBLE_hrs.c ****     {
 127:Generated_Source\PSoC4/CYBLE_hrs.c ****         apiResult = CYBLE_ERROR_GATT_DB_INVALID_ATTR_HANDLE;
 152              		.loc 1 127 0 is_stmt 1
 153 003c 1623     		movs	r3, #22
 154 003e FB18     		adds	r3, r7, r3
 155 0040 1322     		movs	r2, #19
 156 0042 1A80     		strh	r2, [r3]
 157 0044 20E0     		b	.L7
 158              	.L8:
ARM GAS  C:\Users\Lucia\AppData\Local\Temp\cckdaJ7p.s 			page 6


 128:Generated_Source\PSoC4/CYBLE_hrs.c ****     }
 129:Generated_Source\PSoC4/CYBLE_hrs.c ****     else
 130:Generated_Source\PSoC4/CYBLE_hrs.c ****     {
 131:Generated_Source\PSoC4/CYBLE_hrs.c ****         /* Store characteristic value into GATT database */
 132:Generated_Source\PSoC4/CYBLE_hrs.c ****         locHandleValuePair.attrHandle = cyBle_hrss.charHandle[charIndex];
 159              		.loc 1 132 0
 160 0046 FB1D     		adds	r3, r7, #7
 161 0048 1B78     		ldrb	r3, [r3]
 162 004a 134A     		ldr	r2, .L10
 163 004c 5B00     		lsls	r3, r3, #1
 164 004e D318     		adds	r3, r2, r3
 165 0050 0233     		adds	r3, r3, #2
 166 0052 1A88     		ldrh	r2, [r3]
 167 0054 0823     		movs	r3, #8
 168 0056 FB18     		adds	r3, r7, r3
 169 0058 1A81     		strh	r2, [r3, #8]
 133:Generated_Source\PSoC4/CYBLE_hrs.c ****         locHandleValuePair.value.len = attrSize;
 170              		.loc 1 133 0
 171 005a BB1D     		adds	r3, r7, #6
 172 005c 1B78     		ldrb	r3, [r3]
 173 005e 9AB2     		uxth	r2, r3
 174 0060 0823     		movs	r3, #8
 175 0062 FB18     		adds	r3, r7, r3
 176 0064 9A80     		strh	r2, [r3, #4]
 134:Generated_Source\PSoC4/CYBLE_hrs.c ****         locHandleValuePair.value.val = attrValue;
 177              		.loc 1 134 0
 178 0066 0823     		movs	r3, #8
 179 0068 FB18     		adds	r3, r7, r3
 180 006a 3A68     		ldr	r2, [r7]
 181 006c 1A60     		str	r2, [r3]
 135:Generated_Source\PSoC4/CYBLE_hrs.c ****         
 136:Generated_Source\PSoC4/CYBLE_hrs.c ****         if(CYBLE_GATT_ERR_NONE != CyBle_GattsWriteAttributeValue(&locHandleValuePair,
 182              		.loc 1 136 0
 183 006e 0823     		movs	r3, #8
 184 0070 F818     		adds	r0, r7, r3
 185 0072 0023     		movs	r3, #0
 186 0074 0022     		movs	r2, #0
 187 0076 0021     		movs	r1, #0
 188 0078 FFF7FEFF 		bl	CyBle_GattsWriteAttributeValue
 189 007c 031E     		subs	r3, r0, #0
 190 007e 03D0     		beq	.L7
 137:Generated_Source\PSoC4/CYBLE_hrs.c ****                                                 0u, NULL, CYBLE_GATT_DB_LOCALLY_INITIATED))
 138:Generated_Source\PSoC4/CYBLE_hrs.c ****         {
 139:Generated_Source\PSoC4/CYBLE_hrs.c ****             apiResult = CYBLE_ERROR_INVALID_PARAMETER;
 191              		.loc 1 139 0
 192 0080 1623     		movs	r3, #22
 193 0082 FB18     		adds	r3, r7, r3
 194 0084 0122     		movs	r2, #1
 195 0086 1A80     		strh	r2, [r3]
 196              	.L7:
 140:Generated_Source\PSoC4/CYBLE_hrs.c ****         }
 141:Generated_Source\PSoC4/CYBLE_hrs.c ****     }
 142:Generated_Source\PSoC4/CYBLE_hrs.c **** 
 143:Generated_Source\PSoC4/CYBLE_hrs.c ****     return (apiResult);
 197              		.loc 1 143 0
 198 0088 1623     		movs	r3, #22
 199 008a FB18     		adds	r3, r7, r3
ARM GAS  C:\Users\Lucia\AppData\Local\Temp\cckdaJ7p.s 			page 7


 200 008c 1B88     		ldrh	r3, [r3]
 144:Generated_Source\PSoC4/CYBLE_hrs.c **** }
 201              		.loc 1 144 0
 202 008e 1800     		movs	r0, r3
 203 0090 BD46     		mov	sp, r7
 204 0092 06B0     		add	sp, sp, #24
 205              		@ sp needed
 206 0094 80BD     		pop	{r7, pc}
 207              	.L11:
 208 0096 C046     		.align	2
 209              	.L10:
 210 0098 00000000 		.word	cyBle_hrss
 211              		.cfi_endproc
 212              	.LFE4:
 213              		.size	CyBle_HrssSetCharacteristicValue, .-CyBle_HrssSetCharacteristicValue
 214              		.section	.text.CyBle_HrssGetCharacteristicValue,"ax",%progbits
 215              		.align	2
 216              		.global	CyBle_HrssGetCharacteristicValue
 217              		.code	16
 218              		.thumb_func
 219              		.type	CyBle_HrssGetCharacteristicValue, %function
 220              	CyBle_HrssGetCharacteristicValue:
 221              	.LFB5:
 145:Generated_Source\PSoC4/CYBLE_hrs.c **** 
 146:Generated_Source\PSoC4/CYBLE_hrs.c **** 
 147:Generated_Source\PSoC4/CYBLE_hrs.c **** /****************************************************************************** 
 148:Generated_Source\PSoC4/CYBLE_hrs.c **** * Function Name: CyBle_HrssGetCharacteristicValue
 149:Generated_Source\PSoC4/CYBLE_hrs.c **** ***************************************************************************//**
 150:Generated_Source\PSoC4/CYBLE_hrs.c **** * 
 151:Generated_Source\PSoC4/CYBLE_hrs.c **** *  Gets the local characteristic value of specified Heart Rate Service 
 152:Generated_Source\PSoC4/CYBLE_hrs.c **** *  characteristic.
 153:Generated_Source\PSoC4/CYBLE_hrs.c **** * 
 154:Generated_Source\PSoC4/CYBLE_hrs.c **** *  \param charIndex: The index of a service characteristic.
 155:Generated_Source\PSoC4/CYBLE_hrs.c **** *  \param attrSize:  The size of the characteristic value attribute.
 156:Generated_Source\PSoC4/CYBLE_hrs.c **** *  \param attrValue: The pointer to the location where characteristic value data 
 157:Generated_Source\PSoC4/CYBLE_hrs.c **** *                    should be stored. 
 158:Generated_Source\PSoC4/CYBLE_hrs.c **** * 
 159:Generated_Source\PSoC4/CYBLE_hrs.c **** * \return
 160:Generated_Source\PSoC4/CYBLE_hrs.c **** *  Return value is of type CYBLE_API_RESULT_T.
 161:Generated_Source\PSoC4/CYBLE_hrs.c **** *  * CYBLE_ERROR_OK - The request handled successfully.
 162:Generated_Source\PSoC4/CYBLE_hrs.c **** *  * CYBLE_ERROR_INVALID_PARAMETER - Validation of the input parameter failed.
 163:Generated_Source\PSoC4/CYBLE_hrs.c **** *  * CYBLE_ERROR_GATT_DB_INVALID_ATTR_HANDLE - Optional characteristic is 
 164:Generated_Source\PSoC4/CYBLE_hrs.c **** *                                              absent.
 165:Generated_Source\PSoC4/CYBLE_hrs.c **** *
 166:Generated_Source\PSoC4/CYBLE_hrs.c **** ******************************************************************************/
 167:Generated_Source\PSoC4/CYBLE_hrs.c **** CYBLE_API_RESULT_T CyBle_HrssGetCharacteristicValue(CYBLE_HRS_CHAR_INDEX_T charIndex, uint8 attrSiz
 168:Generated_Source\PSoC4/CYBLE_hrs.c **** {
 222              		.loc 1 168 0
 223              		.cfi_startproc
 224              		@ args = 0, pretend = 0, frame = 24
 225              		@ frame_needed = 1, uses_anonymous_args = 0
 226 0000 80B5     		push	{r7, lr}
 227              		.cfi_def_cfa_offset 8
 228              		.cfi_offset 7, -8
 229              		.cfi_offset 14, -4
 230 0002 86B0     		sub	sp, sp, #24
 231              		.cfi_def_cfa_offset 32
ARM GAS  C:\Users\Lucia\AppData\Local\Temp\cckdaJ7p.s 			page 8


 232 0004 00AF     		add	r7, sp, #0
 233              		.cfi_def_cfa_register 7
 234 0006 3A60     		str	r2, [r7]
 235 0008 FB1D     		adds	r3, r7, #7
 236 000a 021C     		adds	r2, r0, #0
 237 000c 1A70     		strb	r2, [r3]
 238 000e BB1D     		adds	r3, r7, #6
 239 0010 0A1C     		adds	r2, r1, #0
 240 0012 1A70     		strb	r2, [r3]
 169:Generated_Source\PSoC4/CYBLE_hrs.c ****     CYBLE_API_RESULT_T apiResult = CYBLE_ERROR_OK;
 241              		.loc 1 169 0
 242 0014 1623     		movs	r3, #22
 243 0016 FB18     		adds	r3, r7, r3
 244 0018 0022     		movs	r2, #0
 245 001a 1A80     		strh	r2, [r3]
 170:Generated_Source\PSoC4/CYBLE_hrs.c ****     CYBLE_GATT_HANDLE_VALUE_PAIR_T locHandleValuePair;
 171:Generated_Source\PSoC4/CYBLE_hrs.c **** 
 172:Generated_Source\PSoC4/CYBLE_hrs.c ****     if(charIndex >= CYBLE_HRS_CHAR_COUNT)
 246              		.loc 1 172 0
 247 001c FB1D     		adds	r3, r7, #7
 248 001e 1B78     		ldrb	r3, [r3]
 249 0020 022B     		cmp	r3, #2
 250 0022 04D9     		bls	.L13
 173:Generated_Source\PSoC4/CYBLE_hrs.c ****     {
 174:Generated_Source\PSoC4/CYBLE_hrs.c ****         apiResult = CYBLE_ERROR_INVALID_PARAMETER;
 251              		.loc 1 174 0
 252 0024 1623     		movs	r3, #22
 253 0026 FB18     		adds	r3, r7, r3
 254 0028 0122     		movs	r2, #1
 255 002a 1A80     		strh	r2, [r3]
 256 002c 2CE0     		b	.L14
 257              	.L13:
 175:Generated_Source\PSoC4/CYBLE_hrs.c ****     }
 176:Generated_Source\PSoC4/CYBLE_hrs.c **** 	else if((charIndex == CYBLE_HRS_BSL) && (!CYBLE_HRS_IS_BSL_SUPPORTED))
 258              		.loc 1 176 0
 259 002e FB1D     		adds	r3, r7, #7
 260 0030 1B78     		ldrb	r3, [r3]
 261 0032 012B     		cmp	r3, #1
 262 0034 07D1     		bne	.L15
 263              		.loc 1 176 0 is_stmt 0 discriminator 1
 264 0036 1123     		movs	r3, #17
 265 0038 002B     		cmp	r3, #0
 266 003a 04D1     		bne	.L15
 177:Generated_Source\PSoC4/CYBLE_hrs.c ****     {
 178:Generated_Source\PSoC4/CYBLE_hrs.c ****         apiResult = CYBLE_ERROR_GATT_DB_INVALID_ATTR_HANDLE;
 267              		.loc 1 178 0 is_stmt 1
 268 003c 1623     		movs	r3, #22
 269 003e FB18     		adds	r3, r7, r3
 270 0040 1322     		movs	r2, #19
 271 0042 1A80     		strh	r2, [r3]
 272 0044 20E0     		b	.L14
 273              	.L15:
 179:Generated_Source\PSoC4/CYBLE_hrs.c ****     }
 180:Generated_Source\PSoC4/CYBLE_hrs.c ****     else
 181:Generated_Source\PSoC4/CYBLE_hrs.c ****     {
 182:Generated_Source\PSoC4/CYBLE_hrs.c ****         /* Get characteristic value from GATT database */
 183:Generated_Source\PSoC4/CYBLE_hrs.c ****         locHandleValuePair.attrHandle = cyBle_hrss.charHandle[charIndex];
ARM GAS  C:\Users\Lucia\AppData\Local\Temp\cckdaJ7p.s 			page 9


 274              		.loc 1 183 0
 275 0046 FB1D     		adds	r3, r7, #7
 276 0048 1B78     		ldrb	r3, [r3]
 277 004a 134A     		ldr	r2, .L17
 278 004c 5B00     		lsls	r3, r3, #1
 279 004e D318     		adds	r3, r2, r3
 280 0050 0233     		adds	r3, r3, #2
 281 0052 1A88     		ldrh	r2, [r3]
 282 0054 0823     		movs	r3, #8
 283 0056 FB18     		adds	r3, r7, r3
 284 0058 1A81     		strh	r2, [r3, #8]
 184:Generated_Source\PSoC4/CYBLE_hrs.c ****         locHandleValuePair.value.len = attrSize;
 285              		.loc 1 184 0
 286 005a BB1D     		adds	r3, r7, #6
 287 005c 1B78     		ldrb	r3, [r3]
 288 005e 9AB2     		uxth	r2, r3
 289 0060 0823     		movs	r3, #8
 290 0062 FB18     		adds	r3, r7, r3
 291 0064 9A80     		strh	r2, [r3, #4]
 185:Generated_Source\PSoC4/CYBLE_hrs.c ****         locHandleValuePair.value.val = attrValue;
 292              		.loc 1 185 0
 293 0066 0823     		movs	r3, #8
 294 0068 FB18     		adds	r3, r7, r3
 295 006a 3A68     		ldr	r2, [r7]
 296 006c 1A60     		str	r2, [r3]
 186:Generated_Source\PSoC4/CYBLE_hrs.c ****         
 187:Generated_Source\PSoC4/CYBLE_hrs.c ****         if(CYBLE_GATT_ERR_NONE != CyBle_GattsReadAttributeValue(&locHandleValuePair, 0u,
 297              		.loc 1 187 0
 298 006e 0823     		movs	r3, #8
 299 0070 FB18     		adds	r3, r7, r3
 300 0072 0122     		movs	r2, #1
 301 0074 0021     		movs	r1, #0
 302 0076 1800     		movs	r0, r3
 303 0078 FFF7FEFF 		bl	CyBle_GattsReadAttributeValue
 304 007c 031E     		subs	r3, r0, #0
 305 007e 03D0     		beq	.L14
 188:Generated_Source\PSoC4/CYBLE_hrs.c ****                                     CYBLE_GATT_DB_READ | CYBLE_GATT_DB_LOCALLY_INITIATED))
 189:Generated_Source\PSoC4/CYBLE_hrs.c ****         {
 190:Generated_Source\PSoC4/CYBLE_hrs.c ****             apiResult = CYBLE_ERROR_INVALID_PARAMETER;
 306              		.loc 1 190 0
 307 0080 1623     		movs	r3, #22
 308 0082 FB18     		adds	r3, r7, r3
 309 0084 0122     		movs	r2, #1
 310 0086 1A80     		strh	r2, [r3]
 311              	.L14:
 191:Generated_Source\PSoC4/CYBLE_hrs.c ****         }  
 192:Generated_Source\PSoC4/CYBLE_hrs.c ****     }
 193:Generated_Source\PSoC4/CYBLE_hrs.c **** 
 194:Generated_Source\PSoC4/CYBLE_hrs.c ****     return (apiResult);
 312              		.loc 1 194 0
 313 0088 1623     		movs	r3, #22
 314 008a FB18     		adds	r3, r7, r3
 315 008c 1B88     		ldrh	r3, [r3]
 195:Generated_Source\PSoC4/CYBLE_hrs.c **** }
 316              		.loc 1 195 0
 317 008e 1800     		movs	r0, r3
 318 0090 BD46     		mov	sp, r7
ARM GAS  C:\Users\Lucia\AppData\Local\Temp\cckdaJ7p.s 			page 10


 319 0092 06B0     		add	sp, sp, #24
 320              		@ sp needed
 321 0094 80BD     		pop	{r7, pc}
 322              	.L18:
 323 0096 C046     		.align	2
 324              	.L17:
 325 0098 00000000 		.word	cyBle_hrss
 326              		.cfi_endproc
 327              	.LFE5:
 328              		.size	CyBle_HrssGetCharacteristicValue, .-CyBle_HrssGetCharacteristicValue
 329              		.section	.text.CyBle_HrssGetCharacteristicDescriptor,"ax",%progbits
 330              		.align	2
 331              		.global	CyBle_HrssGetCharacteristicDescriptor
 332              		.code	16
 333              		.thumb_func
 334              		.type	CyBle_HrssGetCharacteristicDescriptor, %function
 335              	CyBle_HrssGetCharacteristicDescriptor:
 336              	.LFB6:
 196:Generated_Source\PSoC4/CYBLE_hrs.c **** 
 197:Generated_Source\PSoC4/CYBLE_hrs.c **** 
 198:Generated_Source\PSoC4/CYBLE_hrs.c **** /****************************************************************************** 
 199:Generated_Source\PSoC4/CYBLE_hrs.c **** * Function Name: CyBle_HrssGetCharacteristicDescriptor
 200:Generated_Source\PSoC4/CYBLE_hrs.c **** ***************************************************************************//**
 201:Generated_Source\PSoC4/CYBLE_hrs.c **** * 
 202:Generated_Source\PSoC4/CYBLE_hrs.c **** *  Gets the local characteristic descriptor of the specified Heart Rate 
 203:Generated_Source\PSoC4/CYBLE_hrs.c **** *  Service characteristic.
 204:Generated_Source\PSoC4/CYBLE_hrs.c **** * 
 205:Generated_Source\PSoC4/CYBLE_hrs.c **** *  \param charIndex:  The index of the characteristic.
 206:Generated_Source\PSoC4/CYBLE_hrs.c **** *  \param descrIndex: The index of the descriptor.
 207:Generated_Source\PSoC4/CYBLE_hrs.c **** *  \param attrSize:   The size of the descriptor value attribute. The Heart 
 208:Generated_Source\PSoC4/CYBLE_hrs.c **** *                     Rate Measurement characteristic client configuration 
 209:Generated_Source\PSoC4/CYBLE_hrs.c **** *                     descriptor has 2 bytes length.
 210:Generated_Source\PSoC4/CYBLE_hrs.c **** *  \param attrValue:  The pointer to the location where characteristic descriptor 
 211:Generated_Source\PSoC4/CYBLE_hrs.c **** *                     value data should be stored. 
 212:Generated_Source\PSoC4/CYBLE_hrs.c **** * 
 213:Generated_Source\PSoC4/CYBLE_hrs.c **** * \return
 214:Generated_Source\PSoC4/CYBLE_hrs.c **** *  Return value is of type CYBLE_API_RESULT_T.
 215:Generated_Source\PSoC4/CYBLE_hrs.c **** *  * CYBLE_ERROR_OK - The request handled successfully.
 216:Generated_Source\PSoC4/CYBLE_hrs.c **** *  * CYBLE_ERROR_INVALID_PARAMETER - Validation of the input parameter failed.
 217:Generated_Source\PSoC4/CYBLE_hrs.c **** *  * CYBLE_ERROR_GATT_DB_INVALID_ATTR_HANDLE - Optional descriptor is absent.
 218:Generated_Source\PSoC4/CYBLE_hrs.c **** *
 219:Generated_Source\PSoC4/CYBLE_hrs.c **** ******************************************************************************/
 220:Generated_Source\PSoC4/CYBLE_hrs.c **** CYBLE_API_RESULT_T CyBle_HrssGetCharacteristicDescriptor(CYBLE_HRS_CHAR_INDEX_T charIndex, 
 221:Generated_Source\PSoC4/CYBLE_hrs.c ****                                                          CYBLE_HRS_DESCR_INDEX_T descrIndex,
 222:Generated_Source\PSoC4/CYBLE_hrs.c ****                                                          uint8 attrSize, uint8 *attrValue)
 223:Generated_Source\PSoC4/CYBLE_hrs.c **** {
 337              		.loc 1 223 0
 338              		.cfi_startproc
 339              		@ args = 0, pretend = 0, frame = 24
 340              		@ frame_needed = 1, uses_anonymous_args = 0
 341 0000 90B5     		push	{r4, r7, lr}
 342              		.cfi_def_cfa_offset 12
 343              		.cfi_offset 4, -12
 344              		.cfi_offset 7, -8
 345              		.cfi_offset 14, -4
 346 0002 87B0     		sub	sp, sp, #28
 347              		.cfi_def_cfa_offset 40
ARM GAS  C:\Users\Lucia\AppData\Local\Temp\cckdaJ7p.s 			page 11


 348 0004 00AF     		add	r7, sp, #0
 349              		.cfi_def_cfa_register 7
 350 0006 0400     		movs	r4, r0
 351 0008 0800     		movs	r0, r1
 352 000a 1100     		movs	r1, r2
 353 000c 3B60     		str	r3, [r7]
 354 000e FB1D     		adds	r3, r7, #7
 355 0010 221C     		adds	r2, r4, #0
 356 0012 1A70     		strb	r2, [r3]
 357 0014 BB1D     		adds	r3, r7, #6
 358 0016 021C     		adds	r2, r0, #0
 359 0018 1A70     		strb	r2, [r3]
 360 001a 7B1D     		adds	r3, r7, #5
 361 001c 0A1C     		adds	r2, r1, #0
 362 001e 1A70     		strb	r2, [r3]
 224:Generated_Source\PSoC4/CYBLE_hrs.c ****     CYBLE_API_RESULT_T apiResult;
 225:Generated_Source\PSoC4/CYBLE_hrs.c ****     CYBLE_GATT_HANDLE_VALUE_PAIR_T locHandleValuePair;
 226:Generated_Source\PSoC4/CYBLE_hrs.c **** 
 227:Generated_Source\PSoC4/CYBLE_hrs.c ****     if((charIndex >= CYBLE_HRS_CHAR_COUNT) || (descrIndex >= CYBLE_HRS_DESCR_COUNT))
 363              		.loc 1 227 0
 364 0020 FB1D     		adds	r3, r7, #7
 365 0022 1B78     		ldrb	r3, [r3]
 366 0024 022B     		cmp	r3, #2
 367 0026 03D8     		bhi	.L20
 368              		.loc 1 227 0 is_stmt 0 discriminator 1
 369 0028 BB1D     		adds	r3, r7, #6
 370 002a 1B78     		ldrb	r3, [r3]
 371 002c 002B     		cmp	r3, #0
 372 002e 04D0     		beq	.L21
 373              	.L20:
 228:Generated_Source\PSoC4/CYBLE_hrs.c ****     {
 229:Generated_Source\PSoC4/CYBLE_hrs.c ****         apiResult = CYBLE_ERROR_INVALID_PARAMETER;
 374              		.loc 1 229 0 is_stmt 1
 375 0030 1623     		movs	r3, #22
 376 0032 FB18     		adds	r3, r7, r3
 377 0034 0122     		movs	r2, #1
 378 0036 1A80     		strh	r2, [r3]
 379 0038 2CE0     		b	.L22
 380              	.L21:
 230:Generated_Source\PSoC4/CYBLE_hrs.c ****     }
 231:Generated_Source\PSoC4/CYBLE_hrs.c ****     else if((charIndex != CYBLE_HRS_HRM) || (descrIndex != CYBLE_HRS_HRM_CCCD))
 381              		.loc 1 231 0
 382 003a FB1D     		adds	r3, r7, #7
 383 003c 1B78     		ldrb	r3, [r3]
 384 003e 002B     		cmp	r3, #0
 385 0040 03D1     		bne	.L23
 386              		.loc 1 231 0 is_stmt 0 discriminator 1
 387 0042 BB1D     		adds	r3, r7, #6
 388 0044 1B78     		ldrb	r3, [r3]
 389 0046 002B     		cmp	r3, #0
 390 0048 04D0     		beq	.L24
 391              	.L23:
 232:Generated_Source\PSoC4/CYBLE_hrs.c **** 	{
 233:Generated_Source\PSoC4/CYBLE_hrs.c **** 		apiResult = CYBLE_ERROR_GATT_DB_INVALID_ATTR_HANDLE;
 392              		.loc 1 233 0 is_stmt 1
 393 004a 1623     		movs	r3, #22
 394 004c FB18     		adds	r3, r7, r3
ARM GAS  C:\Users\Lucia\AppData\Local\Temp\cckdaJ7p.s 			page 12


 395 004e 1322     		movs	r2, #19
 396 0050 1A80     		strh	r2, [r3]
 397 0052 1FE0     		b	.L22
 398              	.L24:
 234:Generated_Source\PSoC4/CYBLE_hrs.c **** 	}
 235:Generated_Source\PSoC4/CYBLE_hrs.c **** 	else
 236:Generated_Source\PSoC4/CYBLE_hrs.c **** 	{
 237:Generated_Source\PSoC4/CYBLE_hrs.c **** 		/* Get data from database */
 238:Generated_Source\PSoC4/CYBLE_hrs.c **** 		locHandleValuePair.attrHandle = cyBle_hrss.hrmCccdHandle;
 399              		.loc 1 238 0
 400 0054 0F22     		movs	r2, #15
 401 0056 0823     		movs	r3, #8
 402 0058 FB18     		adds	r3, r7, r3
 403 005a 1A81     		strh	r2, [r3, #8]
 239:Generated_Source\PSoC4/CYBLE_hrs.c **** 		locHandleValuePair.value.len = attrSize;
 404              		.loc 1 239 0
 405 005c 7B1D     		adds	r3, r7, #5
 406 005e 1B78     		ldrb	r3, [r3]
 407 0060 9AB2     		uxth	r2, r3
 408 0062 0823     		movs	r3, #8
 409 0064 FB18     		adds	r3, r7, r3
 410 0066 9A80     		strh	r2, [r3, #4]
 240:Generated_Source\PSoC4/CYBLE_hrs.c **** 		locHandleValuePair.value.val = attrValue;
 411              		.loc 1 240 0
 412 0068 0823     		movs	r3, #8
 413 006a FB18     		adds	r3, r7, r3
 414 006c 3A68     		ldr	r2, [r7]
 415 006e 1A60     		str	r2, [r3]
 241:Generated_Source\PSoC4/CYBLE_hrs.c **** 
 242:Generated_Source\PSoC4/CYBLE_hrs.c **** 		if(CYBLE_GATT_ERR_NONE != CyBle_GattsReadAttributeValue(&locHandleValuePair, 0u,
 416              		.loc 1 242 0
 417 0070 0823     		movs	r3, #8
 418 0072 FB18     		adds	r3, r7, r3
 419 0074 0122     		movs	r2, #1
 420 0076 0021     		movs	r1, #0
 421 0078 1800     		movs	r0, r3
 422 007a FFF7FEFF 		bl	CyBle_GattsReadAttributeValue
 423 007e 031E     		subs	r3, r0, #0
 424 0080 04D0     		beq	.L25
 243:Generated_Source\PSoC4/CYBLE_hrs.c **** 						CYBLE_GATT_DB_READ | CYBLE_GATT_DB_LOCALLY_INITIATED))
 244:Generated_Source\PSoC4/CYBLE_hrs.c **** 		{
 245:Generated_Source\PSoC4/CYBLE_hrs.c **** 			apiResult = CYBLE_ERROR_INVALID_PARAMETER;
 425              		.loc 1 245 0
 426 0082 1623     		movs	r3, #22
 427 0084 FB18     		adds	r3, r7, r3
 428 0086 0122     		movs	r2, #1
 429 0088 1A80     		strh	r2, [r3]
 430 008a 03E0     		b	.L22
 431              	.L25:
 246:Generated_Source\PSoC4/CYBLE_hrs.c **** 		}
 247:Generated_Source\PSoC4/CYBLE_hrs.c **** 		else
 248:Generated_Source\PSoC4/CYBLE_hrs.c **** 		{
 249:Generated_Source\PSoC4/CYBLE_hrs.c **** 			apiResult = CYBLE_ERROR_OK;
 432              		.loc 1 249 0
 433 008c 1623     		movs	r3, #22
 434 008e FB18     		adds	r3, r7, r3
 435 0090 0022     		movs	r2, #0
ARM GAS  C:\Users\Lucia\AppData\Local\Temp\cckdaJ7p.s 			page 13


 436 0092 1A80     		strh	r2, [r3]
 437              	.L22:
 250:Generated_Source\PSoC4/CYBLE_hrs.c **** 		}
 251:Generated_Source\PSoC4/CYBLE_hrs.c **** 	}
 252:Generated_Source\PSoC4/CYBLE_hrs.c ****     
 253:Generated_Source\PSoC4/CYBLE_hrs.c **** 
 254:Generated_Source\PSoC4/CYBLE_hrs.c ****     return (apiResult);
 438              		.loc 1 254 0
 439 0094 1623     		movs	r3, #22
 440 0096 FB18     		adds	r3, r7, r3
 441 0098 1B88     		ldrh	r3, [r3]
 255:Generated_Source\PSoC4/CYBLE_hrs.c **** }
 442              		.loc 1 255 0
 443 009a 1800     		movs	r0, r3
 444 009c BD46     		mov	sp, r7
 445 009e 07B0     		add	sp, sp, #28
 446              		@ sp needed
 447 00a0 90BD     		pop	{r4, r7, pc}
 448              		.cfi_endproc
 449              	.LFE6:
 450              		.size	CyBle_HrssGetCharacteristicDescriptor, .-CyBle_HrssGetCharacteristicDescriptor
 451 00a2 C046     		.section	.text.CyBle_HrssSendNotification,"ax",%progbits
 452              		.align	2
 453              		.global	CyBle_HrssSendNotification
 454              		.code	16
 455              		.thumb_func
 456              		.type	CyBle_HrssSendNotification, %function
 457              	CyBle_HrssSendNotification:
 458              	.LFB7:
 256:Generated_Source\PSoC4/CYBLE_hrs.c **** 
 257:Generated_Source\PSoC4/CYBLE_hrs.c **** 
 258:Generated_Source\PSoC4/CYBLE_hrs.c **** /****************************************************************************** 
 259:Generated_Source\PSoC4/CYBLE_hrs.c **** * Function Name: CyBle_HrssSendNotification
 260:Generated_Source\PSoC4/CYBLE_hrs.c **** ***************************************************************************//**
 261:Generated_Source\PSoC4/CYBLE_hrs.c **** * 
 262:Generated_Source\PSoC4/CYBLE_hrs.c **** *  Sends notification of a specified Heart Rate Service characteristic value 
 263:Generated_Source\PSoC4/CYBLE_hrs.c **** *  to the Client device. No response is expected.
 264:Generated_Source\PSoC4/CYBLE_hrs.c **** *  
 265:Generated_Source\PSoC4/CYBLE_hrs.c **** *  On enabling notification successfully for a service characteristic it sends
 266:Generated_Source\PSoC4/CYBLE_hrs.c **** *  out a 'Handle Value Notification' which results in 
 267:Generated_Source\PSoC4/CYBLE_hrs.c **** *  CYBLE_EVT_HRSC_NOTIFICATION event at the GATT Client's end.
 268:Generated_Source\PSoC4/CYBLE_hrs.c **** * 
 269:Generated_Source\PSoC4/CYBLE_hrs.c **** *  \param connHandle: The connection handle which consist of the device ID and 
 270:Generated_Source\PSoC4/CYBLE_hrs.c **** *                     ATT connection ID.
 271:Generated_Source\PSoC4/CYBLE_hrs.c **** *  \param charIndex:  The index of a service characteristic.
 272:Generated_Source\PSoC4/CYBLE_hrs.c **** *  \param attrSize:   The size of the characteristic value attribute. The 
 273:Generated_Source\PSoC4/CYBLE_hrs.c **** *                     Heart Rate Measurement characteristic has 2 bytes 
 274:Generated_Source\PSoC4/CYBLE_hrs.c **** *                     length (by default). The Body Sensor Location and Control
 275:Generated_Source\PSoC4/CYBLE_hrs.c **** *                     Point characteristic both have 1 byte length.
 276:Generated_Source\PSoC4/CYBLE_hrs.c **** *  \param attrValue:  The pointer to the characteristic value data that should 
 277:Generated_Source\PSoC4/CYBLE_hrs.c **** *                     be sent to the client device.
 278:Generated_Source\PSoC4/CYBLE_hrs.c **** * 
 279:Generated_Source\PSoC4/CYBLE_hrs.c **** * \return
 280:Generated_Source\PSoC4/CYBLE_hrs.c **** *  Return value is of type CYBLE_API_RESULT_T.
 281:Generated_Source\PSoC4/CYBLE_hrs.c **** *   * CYBLE_ERROR_OK - The request handled successfully.
 282:Generated_Source\PSoC4/CYBLE_hrs.c **** *   * CYBLE_ERROR_INVALID_PARAMETER - Validation of the input parameter failed.
 283:Generated_Source\PSoC4/CYBLE_hrs.c **** *   * CYBLE_ERROR_INVALID_OPERATION - This operation is not permitted
ARM GAS  C:\Users\Lucia\AppData\Local\Temp\cckdaJ7p.s 			page 14


 284:Generated_Source\PSoC4/CYBLE_hrs.c **** *   * CYBLE_ERROR_INVALID_STATE - Connection with the client is not established.
 285:Generated_Source\PSoC4/CYBLE_hrs.c **** *   * CYBLE_ERROR_MEMORY_ALLOCATION_FAILED - Memory allocation failed. 
 286:Generated_Source\PSoC4/CYBLE_hrs.c **** *   * CYBLE_ERROR_NTF_DISABLED - Notification is not enabled by the client.
 287:Generated_Source\PSoC4/CYBLE_hrs.c **** *
 288:Generated_Source\PSoC4/CYBLE_hrs.c **** ******************************************************************************/
 289:Generated_Source\PSoC4/CYBLE_hrs.c **** CYBLE_API_RESULT_T CyBle_HrssSendNotification(CYBLE_CONN_HANDLE_T connHandle, CYBLE_HRS_CHAR_INDEX_
 290:Generated_Source\PSoC4/CYBLE_hrs.c ****                                               uint8 attrSize, uint8 *attrValue)
 291:Generated_Source\PSoC4/CYBLE_hrs.c **** {
 459              		.loc 1 291 0
 460              		.cfi_startproc
 461              		@ args = 0, pretend = 0, frame = 32
 462              		@ frame_needed = 1, uses_anonymous_args = 0
 463 0000 90B5     		push	{r4, r7, lr}
 464              		.cfi_def_cfa_offset 12
 465              		.cfi_offset 4, -12
 466              		.cfi_offset 7, -8
 467              		.cfi_offset 14, -4
 468 0002 89B0     		sub	sp, sp, #36
 469              		.cfi_def_cfa_offset 48
 470 0004 00AF     		add	r7, sp, #0
 471              		.cfi_def_cfa_register 7
 472 0006 0C24     		movs	r4, #12
 473 0008 3C19     		adds	r4, r7, r4
 474 000a 2080     		strh	r0, [r4]
 475 000c 0800     		movs	r0, r1
 476 000e 1100     		movs	r1, r2
 477 0010 7B60     		str	r3, [r7, #4]
 478 0012 0B23     		movs	r3, #11
 479 0014 FB18     		adds	r3, r7, r3
 480 0016 021C     		adds	r2, r0, #0
 481 0018 1A70     		strb	r2, [r3]
 482 001a 0A23     		movs	r3, #10
 483 001c FB18     		adds	r3, r7, r3
 484 001e 0A1C     		adds	r2, r1, #0
 485 0020 1A70     		strb	r2, [r3]
 292:Generated_Source\PSoC4/CYBLE_hrs.c ****     CYBLE_API_RESULT_T apiResult;
 293:Generated_Source\PSoC4/CYBLE_hrs.c ****     CYBLE_GATTS_HANDLE_VALUE_NTF_T ntfReqParam;
 294:Generated_Source\PSoC4/CYBLE_hrs.c ****     
 295:Generated_Source\PSoC4/CYBLE_hrs.c ****     /* Send Notification if it is enabled and connected */
 296:Generated_Source\PSoC4/CYBLE_hrs.c ****     if(CYBLE_STATE_CONNECTED != CyBle_GetState())
 486              		.loc 1 296 0
 487 0022 2D4B     		ldr	r3, .L34
 488 0024 1B78     		ldrb	r3, [r3]
 489 0026 022B     		cmp	r3, #2
 490 0028 05D0     		beq	.L28
 297:Generated_Source\PSoC4/CYBLE_hrs.c ****     {
 298:Generated_Source\PSoC4/CYBLE_hrs.c ****         apiResult = CYBLE_ERROR_INVALID_STATE;
 491              		.loc 1 298 0
 492 002a 1E23     		movs	r3, #30
 493 002c FB18     		adds	r3, r7, r3
 494 002e 0422     		movs	r2, #4
 495 0030 FF32     		adds	r2, r2, #255
 496 0032 1A80     		strh	r2, [r3]
 497 0034 49E0     		b	.L29
 498              	.L28:
 299:Generated_Source\PSoC4/CYBLE_hrs.c ****     }
 300:Generated_Source\PSoC4/CYBLE_hrs.c ****     else if(charIndex >= CYBLE_HRS_CHAR_COUNT)
ARM GAS  C:\Users\Lucia\AppData\Local\Temp\cckdaJ7p.s 			page 15


 499              		.loc 1 300 0
 500 0036 0B23     		movs	r3, #11
 501 0038 FB18     		adds	r3, r7, r3
 502 003a 1B78     		ldrb	r3, [r3]
 503 003c 022B     		cmp	r3, #2
 504 003e 04D9     		bls	.L30
 301:Generated_Source\PSoC4/CYBLE_hrs.c ****     {
 302:Generated_Source\PSoC4/CYBLE_hrs.c ****         apiResult = CYBLE_ERROR_INVALID_PARAMETER;
 505              		.loc 1 302 0
 506 0040 1E23     		movs	r3, #30
 507 0042 FB18     		adds	r3, r7, r3
 508 0044 0122     		movs	r2, #1
 509 0046 1A80     		strh	r2, [r3]
 510 0048 3FE0     		b	.L29
 511              	.L30:
 303:Generated_Source\PSoC4/CYBLE_hrs.c ****     }
 304:Generated_Source\PSoC4/CYBLE_hrs.c ****     else if((cyBle_hrss.hrmCccdHandle == CYBLE_GATT_INVALID_ATTR_HANDLE_VALUE)
 512              		.loc 1 304 0
 513 004a 0F23     		movs	r3, #15
 514 004c 002B     		cmp	r3, #0
 515 004e 14D0     		beq	.L31
 305:Generated_Source\PSoC4/CYBLE_hrs.c ****                 || (!CYBLE_IS_NOTIFICATION_ENABLED(cyBle_hrss.hrmCccdHandle)))
 516              		.loc 1 305 0
 517 0050 0F23     		movs	r3, #15
 518 0052 5A1E     		subs	r2, r3, #1
 519 0054 2149     		ldr	r1, .L34+4
 520 0056 1300     		movs	r3, r2
 521 0058 9B00     		lsls	r3, r3, #2
 522 005a 9B18     		adds	r3, r3, r2
 523 005c 9B00     		lsls	r3, r3, #2
 524 005e CB18     		adds	r3, r1, r3
 525 0060 1033     		adds	r3, r3, #16
 526 0062 1B68     		ldr	r3, [r3]
 527 0064 5B68     		ldr	r3, [r3, #4]
 528 0066 1800     		movs	r0, r3
 529 0068 FFF7FEFF 		bl	CyBle_Get16ByPtr
 530 006c 0300     		movs	r3, r0
 531 006e 1A00     		movs	r2, r3
 532 0070 0123     		movs	r3, #1
 533 0072 1340     		ands	r3, r2
 534 0074 9BB2     		uxth	r3, r3
 535 0076 002B     		cmp	r3, #0
 536 0078 05D1     		bne	.L32
 537              	.L31:
 306:Generated_Source\PSoC4/CYBLE_hrs.c ****     {
 307:Generated_Source\PSoC4/CYBLE_hrs.c ****         apiResult = CYBLE_ERROR_NTF_DISABLED;
 538              		.loc 1 307 0
 539 007a 1E23     		movs	r3, #30
 540 007c FB18     		adds	r3, r7, r3
 541 007e 8022     		movs	r2, #128
 542 0080 5200     		lsls	r2, r2, #1
 543 0082 1A80     		strh	r2, [r3]
 544 0084 21E0     		b	.L29
 545              	.L32:
 308:Generated_Source\PSoC4/CYBLE_hrs.c ****     }
 309:Generated_Source\PSoC4/CYBLE_hrs.c ****     else
 310:Generated_Source\PSoC4/CYBLE_hrs.c ****     {
ARM GAS  C:\Users\Lucia\AppData\Local\Temp\cckdaJ7p.s 			page 16


 311:Generated_Source\PSoC4/CYBLE_hrs.c ****         /* Fill all fields of write request structure ... */
 312:Generated_Source\PSoC4/CYBLE_hrs.c ****         ntfReqParam.attrHandle = cyBle_hrss.charHandle[charIndex]; 
 546              		.loc 1 312 0
 547 0086 0B23     		movs	r3, #11
 548 0088 FB18     		adds	r3, r7, r3
 549 008a 1B78     		ldrb	r3, [r3]
 550 008c 144A     		ldr	r2, .L34+8
 551 008e 5B00     		lsls	r3, r3, #1
 552 0090 D318     		adds	r3, r2, r3
 553 0092 0233     		adds	r3, r3, #2
 554 0094 1A88     		ldrh	r2, [r3]
 555 0096 1023     		movs	r3, #16
 556 0098 FB18     		adds	r3, r7, r3
 557 009a 1A81     		strh	r2, [r3, #8]
 313:Generated_Source\PSoC4/CYBLE_hrs.c ****         ntfReqParam.value.val = attrValue;
 558              		.loc 1 313 0
 559 009c 1023     		movs	r3, #16
 560 009e FB18     		adds	r3, r7, r3
 561 00a0 7A68     		ldr	r2, [r7, #4]
 562 00a2 1A60     		str	r2, [r3]
 314:Generated_Source\PSoC4/CYBLE_hrs.c ****         ntfReqParam.value.len = attrSize;
 563              		.loc 1 314 0
 564 00a4 0A23     		movs	r3, #10
 565 00a6 FB18     		adds	r3, r7, r3
 566 00a8 1B78     		ldrb	r3, [r3]
 567 00aa 9AB2     		uxth	r2, r3
 568 00ac 1023     		movs	r3, #16
 569 00ae FB18     		adds	r3, r7, r3
 570 00b0 9A80     		strh	r2, [r3, #4]
 315:Generated_Source\PSoC4/CYBLE_hrs.c ****         
 316:Generated_Source\PSoC4/CYBLE_hrs.c ****         /* Send notification to client using previously filled structure */
 317:Generated_Source\PSoC4/CYBLE_hrs.c ****         apiResult = CyBle_GattsNotification(connHandle, &ntfReqParam);
 571              		.loc 1 317 0
 572 00b2 1E23     		movs	r3, #30
 573 00b4 FC18     		adds	r4, r7, r3
 574 00b6 1023     		movs	r3, #16
 575 00b8 FA18     		adds	r2, r7, r3
 576 00ba 0C23     		movs	r3, #12
 577 00bc FB18     		adds	r3, r7, r3
 578 00be 1100     		movs	r1, r2
 579 00c0 1868     		ldr	r0, [r3]
 580 00c2 FFF7FEFF 		bl	CyBle_GattsNotification
 581 00c6 0300     		movs	r3, r0
 582 00c8 2380     		strh	r3, [r4]
 583              	.L29:
 318:Generated_Source\PSoC4/CYBLE_hrs.c ****     }
 319:Generated_Source\PSoC4/CYBLE_hrs.c **** 
 320:Generated_Source\PSoC4/CYBLE_hrs.c ****     return (apiResult);
 584              		.loc 1 320 0
 585 00ca 1E23     		movs	r3, #30
 586 00cc FB18     		adds	r3, r7, r3
 587 00ce 1B88     		ldrh	r3, [r3]
 321:Generated_Source\PSoC4/CYBLE_hrs.c **** }
 588              		.loc 1 321 0
 589 00d0 1800     		movs	r0, r3
 590 00d2 BD46     		mov	sp, r7
 591 00d4 09B0     		add	sp, sp, #36
ARM GAS  C:\Users\Lucia\AppData\Local\Temp\cckdaJ7p.s 			page 17


 592              		@ sp needed
 593 00d6 90BD     		pop	{r4, r7, pc}
 594              	.L35:
 595              		.align	2
 596              	.L34:
 597 00d8 00000000 		.word	cyBle_state
 598 00dc 00000000 		.word	cyBle_gattDB
 599 00e0 00000000 		.word	cyBle_hrss
 600              		.cfi_endproc
 601              	.LFE7:
 602              		.size	CyBle_HrssSendNotification, .-CyBle_HrssSendNotification
 603              		.section	.text.CyBle_HrssWriteEventHandler,"ax",%progbits
 604              		.align	2
 605              		.global	CyBle_HrssWriteEventHandler
 606              		.code	16
 607              		.thumb_func
 608              		.type	CyBle_HrssWriteEventHandler, %function
 609              	CyBle_HrssWriteEventHandler:
 610              	.LFB8:
 322:Generated_Source\PSoC4/CYBLE_hrs.c **** 
 323:Generated_Source\PSoC4/CYBLE_hrs.c **** 
 324:Generated_Source\PSoC4/CYBLE_hrs.c **** /****************************************************************************** 
 325:Generated_Source\PSoC4/CYBLE_hrs.c **** * Function Name: CyBle_HrssWriteEventHandler
 326:Generated_Source\PSoC4/CYBLE_hrs.c **** ***************************************************************************//**
 327:Generated_Source\PSoC4/CYBLE_hrs.c **** * 
 328:Generated_Source\PSoC4/CYBLE_hrs.c **** *  Handles the Heart Rate Measurement Client Configuration Characteristic
 329:Generated_Source\PSoC4/CYBLE_hrs.c **** *  Descriptor Write Event or Control Point Characteristic Write Event.
 330:Generated_Source\PSoC4/CYBLE_hrs.c **** * 
 331:Generated_Source\PSoC4/CYBLE_hrs.c **** *  \param void *eventParam: The pointer to the data structure specified by the
 332:Generated_Source\PSoC4/CYBLE_hrs.c **** *                           event.
 333:Generated_Source\PSoC4/CYBLE_hrs.c **** * 
 334:Generated_Source\PSoC4/CYBLE_hrs.c **** ******************************************************************************/
 335:Generated_Source\PSoC4/CYBLE_hrs.c **** CYBLE_GATT_ERR_CODE_T CyBle_HrssWriteEventHandler(CYBLE_GATTS_WRITE_REQ_PARAM_T *eventParam)
 336:Generated_Source\PSoC4/CYBLE_hrs.c **** {
 611              		.loc 1 336 0
 612              		.cfi_startproc
 613              		@ args = 0, pretend = 0, frame = 24
 614              		@ frame_needed = 1, uses_anonymous_args = 0
 615 0000 90B5     		push	{r4, r7, lr}
 616              		.cfi_def_cfa_offset 12
 617              		.cfi_offset 4, -12
 618              		.cfi_offset 7, -8
 619              		.cfi_offset 14, -4
 620 0002 87B0     		sub	sp, sp, #28
 621              		.cfi_def_cfa_offset 40
 622 0004 00AF     		add	r7, sp, #0
 623              		.cfi_def_cfa_register 7
 624 0006 7860     		str	r0, [r7, #4]
 337:Generated_Source\PSoC4/CYBLE_hrs.c ****     uint32 eventCode = 0u;
 625              		.loc 1 337 0
 626 0008 0023     		movs	r3, #0
 627 000a 7B61     		str	r3, [r7, #20]
 338:Generated_Source\PSoC4/CYBLE_hrs.c ****     CYBLE_GATT_ERR_CODE_T gattErr = CYBLE_GATT_ERR_NONE;
 628              		.loc 1 338 0
 629 000c 1323     		movs	r3, #19
 630 000e FB18     		adds	r3, r7, r3
 631 0010 0022     		movs	r2, #0
ARM GAS  C:\Users\Lucia\AppData\Local\Temp\cckdaJ7p.s 			page 18


 632 0012 1A70     		strb	r2, [r3]
 339:Generated_Source\PSoC4/CYBLE_hrs.c ****     CYBLE_HRS_CHAR_VALUE_T locCharIndex;
 340:Generated_Source\PSoC4/CYBLE_hrs.c **** 
 341:Generated_Source\PSoC4/CYBLE_hrs.c ****     locCharIndex.connHandle = eventParam->connHandle;
 633              		.loc 1 341 0
 634 0014 0823     		movs	r3, #8
 635 0016 FB18     		adds	r3, r7, r3
 636 0018 7A68     		ldr	r2, [r7, #4]
 637 001a 1288     		ldrh	r2, [r2]
 638 001c 1A80     		strh	r2, [r3]
 342:Generated_Source\PSoC4/CYBLE_hrs.c ****     locCharIndex.value = NULL;
 639              		.loc 1 342 0
 640 001e 0823     		movs	r3, #8
 641 0020 FB18     		adds	r3, r7, r3
 642 0022 0022     		movs	r2, #0
 643 0024 5A60     		str	r2, [r3, #4]
 343:Generated_Source\PSoC4/CYBLE_hrs.c ****     
 344:Generated_Source\PSoC4/CYBLE_hrs.c ****     if(eventParam->handleValPair.attrHandle == cyBle_hrss.hrmCccdHandle)
 644              		.loc 1 344 0
 645 0026 7B68     		ldr	r3, [r7, #4]
 646 0028 9B89     		ldrh	r3, [r3, #12]
 647 002a 0F22     		movs	r2, #15
 648 002c 9342     		cmp	r3, r2
 649 002e 1FD1     		bne	.L37
 345:Generated_Source\PSoC4/CYBLE_hrs.c ****     {
 346:Generated_Source\PSoC4/CYBLE_hrs.c ****         locCharIndex.charIndex = CYBLE_HRS_HRM;
 650              		.loc 1 346 0
 651 0030 0823     		movs	r3, #8
 652 0032 FB18     		adds	r3, r7, r3
 653 0034 0022     		movs	r2, #0
 654 0036 9A70     		strb	r2, [r3, #2]
 347:Generated_Source\PSoC4/CYBLE_hrs.c ****         /* Heart Rate Measurement characteristic descriptor write request */
 348:Generated_Source\PSoC4/CYBLE_hrs.c ****         if(CYBLE_IS_NOTIFICATION_ENABLED_IN_PTR(eventParam->handleValPair.value.val))
 655              		.loc 1 348 0
 656 0038 7B68     		ldr	r3, [r7, #4]
 657 003a 5B68     		ldr	r3, [r3, #4]
 658 003c 1800     		movs	r0, r3
 659 003e FFF7FEFF 		bl	CyBle_Get16ByPtr
 660 0042 0300     		movs	r3, r0
 661 0044 1A00     		movs	r2, r3
 662 0046 0123     		movs	r3, #1
 663 0048 1340     		ands	r3, r2
 664 004a 9BB2     		uxth	r3, r3
 665 004c 002B     		cmp	r3, #0
 666 004e 03D0     		beq	.L38
 349:Generated_Source\PSoC4/CYBLE_hrs.c ****         {
 350:Generated_Source\PSoC4/CYBLE_hrs.c ****             eventCode = (uint32)CYBLE_EVT_HRSS_NOTIFICATION_ENABLED;
 667              		.loc 1 350 0
 668 0050 D523     		movs	r3, #213
 669 0052 5B00     		lsls	r3, r3, #1
 670 0054 7B61     		str	r3, [r7, #20]
 671 0056 02E0     		b	.L39
 672              	.L38:
 351:Generated_Source\PSoC4/CYBLE_hrs.c ****         }
 352:Generated_Source\PSoC4/CYBLE_hrs.c ****         else
 353:Generated_Source\PSoC4/CYBLE_hrs.c ****         {
 354:Generated_Source\PSoC4/CYBLE_hrs.c ****             eventCode = (uint32)CYBLE_EVT_HRSS_NOTIFICATION_DISABLED;
ARM GAS  C:\Users\Lucia\AppData\Local\Temp\cckdaJ7p.s 			page 19


 673              		.loc 1 354 0
 674 0058 AC23     		movs	r3, #172
 675 005a FF33     		adds	r3, r3, #255
 676 005c 7B61     		str	r3, [r7, #20]
 677              	.L39:
 355:Generated_Source\PSoC4/CYBLE_hrs.c ****         }
 356:Generated_Source\PSoC4/CYBLE_hrs.c ****     #if((CYBLE_GAP_ROLE_PERIPHERAL || CYBLE_GAP_ROLE_CENTRAL) && (CYBLE_BONDING_REQUIREMENT == CYBL
 357:Generated_Source\PSoC4/CYBLE_hrs.c ****         /* Set flag to store bonding data to flash */
 358:Generated_Source\PSoC4/CYBLE_hrs.c ****         if(cyBle_peerBonding == CYBLE_GAP_BONDING)
 359:Generated_Source\PSoC4/CYBLE_hrs.c ****         {
 360:Generated_Source\PSoC4/CYBLE_hrs.c ****             cyBle_pendingFlashWrite |= CYBLE_PENDING_CCCD_FLASH_WRITE_BIT;
 361:Generated_Source\PSoC4/CYBLE_hrs.c ****         }
 362:Generated_Source\PSoC4/CYBLE_hrs.c ****     #endif /* (CYBLE_BONDING_REQUIREMENT == CYBLE_BONDING_YES) */
 363:Generated_Source\PSoC4/CYBLE_hrs.c ****         
 364:Generated_Source\PSoC4/CYBLE_hrs.c ****         cyBle_eventHandlerFlag &= (uint8)~CYBLE_CALLBACK;
 678              		.loc 1 364 0
 679 005e 294B     		ldr	r3, .L46
 680 0060 1B78     		ldrb	r3, [r3]
 681 0062 DBB2     		uxtb	r3, r3
 682 0064 0122     		movs	r2, #1
 683 0066 9343     		bics	r3, r2
 684 0068 DAB2     		uxtb	r2, r3
 685 006a 264B     		ldr	r3, .L46
 686 006c 1A70     		strb	r2, [r3]
 687 006e 1DE0     		b	.L40
 688              	.L37:
 365:Generated_Source\PSoC4/CYBLE_hrs.c ****     }
 366:Generated_Source\PSoC4/CYBLE_hrs.c ****     else if(eventParam->handleValPair.attrHandle == cyBle_hrss.charHandle[CYBLE_HRS_CPT])
 689              		.loc 1 366 0
 690 0070 7B68     		ldr	r3, [r7, #4]
 691 0072 9B89     		ldrh	r3, [r3, #12]
 692 0074 1322     		movs	r2, #19
 693 0076 9342     		cmp	r3, r2
 694 0078 18D1     		bne	.L40
 367:Generated_Source\PSoC4/CYBLE_hrs.c ****     {
 368:Generated_Source\PSoC4/CYBLE_hrs.c ****         locCharIndex.charIndex = CYBLE_HRS_CPT;
 695              		.loc 1 368 0
 696 007a 0823     		movs	r3, #8
 697 007c FB18     		adds	r3, r7, r3
 698 007e 0222     		movs	r2, #2
 699 0080 9A70     		strb	r2, [r3, #2]
 369:Generated_Source\PSoC4/CYBLE_hrs.c ****         /* Heart Rate Control Point characteristic write request */
 370:Generated_Source\PSoC4/CYBLE_hrs.c ****         if(CYBLE_HRS_RESET_ENERGY_EXPENDED == eventParam->handleValPair.value.val[0u])
 700              		.loc 1 370 0
 701 0082 7B68     		ldr	r3, [r7, #4]
 702 0084 5B68     		ldr	r3, [r3, #4]
 703 0086 1B78     		ldrb	r3, [r3]
 704 0088 012B     		cmp	r3, #1
 705 008a 03D1     		bne	.L41
 371:Generated_Source\PSoC4/CYBLE_hrs.c ****         {
 372:Generated_Source\PSoC4/CYBLE_hrs.c ****             eventCode = (uint32)CYBLE_EVT_HRSS_ENERGY_EXPENDED_RESET;
 706              		.loc 1 372 0
 707 008c AA23     		movs	r3, #170
 708 008e FF33     		adds	r3, r3, #255
 709 0090 7B61     		str	r3, [r7, #20]
 710 0092 03E0     		b	.L42
 711              	.L41:
ARM GAS  C:\Users\Lucia\AppData\Local\Temp\cckdaJ7p.s 			page 20


 373:Generated_Source\PSoC4/CYBLE_hrs.c ****         }
 374:Generated_Source\PSoC4/CYBLE_hrs.c ****         else
 375:Generated_Source\PSoC4/CYBLE_hrs.c ****         {
 376:Generated_Source\PSoC4/CYBLE_hrs.c ****             gattErr = CYBLE_GATT_ERR_HEART_RATE_CONTROL_POINT_NOT_SUPPORTED;
 712              		.loc 1 376 0
 713 0094 1323     		movs	r3, #19
 714 0096 FB18     		adds	r3, r7, r3
 715 0098 8022     		movs	r2, #128
 716 009a 1A70     		strb	r2, [r3]
 717              	.L42:
 377:Generated_Source\PSoC4/CYBLE_hrs.c ****         }
 378:Generated_Source\PSoC4/CYBLE_hrs.c ****         
 379:Generated_Source\PSoC4/CYBLE_hrs.c ****         cyBle_eventHandlerFlag &= (uint8)~CYBLE_CALLBACK;
 718              		.loc 1 379 0
 719 009c 194B     		ldr	r3, .L46
 720 009e 1B78     		ldrb	r3, [r3]
 721 00a0 DBB2     		uxtb	r3, r3
 722 00a2 0122     		movs	r2, #1
 723 00a4 9343     		bics	r3, r2
 724 00a6 DAB2     		uxtb	r2, r3
 725 00a8 164B     		ldr	r3, .L46
 726 00aa 1A70     		strb	r2, [r3]
 727              	.L40:
 380:Generated_Source\PSoC4/CYBLE_hrs.c ****     }
 381:Generated_Source\PSoC4/CYBLE_hrs.c ****     else
 382:Generated_Source\PSoC4/CYBLE_hrs.c ****     {
 383:Generated_Source\PSoC4/CYBLE_hrs.c ****         /* Heart Rate Service doesn't support any other write requests */
 384:Generated_Source\PSoC4/CYBLE_hrs.c ****     }
 385:Generated_Source\PSoC4/CYBLE_hrs.c **** 
 386:Generated_Source\PSoC4/CYBLE_hrs.c ****     if(0u != eventCode)
 728              		.loc 1 386 0
 729 00ac 7B69     		ldr	r3, [r7, #20]
 730 00ae 002B     		cmp	r3, #0
 731 00b0 21D0     		beq	.L43
 387:Generated_Source\PSoC4/CYBLE_hrs.c ****     {
 388:Generated_Source\PSoC4/CYBLE_hrs.c ****         gattErr = CyBle_GattsWriteAttributeValue(&eventParam->handleValPair, 0u, 
 732              		.loc 1 388 0
 733 00b2 7B68     		ldr	r3, [r7, #4]
 734 00b4 181D     		adds	r0, r3, #4
 735 00b6 7A68     		ldr	r2, [r7, #4]
 736 00b8 1323     		movs	r3, #19
 737 00ba FC18     		adds	r4, r7, r3
 738 00bc 4023     		movs	r3, #64
 739 00be 0021     		movs	r1, #0
 740 00c0 FFF7FEFF 		bl	CyBle_GattsWriteAttributeValue
 741 00c4 0300     		movs	r3, r0
 742 00c6 2370     		strb	r3, [r4]
 389:Generated_Source\PSoC4/CYBLE_hrs.c ****                     &eventParam->connHandle, CYBLE_GATT_DB_PEER_INITIATED);
 390:Generated_Source\PSoC4/CYBLE_hrs.c ****         
 391:Generated_Source\PSoC4/CYBLE_hrs.c ****         if(CYBLE_GATT_ERR_NONE == gattErr)
 743              		.loc 1 391 0
 744 00c8 1323     		movs	r3, #19
 745 00ca FB18     		adds	r3, r7, r3
 746 00cc 1B78     		ldrb	r3, [r3]
 747 00ce 002B     		cmp	r3, #0
 748 00d0 11D1     		bne	.L43
 392:Generated_Source\PSoC4/CYBLE_hrs.c ****         {
ARM GAS  C:\Users\Lucia\AppData\Local\Temp\cckdaJ7p.s 			page 21


 393:Generated_Source\PSoC4/CYBLE_hrs.c ****             if(NULL != CyBle_HrsApplCallback)
 749              		.loc 1 393 0
 750 00d2 0D4B     		ldr	r3, .L46+4
 751 00d4 1B68     		ldr	r3, [r3]
 752 00d6 002B     		cmp	r3, #0
 753 00d8 07D0     		beq	.L44
 394:Generated_Source\PSoC4/CYBLE_hrs.c ****             {
 395:Generated_Source\PSoC4/CYBLE_hrs.c ****                 CyBle_HrsApplCallback(eventCode, &locCharIndex);
 754              		.loc 1 395 0
 755 00da 0B4B     		ldr	r3, .L46+4
 756 00dc 1B68     		ldr	r3, [r3]
 757 00de 0822     		movs	r2, #8
 758 00e0 B918     		adds	r1, r7, r2
 759 00e2 7A69     		ldr	r2, [r7, #20]
 760 00e4 1000     		movs	r0, r2
 761 00e6 9847     		blx	r3
 762 00e8 05E0     		b	.L43
 763              	.L44:
 396:Generated_Source\PSoC4/CYBLE_hrs.c ****             }
 397:Generated_Source\PSoC4/CYBLE_hrs.c ****             else
 398:Generated_Source\PSoC4/CYBLE_hrs.c ****             {
 399:Generated_Source\PSoC4/CYBLE_hrs.c ****                 CyBle_ApplCallback(CYBLE_EVT_GATTS_WRITE_REQ, eventParam);
 764              		.loc 1 399 0
 765 00ea 084B     		ldr	r3, .L46+8
 766 00ec 1B68     		ldr	r3, [r3]
 767 00ee 7A68     		ldr	r2, [r7, #4]
 768 00f0 1100     		movs	r1, r2
 769 00f2 4C20     		movs	r0, #76
 770 00f4 9847     		blx	r3
 771              	.L43:
 400:Generated_Source\PSoC4/CYBLE_hrs.c ****             }
 401:Generated_Source\PSoC4/CYBLE_hrs.c ****         }
 402:Generated_Source\PSoC4/CYBLE_hrs.c ****     }
 403:Generated_Source\PSoC4/CYBLE_hrs.c **** 
 404:Generated_Source\PSoC4/CYBLE_hrs.c ****     return (gattErr);
 772              		.loc 1 404 0
 773 00f6 1323     		movs	r3, #19
 774 00f8 FB18     		adds	r3, r7, r3
 775 00fa 1B78     		ldrb	r3, [r3]
 405:Generated_Source\PSoC4/CYBLE_hrs.c **** }
 776              		.loc 1 405 0
 777 00fc 1800     		movs	r0, r3
 778 00fe BD46     		mov	sp, r7
 779 0100 07B0     		add	sp, sp, #28
 780              		@ sp needed
 781 0102 90BD     		pop	{r4, r7, pc}
 782              	.L47:
 783              		.align	2
 784              	.L46:
 785 0104 00000000 		.word	cyBle_eventHandlerFlag
 786 0108 00000000 		.word	CyBle_HrsApplCallback
 787 010c 00000000 		.word	CyBle_ApplCallback
 788              		.cfi_endproc
 789              	.LFE8:
 790              		.size	CyBle_HrssWriteEventHandler, .-CyBle_HrssWriteEventHandler
 791              		.text
 792              	.Letext0:
ARM GAS  C:\Users\Lucia\AppData\Local\Temp\cckdaJ7p.s 			page 22


 793              		.file 2 "Generated_Source\\PSoC4\\cytypes.h"
 794              		.file 3 "Generated_Source\\PSoC4\\CYBLE_Stack.h"
 795              		.file 4 "Generated_Source\\PSoC4\\CYBLE_StackGatt.h"
 796              		.file 5 "Generated_Source\\PSoC4\\CYBLE_StackGattServer.h"
 797              		.file 6 "Generated_Source\\PSoC4\\CYBLE_StackGattDb.h"
 798              		.file 7 "Generated_Source\\PSoC4\\CYBLE.h"
 799              		.file 8 "Generated_Source\\PSoC4\\CYBLE_dis.h"
 800              		.file 9 "Generated_Source\\PSoC4\\CYBLE_hrs.h"
 801              		.file 10 "Generated_Source\\PSoC4\\CYBLE_eventHandler.h"
 802              		.file 11 "Generated_Source\\PSoC4\\CYBLE_gatt.h"