ARM GAS  C:\Users\Lucia\AppData\Local\Temp\cc0KspdR.s 			page 1


   1              		.syntax unified
   2              		.cpu cortex-m0
   3              		.fpu softvfp
   4              		.eabi_attribute 20, 1
   5              		.eabi_attribute 21, 1
   6              		.eabi_attribute 23, 3
   7              		.eabi_attribute 24, 1
   8              		.eabi_attribute 25, 1
   9              		.eabi_attribute 26, 1
  10              		.eabi_attribute 30, 6
  11              		.eabi_attribute 34, 0
  12              		.eabi_attribute 18, 4
  13              		.thumb
  14              		.syntax unified
  15              		.file	"CYBLE.c"
  16              		.text
  17              	.Ltext0:
  18              		.cfi_sections	.debug_frame
  19              		.global	cyBle_initVar
  20              		.bss
  21              		.type	cyBle_initVar, %object
  22              		.size	cyBle_initVar, 1
  23              	cyBle_initVar:
  24 0000 00       		.space	1
  25              		.global	cyBle_stackMemoryRam
  26              		.section	.noinit,"aw",%progbits
  27              		.align	3
  28              		.type	cyBle_stackMemoryRam, %object
  29              		.size	cyBle_stackMemoryRam, 2784
  30              	cyBle_stackMemoryRam:
  31 0000 00000000 		.space	2784
  31      00000000 
  31      00000000 
  31      00000000 
  31      00000000 
  32              		.global	cyBle_discoveryParam
  33              		.data
  34              		.align	2
  35              		.type	cyBle_discoveryParam, %object
  36              		.size	cyBle_discoveryParam, 16
  37              	cyBle_discoveryParam:
  38 0000 2000     		.short	32
  39 0002 3000     		.short	48
  40 0004 00       		.byte	0
  41 0005 00       		.byte	0
  42 0006 00       		.byte	0
  43 0007 00       		.byte	0
  44 0008 00       		.byte	0
  45 0009 00       		.byte	0
  46 000a 50       		.byte	80
  47 000b A0       		.byte	-96
  48 000c 00       		.byte	0
  49 000d 07       		.byte	7
  50 000e 00       		.byte	0
  51 000f 00       		.space	1
  52              		.global	cyBle_discoveryData
  53              		.align	2
ARM GAS  C:\Users\Lucia\AppData\Local\Temp\cc0KspdR.s 			page 2


  54              		.type	cyBle_discoveryData, %object
  55              		.size	cyBle_discoveryData, 32
  56              	cyBle_discoveryData:
  57 0010 02       		.byte	2
  58 0011 01       		.byte	1
  59 0012 06       		.byte	6
  60 0013 12       		.byte	18
  61 0014 09       		.byte	9
  62 0015 48       		.byte	72
  63 0016 65       		.byte	101
  64 0017 61       		.byte	97
  65 0018 72       		.byte	114
  66 0019 74       		.byte	116
  67 001a 20       		.byte	32
  68 001b 52       		.byte	82
  69 001c 61       		.byte	97
  70 001d 74       		.byte	116
  71 001e 65       		.byte	101
  72 001f 20       		.byte	32
  73 0020 53       		.byte	83
  74 0021 65       		.byte	101
  75 0022 6E       		.byte	110
  76 0023 73       		.byte	115
  77 0024 6F       		.byte	111
  78 0025 72       		.byte	114
  79 0026 05       		.byte	5
  80 0027 03       		.byte	3
  81 0028 0D       		.byte	13
  82 0029 18       		.byte	24
  83 002a 0A       		.byte	10
  84 002b 18       		.byte	24
  85 002c 00       		.byte	0
  86 002d 00       		.byte	0
  87 002e 00       		.byte	0
  88 002f 1C       		.byte	28
  89              		.global	cyBle_scanRspData
  90              		.align	2
  91              		.type	cyBle_scanRspData, %object
  92              		.size	cyBle_scanRspData, 32
  93              	cyBle_scanRspData:
  94 0030 12       		.byte	18
  95 0031 09       		.byte	9
  96 0032 48       		.byte	72
  97 0033 65       		.byte	101
  98 0034 61       		.byte	97
  99 0035 72       		.byte	114
 100 0036 74       		.byte	116
 101 0037 20       		.byte	32
 102 0038 52       		.byte	82
 103 0039 61       		.byte	97
 104 003a 74       		.byte	116
 105 003b 65       		.byte	101
 106 003c 20       		.byte	32
 107 003d 53       		.byte	83
 108 003e 65       		.byte	101
 109 003f 6E       		.byte	110
 110 0040 73       		.byte	115
ARM GAS  C:\Users\Lucia\AppData\Local\Temp\cc0KspdR.s 			page 3


 111 0041 6F       		.byte	111
 112 0042 72       		.byte	114
 113 0043 03       		.byte	3
 114 0044 02       		.byte	2
 115 0045 0D       		.byte	13
 116 0046 18       		.byte	24
 117 0047 00       		.byte	0
 118 0048 00       		.byte	0
 119 0049 00       		.byte	0
 120 004a 00       		.byte	0
 121 004b 00       		.byte	0
 122 004c 00       		.byte	0
 123 004d 00       		.byte	0
 124 004e 00       		.byte	0
 125 004f 17       		.byte	23
 126              		.global	cyBle_discoveryModeInfo
 127              		.align	2
 128              		.type	cyBle_discoveryModeInfo, %object
 129              		.size	cyBle_discoveryModeInfo, 20
 130              	cyBle_discoveryModeInfo:
 131 0050 02       		.byte	2
 132 0051 000000   		.space	3
 133 0054 00000000 		.word	cyBle_discoveryParam
 134 0058 00000000 		.word	cyBle_discoveryData
 135 005c 00000000 		.word	cyBle_scanRspData
 136 0060 1E00     		.short	30
 137 0062 0000     		.space	2
 138              		.comm	CyBle_ApplCallback,4,4
 139              		.global	cyBle_deviceAddress
 140              		.align	2
 141              		.type	cyBle_deviceAddress, %object
 142              		.size	cyBle_deviceAddress, 7
 143              	cyBle_deviceAddress:
 144 0064 00       		.byte	0
 145 0065 00       		.byte	0
 146 0066 00       		.byte	0
 147 0067 50       		.byte	80
 148 0068 A0       		.byte	-96
 149 0069 00       		.byte	0
 150 006a 00       		.byte	0
 151              		.global	cyBle_sflashDeviceAddress
 152 006b 00       		.align	2
 153              		.type	cyBle_sflashDeviceAddress, %object
 154              		.size	cyBle_sflashDeviceAddress, 4
 155              	cyBle_sflashDeviceAddress:
 156 006c 00F4FF0F 		.word	268432384
 157              		.section	.text.CyBle_Init,"ax",%progbits
 158              		.align	2
 159              		.global	CyBle_Init
 160              		.code	16
 161              		.thumb_func
 162              		.type	CyBle_Init, %function
 163              	CyBle_Init:
 164              	.LFB2:
 165              		.file 1 "Generated_Source\\PSoC4\\CYBLE.c"
   1:Generated_Source\PSoC4/CYBLE.c **** /***************************************************************************//**
   2:Generated_Source\PSoC4/CYBLE.c **** * \file CYBLE.c
ARM GAS  C:\Users\Lucia\AppData\Local\Temp\cc0KspdR.s 			page 4


   3:Generated_Source\PSoC4/CYBLE.c **** * \version 3.30
   4:Generated_Source\PSoC4/CYBLE.c **** * 
   5:Generated_Source\PSoC4/CYBLE.c **** * \brief
   6:Generated_Source\PSoC4/CYBLE.c **** *  This file contains the source code for the Common APIs of the BLE Component.
   7:Generated_Source\PSoC4/CYBLE.c **** * 
   8:Generated_Source\PSoC4/CYBLE.c **** ********************************************************************************
   9:Generated_Source\PSoC4/CYBLE.c **** * \copyright
  10:Generated_Source\PSoC4/CYBLE.c **** * Copyright 2014-2016, Cypress Semiconductor Corporation.  All rights reserved.
  11:Generated_Source\PSoC4/CYBLE.c **** * You may use this file only in accordance with the license, terms, conditions,
  12:Generated_Source\PSoC4/CYBLE.c **** * disclaimers, and limitations in the end user license agreement accompanying
  13:Generated_Source\PSoC4/CYBLE.c **** * the software package with which this file was provided.
  14:Generated_Source\PSoC4/CYBLE.c **** *******************************************************************************/
  15:Generated_Source\PSoC4/CYBLE.c **** 
  16:Generated_Source\PSoC4/CYBLE.c **** #include "CYBLE_eventHandler.h"
  17:Generated_Source\PSoC4/CYBLE.c **** #include "CYBLE_HAL_PVT.h"
  18:Generated_Source\PSoC4/CYBLE.c **** #include <stdlib.h>
  19:Generated_Source\PSoC4/CYBLE.c **** 
  20:Generated_Source\PSoC4/CYBLE.c **** 
  21:Generated_Source\PSoC4/CYBLE.c **** /***************************************
  22:Generated_Source\PSoC4/CYBLE.c **** * Function Prototypes
  23:Generated_Source\PSoC4/CYBLE.c **** ***************************************/
  24:Generated_Source\PSoC4/CYBLE.c **** 
  25:Generated_Source\PSoC4/CYBLE.c **** #if(CYBLE_GATT_ROLE_SERVER)
  26:Generated_Source\PSoC4/CYBLE.c ****     #if(CYBLE_GAP_ROLE_PERIPHERAL)
  27:Generated_Source\PSoC4/CYBLE.c ****         static void CyBle_ChangeAdLocalName(const char8 name[], uint8 dest);
  28:Generated_Source\PSoC4/CYBLE.c ****     #endif /* (CYBLE_GAP_ROLE_PERIPHERAL) */
  29:Generated_Source\PSoC4/CYBLE.c **** #endif /* (CYBLE_GATT_ROLE_SERVER) */
  30:Generated_Source\PSoC4/CYBLE.c ****     
  31:Generated_Source\PSoC4/CYBLE.c **** 
  32:Generated_Source\PSoC4/CYBLE.c **** /***************************************
  33:Generated_Source\PSoC4/CYBLE.c **** * Global Variables
  34:Generated_Source\PSoC4/CYBLE.c **** ***************************************/
  35:Generated_Source\PSoC4/CYBLE.c **** 
  36:Generated_Source\PSoC4/CYBLE.c **** /* Indicates whether the BLE has been initialized. The variable is initialized to
  37:Generated_Source\PSoC4/CYBLE.c ****    0 and set to 1 the first time CyBle_Start() is called. This allows the component
  38:Generated_Source\PSoC4/CYBLE.c ****    to restart without reinitialization after the first call to the CyBle_Start() 
  39:Generated_Source\PSoC4/CYBLE.c ****    routine. If reinitialization of the component is required, the variable should 
  40:Generated_Source\PSoC4/CYBLE.c ****    be set to 0 before the CyBle_Start() routine is called. Alternatively, the BLE
  41:Generated_Source\PSoC4/CYBLE.c ****    can be reinitialized by calling the CyBle_Init() function.
  42:Generated_Source\PSoC4/CYBLE.c **** */
  43:Generated_Source\PSoC4/CYBLE.c **** uint8  cyBle_initVar = 0u;
  44:Generated_Source\PSoC4/CYBLE.c **** 
  45:Generated_Source\PSoC4/CYBLE.c **** /* Allocate RAM memory for stack. This buffer could be reused by application when 
  46:Generated_Source\PSoC4/CYBLE.c ****    BLE component is stopped. For export mode buffer is allocated in heap.
  47:Generated_Source\PSoC4/CYBLE.c **** */
  48:Generated_Source\PSoC4/CYBLE.c **** #if(CYBLE_SHARING_MODE_EXPORT)
  49:Generated_Source\PSoC4/CYBLE.c ****     
  50:Generated_Source\PSoC4/CYBLE.c **** uint8 *cyBle_stackMemoryRam = NULL;
  51:Generated_Source\PSoC4/CYBLE.c **** 
  52:Generated_Source\PSoC4/CYBLE.c **** #else
  53:Generated_Source\PSoC4/CYBLE.c **** 
  54:Generated_Source\PSoC4/CYBLE.c **** CYBLE_CYALIGNED_BEGIN CY_NOINIT uint8 cyBle_stackMemoryRam[CYBLE_STACK_RAM_SIZE] CYBLE_CYALIGNED_EN
  55:Generated_Source\PSoC4/CYBLE.c **** 
  56:Generated_Source\PSoC4/CYBLE.c **** #endif  /* CYBLE_SHARING_MODE_EXPORT */
  57:Generated_Source\PSoC4/CYBLE.c **** 
  58:Generated_Source\PSoC4/CYBLE.c **** #if(CYBLE_GAP_ROLE_PERIPHERAL || CYBLE_GAP_ROLE_BROADCASTER)
  59:Generated_Source\PSoC4/CYBLE.c **** 
ARM GAS  C:\Users\Lucia\AppData\Local\Temp\cc0KspdR.s 			page 5


  60:Generated_Source\PSoC4/CYBLE.c **** CYBLE_GAPP_DISC_PARAM_T cyBle_discoveryParam =
  61:Generated_Source\PSoC4/CYBLE.c **** {
  62:Generated_Source\PSoC4/CYBLE.c ****     0x0020u,    /* uint16 advertising_interval_min */
  63:Generated_Source\PSoC4/CYBLE.c ****     0x0030u,    /* uint16 advertising_interval_max */
  64:Generated_Source\PSoC4/CYBLE.c ****     CYBLE_GAPP_CONNECTABLE_UNDIRECTED_ADV, /* uint8 advertising_type */
  65:Generated_Source\PSoC4/CYBLE.c ****     0x00u,      /* uint8 own_addr_type */
  66:Generated_Source\PSoC4/CYBLE.c ****     0x00u,      /* uint8 direct_addr_type */
  67:Generated_Source\PSoC4/CYBLE.c ****     {0x00u, 0x00u, 0x00u, 0x50u, 0xA0u, 0x00u}, /* uint8* direct_addr */
  68:Generated_Source\PSoC4/CYBLE.c ****     0x07u,      /* uint8 advertising_channel_map */
  69:Generated_Source\PSoC4/CYBLE.c ****     0x00u,      /* uint8 advertising_filter_policy */
  70:Generated_Source\PSoC4/CYBLE.c **** };
  71:Generated_Source\PSoC4/CYBLE.c **** 
  72:Generated_Source\PSoC4/CYBLE.c **** CYBLE_GAPP_DISC_DATA_T cyBle_discoveryData =
  73:Generated_Source\PSoC4/CYBLE.c **** {
  74:Generated_Source\PSoC4/CYBLE.c ****     { 0x02u, 0x01u, 0x06u, 0x12u, 0x09u, 0x48u, 0x65u,
  75:Generated_Source\PSoC4/CYBLE.c ****     0x61u, 0x72u, 0x74u, 0x20u, 0x52u, 0x61u, 0x74u, 0x65u,
  76:Generated_Source\PSoC4/CYBLE.c ****     0x20u, 0x53u, 0x65u, 0x6Eu, 0x73u, 0x6Fu, 0x72u, 0x05u,
  77:Generated_Source\PSoC4/CYBLE.c ****     0x03u, 0x0Du, 0x18u, 0x0Au, 0x18u, 0x00u, 0x00u, 0x00u }, /* uint8 advertising_data[CYBLE_MAX_A
  78:Generated_Source\PSoC4/CYBLE.c ****     0x1Cu,      /* uint8 adv_data_length */
  79:Generated_Source\PSoC4/CYBLE.c **** };
  80:Generated_Source\PSoC4/CYBLE.c **** 
  81:Generated_Source\PSoC4/CYBLE.c **** CYBLE_GAPP_SCAN_RSP_DATA_T cyBle_scanRspData =
  82:Generated_Source\PSoC4/CYBLE.c **** {
  83:Generated_Source\PSoC4/CYBLE.c ****     { 0x12u, 0x09u, 0x48u, 0x65u, 0x61u, 0x72u, 0x74u,
  84:Generated_Source\PSoC4/CYBLE.c ****     0x20u, 0x52u, 0x61u, 0x74u, 0x65u, 0x20u, 0x53u, 0x65u,
  85:Generated_Source\PSoC4/CYBLE.c ****     0x6Eu, 0x73u, 0x6Fu, 0x72u, 0x03u, 0x02u, 0x0Du, 0x18u,
  86:Generated_Source\PSoC4/CYBLE.c ****     0x00u, 0x00u, 0x00u, 0x00u, 0x00u, 0x00u, 0x00u, 0x00u }, /* uint8 scan_rsp_data[CYBLE_MAX_SCAN
  87:Generated_Source\PSoC4/CYBLE.c ****     0x17u,      /* uint8 scan_rsp_data_length */
  88:Generated_Source\PSoC4/CYBLE.c **** };
  89:Generated_Source\PSoC4/CYBLE.c **** 
  90:Generated_Source\PSoC4/CYBLE.c **** /* This variable of type CYBLE_GAPP_DISC_MODE_INFO_T is present only when 
  91:Generated_Source\PSoC4/CYBLE.c ****    the BLE component is configured for Peripheral GAP role or Central and 
  92:Generated_Source\PSoC4/CYBLE.c ****    Peripheral GAP role. It contains the Advertisement settings and also the 
  93:Generated_Source\PSoC4/CYBLE.c ****    Advertisement and Scan response data parameters entered in the customizer.
  94:Generated_Source\PSoC4/CYBLE.c ****    This variable can be used by advanced users to change Advertisement settings,
  95:Generated_Source\PSoC4/CYBLE.c ****    Advertisement or Scan response data in runtime. 
  96:Generated_Source\PSoC4/CYBLE.c **** */
  97:Generated_Source\PSoC4/CYBLE.c **** CYBLE_GAPP_DISC_MODE_INFO_T cyBle_discoveryModeInfo =
  98:Generated_Source\PSoC4/CYBLE.c **** {
  99:Generated_Source\PSoC4/CYBLE.c ****     0x02u,      /* uint8 discMode */
 100:Generated_Source\PSoC4/CYBLE.c ****     &cyBle_discoveryParam,
 101:Generated_Source\PSoC4/CYBLE.c ****     &cyBle_discoveryData,
 102:Generated_Source\PSoC4/CYBLE.c ****     &cyBle_scanRspData,
 103:Generated_Source\PSoC4/CYBLE.c ****     0x001Eu,    /* uint16 advTo */
 104:Generated_Source\PSoC4/CYBLE.c **** };
 105:Generated_Source\PSoC4/CYBLE.c **** 
 106:Generated_Source\PSoC4/CYBLE.c **** 
 107:Generated_Source\PSoC4/CYBLE.c **** #endif /* CYBLE_GAP_ROLE_PERIPHERAL || CYBLE_GAP_ROLE_BROADCASTER */
 108:Generated_Source\PSoC4/CYBLE.c **** 
 109:Generated_Source\PSoC4/CYBLE.c **** #if(CYBLE_GAP_ROLE_CENTRAL)
 110:Generated_Source\PSoC4/CYBLE.c ****     
 111:Generated_Source\PSoC4/CYBLE.c **** CYBLE_GAPC_CONN_PARAM_T cyBle_connectionParameters;
 112:Generated_Source\PSoC4/CYBLE.c **** 
 113:Generated_Source\PSoC4/CYBLE.c **** /* Connecting timeout is set to 30 seconds in CyBle_Init function. 
 114:Generated_Source\PSoC4/CYBLE.c ****    Not zero value starts timer in CyBle_GapcConnectDevice API.
 115:Generated_Source\PSoC4/CYBLE.c **** */
 116:Generated_Source\PSoC4/CYBLE.c **** uint16 cyBle_connectingTimeout;
ARM GAS  C:\Users\Lucia\AppData\Local\Temp\cc0KspdR.s 			page 6


 117:Generated_Source\PSoC4/CYBLE.c ****     
 118:Generated_Source\PSoC4/CYBLE.c **** #endif /* CYBLE_GAP_ROLE_CENTRAL */
 119:Generated_Source\PSoC4/CYBLE.c **** 
 120:Generated_Source\PSoC4/CYBLE.c **** #if(CYBLE_GAP_ROLE_CENTRAL || CYBLE_GAP_ROLE_OBSERVER)
 121:Generated_Source\PSoC4/CYBLE.c ****     
 122:Generated_Source\PSoC4/CYBLE.c **** 
 123:Generated_Source\PSoC4/CYBLE.c ****     
 124:Generated_Source\PSoC4/CYBLE.c **** #endif /* CYBLE_GAP_ROLE_CENTRAL || CYBLE_GAP_ROLE_OBSERVER */
 125:Generated_Source\PSoC4/CYBLE.c **** 
 126:Generated_Source\PSoC4/CYBLE.c **** #if((CYBLE_GAP_ROLE_PERIPHERAL || CYBLE_GAP_ROLE_CENTRAL) && (CYBLE_BONDING_REQUIREMENT == CYBLE_BO
 127:Generated_Source\PSoC4/CYBLE.c **** 
 128:Generated_Source\PSoC4/CYBLE.c **** uint8 cyBle_peerBonding;
 129:Generated_Source\PSoC4/CYBLE.c **** uint8 cyBle_pendingFlashWrite;
 130:Generated_Source\PSoC4/CYBLE.c ****     
 131:Generated_Source\PSoC4/CYBLE.c **** #if(CYBLE_GATT_DB_CCCD_COUNT != 0u)
 132:Generated_Source\PSoC4/CYBLE.c ****     static uint8 cyBle_pendingFlashClearCccdHandle;
 133:Generated_Source\PSoC4/CYBLE.c **** #endif /* CYBLE_GATT_DB_CCCD_COUNT != 0u */
 134:Generated_Source\PSoC4/CYBLE.c ****     
 135:Generated_Source\PSoC4/CYBLE.c **** #endif  /* (CYBLE_BONDING_REQUIREMENT == CYBLE_BONDING_YES) */
 136:Generated_Source\PSoC4/CYBLE.c **** 
 137:Generated_Source\PSoC4/CYBLE.c **** CYBLE_CALLBACK_T CyBle_ApplCallback;
 138:Generated_Source\PSoC4/CYBLE.c **** CYBLE_GAP_BD_ADDR_T cyBle_deviceAddress = {{0x00u, 0x00u, 0x00u, 0x50u, 0xA0u, 0x00u}, 0x00u };
 139:Generated_Source\PSoC4/CYBLE.c **** CYBLE_GAP_BD_ADDR_T * cyBle_sflashDeviceAddress = CYBLE_SFLASH_DEVICE_ADDRESS_PTR;
 140:Generated_Source\PSoC4/CYBLE.c **** 
 141:Generated_Source\PSoC4/CYBLE.c **** 
 142:Generated_Source\PSoC4/CYBLE.c **** /******************************************************************************
 143:Generated_Source\PSoC4/CYBLE.c **** * Function Name: CyBle_Init
 144:Generated_Source\PSoC4/CYBLE.c **** ***************************************************************************//**
 145:Generated_Source\PSoC4/CYBLE.c **** *
 146:Generated_Source\PSoC4/CYBLE.c **** *   Initializes the component with the parameters set in the customizer.
 147:Generated_Source\PSoC4/CYBLE.c **** * 
 148:Generated_Source\PSoC4/CYBLE.c **** *  \return
 149:Generated_Source\PSoC4/CYBLE.c **** *   None
 150:Generated_Source\PSoC4/CYBLE.c **** * 
 151:Generated_Source\PSoC4/CYBLE.c **** ******************************************************************************/
 152:Generated_Source\PSoC4/CYBLE.c **** void CyBle_Init(void)
 153:Generated_Source\PSoC4/CYBLE.c **** {
 166              		.loc 1 153 0
 167              		.cfi_startproc
 168              		@ args = 0, pretend = 0, frame = 0
 169              		@ frame_needed = 1, uses_anonymous_args = 0
 170 0000 80B5     		push	{r7, lr}
 171              		.cfi_def_cfa_offset 8
 172              		.cfi_offset 7, -8
 173              		.cfi_offset 14, -4
 174 0002 00AF     		add	r7, sp, #0
 175              		.cfi_def_cfa_register 7
 154:Generated_Source\PSoC4/CYBLE.c ****     cyBle_eventHandlerFlag = 0u;
 176              		.loc 1 154 0
 177 0004 064B     		ldr	r3, .L2
 178 0006 0022     		movs	r2, #0
 179 0008 1A70     		strb	r2, [r3]
 155:Generated_Source\PSoC4/CYBLE.c ****     cyBle_busyStatus = CYBLE_STACK_STATE_FREE;
 180              		.loc 1 155 0
 181 000a 064B     		ldr	r3, .L2+4
 182 000c 0022     		movs	r2, #0
 183 000e 1A70     		strb	r2, [r3]
ARM GAS  C:\Users\Lucia\AppData\Local\Temp\cc0KspdR.s 			page 7


 156:Generated_Source\PSoC4/CYBLE.c **** 
 157:Generated_Source\PSoC4/CYBLE.c ****     #if(CYBLE_GAP_ROLE_PERIPHERAL || CYBLE_GAP_ROLE_BROADCASTER) 
 158:Generated_Source\PSoC4/CYBLE.c ****         cyBle_advertisingIntervalType = CYBLE_ADVERTISING_FAST; 
 184              		.loc 1 158 0
 185 0010 054B     		ldr	r3, .L2+8
 186 0012 0022     		movs	r2, #0
 187 0014 1A70     		strb	r2, [r3]
 159:Generated_Source\PSoC4/CYBLE.c ****     #endif /* (CYBLE_GAP_ROLE_PERIPHERAL || CYBLE_GAP_ROLE_BROADCASTER)  */
 160:Generated_Source\PSoC4/CYBLE.c ****     #if(CYBLE_GAP_ROLE_CENTRAL || CYBLE_GAP_ROLE_OBSERVER)
 161:Generated_Source\PSoC4/CYBLE.c ****         cyBle_scanningIntervalType = CYBLE_SCANNING_FAST; 
 162:Generated_Source\PSoC4/CYBLE.c ****     #endif /* (CYBLE_GAP_ROLE_CENTRAL || CYBLE_GAP_ROLE_OBSERVER) */
 163:Generated_Source\PSoC4/CYBLE.c ****         
 164:Generated_Source\PSoC4/CYBLE.c ****     /* Init default connection parameters. 
 165:Generated_Source\PSoC4/CYBLE.c ****        Application may change it before initiating a connection */
 166:Generated_Source\PSoC4/CYBLE.c ****     #if(CYBLE_GAP_ROLE_CENTRAL)
 167:Generated_Source\PSoC4/CYBLE.c ****         cyBle_connectionParameters.scanIntv = cyBle_discoveryInfo.scanIntv;
 168:Generated_Source\PSoC4/CYBLE.c ****         cyBle_connectionParameters.scanWindow = cyBle_discoveryInfo.scanWindow;
 169:Generated_Source\PSoC4/CYBLE.c ****         cyBle_connectionParameters.ownAddrType = cyBle_discoveryInfo.ownAddrType;
 170:Generated_Source\PSoC4/CYBLE.c ****         cyBle_connectionParameters.initiatorFilterPolicy = cyBle_discoveryInfo.scanFilterPolicy;
 171:Generated_Source\PSoC4/CYBLE.c ****         cyBle_connectionParameters.connIntvMin = CYBLE_GAPC_CONNECTION_INTERVAL_MIN;
 172:Generated_Source\PSoC4/CYBLE.c ****         cyBle_connectionParameters.connIntvMax = CYBLE_GAPC_CONNECTION_INTERVAL_MAX;
 173:Generated_Source\PSoC4/CYBLE.c ****         cyBle_connectionParameters.connLatency = CYBLE_GAPC_CONNECTION_SLAVE_LATENCY;
 174:Generated_Source\PSoC4/CYBLE.c ****         cyBle_connectionParameters.supervisionTO = CYBLE_GAPC_CONNECTION_TIME_OUT;
 175:Generated_Source\PSoC4/CYBLE.c ****         cyBle_connectionParameters.minCeLength = 0x0000u;
 176:Generated_Source\PSoC4/CYBLE.c ****         cyBle_connectionParameters.maxCeLength = 0xFFFFu;
 177:Generated_Source\PSoC4/CYBLE.c ****         
 178:Generated_Source\PSoC4/CYBLE.c ****         cyBle_connectingTimeout = CYBLE_GAPC_CONNECTING_TIMEOUT;
 179:Generated_Source\PSoC4/CYBLE.c ****     #endif /* CYBLE_GAP_ROLE_CENTRAL */
 180:Generated_Source\PSoC4/CYBLE.c **** 
 181:Generated_Source\PSoC4/CYBLE.c ****     CyBle_ServiceInit();
 188              		.loc 1 181 0
 189 0016 FFF7FEFF 		bl	CyBle_ServiceInit
 182:Generated_Source\PSoC4/CYBLE.c **** 
 183:Generated_Source\PSoC4/CYBLE.c ****     #if((CYBLE_GAP_ROLE_PERIPHERAL || CYBLE_GAP_ROLE_CENTRAL) && (CYBLE_BONDING_REQUIREMENT == CYBL
 184:Generated_Source\PSoC4/CYBLE.c ****         cyBle_pendingFlashWrite = 0u;
 185:Generated_Source\PSoC4/CYBLE.c ****         cyBle_peerBonding = CYBLE_GAP_BONDING_NONE;
 186:Generated_Source\PSoC4/CYBLE.c ****     #endif  /* (CYBLE_BONDING_REQUIREMENT == CYBLE_BONDING_YES) */
 187:Generated_Source\PSoC4/CYBLE.c **** 
 188:Generated_Source\PSoC4/CYBLE.c **** }
 190              		.loc 1 188 0
 191 001a C046     		nop
 192 001c BD46     		mov	sp, r7
 193              		@ sp needed
 194 001e 80BD     		pop	{r7, pc}
 195              	.L3:
 196              		.align	2
 197              	.L2:
 198 0020 00000000 		.word	cyBle_eventHandlerFlag
 199 0024 00000000 		.word	cyBle_busyStatus
 200 0028 00000000 		.word	cyBle_advertisingIntervalType
 201              		.cfi_endproc
 202              	.LFE2:
 203              		.size	CyBle_Init, .-CyBle_Init
 204              		.section	.text.CyBle_ServiceInit,"ax",%progbits
 205              		.align	2
 206              		.global	CyBle_ServiceInit
 207              		.code	16
ARM GAS  C:\Users\Lucia\AppData\Local\Temp\cc0KspdR.s 			page 8


 208              		.thumb_func
 209              		.type	CyBle_ServiceInit, %function
 210              	CyBle_ServiceInit:
 211              	.LFB3:
 189:Generated_Source\PSoC4/CYBLE.c **** 
 190:Generated_Source\PSoC4/CYBLE.c **** 
 191:Generated_Source\PSoC4/CYBLE.c **** /******************************************************************************
 192:Generated_Source\PSoC4/CYBLE.c **** * Function Name: CyBle_ServiceInit
 193:Generated_Source\PSoC4/CYBLE.c **** ***************************************************************************//**
 194:Generated_Source\PSoC4/CYBLE.c **** * 
 195:Generated_Source\PSoC4/CYBLE.c **** *  Initializes all included services.
 196:Generated_Source\PSoC4/CYBLE.c **** * 
 197:Generated_Source\PSoC4/CYBLE.c **** * \return
 198:Generated_Source\PSoC4/CYBLE.c **** *  None
 199:Generated_Source\PSoC4/CYBLE.c **** * 
 200:Generated_Source\PSoC4/CYBLE.c **** ******************************************************************************/
 201:Generated_Source\PSoC4/CYBLE.c **** void CyBle_ServiceInit(void)
 202:Generated_Source\PSoC4/CYBLE.c **** {
 212              		.loc 1 202 0
 213              		.cfi_startproc
 214              		@ args = 0, pretend = 0, frame = 0
 215              		@ frame_needed = 1, uses_anonymous_args = 0
 216 0000 80B5     		push	{r7, lr}
 217              		.cfi_def_cfa_offset 8
 218              		.cfi_offset 7, -8
 219              		.cfi_offset 14, -4
 220 0002 00AF     		add	r7, sp, #0
 221              		.cfi_def_cfa_register 7
 203:Generated_Source\PSoC4/CYBLE.c ****     #if(CYBLE_GATT_ROLE_CLIENT)
 204:Generated_Source\PSoC4/CYBLE.c ****         /* Check service range before clearing to support partial discovery */
 205:Generated_Source\PSoC4/CYBLE.c ****         if(cyBle_serverInfo[CYBLE_SRVI_GAP].range.startHandle == CYBLE_GATT_INVALID_ATTR_HANDLE_VAL
 206:Generated_Source\PSoC4/CYBLE.c ****         {
 207:Generated_Source\PSoC4/CYBLE.c ****             (void)memset(&cyBle_gapc, 0, sizeof(cyBle_gapc));
 208:Generated_Source\PSoC4/CYBLE.c ****         }
 209:Generated_Source\PSoC4/CYBLE.c ****         if(cyBle_serverInfo[CYBLE_SRVI_GATT].range.startHandle == CYBLE_GATT_INVALID_ATTR_HANDLE_VA
 210:Generated_Source\PSoC4/CYBLE.c ****         {
 211:Generated_Source\PSoC4/CYBLE.c ****             (void)memset(&cyBle_gattc, 0, sizeof(cyBle_gattc));
 212:Generated_Source\PSoC4/CYBLE.c ****         }
 213:Generated_Source\PSoC4/CYBLE.c ****     #endif /* CYBLE_GATT_ROLE_CLIENT */
 214:Generated_Source\PSoC4/CYBLE.c **** 
 215:Generated_Source\PSoC4/CYBLE.c ****    	#ifdef CYBLE_AIOS
 216:Generated_Source\PSoC4/CYBLE.c ****         CyBle_AiosInit();
 217:Generated_Source\PSoC4/CYBLE.c ****     #endif /* CYBLE_AIOS */
 218:Generated_Source\PSoC4/CYBLE.c **** 
 219:Generated_Source\PSoC4/CYBLE.c **** 	#ifdef CYBLE_ANCS
 220:Generated_Source\PSoC4/CYBLE.c ****         CyBle_AncsInit();
 221:Generated_Source\PSoC4/CYBLE.c ****     #endif /* CYBLE_ANCS */
 222:Generated_Source\PSoC4/CYBLE.c **** 	
 223:Generated_Source\PSoC4/CYBLE.c ****     #ifdef CYBLE_ANS
 224:Generated_Source\PSoC4/CYBLE.c ****         CyBle_AnsInit();
 225:Generated_Source\PSoC4/CYBLE.c ****     #endif /* CYBLE_ANS */
 226:Generated_Source\PSoC4/CYBLE.c ****     
 227:Generated_Source\PSoC4/CYBLE.c ****     #ifdef CYBLE_BAS
 228:Generated_Source\PSoC4/CYBLE.c ****         CyBle_BasInit();
 229:Generated_Source\PSoC4/CYBLE.c ****     #endif /* CYBLE_BAS */
 230:Generated_Source\PSoC4/CYBLE.c ****     
 231:Generated_Source\PSoC4/CYBLE.c ****     #ifdef CYBLE_BCS
ARM GAS  C:\Users\Lucia\AppData\Local\Temp\cc0KspdR.s 			page 9


 232:Generated_Source\PSoC4/CYBLE.c ****         CyBle_BcsInit();
 233:Generated_Source\PSoC4/CYBLE.c ****     #endif /* CYBLE_BCS */
 234:Generated_Source\PSoC4/CYBLE.c **** 
 235:Generated_Source\PSoC4/CYBLE.c ****     #ifdef CYBLE_BLS
 236:Generated_Source\PSoC4/CYBLE.c ****         CyBle_BlsInit();
 237:Generated_Source\PSoC4/CYBLE.c ****     #endif /* CYBLE_BLS */
 238:Generated_Source\PSoC4/CYBLE.c ****     
 239:Generated_Source\PSoC4/CYBLE.c ****     #ifdef CYBLE_BMS
 240:Generated_Source\PSoC4/CYBLE.c ****         CyBle_BmsInit();
 241:Generated_Source\PSoC4/CYBLE.c ****     #endif /* CYBLE_BMS */
 242:Generated_Source\PSoC4/CYBLE.c ****     
 243:Generated_Source\PSoC4/CYBLE.c ****     #ifdef CYBLE_CGMS
 244:Generated_Source\PSoC4/CYBLE.c ****         CyBle_CgmsInit();
 245:Generated_Source\PSoC4/CYBLE.c ****     #endif /* CYBLE_CGMS */
 246:Generated_Source\PSoC4/CYBLE.c **** 
 247:Generated_Source\PSoC4/CYBLE.c ****     #ifdef CYBLE_CPS
 248:Generated_Source\PSoC4/CYBLE.c ****         CyBle_CpsInit();
 249:Generated_Source\PSoC4/CYBLE.c ****     #endif /* CYBLE_CPS */
 250:Generated_Source\PSoC4/CYBLE.c **** 
 251:Generated_Source\PSoC4/CYBLE.c ****     #ifdef CYBLE_CSCS
 252:Generated_Source\PSoC4/CYBLE.c ****         CyBle_CscsInit();
 253:Generated_Source\PSoC4/CYBLE.c ****     #endif /* CYBLE_CSCS */
 254:Generated_Source\PSoC4/CYBLE.c ****     
 255:Generated_Source\PSoC4/CYBLE.c ****     #ifdef CYBLE_CTS
 256:Generated_Source\PSoC4/CYBLE.c ****         CyBle_CtsInit();
 257:Generated_Source\PSoC4/CYBLE.c ****     #endif /* CYBLE_CTS */
 258:Generated_Source\PSoC4/CYBLE.c **** 
 259:Generated_Source\PSoC4/CYBLE.c ****     #ifdef CYBLE_CUSTOM
 260:Generated_Source\PSoC4/CYBLE.c ****         CyBle_CustomInit();
 261:Generated_Source\PSoC4/CYBLE.c ****     #endif /* CYBLE_CUSTOM */
 262:Generated_Source\PSoC4/CYBLE.c **** 
 263:Generated_Source\PSoC4/CYBLE.c ****     #ifdef CYBLE_DIS
 264:Generated_Source\PSoC4/CYBLE.c ****         CyBle_DisInit();
 222              		.loc 1 264 0
 223 0004 FFF7FEFF 		bl	CyBle_DisInit
 265:Generated_Source\PSoC4/CYBLE.c ****     #endif /* CYBLE_DIS */
 266:Generated_Source\PSoC4/CYBLE.c **** 
 267:Generated_Source\PSoC4/CYBLE.c ****     #ifdef CYBLE_ESS
 268:Generated_Source\PSoC4/CYBLE.c ****         CyBle_EssInit();
 269:Generated_Source\PSoC4/CYBLE.c ****     #endif /* CYBLE_ESS */
 270:Generated_Source\PSoC4/CYBLE.c ****     
 271:Generated_Source\PSoC4/CYBLE.c ****     #ifdef CYBLE_GLS
 272:Generated_Source\PSoC4/CYBLE.c ****         CyBle_GlsInit();
 273:Generated_Source\PSoC4/CYBLE.c ****     #endif /* CYBLE_GLS */
 274:Generated_Source\PSoC4/CYBLE.c ****     
 275:Generated_Source\PSoC4/CYBLE.c ****     #ifdef CYBLE_HIDS
 276:Generated_Source\PSoC4/CYBLE.c ****         CyBle_HidsInit();
 277:Generated_Source\PSoC4/CYBLE.c ****     #endif /* CYBLE_HIDS */
 278:Generated_Source\PSoC4/CYBLE.c **** 
 279:Generated_Source\PSoC4/CYBLE.c ****     #ifdef CYBLE_HPS
 280:Generated_Source\PSoC4/CYBLE.c ****         CyBle_HpsInit();
 281:Generated_Source\PSoC4/CYBLE.c ****     #endif /* CYBLE_HPS */
 282:Generated_Source\PSoC4/CYBLE.c **** 
 283:Generated_Source\PSoC4/CYBLE.c ****     #ifdef CYBLE_HRS
 284:Generated_Source\PSoC4/CYBLE.c ****         CyBle_HrsInit();
 224              		.loc 1 284 0
 225 0008 FFF7FEFF 		bl	CyBle_HrsInit
ARM GAS  C:\Users\Lucia\AppData\Local\Temp\cc0KspdR.s 			page 10


 285:Generated_Source\PSoC4/CYBLE.c ****     #endif /* CYBLE_HRS */
 286:Generated_Source\PSoC4/CYBLE.c ****     
 287:Generated_Source\PSoC4/CYBLE.c ****     #ifdef CYBLE_HTS
 288:Generated_Source\PSoC4/CYBLE.c ****         CyBle_HtsInit();
 289:Generated_Source\PSoC4/CYBLE.c ****     #endif /* CYBLE_RSCS */
 290:Generated_Source\PSoC4/CYBLE.c **** 
 291:Generated_Source\PSoC4/CYBLE.c ****     #ifdef CYBLE_IAS
 292:Generated_Source\PSoC4/CYBLE.c ****         CyBle_IasInit();
 293:Generated_Source\PSoC4/CYBLE.c ****     #endif /* CYBLE_IAS */
 294:Generated_Source\PSoC4/CYBLE.c **** 
 295:Generated_Source\PSoC4/CYBLE.c ****     #ifdef CYBLE_IPS
 296:Generated_Source\PSoC4/CYBLE.c ****         CyBle_IpsInit();
 297:Generated_Source\PSoC4/CYBLE.c ****     #endif /* CYBLE_IPS */
 298:Generated_Source\PSoC4/CYBLE.c ****     
 299:Generated_Source\PSoC4/CYBLE.c ****     #ifdef CYBLE_LLS
 300:Generated_Source\PSoC4/CYBLE.c ****         CyBle_LlsInit();
 301:Generated_Source\PSoC4/CYBLE.c ****     #endif /* CYBLE_LLS */
 302:Generated_Source\PSoC4/CYBLE.c **** 
 303:Generated_Source\PSoC4/CYBLE.c ****     #ifdef CYBLE_LNS
 304:Generated_Source\PSoC4/CYBLE.c ****         CyBle_LnsInit();
 305:Generated_Source\PSoC4/CYBLE.c ****     #endif /* CYBLE_LNS */
 306:Generated_Source\PSoC4/CYBLE.c ****     
 307:Generated_Source\PSoC4/CYBLE.c ****     #ifdef CYBLE_NDCS
 308:Generated_Source\PSoC4/CYBLE.c ****         CyBle_NdcsInit();
 309:Generated_Source\PSoC4/CYBLE.c ****     #endif /* CYBLE_NDCS */
 310:Generated_Source\PSoC4/CYBLE.c ****     
 311:Generated_Source\PSoC4/CYBLE.c ****     #ifdef CYBLE_PASS
 312:Generated_Source\PSoC4/CYBLE.c ****         CyBle_PassInit();
 313:Generated_Source\PSoC4/CYBLE.c ****     #endif /* CYBLE_PASS */
 314:Generated_Source\PSoC4/CYBLE.c ****     
 315:Generated_Source\PSoC4/CYBLE.c ****     #ifdef CYBLE_PLXS
 316:Generated_Source\PSoC4/CYBLE.c ****         CyBle_PlxsInit();
 317:Generated_Source\PSoC4/CYBLE.c ****     #endif /* CYBLE_PLXS */
 318:Generated_Source\PSoC4/CYBLE.c ****     
 319:Generated_Source\PSoC4/CYBLE.c ****     #ifdef CYBLE_RSCS
 320:Generated_Source\PSoC4/CYBLE.c ****         CyBle_RscsInit();
 321:Generated_Source\PSoC4/CYBLE.c ****     #endif /* CYBLE_RSCS */
 322:Generated_Source\PSoC4/CYBLE.c **** 
 323:Generated_Source\PSoC4/CYBLE.c ****     #ifdef CYBLE_RTUS
 324:Generated_Source\PSoC4/CYBLE.c ****         CyBle_RtusInit();
 325:Generated_Source\PSoC4/CYBLE.c ****     #endif /* CYBLE_RTUS */
 326:Generated_Source\PSoC4/CYBLE.c **** 
 327:Generated_Source\PSoC4/CYBLE.c ****     #ifdef CYBLE_SCPS
 328:Generated_Source\PSoC4/CYBLE.c ****         CyBle_ScpsInit();
 329:Generated_Source\PSoC4/CYBLE.c ****     #endif /* CYBLE_SCPS */
 330:Generated_Source\PSoC4/CYBLE.c ****     
 331:Generated_Source\PSoC4/CYBLE.c ****     #ifdef CYBLE_TPS
 332:Generated_Source\PSoC4/CYBLE.c ****         CyBle_TpsInit();
 333:Generated_Source\PSoC4/CYBLE.c ****     #endif /* CYBLE_TPS */
 334:Generated_Source\PSoC4/CYBLE.c ****     
 335:Generated_Source\PSoC4/CYBLE.c ****     #ifdef CYBLE_UDS
 336:Generated_Source\PSoC4/CYBLE.c ****         CyBle_UdsInit();
 337:Generated_Source\PSoC4/CYBLE.c ****     #endif /* CYBLE_UDS */
 338:Generated_Source\PSoC4/CYBLE.c **** 
 339:Generated_Source\PSoC4/CYBLE.c ****     #ifdef CYBLE_WPTS
 340:Generated_Source\PSoC4/CYBLE.c ****         CyBle_WptsInit();
 341:Generated_Source\PSoC4/CYBLE.c ****     #endif /* CYBLE_WPTS */
ARM GAS  C:\Users\Lucia\AppData\Local\Temp\cc0KspdR.s 			page 11


 342:Generated_Source\PSoC4/CYBLE.c **** 
 343:Generated_Source\PSoC4/CYBLE.c ****     #ifdef CYBLE_WSS
 344:Generated_Source\PSoC4/CYBLE.c ****         CyBle_WssInit();
 345:Generated_Source\PSoC4/CYBLE.c ****     #endif /* CYBLE_WSS */
 346:Generated_Source\PSoC4/CYBLE.c **** }
 226              		.loc 1 346 0
 227 000c C046     		nop
 228 000e BD46     		mov	sp, r7
 229              		@ sp needed
 230 0010 80BD     		pop	{r7, pc}
 231              		.cfi_endproc
 232              	.LFE3:
 233              		.size	CyBle_ServiceInit, .-CyBle_ServiceInit
 234 0012 C046     		.section	.rodata
 235              		.align	2
 236              	.LC0:
 237 0000 2400     		.short	36
 238 0002 03       		.byte	3
 239 0003 00       		.space	1
 240 0004 3000     		.short	48
 241 0006 01       		.byte	1
 242 0007 00       		.space	1
 243 0008 2800     		.short	40
 244 000a 02       		.byte	2
 245 000b 00       		.space	1
 246 000c 2400     		.short	36
 247 000e 01       		.byte	1
 248 000f 00       		.space	1
 249 0010 2400     		.short	36
 250 0012 01       		.byte	1
 251 0013 00       		.space	1
 252              		.section	.text.CyBle_Start,"ax",%progbits
 253              		.align	2
 254              		.global	CyBle_Start
 255              		.code	16
 256              		.thumb_func
 257              		.type	CyBle_Start, %function
 258              	CyBle_Start:
 259              	.LFB4:
 347:Generated_Source\PSoC4/CYBLE.c **** 
 348:Generated_Source\PSoC4/CYBLE.c **** 
 349:Generated_Source\PSoC4/CYBLE.c **** /******************************************************************************
 350:Generated_Source\PSoC4/CYBLE.c **** * Function Name: CyBle_Start
 351:Generated_Source\PSoC4/CYBLE.c **** ***************************************************************************//**
 352:Generated_Source\PSoC4/CYBLE.c **** * 
 353:Generated_Source\PSoC4/CYBLE.c **** *  This function initializes the BLE Stack, which consists of the BLE Stack 
 354:Generated_Source\PSoC4/CYBLE.c **** *  Manager, BLE Controller, and BLE Host modules. It takes care of initializing
 355:Generated_Source\PSoC4/CYBLE.c **** *  the Profile layer, schedulers, Timer and other platform related
 356:Generated_Source\PSoC4/CYBLE.c **** *  resources required for the BLE component. It also registers the callback 
 357:Generated_Source\PSoC4/CYBLE.c **** *  function for BLE events that will be registered in the BLE stack.
 358:Generated_Source\PSoC4/CYBLE.c **** * 
 359:Generated_Source\PSoC4/CYBLE.c **** *  Note that this function does not reset the BLE Stack.
 360:Generated_Source\PSoC4/CYBLE.c **** * 
 361:Generated_Source\PSoC4/CYBLE.c **** *  For HCI-Mode of operation, this function will not initialize the BLE Host 
 362:Generated_Source\PSoC4/CYBLE.c **** *  module.
 363:Generated_Source\PSoC4/CYBLE.c **** * 
 364:Generated_Source\PSoC4/CYBLE.c **** *  Calling this function results in the generation of CYBLE_EVT_STACK_ON event
ARM GAS  C:\Users\Lucia\AppData\Local\Temp\cc0KspdR.s 			page 12


 365:Generated_Source\PSoC4/CYBLE.c **** *  on successful initialization of the BLE Stack.
 366:Generated_Source\PSoC4/CYBLE.c **** * 
 367:Generated_Source\PSoC4/CYBLE.c **** *  \param callbackFunc: Event callback function to receive events from BLE stack.
 368:Generated_Source\PSoC4/CYBLE.c **** *   CYBLE_CALLBACK_T is a function pointer type.
 369:Generated_Source\PSoC4/CYBLE.c **** * 
 370:Generated_Source\PSoC4/CYBLE.c **** * \return
 371:Generated_Source\PSoC4/CYBLE.c **** *  CYBLE_API_RESULT_T : Return value indicates if the function succeeded or 
 372:Generated_Source\PSoC4/CYBLE.c **** *  failed. Following are the possible error codes.
 373:Generated_Source\PSoC4/CYBLE.c **** * 
 374:Generated_Source\PSoC4/CYBLE.c **** *   <table>
 375:Generated_Source\PSoC4/CYBLE.c **** *  	  <tr>
 376:Generated_Source\PSoC4/CYBLE.c **** *       <th>Error codes</th>
 377:Generated_Source\PSoC4/CYBLE.c **** *       <th>Description</th>
 378:Generated_Source\PSoC4/CYBLE.c **** *     </tr>
 379:Generated_Source\PSoC4/CYBLE.c **** *     <tr>
 380:Generated_Source\PSoC4/CYBLE.c **** *       <td>CYBLE_ERROR_OK</td>
 381:Generated_Source\PSoC4/CYBLE.c **** *       <td>On successful operation.</td>
 382:Generated_Source\PSoC4/CYBLE.c **** *     </tr>
 383:Generated_Source\PSoC4/CYBLE.c **** *     <tr>
 384:Generated_Source\PSoC4/CYBLE.c **** *       <td>CYBLE_ERROR_INVALID_PARAMETER</td>
 385:Generated_Source\PSoC4/CYBLE.c **** *       <td>On passing a NULL pointer to the function. 
 386:Generated_Source\PSoC4/CYBLE.c **** *		</td>
 387:Generated_Source\PSoC4/CYBLE.c **** *     </tr>
 388:Generated_Source\PSoC4/CYBLE.c **** *     <tr>
 389:Generated_Source\PSoC4/CYBLE.c **** *       <td>CYBLE_ERROR_REPEATED_ATTEMPTS</td>
 390:Generated_Source\PSoC4/CYBLE.c **** *       <td>On invoking this function more than once without calling CyBle_Shutdown() 
 391:Generated_Source\PSoC4/CYBLE.c **** *           function between calls to this function.</td>
 392:Generated_Source\PSoC4/CYBLE.c **** *     </tr>
 393:Generated_Source\PSoC4/CYBLE.c **** *     <tr>
 394:Generated_Source\PSoC4/CYBLE.c **** *       <td>CYBLE_ERROR_MEMORY_ALLOCATION_FAILED</td>
 395:Generated_Source\PSoC4/CYBLE.c **** *       <td>There is insufficient memory available.</td>
 396:Generated_Source\PSoC4/CYBLE.c **** *     </tr>
 397:Generated_Source\PSoC4/CYBLE.c **** *   </table>
 398:Generated_Source\PSoC4/CYBLE.c **** * 
 399:Generated_Source\PSoC4/CYBLE.c **** *  \globalvars
 400:Generated_Source\PSoC4/CYBLE.c **** *   The CyBle_initVar variable is used to indicate initial
 401:Generated_Source\PSoC4/CYBLE.c **** *   configuration of this component. The variable is initialized to zero (0u)
 402:Generated_Source\PSoC4/CYBLE.c **** *   and set to one (1u) the first time CyBle_Start() is called. This
 403:Generated_Source\PSoC4/CYBLE.c **** *   allows for component initialization without re-initialization in all
 404:Generated_Source\PSoC4/CYBLE.c **** *   subsequent calls to the CyBle_Start() routine.
 405:Generated_Source\PSoC4/CYBLE.c **** * 
 406:Generated_Source\PSoC4/CYBLE.c **** ******************************************************************************/
 407:Generated_Source\PSoC4/CYBLE.c **** CYBLE_API_RESULT_T CyBle_Start(CYBLE_CALLBACK_T callbackFunc)
 408:Generated_Source\PSoC4/CYBLE.c **** {
 260              		.loc 1 408 0
 261              		.cfi_startproc
 262              		@ args = 0, pretend = 0, frame = 64
 263              		@ frame_needed = 1, uses_anonymous_args = 0
 264 0000 B0B5     		push	{r4, r5, r7, lr}
 265              		.cfi_def_cfa_offset 16
 266              		.cfi_offset 4, -16
 267              		.cfi_offset 5, -12
 268              		.cfi_offset 7, -8
 269              		.cfi_offset 14, -4
 270 0002 94B0     		sub	sp, sp, #80
 271              		.cfi_def_cfa_offset 96
 272 0004 04AF     		add	r7, sp, #16
ARM GAS  C:\Users\Lucia\AppData\Local\Temp\cc0KspdR.s 			page 13


 273              		.cfi_def_cfa 7, 80
 274 0006 7860     		str	r0, [r7, #4]
 409:Generated_Source\PSoC4/CYBLE.c ****     CYBLE_API_RESULT_T apiResult = CYBLE_ERROR_OK;
 275              		.loc 1 409 0
 276 0008 3E23     		movs	r3, #62
 277 000a FB18     		adds	r3, r7, r3
 278 000c 0022     		movs	r2, #0
 279 000e 1A80     		strh	r2, [r3]
 410:Generated_Source\PSoC4/CYBLE.c ****     
 411:Generated_Source\PSoC4/CYBLE.c ****     #if(CYBLE_MODE_PROFILE)
 412:Generated_Source\PSoC4/CYBLE.c ****     
 413:Generated_Source\PSoC4/CYBLE.c ****     CYBLE_STK_APP_DATA_BUFF_T cyBle_stackDataBuff[CYBLE_STACK_APP_MIN_POOL] = 
 280              		.loc 1 413 0
 281 0010 2823     		movs	r3, #40
 282 0012 FA18     		adds	r2, r7, r3
 283 0014 3D4B     		ldr	r3, .L12
 284 0016 1000     		movs	r0, r2
 285 0018 1900     		movs	r1, r3
 286 001a 1423     		movs	r3, #20
 287 001c 1A00     		movs	r2, r3
 288 001e FFF7FEFF 		bl	memcpy
 414:Generated_Source\PSoC4/CYBLE.c ****     {
 415:Generated_Source\PSoC4/CYBLE.c ****         {CYBLE_GATT_MTU_PLUS_L2CAP_MEM_EXT, CYBLE_GATT_MTU_BUFF_COUNT + CYBLE_GATT_MAX_ATTR_BUFF_CO
 416:Generated_Source\PSoC4/CYBLE.c ****         {CYBLE_L2CAP_PSM_PLUS_L2CAP_MEM_EXT, CYBLE_L2CAP_PSM_COUNT},
 417:Generated_Source\PSoC4/CYBLE.c ****         {CYBLE_L2CAP_CBFC_PLUS_L2CAP_MEM_EXT, 2u * CYBLE_L2CAP_LOGICAL_CHANNEL_COUNT},
 418:Generated_Source\PSoC4/CYBLE.c ****         {CYBLE_L2CAP_MTU_PLUS_L2CAP_MEM_EXT, CYBLE_L2CAP_LOGICAL_CHANNEL_COUNT},
 419:Generated_Source\PSoC4/CYBLE.c ****         {CYBLE_L2CAP_MPS_PLUS_L2CAP_MEM_EXT, CYBLE_L2CAP_LOGICAL_CHANNEL_COUNT * (CYBLE_L2CAP_MTU_M
 420:Generated_Source\PSoC4/CYBLE.c ****     }; 
 421:Generated_Source\PSoC4/CYBLE.c **** 
 422:Generated_Source\PSoC4/CYBLE.c ****     #endif /* CYBLE_MODE_PROFILE */
 423:Generated_Source\PSoC4/CYBLE.c ****     
 424:Generated_Source\PSoC4/CYBLE.c ****     /* If not initialized then initialize all the required hardware and software */
 425:Generated_Source\PSoC4/CYBLE.c ****     if(cyBle_initVar == 0u)
 289              		.loc 1 425 0
 290 0022 3B4B     		ldr	r3, .L12+4
 291 0024 1B78     		ldrb	r3, [r3]
 292 0026 002B     		cmp	r3, #0
 293 0028 04D1     		bne	.L6
 426:Generated_Source\PSoC4/CYBLE.c ****     {
 427:Generated_Source\PSoC4/CYBLE.c ****         CyBle_Init();
 294              		.loc 1 427 0
 295 002a FFF7FEFF 		bl	CyBle_Init
 428:Generated_Source\PSoC4/CYBLE.c ****         cyBle_initVar = 1u;
 296              		.loc 1 428 0
 297 002e 384B     		ldr	r3, .L12+4
 298 0030 0122     		movs	r2, #1
 299 0032 1A70     		strb	r2, [r3]
 300              	.L6:
 429:Generated_Source\PSoC4/CYBLE.c ****     }
 430:Generated_Source\PSoC4/CYBLE.c ****     
 431:Generated_Source\PSoC4/CYBLE.c ****     if(callbackFunc != NULL)
 301              		.loc 1 431 0
 302 0034 7B68     		ldr	r3, [r7, #4]
 303 0036 002B     		cmp	r3, #0
 304 0038 5CD0     		beq	.L7
 432:Generated_Source\PSoC4/CYBLE.c ****     {
 433:Generated_Source\PSoC4/CYBLE.c ****         CyBle_ApplCallback = callbackFunc;
ARM GAS  C:\Users\Lucia\AppData\Local\Temp\cc0KspdR.s 			page 14


 305              		.loc 1 433 0
 306 003a 364B     		ldr	r3, .L12+8
 307 003c 7A68     		ldr	r2, [r7, #4]
 308 003e 1A60     		str	r2, [r3]
 434:Generated_Source\PSoC4/CYBLE.c ****         
 435:Generated_Source\PSoC4/CYBLE.c ****     #if(CYBLE_SHARING_MODE_EXPORT)
 436:Generated_Source\PSoC4/CYBLE.c ****         if(cyBle_stackMemoryRam == NULL)
 437:Generated_Source\PSoC4/CYBLE.c ****         {
 438:Generated_Source\PSoC4/CYBLE.c ****             cyBle_stackMemoryRam = (uint8 *)malloc(CYBLE_STACK_RAM_SIZE);
 439:Generated_Source\PSoC4/CYBLE.c ****             if(cyBle_stackMemoryRam == NULL)
 440:Generated_Source\PSoC4/CYBLE.c ****             {
 441:Generated_Source\PSoC4/CYBLE.c ****                 apiResult = CYBLE_ERROR_MEMORY_ALLOCATION_FAILED;
 442:Generated_Source\PSoC4/CYBLE.c ****             }
 443:Generated_Source\PSoC4/CYBLE.c ****         }
 444:Generated_Source\PSoC4/CYBLE.c ****     #endif /* CYBLE_SHARING_MODE_EXPORT */
 445:Generated_Source\PSoC4/CYBLE.c ****         if(apiResult == CYBLE_ERROR_OK)
 309              		.loc 1 445 0
 310 0040 3E23     		movs	r3, #62
 311 0042 FB18     		adds	r3, r7, r3
 312 0044 1B88     		ldrh	r3, [r3]
 313 0046 002B     		cmp	r3, #0
 314 0048 29D1     		bne	.L8
 315              	.LBB2:
 446:Generated_Source\PSoC4/CYBLE.c ****         {
 447:Generated_Source\PSoC4/CYBLE.c ****             CYBLE_DLE_CONFIG_PARAM_T dleConfigParams;
 448:Generated_Source\PSoC4/CYBLE.c ****             CYBLE_PRIVACY_1_2_CONFIG_PARAM_T privacyConfigParams;
 449:Generated_Source\PSoC4/CYBLE.c ****             CYBLE_STACK_CONFIG_PARAM_T stackConfig;
 450:Generated_Source\PSoC4/CYBLE.c ****             uint16 featureHeapReq;
 451:Generated_Source\PSoC4/CYBLE.c ****             
 452:Generated_Source\PSoC4/CYBLE.c ****             stackConfig.privacyConfig = &privacyConfigParams;
 316              		.loc 1 452 0
 317 004a 1023     		movs	r3, #16
 318 004c FB18     		adds	r3, r7, r3
 319 004e 1C22     		movs	r2, #28
 320 0050 BA18     		adds	r2, r7, r2
 321 0052 5A60     		str	r2, [r3, #4]
 453:Generated_Source\PSoC4/CYBLE.c ****             stackConfig.dleConfig = &dleConfigParams;
 322              		.loc 1 453 0
 323 0054 1023     		movs	r3, #16
 324 0056 FB18     		adds	r3, r7, r3
 325 0058 2022     		movs	r2, #32
 326 005a BA18     		adds	r2, r7, r2
 327 005c 1A60     		str	r2, [r3]
 454:Generated_Source\PSoC4/CYBLE.c ****             
 455:Generated_Source\PSoC4/CYBLE.c ****             /* Configure default BLE 4.1 features and enabled 4.2 features */
 456:Generated_Source\PSoC4/CYBLE.c ****             stackConfig.feature_mask = CYBLE_DLE_FEATURE | CYBLE_LL_PRIVACY_FEATURE | 
 328              		.loc 1 456 0
 329 005e 1023     		movs	r3, #16
 330 0060 FB18     		adds	r3, r7, r3
 331 0062 0022     		movs	r2, #0
 332 0064 1A81     		strh	r2, [r3, #8]
 457:Generated_Source\PSoC4/CYBLE.c ****                                        CYBLE_SECURE_CONN_FEATURE;
 458:Generated_Source\PSoC4/CYBLE.c **** 
 459:Generated_Source\PSoC4/CYBLE.c ****             /* Configure DLE */
 460:Generated_Source\PSoC4/CYBLE.c ****             dleConfigParams.dleMaxTxCapability = CYBLE_LL_MAX_TX_PAYLOAD_SIZE;
 333              		.loc 1 460 0
 334 0066 2023     		movs	r3, #32
ARM GAS  C:\Users\Lucia\AppData\Local\Temp\cc0KspdR.s 			page 15


 335 0068 FB18     		adds	r3, r7, r3
 336 006a 1B22     		movs	r2, #27
 337 006c 1A80     		strh	r2, [r3]
 461:Generated_Source\PSoC4/CYBLE.c ****             dleConfigParams.dleMaxRxCapability = CYBLE_LL_MAX_RX_PAYLOAD_SIZE;
 338              		.loc 1 461 0
 339 006e 2023     		movs	r3, #32
 340 0070 FB18     		adds	r3, r7, r3
 341 0072 1B22     		movs	r2, #27
 342 0074 5A80     		strh	r2, [r3, #2]
 462:Generated_Source\PSoC4/CYBLE.c ****             dleConfigParams.dleNumTxBuffer = CYBLE_LL_DEFAULT_NUM_ACL_TX_PACKETS;
 343              		.loc 1 462 0
 344 0076 2023     		movs	r3, #32
 345 0078 FB18     		adds	r3, r7, r3
 346 007a 0422     		movs	r2, #4
 347 007c 1A71     		strb	r2, [r3, #4]
 463:Generated_Source\PSoC4/CYBLE.c ****         #if(CYBLE_DLE_FEATURE_ENABLED)
 464:Generated_Source\PSoC4/CYBLE.c ****             CyBle_EnableDleFeature();              /* Enable DLE code in stack */
 465:Generated_Source\PSoC4/CYBLE.c ****         #endif /* CYBLE_DLE_FEATURE_ENABLED */
 466:Generated_Source\PSoC4/CYBLE.c ****         
 467:Generated_Source\PSoC4/CYBLE.c ****             /* Configure LL Privacy */
 468:Generated_Source\PSoC4/CYBLE.c ****             privacyConfigParams.resolvingListSize = CYBLE_MAX_RESOLVABLE_DEVICES;
 348              		.loc 1 468 0
 349 007e 1C23     		movs	r3, #28
 350 0080 FB18     		adds	r3, r7, r3
 351 0082 0822     		movs	r2, #8
 352 0084 1A70     		strb	r2, [r3]
 469:Generated_Source\PSoC4/CYBLE.c ****         #if(CYBLE_LL_PRIVACY_FEATURE_ENABLED)
 470:Generated_Source\PSoC4/CYBLE.c ****             CyBle_EnablePrivacyFeature();          /* Enable LL Privacy code in stack */
 471:Generated_Source\PSoC4/CYBLE.c ****         #endif /* CYBLE_LL_PRIVACY_FEATURE_ENABLED */
 472:Generated_Source\PSoC4/CYBLE.c **** 
 473:Generated_Source\PSoC4/CYBLE.c ****             apiResult = CyBle_StackSetFeatureConfig(&stackConfig, &featureHeapReq);
 353              		.loc 1 473 0
 354 0086 3E23     		movs	r3, #62
 355 0088 FC18     		adds	r4, r7, r3
 356 008a 0E23     		movs	r3, #14
 357 008c FA18     		adds	r2, r7, r3
 358 008e 1023     		movs	r3, #16
 359 0090 FB18     		adds	r3, r7, r3
 360 0092 1100     		movs	r1, r2
 361 0094 1800     		movs	r0, r3
 362 0096 FFF7FEFF 		bl	CyBle_StackSetFeatureConfig
 363 009a 0300     		movs	r3, r0
 364 009c 2380     		strh	r3, [r4]
 365              	.L8:
 366              	.LBE2:
 474:Generated_Source\PSoC4/CYBLE.c ****             }
 475:Generated_Source\PSoC4/CYBLE.c ****     
 476:Generated_Source\PSoC4/CYBLE.c ****         if(apiResult == CYBLE_ERROR_OK)
 367              		.loc 1 476 0
 368 009e 3E23     		movs	r3, #62
 369 00a0 FB18     		adds	r3, r7, r3
 370 00a2 1B88     		ldrh	r3, [r3]
 371 00a4 002B     		cmp	r3, #0
 372 00a6 29D1     		bne	.L10
 477:Generated_Source\PSoC4/CYBLE.c ****         {
 478:Generated_Source\PSoC4/CYBLE.c ****         
 479:Generated_Source\PSoC4/CYBLE.c ****         #if(CYBLE_MODE_PROFILE)
ARM GAS  C:\Users\Lucia\AppData\Local\Temp\cc0KspdR.s 			page 16


 480:Generated_Source\PSoC4/CYBLE.c ****             #if(CYBLE_BONDING_REQUIREMENT == CYBLE_BONDING_YES)
 481:Generated_Source\PSoC4/CYBLE.c ****                 apiResult = CyBle_StackInit(&CyBle_EventHandler, cyBle_stackMemoryRam, 
 482:Generated_Source\PSoC4/CYBLE.c ****                     CYBLE_STACK_RAM_SIZE - CYBLE_GATT_PREPARE_WRITE_BUFF_LEN, cyBle_stackDataBuff, 
 483:Generated_Source\PSoC4/CYBLE.c ****                     CYBLE_STACK_APP_MIN_POOL, cyBle_flashStorage.stackFlashptr, CYBLE_STACK_FLASH_S
 484:Generated_Source\PSoC4/CYBLE.c ****             #else
 485:Generated_Source\PSoC4/CYBLE.c ****                 apiResult = CyBle_StackInit(&CyBle_EventHandler, cyBle_stackMemoryRam, 
 373              		.loc 1 485 0
 374 00a8 3E23     		movs	r3, #62
 375 00aa FC18     		adds	r4, r7, r3
 376 00ac 2823     		movs	r3, #40
 377 00ae FD18     		adds	r5, r7, r3
 378 00b0 AE23     		movs	r3, #174
 379 00b2 1A01     		lsls	r2, r3, #4
 380 00b4 1849     		ldr	r1, .L12+12
 381 00b6 1948     		ldr	r0, .L12+16
 382 00b8 0023     		movs	r3, #0
 383 00ba 0293     		str	r3, [sp, #8]
 384 00bc 0023     		movs	r3, #0
 385 00be 0193     		str	r3, [sp, #4]
 386 00c0 0523     		movs	r3, #5
 387 00c2 0093     		str	r3, [sp]
 388 00c4 2B00     		movs	r3, r5
 389 00c6 FFF7FEFF 		bl	CyBle_StackInit
 390 00ca 0300     		movs	r3, r0
 391 00cc 2380     		strh	r3, [r4]
 486:Generated_Source\PSoC4/CYBLE.c ****                     CYBLE_STACK_RAM_SIZE - CYBLE_GATT_PREPARE_WRITE_BUFF_LEN, cyBle_stackDataBuff, 
 487:Generated_Source\PSoC4/CYBLE.c ****                     CYBLE_STACK_APP_MIN_POOL, NULL, 0u);
 488:Generated_Source\PSoC4/CYBLE.c ****             #endif  /* CYBLE_BONDING_REQUIREMENT == CYBLE_BONDING_YES */
 489:Generated_Source\PSoC4/CYBLE.c ****         #else /* HCI mode */
 490:Generated_Source\PSoC4/CYBLE.c ****             /* The following will perform preparation to use HCI over UART or over
 491:Generated_Source\PSoC4/CYBLE.c ****                software. But the following fucntions will not initialize the HCI
 492:Generated_Source\PSoC4/CYBLE.c ****                Transport. This will be done as part of Stack initialization, so
 493:Generated_Source\PSoC4/CYBLE.c ****                the functions should be called prior CyBle_StackInit().
 494:Generated_Source\PSoC4/CYBLE.c ****             */
 495:Generated_Source\PSoC4/CYBLE.c ****             #if (CYBLE_HCI_TYPE == CYBLE_HCI_OVER_UART)
 496:Generated_Source\PSoC4/CYBLE.c ****                 CyBle_HciUartTransportEnable();
 497:Generated_Source\PSoC4/CYBLE.c ****             #else
 498:Generated_Source\PSoC4/CYBLE.c ****                 CyBle_HciSoftTransportEnable();
 499:Generated_Source\PSoC4/CYBLE.c ****             #endif /* (CYBLE_HCI_TYPE == CYBLE_HCI_OVER_UART) */
 500:Generated_Source\PSoC4/CYBLE.c ****             /* This will initialize BLE stack for HCI mode operation */
 501:Generated_Source\PSoC4/CYBLE.c ****             apiResult = CyBle_StackInit(&CyBle_EventHandler, cyBle_stackMemoryRam, CYBLE_STACK_RAM_
 502:Generated_Source\PSoC4/CYBLE.c ****                 NULL, 0u, NULL, 0u);
 503:Generated_Source\PSoC4/CYBLE.c ****         #endif /* CYBLE_MODE_PROFILE */
 504:Generated_Source\PSoC4/CYBLE.c **** 
 505:Generated_Source\PSoC4/CYBLE.c ****             if(apiResult == CYBLE_ERROR_OK)
 392              		.loc 1 505 0
 393 00ce 3E23     		movs	r3, #62
 394 00d0 FB18     		adds	r3, r7, r3
 395 00d2 1B88     		ldrh	r3, [r3]
 396 00d4 002B     		cmp	r3, #0
 397 00d6 11D1     		bne	.L10
 506:Generated_Source\PSoC4/CYBLE.c ****             {
 507:Generated_Source\PSoC4/CYBLE.c ****                 CyBle_SetState(CYBLE_STATE_INITIALIZING);
 398              		.loc 1 507 0
 399 00d8 114B     		ldr	r3, .L12+20
 400 00da 0122     		movs	r2, #1
 401 00dc 1A70     		strb	r2, [r3]
ARM GAS  C:\Users\Lucia\AppData\Local\Temp\cc0KspdR.s 			page 17


 508:Generated_Source\PSoC4/CYBLE.c ****                 
 509:Generated_Source\PSoC4/CYBLE.c ****             #if (CYBLE_GATT_ROLE_CLIENT)
 510:Generated_Source\PSoC4/CYBLE.c ****                 CyBle_SetClientState(CYBLE_CLIENT_STATE_DISCONNECTED);
 511:Generated_Source\PSoC4/CYBLE.c ****             #endif /* CYBLE_GATT_ROLE_CLIENT */
 512:Generated_Source\PSoC4/CYBLE.c ****                 
 513:Generated_Source\PSoC4/CYBLE.c ****             #if(CYBLE_GATT_ROLE_SERVER)
 514:Generated_Source\PSoC4/CYBLE.c ****                 apiResult = CyBle_GattsDbRegister(cyBle_gattDB, CYBLE_GATT_DB_INDEX_COUNT, CYBLE_GA
 402              		.loc 1 514 0
 403 00de 3E23     		movs	r3, #62
 404 00e0 FC18     		adds	r4, r7, r3
 405 00e2 104B     		ldr	r3, .L12+24
 406 00e4 1122     		movs	r2, #17
 407 00e6 2621     		movs	r1, #38
 408 00e8 1800     		movs	r0, r3
 409 00ea FFF7FEFF 		bl	CyBle_GattsDbRegister
 410 00ee 0300     		movs	r3, r0
 411 00f0 2380     		strh	r3, [r4]
 412 00f2 03E0     		b	.L10
 413              	.L7:
 515:Generated_Source\PSoC4/CYBLE.c ****             #endif /* CYBLE_GATT_ROLE_SERVER */
 516:Generated_Source\PSoC4/CYBLE.c ****             }
 517:Generated_Source\PSoC4/CYBLE.c ****         }
 518:Generated_Source\PSoC4/CYBLE.c ****     }
 519:Generated_Source\PSoC4/CYBLE.c ****     else
 520:Generated_Source\PSoC4/CYBLE.c ****     {
 521:Generated_Source\PSoC4/CYBLE.c ****         apiResult = CYBLE_ERROR_INVALID_PARAMETER;
 414              		.loc 1 521 0
 415 00f4 3E23     		movs	r3, #62
 416 00f6 FB18     		adds	r3, r7, r3
 417 00f8 0122     		movs	r2, #1
 418 00fa 1A80     		strh	r2, [r3]
 419              	.L10:
 522:Generated_Source\PSoC4/CYBLE.c ****     }
 523:Generated_Source\PSoC4/CYBLE.c **** 
 524:Generated_Source\PSoC4/CYBLE.c ****     return (apiResult);
 420              		.loc 1 524 0
 421 00fc 3E23     		movs	r3, #62
 422 00fe FB18     		adds	r3, r7, r3
 423 0100 1B88     		ldrh	r3, [r3]
 525:Generated_Source\PSoC4/CYBLE.c **** }
 424              		.loc 1 525 0
 425 0102 1800     		movs	r0, r3
 426 0104 BD46     		mov	sp, r7
 427 0106 10B0     		add	sp, sp, #64
 428              		@ sp needed
 429 0108 B0BD     		pop	{r4, r5, r7, pc}
 430              	.L13:
 431 010a C046     		.align	2
 432              	.L12:
 433 010c 00000000 		.word	.LC0
 434 0110 00000000 		.word	cyBle_initVar
 435 0114 00000000 		.word	CyBle_ApplCallback
 436 0118 00000000 		.word	cyBle_stackMemoryRam
 437 011c 00000000 		.word	CyBle_EventHandler
 438 0120 00000000 		.word	cyBle_state
 439 0124 00000000 		.word	cyBle_gattDB
 440              		.cfi_endproc
ARM GAS  C:\Users\Lucia\AppData\Local\Temp\cc0KspdR.s 			page 18


 441              	.LFE4:
 442              		.size	CyBle_Start, .-CyBle_Start
 443              		.section	.text.CyBle_Stop,"ax",%progbits
 444              		.align	2
 445              		.global	CyBle_Stop
 446              		.code	16
 447              		.thumb_func
 448              		.type	CyBle_Stop, %function
 449              	CyBle_Stop:
 450              	.LFB5:
 526:Generated_Source\PSoC4/CYBLE.c **** 
 527:Generated_Source\PSoC4/CYBLE.c **** 
 528:Generated_Source\PSoC4/CYBLE.c **** /******************************************************************************
 529:Generated_Source\PSoC4/CYBLE.c **** * Function Name: CyBle_Stop
 530:Generated_Source\PSoC4/CYBLE.c **** ***************************************************************************//**
 531:Generated_Source\PSoC4/CYBLE.c **** * 
 532:Generated_Source\PSoC4/CYBLE.c **** *  This function stops any ongoing operation in the BLE Stack and forces the 
 533:Generated_Source\PSoC4/CYBLE.c **** *  BLE Stack to shut down. The only function that can be called after calling
 534:Generated_Source\PSoC4/CYBLE.c **** *  this function is CyBle_Start(). 
 535:Generated_Source\PSoC4/CYBLE.c **** * 
 536:Generated_Source\PSoC4/CYBLE.c **** * \return
 537:Generated_Source\PSoC4/CYBLE.c **** *  None
 538:Generated_Source\PSoC4/CYBLE.c **** * 
 539:Generated_Source\PSoC4/CYBLE.c **** ******************************************************************************/
 540:Generated_Source\PSoC4/CYBLE.c **** void CyBle_Stop(void)
 541:Generated_Source\PSoC4/CYBLE.c **** {
 451              		.loc 1 541 0
 452              		.cfi_startproc
 453              		@ args = 0, pretend = 0, frame = 0
 454              		@ frame_needed = 1, uses_anonymous_args = 0
 455 0000 80B5     		push	{r7, lr}
 456              		.cfi_def_cfa_offset 8
 457              		.cfi_offset 7, -8
 458              		.cfi_offset 14, -4
 459 0002 00AF     		add	r7, sp, #0
 460              		.cfi_def_cfa_register 7
 542:Generated_Source\PSoC4/CYBLE.c ****     CyBle_Shutdown();                         /* Stop all ongoing activities */
 461              		.loc 1 542 0
 462 0004 FFF7FEFF 		bl	CyBle_Shutdown
 543:Generated_Source\PSoC4/CYBLE.c ****     CyBle_SetState(CYBLE_STATE_STOPPED);
 463              		.loc 1 543 0
 464 0008 024B     		ldr	r3, .L15
 465 000a 0022     		movs	r2, #0
 466 000c 1A70     		strb	r2, [r3]
 544:Generated_Source\PSoC4/CYBLE.c ****     #if(CYBLE_SHARING_MODE_EXPORT)
 545:Generated_Source\PSoC4/CYBLE.c ****         if(cyBle_stackMemoryRam != NULL)
 546:Generated_Source\PSoC4/CYBLE.c ****         {
 547:Generated_Source\PSoC4/CYBLE.c ****             free(cyBle_stackMemoryRam);
 548:Generated_Source\PSoC4/CYBLE.c ****         }
 549:Generated_Source\PSoC4/CYBLE.c ****     #endif /* CYBLE_SHARING_MODE_EXPORT */
 550:Generated_Source\PSoC4/CYBLE.c **** }
 467              		.loc 1 550 0
 468 000e C046     		nop
 469 0010 BD46     		mov	sp, r7
 470              		@ sp needed
 471 0012 80BD     		pop	{r7, pc}
 472              	.L16:
ARM GAS  C:\Users\Lucia\AppData\Local\Temp\cc0KspdR.s 			page 19


 473              		.align	2
 474              	.L15:
 475 0014 00000000 		.word	cyBle_state
 476              		.cfi_endproc
 477              	.LFE5:
 478              		.size	CyBle_Stop, .-CyBle_Stop
 479              		.section	.text.CyBle_GappStartAdvertisement,"ax",%progbits
 480              		.align	2
 481              		.global	CyBle_GappStartAdvertisement
 482              		.code	16
 483              		.thumb_func
 484              		.type	CyBle_GappStartAdvertisement, %function
 485              	CyBle_GappStartAdvertisement:
 486              	.LFB6:
 551:Generated_Source\PSoC4/CYBLE.c **** 
 552:Generated_Source\PSoC4/CYBLE.c **** 
 553:Generated_Source\PSoC4/CYBLE.c **** #if((CYBLE_GAP_ROLE_PERIPHERAL || CYBLE_GAP_ROLE_CENTRAL) && (CYBLE_BONDING_REQUIREMENT == CYBLE_BO
 554:Generated_Source\PSoC4/CYBLE.c **** 
 555:Generated_Source\PSoC4/CYBLE.c ****     
 556:Generated_Source\PSoC4/CYBLE.c **** /******************************************************************************
 557:Generated_Source\PSoC4/CYBLE.c **** * Function Name: CyBle_StoreBondingData
 558:Generated_Source\PSoC4/CYBLE.c **** ***************************************************************************//**
 559:Generated_Source\PSoC4/CYBLE.c **** * 
 560:Generated_Source\PSoC4/CYBLE.c **** *  This function writes the new bonding data from RAM to the dedicated Flash 
 561:Generated_Source\PSoC4/CYBLE.c **** *  location as defined by the component. It performs data comparing between RAM
 562:Generated_Source\PSoC4/CYBLE.c **** *  and Flash before writing to Flash. If there is no change between RAM and Flash
 563:Generated_Source\PSoC4/CYBLE.c **** *  data, then no write is performed. It writes only one flash row in one call.
 564:Generated_Source\PSoC4/CYBLE.c **** *  Application should keep calling this function till API return CYBLE_ERROR_OK. 
 565:Generated_Source\PSoC4/CYBLE.c **** *  This function is available only when Bonding requirement is selected in
 566:Generated_Source\PSoC4/CYBLE.c **** *  Security settings.    
 567:Generated_Source\PSoC4/CYBLE.c **** * 
 568:Generated_Source\PSoC4/CYBLE.c **** *  \param isForceWrite:  If value is set to 0, then stack will check if flash write 
 569:Generated_Source\PSoC4/CYBLE.c **** *                 is permissible. 
 570:Generated_Source\PSoC4/CYBLE.c **** *  
 571:Generated_Source\PSoC4/CYBLE.c **** * \return
 572:Generated_Source\PSoC4/CYBLE.c **** *  Return value is of type CYBLE_API_RESULT_T.
 573:Generated_Source\PSoC4/CYBLE.c **** *
 574:Generated_Source\PSoC4/CYBLE.c **** *   Errors codes                         | Description
 575:Generated_Source\PSoC4/CYBLE.c **** *   ----------------------------------   | ------------------------------------
 576:Generated_Source\PSoC4/CYBLE.c **** *   CYBLE_ERROR_OK                       | On successful operation
 577:Generated_Source\PSoC4/CYBLE.c **** *   CYBLE_ERROR_FLASH_WRITE_NOT_PERMITED | Flash Write is not complete
 578:Generated_Source\PSoC4/CYBLE.c **** *   CYBLE_ERROR_INVALID_PARAMETER        | Invalid input parameter  
 579:Generated_Source\PSoC4/CYBLE.c **** *   CYBLE_ERROR_FLASH_WRITE              | Error in flash Write	
 580:Generated_Source\PSoC4/CYBLE.c ****     
 581:Generated_Source\PSoC4/CYBLE.c **** *  \sideeffect
 582:Generated_Source\PSoC4/CYBLE.c **** *   For BLE devices with 128K of Flash memory this API will automatically 
 583:Generated_Source\PSoC4/CYBLE.c **** *   modify the clock settings for the device.
 584:Generated_Source\PSoC4/CYBLE.c **** *   Writing to flash requires changes to be done to the IMO (set to 48 MHz)
 585:Generated_Source\PSoC4/CYBLE.c **** *   and HFCLK (source set to IMO) settings. The configuration is restored before
 586:Generated_Source\PSoC4/CYBLE.c **** *   returning. This will impact the operation of most of the hardware in the
 587:Generated_Source\PSoC4/CYBLE.c **** *   device.
 588:Generated_Source\PSoC4/CYBLE.c **** * 
 589:Generated_Source\PSoC4/CYBLE.c **** *  \globalvars
 590:Generated_Source\PSoC4/CYBLE.c **** *   The cyBle_pendingFlashWrite variable is used to detect status
 591:Generated_Source\PSoC4/CYBLE.c **** *   of pending write to flash operation for stack data and CCCD.
 592:Generated_Source\PSoC4/CYBLE.c **** *   This API automatically clears pending bits after write operation complete.
 593:Generated_Source\PSoC4/CYBLE.c **** *     
ARM GAS  C:\Users\Lucia\AppData\Local\Temp\cc0KspdR.s 			page 20


 594:Generated_Source\PSoC4/CYBLE.c **** ******************************************************************************/
 595:Generated_Source\PSoC4/CYBLE.c **** CYBLE_API_RESULT_T CyBle_StoreBondingData(uint8 isForceWrite)
 596:Generated_Source\PSoC4/CYBLE.c **** {
 597:Generated_Source\PSoC4/CYBLE.c ****     CYBLE_API_RESULT_T apiResult = CYBLE_ERROR_OK;
 598:Generated_Source\PSoC4/CYBLE.c ****     
 599:Generated_Source\PSoC4/CYBLE.c ****     /* Store Stack data */
 600:Generated_Source\PSoC4/CYBLE.c ****     if((cyBle_pendingFlashWrite & CYBLE_PENDING_STACK_FLASH_WRITE_BIT) != 0u)
 601:Generated_Source\PSoC4/CYBLE.c ****     {
 602:Generated_Source\PSoC4/CYBLE.c ****         apiResult = CyBle_StoreStackData(isForceWrite);
 603:Generated_Source\PSoC4/CYBLE.c ****         if(apiResult == CYBLE_ERROR_OK)
 604:Generated_Source\PSoC4/CYBLE.c ****         {
 605:Generated_Source\PSoC4/CYBLE.c ****             cyBle_pendingFlashWrite &= (uint8)~CYBLE_PENDING_STACK_FLASH_WRITE_BIT;
 606:Generated_Source\PSoC4/CYBLE.c ****             /* Change apiResult if there are more pending data to store */
 607:Generated_Source\PSoC4/CYBLE.c ****             if((cyBle_pendingFlashWrite & CYBLE_PENDING_CCCD_FLASH_WRITE_BIT) != 0u)
 608:Generated_Source\PSoC4/CYBLE.c ****             {
 609:Generated_Source\PSoC4/CYBLE.c ****                 apiResult = CYBLE_ERROR_FLASH_WRITE_NOT_PERMITED;
 610:Generated_Source\PSoC4/CYBLE.c ****             }
 611:Generated_Source\PSoC4/CYBLE.c ****         }
 612:Generated_Source\PSoC4/CYBLE.c ****     }
 613:Generated_Source\PSoC4/CYBLE.c **** #if(CYBLE_GATT_DB_CCCD_COUNT != 0u)
 614:Generated_Source\PSoC4/CYBLE.c ****     /* Store CCCD values */
 615:Generated_Source\PSoC4/CYBLE.c ****     if( ((apiResult == CYBLE_ERROR_OK) || (isForceWrite != 0u)) && 
 616:Generated_Source\PSoC4/CYBLE.c ****         ((cyBle_pendingFlashWrite & CYBLE_PENDING_CCCD_FLASH_WRITE_BIT) != 0u) &&
 617:Generated_Source\PSoC4/CYBLE.c ****         (cyBle_connHandle.bdHandle <= CYBLE_GAP_MAX_BONDED_DEVICE))
 618:Generated_Source\PSoC4/CYBLE.c ****     {
 619:Generated_Source\PSoC4/CYBLE.c ****         apiResult = CyBle_StoreAppData(cyBle_attValuesCCCD, cyBle_flashStorage.attValuesCCCDFlashMe
 620:Generated_Source\PSoC4/CYBLE.c ****                         cyBle_connHandle.bdHandle], CYBLE_GATT_DB_CCCD_COUNT, isForceWrite);
 621:Generated_Source\PSoC4/CYBLE.c ****         if(apiResult == CYBLE_ERROR_OK)
 622:Generated_Source\PSoC4/CYBLE.c ****         {
 623:Generated_Source\PSoC4/CYBLE.c ****             cyBle_pendingFlashWrite &= (uint8)~CYBLE_PENDING_CCCD_FLASH_WRITE_BIT;
 624:Generated_Source\PSoC4/CYBLE.c ****         }
 625:Generated_Source\PSoC4/CYBLE.c ****     }
 626:Generated_Source\PSoC4/CYBLE.c ****     /* Clear requested CCCD values */
 627:Generated_Source\PSoC4/CYBLE.c ****     if( ((apiResult == CYBLE_ERROR_OK) || (isForceWrite != 0u)) && 
 628:Generated_Source\PSoC4/CYBLE.c ****         ((cyBle_pendingFlashWrite & CYBLE_PENDING_CCCD_FLASH_CLEAR_MASK) != 0u) )
 629:Generated_Source\PSoC4/CYBLE.c ****     {
 630:Generated_Source\PSoC4/CYBLE.c ****         if((cyBle_pendingFlashWrite & CYBLE_PENDING_CCCD_FLASH_CLEAR_ALL_BIT) != 0u)
 631:Generated_Source\PSoC4/CYBLE.c ****         {
 632:Generated_Source\PSoC4/CYBLE.c ****             /* Remove cccd values for all bonded devices */
 633:Generated_Source\PSoC4/CYBLE.c ****             uint8 defaultValuesCCCD[CYBLE_GAP_MAX_BONDED_DEVICE + 1u][CYBLE_GATT_DB_CCCD_COUNT];
 634:Generated_Source\PSoC4/CYBLE.c ****             
 635:Generated_Source\PSoC4/CYBLE.c ****             (void)memset(defaultValuesCCCD, 0, sizeof(defaultValuesCCCD));
 636:Generated_Source\PSoC4/CYBLE.c **** 
 637:Generated_Source\PSoC4/CYBLE.c ****             apiResult = CyBle_StoreAppData((uint8 *)defaultValuesCCCD, 
 638:Generated_Source\PSoC4/CYBLE.c ****                 (const uint8 *)cyBle_flashStorage.attValuesCCCDFlashMemory, sizeof(defaultValuesCCC
 639:Generated_Source\PSoC4/CYBLE.c ****             if(apiResult == CYBLE_ERROR_OK)
 640:Generated_Source\PSoC4/CYBLE.c ****             {
 641:Generated_Source\PSoC4/CYBLE.c ****                 cyBle_pendingFlashWrite &= (uint8)~CYBLE_PENDING_CCCD_FLASH_CLEAR_ALL_BIT;
 642:Generated_Source\PSoC4/CYBLE.c ****             }
 643:Generated_Source\PSoC4/CYBLE.c ****         }
 644:Generated_Source\PSoC4/CYBLE.c ****         else /* Remove cccd values for particular device */
 645:Generated_Source\PSoC4/CYBLE.c ****         {
 646:Generated_Source\PSoC4/CYBLE.c ****             uint8 defaultValuesCCCD[CYBLE_GATT_DB_CCCD_COUNT] = {0u};
 647:Generated_Source\PSoC4/CYBLE.c ****             
 648:Generated_Source\PSoC4/CYBLE.c ****             apiResult = CyBle_StoreAppData(defaultValuesCCCD, cyBle_flashStorage.attValuesCCCDFlash
 649:Generated_Source\PSoC4/CYBLE.c ****                                     cyBle_pendingFlashClearCccdHandle], CYBLE_GATT_DB_CCCD_COUNT, i
 650:Generated_Source\PSoC4/CYBLE.c ****             if(apiResult == CYBLE_ERROR_OK)
ARM GAS  C:\Users\Lucia\AppData\Local\Temp\cc0KspdR.s 			page 21


 651:Generated_Source\PSoC4/CYBLE.c ****             {
 652:Generated_Source\PSoC4/CYBLE.c ****                 cyBle_pendingFlashWrite &= (uint8)~CYBLE_PENDING_CCCD_FLASH_CLEAR_BIT;
 653:Generated_Source\PSoC4/CYBLE.c ****             }
 654:Generated_Source\PSoC4/CYBLE.c ****         }
 655:Generated_Source\PSoC4/CYBLE.c ****     }
 656:Generated_Source\PSoC4/CYBLE.c **** #endif /* CYBLE_GATT_DB_CCCD_COUNT != 0u */
 657:Generated_Source\PSoC4/CYBLE.c ****     return(apiResult);
 658:Generated_Source\PSoC4/CYBLE.c **** }
 659:Generated_Source\PSoC4/CYBLE.c **** 
 660:Generated_Source\PSoC4/CYBLE.c **** 
 661:Generated_Source\PSoC4/CYBLE.c **** /******************************************************************************
 662:Generated_Source\PSoC4/CYBLE.c **** * Function Name: CyBle_GapRemoveBondedDevice
 663:Generated_Source\PSoC4/CYBLE.c **** ***************************************************************************//**
 664:Generated_Source\PSoC4/CYBLE.c **** * 
 665:Generated_Source\PSoC4/CYBLE.c **** *  This function marks the device untrusted. It removes the bonding information
 666:Generated_Source\PSoC4/CYBLE.c **** *  of the device including CCCD values. This function removes device from the
 667:Generated_Source\PSoC4/CYBLE.c **** *  white list also when autopopulate white list with bonded devices option is
 668:Generated_Source\PSoC4/CYBLE.c **** *  enabled.
 669:Generated_Source\PSoC4/CYBLE.c **** * 
 670:Generated_Source\PSoC4/CYBLE.c **** *  This function is available only when Bonding requirement is selected in
 671:Generated_Source\PSoC4/CYBLE.c **** *  Security settings.    
 672:Generated_Source\PSoC4/CYBLE.c **** *
 673:Generated_Source\PSoC4/CYBLE.c **** *  \param bdAddr: Pointer to peer device address, of type CYBLE_GAP_BD_ADDR_T.
 674:Generated_Source\PSoC4/CYBLE.c **** *                 If device address is set to 0, then all devices shall be
 675:Generated_Source\PSoC4/CYBLE.c **** *                 removed from trusted list and white list.
 676:Generated_Source\PSoC4/CYBLE.c **** *
 677:Generated_Source\PSoC4/CYBLE.c **** * \return
 678:Generated_Source\PSoC4/CYBLE.c **** *  CYBLE_API_RESULT_T : Return value indicates if the function succeeded or
 679:Generated_Source\PSoC4/CYBLE.c **** *  failed. Following are the possible error codes.
 680:Generated_Source\PSoC4/CYBLE.c **** *
 681:Generated_Source\PSoC4/CYBLE.c **** *   Errors codes                     | Description
 682:Generated_Source\PSoC4/CYBLE.c **** *   ---------------------------------| ------------------------------------
 683:Generated_Source\PSoC4/CYBLE.c **** *   CYBLE_ERROR_OK                   | On successful operation.
 684:Generated_Source\PSoC4/CYBLE.c **** *   CYBLE_ERROR_INVALID_PARAMETER    | On specifying NULL as input parameter for 'bdAddr'.
 685:Generated_Source\PSoC4/CYBLE.c **** *   CYBLE_ERROR_INVALID_OPERATION    | Whitelist is already in use or there is pending write to fla
 686:Generated_Source\PSoC4/CYBLE.c **** *   CYBLE_ERROR_NO_DEVICE_ENTITY     | Device does not exist in the bond list.
 687:Generated_Source\PSoC4/CYBLE.c **** *
 688:Generated_Source\PSoC4/CYBLE.c **** *  \globalvars
 689:Generated_Source\PSoC4/CYBLE.c **** *   The bdHandle is set in cyBle_pendingFlashWrite variable to indicate that
 690:Generated_Source\PSoC4/CYBLE.c **** *   data should be stored to flash by CyBle_StoreBondingData afterwards. 
 691:Generated_Source\PSoC4/CYBLE.c **** *     
 692:Generated_Source\PSoC4/CYBLE.c **** ******************************************************************************/
 693:Generated_Source\PSoC4/CYBLE.c **** CYBLE_API_RESULT_T CyBle_GapRemoveBondedDevice(CYBLE_GAP_BD_ADDR_T* bdAddr)
 694:Generated_Source\PSoC4/CYBLE.c **** {
 695:Generated_Source\PSoC4/CYBLE.c ****     CYBLE_API_RESULT_T apiResult = CYBLE_ERROR_OK;
 696:Generated_Source\PSoC4/CYBLE.c ****     
 697:Generated_Source\PSoC4/CYBLE.c ****     if(cyBle_pendingFlashWrite == 0u)
 698:Generated_Source\PSoC4/CYBLE.c ****     {
 699:Generated_Source\PSoC4/CYBLE.c ****         
 700:Generated_Source\PSoC4/CYBLE.c ****     #if(CYBLE_GATT_DB_CCCD_COUNT != 0u)
 701:Generated_Source\PSoC4/CYBLE.c ****         /* Request to clear CCCD values which will be done by CyBle_StoreBondingData API */
 702:Generated_Source\PSoC4/CYBLE.c ****         uint8 bDevHandle;
 703:Generated_Source\PSoC4/CYBLE.c ****         CYBLE_GAP_BD_ADDR_T invalidBdAddr = {{0u,0u,0u,0u,0u,0u}, 0u};
 704:Generated_Source\PSoC4/CYBLE.c **** 
 705:Generated_Source\PSoC4/CYBLE.c ****         if(memcmp(((uint8 *) &(bdAddr->bdAddr)), ((uint8 *) &(invalidBdAddr.bdAddr)), CYBLE_GAP_BD_
 706:Generated_Source\PSoC4/CYBLE.c **** 	    {
 707:Generated_Source\PSoC4/CYBLE.c ****             /* Request to remove all bonded devices by cyBle_StoreBondingData API */
ARM GAS  C:\Users\Lucia\AppData\Local\Temp\cc0KspdR.s 			page 22


 708:Generated_Source\PSoC4/CYBLE.c ****             cyBle_pendingFlashWrite |= CYBLE_PENDING_CCCD_FLASH_CLEAR_ALL_BIT;
 709:Generated_Source\PSoC4/CYBLE.c ****         }
 710:Generated_Source\PSoC4/CYBLE.c ****         else
 711:Generated_Source\PSoC4/CYBLE.c ****         {
 712:Generated_Source\PSoC4/CYBLE.c ****             /* Get the BD handle from Address */
 713:Generated_Source\PSoC4/CYBLE.c ****             apiResult = CyBle_GapGetPeerBdHandle(&bDevHandle, bdAddr);
 714:Generated_Source\PSoC4/CYBLE.c ****             if(apiResult == CYBLE_ERROR_OK)
 715:Generated_Source\PSoC4/CYBLE.c ****             {
 716:Generated_Source\PSoC4/CYBLE.c ****                 /* Store BD handle to clear cccd values by CyBle_StoreBondingData API */
 717:Generated_Source\PSoC4/CYBLE.c ****                 cyBle_pendingFlashWrite |= CYBLE_PENDING_CCCD_FLASH_CLEAR_BIT;
 718:Generated_Source\PSoC4/CYBLE.c ****                 cyBle_pendingFlashClearCccdHandle = bDevHandle;
 719:Generated_Source\PSoC4/CYBLE.c ****             }
 720:Generated_Source\PSoC4/CYBLE.c ****         }
 721:Generated_Source\PSoC4/CYBLE.c ****     #endif /* CYBLE_GATT_DB_CCCD_COUNT != 0u */
 722:Generated_Source\PSoC4/CYBLE.c ****         if(apiResult == CYBLE_ERROR_OK)
 723:Generated_Source\PSoC4/CYBLE.c ****         {
 724:Generated_Source\PSoC4/CYBLE.c ****             apiResult = CyBle_GapRemoveDeviceFromWhiteList(bdAddr);
 725:Generated_Source\PSoC4/CYBLE.c ****         }
 726:Generated_Source\PSoC4/CYBLE.c ****     }
 727:Generated_Source\PSoC4/CYBLE.c ****     else
 728:Generated_Source\PSoC4/CYBLE.c ****     {
 729:Generated_Source\PSoC4/CYBLE.c ****         apiResult = CYBLE_ERROR_INVALID_OPERATION;
 730:Generated_Source\PSoC4/CYBLE.c ****     }
 731:Generated_Source\PSoC4/CYBLE.c ****     
 732:Generated_Source\PSoC4/CYBLE.c ****     return(apiResult);
 733:Generated_Source\PSoC4/CYBLE.c **** }
 734:Generated_Source\PSoC4/CYBLE.c **** 
 735:Generated_Source\PSoC4/CYBLE.c **** 
 736:Generated_Source\PSoC4/CYBLE.c **** #endif /* (CYBLE_GAP_ROLE_PERIPHERAL || CYBLE_GAP_ROLE_CENTRAL) && (CYBLE_BONDING_REQUIREMENT == CY
 737:Generated_Source\PSoC4/CYBLE.c **** 
 738:Generated_Source\PSoC4/CYBLE.c **** 
 739:Generated_Source\PSoC4/CYBLE.c **** #if(CYBLE_GAP_ROLE_PERIPHERAL || CYBLE_GAP_ROLE_BROADCASTER)
 740:Generated_Source\PSoC4/CYBLE.c **** 
 741:Generated_Source\PSoC4/CYBLE.c ****     /******************************************************************************
 742:Generated_Source\PSoC4/CYBLE.c ****     *  Function Name: CyBle_GappStartAdvertisement
 743:Generated_Source\PSoC4/CYBLE.c ****     ***************************************************************************//**
 744:Generated_Source\PSoC4/CYBLE.c ****     *     
 745:Generated_Source\PSoC4/CYBLE.c ****     *  This function is used to start the advertisement using the advertisement data 
 746:Generated_Source\PSoC4/CYBLE.c ****     *  set in the component customizer's GUI. After invoking this API, the device 
 747:Generated_Source\PSoC4/CYBLE.c ****     *  will be available for connection by the devices configured for GAP central 
 748:Generated_Source\PSoC4/CYBLE.c ****     *  role. It is only included if the device is configured for GAP Peripheral or 
 749:Generated_Source\PSoC4/CYBLE.c ****     *  GAP Peripheral + Central role.
 750:Generated_Source\PSoC4/CYBLE.c ****     *  
 751:Generated_Source\PSoC4/CYBLE.c ****     *  On start of advertisement, GAP Peripheral receives the
 752:Generated_Source\PSoC4/CYBLE.c ****     *  CYBLE_EVT_GAPP_ADVERTISEMENT_START_STOP event. The following events are 
 753:Generated_Source\PSoC4/CYBLE.c ****     *  possible on invoking this function:
 754:Generated_Source\PSoC4/CYBLE.c ****     *  
 755:Generated_Source\PSoC4/CYBLE.c ****     *  * CYBLE_EVT_GAP_DEVICE_CONNECTED - If the device connects to a GAP Central and 
 756:Generated_Source\PSoC4/CYBLE.c ****     *    Link Layer Privacy is disabled in component customizer.
 757:Generated_Source\PSoC4/CYBLE.c ****     *  * CYBLE_EVT_GAP_ENHANCE_CONN_COMPLETE - If the device connects to a GAP Central and 
 758:Generated_Source\PSoC4/CYBLE.c ****     *    Link Layer Privacy is enabled in component customizer.
 759:Generated_Source\PSoC4/CYBLE.c ****     *  * CYBLE_EVT_TIMEOUT: If no device in GAP Central mode connects to this 
 760:Generated_Source\PSoC4/CYBLE.c ****     *                       device within the specified timeout limit. Stack 
 761:Generated_Source\PSoC4/CYBLE.c ****     *                       automatically initiate stop advertising when Slow 
 762:Generated_Source\PSoC4/CYBLE.c ****     *                       advertising was initiated, or starts Slow advertising
 763:Generated_Source\PSoC4/CYBLE.c ****     *                       after Fast advertising timeout occur.
 764:Generated_Source\PSoC4/CYBLE.c ****     *  * CYBLE_EVT_GAPP_ADVERTISEMENT_START_STOP: If device started or stopped
ARM GAS  C:\Users\Lucia\AppData\Local\Temp\cc0KspdR.s 			page 23


 765:Generated_Source\PSoC4/CYBLE.c ****     *                                               advertising. Use CyBle_GetState()
 766:Generated_Source\PSoC4/CYBLE.c ****     *                                               to determine the state. Sequential 
 767:Generated_Source\PSoC4/CYBLE.c ****     *                                               advertising could be started when
 768:Generated_Source\PSoC4/CYBLE.c ****     *                                               CYBLE_STATE_DISCONNECTED state is
 769:Generated_Source\PSoC4/CYBLE.c ****     *                                               returned.
 770:Generated_Source\PSoC4/CYBLE.c ****     * 
 771:Generated_Source\PSoC4/CYBLE.c ****     *  \param advertisingIntervalType: Fast or slow advertising interval with timings
 772:Generated_Source\PSoC4/CYBLE.c ****     *                                 entered in Advertising settings section of the
 773:Generated_Source\PSoC4/CYBLE.c ****     *                                 customizer.
 774:Generated_Source\PSoC4/CYBLE.c ****     *  * CYBLE_ADVERTISING_FAST   0x00u
 775:Generated_Source\PSoC4/CYBLE.c ****     *  * CYBLE_ADVERTISING_SLOW   0x01u
 776:Generated_Source\PSoC4/CYBLE.c ****     *  * CYBLE_ADVERTISING_CUSTOM 0x02u
 777:Generated_Source\PSoC4/CYBLE.c ****     * 
 778:Generated_Source\PSoC4/CYBLE.c ****     * \return
 779:Generated_Source\PSoC4/CYBLE.c ****     *  CYBLE_API_RESULT_T : Return value indicates if the function succeeded or
 780:Generated_Source\PSoC4/CYBLE.c ****     *  failed. Following are the possible error codes.
 781:Generated_Source\PSoC4/CYBLE.c ****     * 
 782:Generated_Source\PSoC4/CYBLE.c ****     *   Errors codes                      |  Description
 783:Generated_Source\PSoC4/CYBLE.c ****     *   --------------------------------- |  --------------------------------
 784:Generated_Source\PSoC4/CYBLE.c ****     *   CYBLE_ERROR_OK                    |  On successful operation.
 785:Generated_Source\PSoC4/CYBLE.c ****     *   CYBLE_ERROR_INVALID_PARAMETER     |  On passing an invalid parameter.
 786:Generated_Source\PSoC4/CYBLE.c ****     *   CYBLE_ERROR_INVALID_STATE         |  On calling this API not in Disconnected state.
 787:Generated_Source\PSoC4/CYBLE.c ****     *
 788:Generated_Source\PSoC4/CYBLE.c ****     * 
 789:Generated_Source\PSoC4/CYBLE.c ****     *******************************************************************************/
 790:Generated_Source\PSoC4/CYBLE.c ****     CYBLE_API_RESULT_T CyBle_GappStartAdvertisement(uint8 advertisingIntervalType)
 791:Generated_Source\PSoC4/CYBLE.c ****     {
 487              		.loc 1 791 0
 488              		.cfi_startproc
 489              		@ args = 0, pretend = 0, frame = 16
 490              		@ frame_needed = 1, uses_anonymous_args = 0
 491 0000 90B5     		push	{r4, r7, lr}
 492              		.cfi_def_cfa_offset 12
 493              		.cfi_offset 4, -12
 494              		.cfi_offset 7, -8
 495              		.cfi_offset 14, -4
 496 0002 85B0     		sub	sp, sp, #20
 497              		.cfi_def_cfa_offset 32
 498 0004 00AF     		add	r7, sp, #0
 499              		.cfi_def_cfa_register 7
 500 0006 0200     		movs	r2, r0
 501 0008 FB1D     		adds	r3, r7, #7
 502 000a 1A70     		strb	r2, [r3]
 792:Generated_Source\PSoC4/CYBLE.c ****         CYBLE_API_RESULT_T apiResult;
 793:Generated_Source\PSoC4/CYBLE.c ****         
 794:Generated_Source\PSoC4/CYBLE.c ****         if(advertisingIntervalType > CYBLE_ADVERTISING_CUSTOM)
 503              		.loc 1 794 0
 504 000c FB1D     		adds	r3, r7, #7
 505 000e 1B78     		ldrb	r3, [r3]
 506 0010 022B     		cmp	r3, #2
 507 0012 04D9     		bls	.L18
 795:Generated_Source\PSoC4/CYBLE.c ****         {
 796:Generated_Source\PSoC4/CYBLE.c ****             apiResult = CYBLE_ERROR_INVALID_PARAMETER;
 508              		.loc 1 796 0
 509 0014 0E23     		movs	r3, #14
 510 0016 FB18     		adds	r3, r7, r3
 511 0018 0122     		movs	r2, #1
ARM GAS  C:\Users\Lucia\AppData\Local\Temp\cc0KspdR.s 			page 24


 512 001a 1A80     		strh	r2, [r3]
 513 001c 4AE0     		b	.L19
 514              	.L18:
 797:Generated_Source\PSoC4/CYBLE.c ****         }
 798:Generated_Source\PSoC4/CYBLE.c ****         else if((CYBLE_STATE_DISCONNECTED == CyBle_GetState()) && ((cyBle_eventHandlerFlag & CYBLE_
 515              		.loc 1 798 0
 516 001e 294B     		ldr	r3, .L25
 517 0020 1B78     		ldrb	r3, [r3]
 518 0022 042B     		cmp	r3, #4
 519 0024 41D1     		bne	.L20
 520              		.loc 1 798 0 is_stmt 0 discriminator 1
 521 0026 284B     		ldr	r3, .L25+4
 522 0028 1B78     		ldrb	r3, [r3]
 523 002a DBB2     		uxtb	r3, r3
 524 002c 1A00     		movs	r2, r3
 525 002e 0423     		movs	r3, #4
 526 0030 1340     		ands	r3, r2
 527 0032 3AD1     		bne	.L20
 799:Generated_Source\PSoC4/CYBLE.c ****         {   
 800:Generated_Source\PSoC4/CYBLE.c ****             if(advertisingIntervalType == CYBLE_ADVERTISING_FAST)
 528              		.loc 1 800 0 is_stmt 1
 529 0034 FB1D     		adds	r3, r7, #7
 530 0036 1B78     		ldrb	r3, [r3]
 531 0038 002B     		cmp	r3, #0
 532 003a 0BD1     		bne	.L21
 801:Generated_Source\PSoC4/CYBLE.c ****             {
 802:Generated_Source\PSoC4/CYBLE.c ****                 cyBle_discoveryModeInfo.advTo = CYBLE_FAST_ADV_TIMEOUT;
 533              		.loc 1 802 0
 534 003c 234B     		ldr	r3, .L25+8
 535 003e 1E22     		movs	r2, #30
 536 0040 1A82     		strh	r2, [r3, #16]
 803:Generated_Source\PSoC4/CYBLE.c ****                 cyBle_discoveryModeInfo.advParam->advIntvMin = CYBLE_FAST_ADV_INT_MIN;
 537              		.loc 1 803 0
 538 0042 224B     		ldr	r3, .L25+8
 539 0044 5B68     		ldr	r3, [r3, #4]
 540 0046 2022     		movs	r2, #32
 541 0048 1A80     		strh	r2, [r3]
 804:Generated_Source\PSoC4/CYBLE.c ****                 cyBle_discoveryModeInfo.advParam->advIntvMax = CYBLE_FAST_ADV_INT_MAX;
 542              		.loc 1 804 0
 543 004a 204B     		ldr	r3, .L25+8
 544 004c 5B68     		ldr	r3, [r3, #4]
 545 004e 3022     		movs	r2, #48
 546 0050 5A80     		strh	r2, [r3, #2]
 547 0052 10E0     		b	.L22
 548              	.L21:
 805:Generated_Source\PSoC4/CYBLE.c ****             }
 806:Generated_Source\PSoC4/CYBLE.c ****             else if(advertisingIntervalType == CYBLE_ADVERTISING_SLOW)
 549              		.loc 1 806 0
 550 0054 FB1D     		adds	r3, r7, #7
 551 0056 1B78     		ldrb	r3, [r3]
 552 0058 012B     		cmp	r3, #1
 553 005a 0CD1     		bne	.L22
 807:Generated_Source\PSoC4/CYBLE.c ****             {
 808:Generated_Source\PSoC4/CYBLE.c ****                 cyBle_discoveryModeInfo.advTo = CYBLE_SLOW_ADV_TIMEOUT;
 554              		.loc 1 808 0
 555 005c 1B4B     		ldr	r3, .L25+8
 556 005e 9622     		movs	r2, #150
ARM GAS  C:\Users\Lucia\AppData\Local\Temp\cc0KspdR.s 			page 25


 557 0060 1A82     		strh	r2, [r3, #16]
 809:Generated_Source\PSoC4/CYBLE.c ****                 cyBle_discoveryModeInfo.advParam->advIntvMin = CYBLE_SLOW_ADV_INT_MIN;
 558              		.loc 1 809 0
 559 0062 1A4B     		ldr	r3, .L25+8
 560 0064 5B68     		ldr	r3, [r3, #4]
 561 0066 C822     		movs	r2, #200
 562 0068 D200     		lsls	r2, r2, #3
 563 006a 1A80     		strh	r2, [r3]
 810:Generated_Source\PSoC4/CYBLE.c ****                 cyBle_discoveryModeInfo.advParam->advIntvMax = CYBLE_SLOW_ADV_INT_MAX;
 564              		.loc 1 810 0
 565 006c 174B     		ldr	r3, .L25+8
 566 006e 5B68     		ldr	r3, [r3, #4]
 567 0070 FA22     		movs	r2, #250
 568 0072 1201     		lsls	r2, r2, #4
 569 0074 5A80     		strh	r2, [r3, #2]
 570              	.L22:
 811:Generated_Source\PSoC4/CYBLE.c ****             }       
 812:Generated_Source\PSoC4/CYBLE.c ****             else /* Do not update advertising intervals */
 813:Generated_Source\PSoC4/CYBLE.c ****             {
 814:Generated_Source\PSoC4/CYBLE.c ****             }
 815:Generated_Source\PSoC4/CYBLE.c ****             cyBle_advertisingIntervalType = advertisingIntervalType;
 571              		.loc 1 815 0
 572 0076 164B     		ldr	r3, .L25+12
 573 0078 FA1D     		adds	r2, r7, #7
 574 007a 1278     		ldrb	r2, [r2]
 575 007c 1A70     		strb	r2, [r3]
 816:Generated_Source\PSoC4/CYBLE.c ****             apiResult = CyBle_GappEnterDiscoveryMode(&cyBle_discoveryModeInfo);
 576              		.loc 1 816 0
 577 007e 0E23     		movs	r3, #14
 578 0080 FC18     		adds	r4, r7, r3
 579 0082 124B     		ldr	r3, .L25+8
 580 0084 1800     		movs	r0, r3
 581 0086 FFF7FEFF 		bl	CyBle_GappEnterDiscoveryMode
 582 008a 0300     		movs	r3, r0
 583 008c 2380     		strh	r3, [r4]
 817:Generated_Source\PSoC4/CYBLE.c ****         
 818:Generated_Source\PSoC4/CYBLE.c ****             if(apiResult == CYBLE_ERROR_OK)
 584              		.loc 1 818 0
 585 008e 0E23     		movs	r3, #14
 586 0090 FB18     		adds	r3, r7, r3
 587 0092 1B88     		ldrh	r3, [r3]
 588 0094 002B     		cmp	r3, #0
 589 0096 0DD1     		bne	.L19
 819:Generated_Source\PSoC4/CYBLE.c ****             {
 820:Generated_Source\PSoC4/CYBLE.c ****                 cyBle_eventHandlerFlag |= CYBLE_START_FLAG;
 590              		.loc 1 820 0
 591 0098 0B4B     		ldr	r3, .L25+4
 592 009a 1B78     		ldrb	r3, [r3]
 593 009c DBB2     		uxtb	r3, r3
 594 009e 0422     		movs	r2, #4
 595 00a0 1343     		orrs	r3, r2
 596 00a2 DAB2     		uxtb	r2, r3
 597 00a4 084B     		ldr	r3, .L25+4
 598 00a6 1A70     		strb	r2, [r3]
 818:Generated_Source\PSoC4/CYBLE.c ****             {
 599              		.loc 1 818 0
 600 00a8 04E0     		b	.L19
ARM GAS  C:\Users\Lucia\AppData\Local\Temp\cc0KspdR.s 			page 26


 601              	.L20:
 821:Generated_Source\PSoC4/CYBLE.c ****             }
 822:Generated_Source\PSoC4/CYBLE.c ****         }
 823:Generated_Source\PSoC4/CYBLE.c ****         else
 824:Generated_Source\PSoC4/CYBLE.c ****         {
 825:Generated_Source\PSoC4/CYBLE.c ****             apiResult = CYBLE_ERROR_INVALID_STATE;
 602              		.loc 1 825 0
 603 00aa 0E23     		movs	r3, #14
 604 00ac FB18     		adds	r3, r7, r3
 605 00ae 0422     		movs	r2, #4
 606 00b0 FF32     		adds	r2, r2, #255
 607 00b2 1A80     		strh	r2, [r3]
 608              	.L19:
 826:Generated_Source\PSoC4/CYBLE.c ****         }
 827:Generated_Source\PSoC4/CYBLE.c **** 
 828:Generated_Source\PSoC4/CYBLE.c ****         return (apiResult);
 609              		.loc 1 828 0
 610 00b4 0E23     		movs	r3, #14
 611 00b6 FB18     		adds	r3, r7, r3
 612 00b8 1B88     		ldrh	r3, [r3]
 829:Generated_Source\PSoC4/CYBLE.c ****     }
 613              		.loc 1 829 0
 614 00ba 1800     		movs	r0, r3
 615 00bc BD46     		mov	sp, r7
 616 00be 05B0     		add	sp, sp, #20
 617              		@ sp needed
 618 00c0 90BD     		pop	{r4, r7, pc}
 619              	.L26:
 620 00c2 C046     		.align	2
 621              	.L25:
 622 00c4 00000000 		.word	cyBle_state
 623 00c8 00000000 		.word	cyBle_eventHandlerFlag
 624 00cc 00000000 		.word	cyBle_discoveryModeInfo
 625 00d0 00000000 		.word	cyBle_advertisingIntervalType
 626              		.cfi_endproc
 627              	.LFE6:
 628              		.size	CyBle_GappStartAdvertisement, .-CyBle_GappStartAdvertisement
 629              		.section	.text.CyBle_GappStopAdvertisement,"ax",%progbits
 630              		.align	2
 631              		.global	CyBle_GappStopAdvertisement
 632              		.code	16
 633              		.thumb_func
 634              		.type	CyBle_GappStopAdvertisement, %function
 635              	CyBle_GappStopAdvertisement:
 636              	.LFB7:
 830:Generated_Source\PSoC4/CYBLE.c **** 
 831:Generated_Source\PSoC4/CYBLE.c ****     
 832:Generated_Source\PSoC4/CYBLE.c ****     /******************************************************************************
 833:Generated_Source\PSoC4/CYBLE.c ****     * Function Name: CyBle_GappStopAdvertisement
 834:Generated_Source\PSoC4/CYBLE.c ****     ***************************************************************************//**
 835:Generated_Source\PSoC4/CYBLE.c ****     * 
 836:Generated_Source\PSoC4/CYBLE.c ****     *   This function can be used to exit from discovery mode. After the execution 
 837:Generated_Source\PSoC4/CYBLE.c ****     *   of this function, there will no longer be any advertisements. On stopping 
 838:Generated_Source\PSoC4/CYBLE.c ****     *   advertising, GAP Peripheral receives CYBLE_EVT_GAPP_ADVERTISEMENT_START_STOP
 839:Generated_Source\PSoC4/CYBLE.c ****     *   event. It is expected that the application layer tracks the function call 
 840:Generated_Source\PSoC4/CYBLE.c ****     *   performed before occurrence of this event as this event can occur on making 
 841:Generated_Source\PSoC4/CYBLE.c ****     *   a call to Cy_BleGappStartAdvertisement(), CyBle_GappEnterDiscoveryMode(), 
ARM GAS  C:\Users\Lucia\AppData\Local\Temp\cc0KspdR.s 			page 27


 842:Generated_Source\PSoC4/CYBLE.c ****     *   or CyBle_GappStartAdvertisement() functions as well.
 843:Generated_Source\PSoC4/CYBLE.c ****     *   
 844:Generated_Source\PSoC4/CYBLE.c ****     *   The following event occurs on invoking this function:
 845:Generated_Source\PSoC4/CYBLE.c ****     *   * CYBLE_EVT_GAPP_ADVERTISEMENT_START_STOP
 846:Generated_Source\PSoC4/CYBLE.c ****     * 
 847:Generated_Source\PSoC4/CYBLE.c ****     *  \return
 848:Generated_Source\PSoC4/CYBLE.c ****     *   None
 849:Generated_Source\PSoC4/CYBLE.c ****     * 
 850:Generated_Source\PSoC4/CYBLE.c ****     *******************************************************************************/
 851:Generated_Source\PSoC4/CYBLE.c ****     void CyBle_GappStopAdvertisement(void)
 852:Generated_Source\PSoC4/CYBLE.c ****     {
 637              		.loc 1 852 0
 638              		.cfi_startproc
 639              		@ args = 0, pretend = 0, frame = 0
 640              		@ frame_needed = 1, uses_anonymous_args = 0
 641 0000 80B5     		push	{r7, lr}
 642              		.cfi_def_cfa_offset 8
 643              		.cfi_offset 7, -8
 644              		.cfi_offset 14, -4
 645 0002 00AF     		add	r7, sp, #0
 646              		.cfi_def_cfa_register 7
 853:Generated_Source\PSoC4/CYBLE.c ****         CyBle_GappExitDiscoveryMode();
 647              		.loc 1 853 0
 648 0004 FFF7FEFF 		bl	CyBle_GappExitDiscoveryMode
 854:Generated_Source\PSoC4/CYBLE.c ****         cyBle_eventHandlerFlag |= CYBLE_STOP_FLAG;
 649              		.loc 1 854 0
 650 0008 054B     		ldr	r3, .L28
 651 000a 1B78     		ldrb	r3, [r3]
 652 000c DBB2     		uxtb	r3, r3
 653 000e 0822     		movs	r2, #8
 654 0010 1343     		orrs	r3, r2
 655 0012 DAB2     		uxtb	r2, r3
 656 0014 024B     		ldr	r3, .L28
 657 0016 1A70     		strb	r2, [r3]
 855:Generated_Source\PSoC4/CYBLE.c ****     }
 658              		.loc 1 855 0
 659 0018 C046     		nop
 660 001a BD46     		mov	sp, r7
 661              		@ sp needed
 662 001c 80BD     		pop	{r7, pc}
 663              	.L29:
 664 001e C046     		.align	2
 665              	.L28:
 666 0020 00000000 		.word	cyBle_eventHandlerFlag
 667              		.cfi_endproc
 668              	.LFE7:
 669              		.size	CyBle_GappStopAdvertisement, .-CyBle_GappStopAdvertisement
 670              		.section	.text.CyBle_ChangeAdDeviceAddress,"ax",%progbits
 671              		.align	2
 672              		.global	CyBle_ChangeAdDeviceAddress
 673              		.code	16
 674              		.thumb_func
 675              		.type	CyBle_ChangeAdDeviceAddress, %function
 676              	CyBle_ChangeAdDeviceAddress:
 677              	.LFB8:
 856:Generated_Source\PSoC4/CYBLE.c ****     
 857:Generated_Source\PSoC4/CYBLE.c ****     
ARM GAS  C:\Users\Lucia\AppData\Local\Temp\cc0KspdR.s 			page 28


 858:Generated_Source\PSoC4/CYBLE.c ****     /******************************************************************************
 859:Generated_Source\PSoC4/CYBLE.c ****     * Function Name: CyBle_ChangeAdDeviceAddress
 860:Generated_Source\PSoC4/CYBLE.c ****     ***************************************************************************//**
 861:Generated_Source\PSoC4/CYBLE.c ****     * 
 862:Generated_Source\PSoC4/CYBLE.c ****     *  This API is used to set the Bluetooth device address into the advertisement 
 863:Generated_Source\PSoC4/CYBLE.c ****     *  or scan response data structure.
 864:Generated_Source\PSoC4/CYBLE.c ****     * 
 865:Generated_Source\PSoC4/CYBLE.c ****     *  \param bdAddr: Bluetooth Device address. The variable is of type CYBLE_GAP_BD_ADDR_T
 866:Generated_Source\PSoC4/CYBLE.c ****     *  \param dest: 0 - selects advertisement structure, not zero value selects scan 
 867:Generated_Source\PSoC4/CYBLE.c ****     *               response structure.
 868:Generated_Source\PSoC4/CYBLE.c ****     * 
 869:Generated_Source\PSoC4/CYBLE.c ****     * \return
 870:Generated_Source\PSoC4/CYBLE.c ****     *  None
 871:Generated_Source\PSoC4/CYBLE.c ****     *  
 872:Generated_Source\PSoC4/CYBLE.c ****     *******************************************************************************/
 873:Generated_Source\PSoC4/CYBLE.c ****     void CyBle_ChangeAdDeviceAddress(const CYBLE_GAP_BD_ADDR_T* bdAddr, uint8 dest)
 874:Generated_Source\PSoC4/CYBLE.c ****     {
 678              		.loc 1 874 0
 679              		.cfi_startproc
 680              		@ args = 0, pretend = 0, frame = 16
 681              		@ frame_needed = 1, uses_anonymous_args = 0
 682 0000 80B5     		push	{r7, lr}
 683              		.cfi_def_cfa_offset 8
 684              		.cfi_offset 7, -8
 685              		.cfi_offset 14, -4
 686 0002 84B0     		sub	sp, sp, #16
 687              		.cfi_def_cfa_offset 24
 688 0004 00AF     		add	r7, sp, #0
 689              		.cfi_def_cfa_register 7
 690 0006 7860     		str	r0, [r7, #4]
 691 0008 0A00     		movs	r2, r1
 692 000a FB1C     		adds	r3, r7, #3
 693 000c 1A70     		strb	r2, [r3]
 875:Generated_Source\PSoC4/CYBLE.c ****         uint8 i;
 876:Generated_Source\PSoC4/CYBLE.c ****         uint8 *destBuffer = NULL;
 694              		.loc 1 876 0
 695 000e 0023     		movs	r3, #0
 696 0010 BB60     		str	r3, [r7, #8]
 877:Generated_Source\PSoC4/CYBLE.c ****         
 878:Generated_Source\PSoC4/CYBLE.c ****         if(dest == 0u)      /* Destination - advertising structure */
 879:Generated_Source\PSoC4/CYBLE.c ****         {
 880:Generated_Source\PSoC4/CYBLE.c ****             #ifdef CYBLE_ADV_PKT_INDEX_BLUETOOTH_DEVICE_ADDRESS
 881:Generated_Source\PSoC4/CYBLE.c ****                 destBuffer = &cyBle_discoveryData.advData[CYBLE_ADV_PKT_INDEX_BLUETOOTH_DEVICE_ADDR
 882:Generated_Source\PSoC4/CYBLE.c ****             #endif /* CYBLE_ADV_PKT_INDEX_BLUETOOTH_DEVICE_ADDRESS */
 883:Generated_Source\PSoC4/CYBLE.c ****         }
 884:Generated_Source\PSoC4/CYBLE.c ****         else                /* Destination - scan response structure */
 885:Generated_Source\PSoC4/CYBLE.c ****         {
 886:Generated_Source\PSoC4/CYBLE.c ****             #ifdef CYBLE_SCN_PKT_INDEX_BLUETOOTH_DEVICE_ADDRESS
 887:Generated_Source\PSoC4/CYBLE.c ****                 destBuffer = &cyBle_scanRspData.scanRspData[CYBLE_SCN_PKT_INDEX_BLUETOOTH_DEVICE_AD
 888:Generated_Source\PSoC4/CYBLE.c ****             #endif /* CYBLE_SCN_PKT_INDEX_BLUETOOTH_DEVICE_ADDRESS */    
 889:Generated_Source\PSoC4/CYBLE.c ****         }
 890:Generated_Source\PSoC4/CYBLE.c ****         
 891:Generated_Source\PSoC4/CYBLE.c ****         if(destBuffer != NULL)
 697              		.loc 1 891 0
 698 0012 BB68     		ldr	r3, [r7, #8]
 699 0014 002B     		cmp	r3, #0
 700 0016 20D0     		beq	.L34
ARM GAS  C:\Users\Lucia\AppData\Local\Temp\cc0KspdR.s 			page 29


 892:Generated_Source\PSoC4/CYBLE.c ****         {
 893:Generated_Source\PSoC4/CYBLE.c ****             /* Update Device Address type */
 894:Generated_Source\PSoC4/CYBLE.c ****             destBuffer[0u] = bdAddr->type;
 701              		.loc 1 894 0
 702 0018 7B68     		ldr	r3, [r7, #4]
 703 001a 9A79     		ldrb	r2, [r3, #6]
 704 001c BB68     		ldr	r3, [r7, #8]
 705 001e 1A70     		strb	r2, [r3]
 895:Generated_Source\PSoC4/CYBLE.c ****             
 896:Generated_Source\PSoC4/CYBLE.c ****             for(i = 0u; i < CYBLE_GAP_BD_ADDR_SIZE; i++)
 706              		.loc 1 896 0
 707 0020 0F23     		movs	r3, #15
 708 0022 FB18     		adds	r3, r7, r3
 709 0024 0022     		movs	r2, #0
 710 0026 1A70     		strb	r2, [r3]
 711 0028 12E0     		b	.L32
 712              	.L33:
 897:Generated_Source\PSoC4/CYBLE.c ****             {
 898:Generated_Source\PSoC4/CYBLE.c ****                 destBuffer[i + 1u] = bdAddr->bdAddr[i];
 713              		.loc 1 898 0 discriminator 3
 714 002a 0F23     		movs	r3, #15
 715 002c FB18     		adds	r3, r7, r3
 716 002e 1B78     		ldrb	r3, [r3]
 717 0030 0133     		adds	r3, r3, #1
 718 0032 BA68     		ldr	r2, [r7, #8]
 719 0034 D318     		adds	r3, r2, r3
 720 0036 0F22     		movs	r2, #15
 721 0038 BA18     		adds	r2, r7, r2
 722 003a 1278     		ldrb	r2, [r2]
 723 003c 7968     		ldr	r1, [r7, #4]
 724 003e 8A5C     		ldrb	r2, [r1, r2]
 725 0040 1A70     		strb	r2, [r3]
 896:Generated_Source\PSoC4/CYBLE.c ****             {
 726              		.loc 1 896 0 discriminator 3
 727 0042 0F23     		movs	r3, #15
 728 0044 FB18     		adds	r3, r7, r3
 729 0046 1A78     		ldrb	r2, [r3]
 730 0048 0F23     		movs	r3, #15
 731 004a FB18     		adds	r3, r7, r3
 732 004c 0132     		adds	r2, r2, #1
 733 004e 1A70     		strb	r2, [r3]
 734              	.L32:
 896:Generated_Source\PSoC4/CYBLE.c ****             {
 735              		.loc 1 896 0 is_stmt 0 discriminator 1
 736 0050 0F23     		movs	r3, #15
 737 0052 FB18     		adds	r3, r7, r3
 738 0054 1B78     		ldrb	r3, [r3]
 739 0056 052B     		cmp	r3, #5
 740 0058 E7D9     		bls	.L33
 741              	.L34:
 899:Generated_Source\PSoC4/CYBLE.c ****             }
 900:Generated_Source\PSoC4/CYBLE.c ****         }
 901:Generated_Source\PSoC4/CYBLE.c ****     }
 742              		.loc 1 901 0 is_stmt 1
 743 005a C046     		nop
 744 005c BD46     		mov	sp, r7
 745 005e 04B0     		add	sp, sp, #16
ARM GAS  C:\Users\Lucia\AppData\Local\Temp\cc0KspdR.s 			page 30


 746              		@ sp needed
 747 0060 80BD     		pop	{r7, pc}
 748              		.cfi_endproc
 749              	.LFE8:
 750              		.size	CyBle_ChangeAdDeviceAddress, .-CyBle_ChangeAdDeviceAddress
 751 0062 C046     		.section	.text.CyBle_ChangeAdLocalName,"ax",%progbits
 752              		.align	2
 753              		.code	16
 754              		.thumb_func
 755              		.type	CyBle_ChangeAdLocalName, %function
 756              	CyBle_ChangeAdLocalName:
 757              	.LFB9:
 902:Generated_Source\PSoC4/CYBLE.c ****   
 903:Generated_Source\PSoC4/CYBLE.c **** #endif /* CYBLE_GAP_ROLE_PERIPHERAL || CYBLE_GAP_ROLE_BROADCASTER */
 904:Generated_Source\PSoC4/CYBLE.c **** 
 905:Generated_Source\PSoC4/CYBLE.c **** 
 906:Generated_Source\PSoC4/CYBLE.c **** #if(CYBLE_GAP_ROLE_CENTRAL || CYBLE_GAP_ROLE_OBSERVER)
 907:Generated_Source\PSoC4/CYBLE.c **** 
 908:Generated_Source\PSoC4/CYBLE.c ****     /******************************************************************************
 909:Generated_Source\PSoC4/CYBLE.c ****     * Function Name: CyBle_GapcStartScan
 910:Generated_Source\PSoC4/CYBLE.c ****     ***************************************************************************//**
 911:Generated_Source\PSoC4/CYBLE.c ****     * 
 912:Generated_Source\PSoC4/CYBLE.c ****     *   This function is used for discovering GAP peripheral devices that are 
 913:Generated_Source\PSoC4/CYBLE.c ****     *   available for connection. It performs the scanning routine using the 
 914:Generated_Source\PSoC4/CYBLE.c ****     *   parameters entered in the component's customizer.
 915:Generated_Source\PSoC4/CYBLE.c ****     *   
 916:Generated_Source\PSoC4/CYBLE.c ****     *   As soon as the discovery operation starts, CYBLE_EVT_GAPC_SCAN_START_STOP 
 917:Generated_Source\PSoC4/CYBLE.c ****     *   event is generated. The CYBLE_EVT_GAPC_SCAN_PROGRESS_RESULT event is 
 918:Generated_Source\PSoC4/CYBLE.c ****     *   generated when a GAP peripheral device is located. There are three discovery
 919:Generated_Source\PSoC4/CYBLE.c ****     *   procedures can be selected in the customizer's GUI:
 920:Generated_Source\PSoC4/CYBLE.c ****     *   
 921:Generated_Source\PSoC4/CYBLE.c ****     *   * Observation procedure: A device performing the observer role receives only
 922:Generated_Source\PSoC4/CYBLE.c ****     *                            advertisement data from devices irrespective of 
 923:Generated_Source\PSoC4/CYBLE.c ****     *                            their discoverable mode settings. Advertisement 
 924:Generated_Source\PSoC4/CYBLE.c ****     *                            data received is provided by the event,      
 925:Generated_Source\PSoC4/CYBLE.c ****     *                            CYBLE_EVT_GAPC_SCAN_PROGRESS_RESULT. This procedure
 926:Generated_Source\PSoC4/CYBLE.c ****     *                            requires the scanType sub parameter to be passive
 927:Generated_Source\PSoC4/CYBLE.c ****     *                            scanning. 
 928:Generated_Source\PSoC4/CYBLE.c ****     *   
 929:Generated_Source\PSoC4/CYBLE.c ****     *   * Limited Discovery procedure: A device performing the limited discovery
 930:Generated_Source\PSoC4/CYBLE.c ****     *                                  procedure receives advertisement data and 
 931:Generated_Source\PSoC4/CYBLE.c ****     *                                  scan# response data from devices in the 
 932:Generated_Source\PSoC4/CYBLE.c ****     *                                  limited discoverable mode only. Received data
 933:Generated_Source\PSoC4/CYBLE.c ****     *                                  is provided by the event, 
 934:Generated_Source\PSoC4/CYBLE.c ****     *                                  CYBLE_EVT_GAPC_SCAN_PROGRESS_RESULT. This 
 935:Generated_Source\PSoC4/CYBLE.c ****     *                                  procedure requires the scanType sub-parameter 
 936:Generated_Source\PSoC4/CYBLE.c ****     *                                  to be active scanning.
 937:Generated_Source\PSoC4/CYBLE.c ****     *   
 938:Generated_Source\PSoC4/CYBLE.c ****     *   * General Discovery procedure: A device performing the general discovery 
 939:Generated_Source\PSoC4/CYBLE.c ****     *                                  procedure receives the advertisement data and
 940:Generated_Source\PSoC4/CYBLE.c ****     *                                  scan response data from devices in both 
 941:Generated_Source\PSoC4/CYBLE.c ****     *                                  limited discoverable mode and the general 
 942:Generated_Source\PSoC4/CYBLE.c ****     *                                  discoverable mode. Received data is provided
 943:Generated_Source\PSoC4/CYBLE.c ****     *                                  by the event,
 944:Generated_Source\PSoC4/CYBLE.c ****     *                                  CYBLE_EVT_GAPC_SCAN_PROGRESS_RESULT. This 
 945:Generated_Source\PSoC4/CYBLE.c ****     *                                  procedure requires the scanType sub-parameter
 946:Generated_Source\PSoC4/CYBLE.c ****     *                                  to be active scanning.
ARM GAS  C:\Users\Lucia\AppData\Local\Temp\cc0KspdR.s 			page 31


 947:Generated_Source\PSoC4/CYBLE.c ****     *   
 948:Generated_Source\PSoC4/CYBLE.c ****     *   Every Advertisement / Scan response packet received results in a new event, 
 949:Generated_Source\PSoC4/CYBLE.c ****     *   CYBLE_EVT_GAPC_SCAN_PROGRESS_RESULT.
 950:Generated_Source\PSoC4/CYBLE.c ****     *   If 'scanTo' sub-parameter is a non-zero value, then upon commencement of 
 951:Generated_Source\PSoC4/CYBLE.c ****     *   discovery procedure and elapsed time = 'scanTo', CYBLE_EVT_TIMEOUT event
 952:Generated_Source\PSoC4/CYBLE.c ****     *   is generated with the event parameter indicating CYBLE_GAP_SCAN_TO.
 953:Generated_Source\PSoC4/CYBLE.c ****     *   Possible generated events are:
 954:Generated_Source\PSoC4/CYBLE.c ****     *   * CYBLE_EVT_GAPC_SCAN_START_STOP: If a device started or stopped scanning. 
 955:Generated_Source\PSoC4/CYBLE.c ****     *                                     Use CyBle_GetState() to determine the 
 956:Generated_Source\PSoC4/CYBLE.c ****     *                                     state. Sequential scanning could be 
 957:Generated_Source\PSoC4/CYBLE.c ****     *                                     started when CYBLE_STATE_DISCONNECTED 
 958:Generated_Source\PSoC4/CYBLE.c ****     *                                     state is returned. 
 959:Generated_Source\PSoC4/CYBLE.c ****     *   * CYBLE_EVT_GAPC_SCAN_PROGRESS_RESULT 
 960:Generated_Source\PSoC4/CYBLE.c ****     *   * CYBLE_EVT_TIMEOUT (CYBLE_GAP_SCAN_TO)
 961:Generated_Source\PSoC4/CYBLE.c ****     * 
 962:Generated_Source\PSoC4/CYBLE.c ****     *   \param scanningIntervalType:  Fast or slow scanning interval with
 963:Generated_Source\PSoC4/CYBLE.c ****     *       timings entered in Scan settings section of the customizer.
 964:Generated_Source\PSoC4/CYBLE.c ****     * 	  * CYBLE_SCANNING_FAST   0x00u
 965:Generated_Source\PSoC4/CYBLE.c ****     * 	  * CYBLE_SCANNING_SLOW   0x01u
 966:Generated_Source\PSoC4/CYBLE.c ****     * 	  * CYBLE_SCANNING_CUSTOM 0x02u
 967:Generated_Source\PSoC4/CYBLE.c ****     * 
 968:Generated_Source\PSoC4/CYBLE.c ****     * \return
 969:Generated_Source\PSoC4/CYBLE.c ****     *  CYBLE_API_RESULT_T : Return value indicates if the function succeeded or
 970:Generated_Source\PSoC4/CYBLE.c ****     *  failed. Following are the possible error codes.
 971:Generated_Source\PSoC4/CYBLE.c ****     *
 972:Generated_Source\PSoC4/CYBLE.c ****     *   Errors codes                       | Description
 973:Generated_Source\PSoC4/CYBLE.c ****     *   ---------------------------------- | -----------------------------------
 974:Generated_Source\PSoC4/CYBLE.c ****     *   CYBLE_ERROR_OK                     | On successful operation.
 975:Generated_Source\PSoC4/CYBLE.c ****     *   CYBLE_ERROR_STACK_INTERNAL         | An error occurred in the BLE stack.
 976:Generated_Source\PSoC4/CYBLE.c ****     *   CYBLE_ERROR_INVALID_PARAMETER      | On passing an invalid parameter.
 977:Generated_Source\PSoC4/CYBLE.c ****     *  
 978:Generated_Source\PSoC4/CYBLE.c ****     *******************************************************************************/
 979:Generated_Source\PSoC4/CYBLE.c ****     CYBLE_API_RESULT_T CyBle_GapcStartScan(uint8 scanningIntervalType)
 980:Generated_Source\PSoC4/CYBLE.c ****     {
 981:Generated_Source\PSoC4/CYBLE.c ****         CYBLE_API_RESULT_T apiResult;
 982:Generated_Source\PSoC4/CYBLE.c **** 
 983:Generated_Source\PSoC4/CYBLE.c ****         if(scanningIntervalType > CYBLE_SCANNING_CUSTOM)
 984:Generated_Source\PSoC4/CYBLE.c ****         {
 985:Generated_Source\PSoC4/CYBLE.c ****             apiResult = CYBLE_ERROR_INVALID_PARAMETER;
 986:Generated_Source\PSoC4/CYBLE.c ****         }
 987:Generated_Source\PSoC4/CYBLE.c ****         else
 988:Generated_Source\PSoC4/CYBLE.c ****         {
 989:Generated_Source\PSoC4/CYBLE.c ****             if(scanningIntervalType == CYBLE_SCANNING_FAST)
 990:Generated_Source\PSoC4/CYBLE.c ****             {
 991:Generated_Source\PSoC4/CYBLE.c ****                 cyBle_discoveryInfo.scanTo = CYBLE_FAST_SCAN_TIMEOUT;
 992:Generated_Source\PSoC4/CYBLE.c ****                 cyBle_discoveryInfo.scanIntv = CYBLE_FAST_SCAN_INTERVAL;
 993:Generated_Source\PSoC4/CYBLE.c ****                 cyBle_discoveryInfo.scanWindow = CYBLE_FAST_SCAN_WINDOW;
 994:Generated_Source\PSoC4/CYBLE.c ****             }
 995:Generated_Source\PSoC4/CYBLE.c ****             else if(scanningIntervalType == CYBLE_SCANNING_SLOW)
 996:Generated_Source\PSoC4/CYBLE.c ****             {
 997:Generated_Source\PSoC4/CYBLE.c ****                 cyBle_discoveryInfo.scanTo = CYBLE_SLOW_SCAN_TIMEOUT;
 998:Generated_Source\PSoC4/CYBLE.c ****                 cyBle_discoveryInfo.scanIntv = CYBLE_SLOW_SCAN_INTERVAL;
 999:Generated_Source\PSoC4/CYBLE.c ****                 cyBle_discoveryInfo.scanWindow = CYBLE_SLOW_SCAN_WINDOW;
1000:Generated_Source\PSoC4/CYBLE.c ****             }       
1001:Generated_Source\PSoC4/CYBLE.c ****             else /* Do not update scanning intervals */
1002:Generated_Source\PSoC4/CYBLE.c ****             {
1003:Generated_Source\PSoC4/CYBLE.c ****             }
ARM GAS  C:\Users\Lucia\AppData\Local\Temp\cc0KspdR.s 			page 32


1004:Generated_Source\PSoC4/CYBLE.c ****             
1005:Generated_Source\PSoC4/CYBLE.c ****             cyBle_scanningIntervalType = scanningIntervalType;
1006:Generated_Source\PSoC4/CYBLE.c ****             apiResult = CyBle_GapcStartDiscovery(&cyBle_discoveryInfo);
1007:Generated_Source\PSoC4/CYBLE.c ****         
1008:Generated_Source\PSoC4/CYBLE.c ****             if(apiResult == CYBLE_ERROR_OK)
1009:Generated_Source\PSoC4/CYBLE.c ****             {
1010:Generated_Source\PSoC4/CYBLE.c ****                 cyBle_eventHandlerFlag |= CYBLE_START_FLAG;
1011:Generated_Source\PSoC4/CYBLE.c ****             }
1012:Generated_Source\PSoC4/CYBLE.c ****         }
1013:Generated_Source\PSoC4/CYBLE.c ****        
1014:Generated_Source\PSoC4/CYBLE.c ****         return (apiResult);
1015:Generated_Source\PSoC4/CYBLE.c ****     }
1016:Generated_Source\PSoC4/CYBLE.c ****     
1017:Generated_Source\PSoC4/CYBLE.c ****     
1018:Generated_Source\PSoC4/CYBLE.c ****     /******************************************************************************
1019:Generated_Source\PSoC4/CYBLE.c ****     * Function Name: CyBle_GapcStopScan
1020:Generated_Source\PSoC4/CYBLE.c ****     ***************************************************************************//**
1021:Generated_Source\PSoC4/CYBLE.c ****     * 
1022:Generated_Source\PSoC4/CYBLE.c ****     *   This function used to stop the discovery of devices. On stopping discovery
1023:Generated_Source\PSoC4/CYBLE.c ****     *   operation, CYBLE_EVT_GAPC_SCAN_START_STOP event is generated. Application
1024:Generated_Source\PSoC4/CYBLE.c ****     *   layer needs to keep track of the function call made before receiving this
1025:Generated_Source\PSoC4/CYBLE.c ****     *   event to associate this event with either the start or stop discovery
1026:Generated_Source\PSoC4/CYBLE.c ****     *   function.
1027:Generated_Source\PSoC4/CYBLE.c ****     * 
1028:Generated_Source\PSoC4/CYBLE.c ****     *   Possible events generated are:
1029:Generated_Source\PSoC4/CYBLE.c ****     *    * CYBLE_EVT_GAPC_SCAN_START_STOP
1030:Generated_Source\PSoC4/CYBLE.c ****     * 
1031:Generated_Source\PSoC4/CYBLE.c ****     *  \return
1032:Generated_Source\PSoC4/CYBLE.c ****     *   None
1033:Generated_Source\PSoC4/CYBLE.c ****     * 
1034:Generated_Source\PSoC4/CYBLE.c ****     *******************************************************************************/
1035:Generated_Source\PSoC4/CYBLE.c ****     void CyBle_GapcStopScan(void)
1036:Generated_Source\PSoC4/CYBLE.c ****     {
1037:Generated_Source\PSoC4/CYBLE.c ****         CyBle_GapcStopDiscovery();
1038:Generated_Source\PSoC4/CYBLE.c ****         
1039:Generated_Source\PSoC4/CYBLE.c ****         cyBle_eventHandlerFlag |= CYBLE_STOP_FLAG;
1040:Generated_Source\PSoC4/CYBLE.c ****     }
1041:Generated_Source\PSoC4/CYBLE.c **** 
1042:Generated_Source\PSoC4/CYBLE.c ****     
1043:Generated_Source\PSoC4/CYBLE.c **** #endif /* CYBLE_GAP_ROLE_CENTRAL || CYBLE_GAP_ROLE_OBSERVER */
1044:Generated_Source\PSoC4/CYBLE.c **** 
1045:Generated_Source\PSoC4/CYBLE.c **** 
1046:Generated_Source\PSoC4/CYBLE.c **** #if(CYBLE_GAP_ROLE_CENTRAL)
1047:Generated_Source\PSoC4/CYBLE.c **** 
1048:Generated_Source\PSoC4/CYBLE.c ****     /******************************************************************************
1049:Generated_Source\PSoC4/CYBLE.c ****     * Function Name: CyBle_GapcConnectDevice
1050:Generated_Source\PSoC4/CYBLE.c ****     ***************************************************************************//**
1051:Generated_Source\PSoC4/CYBLE.c ****     * 
1052:Generated_Source\PSoC4/CYBLE.c ****     *  This function is used to send a connection request to the remote device with
1053:Generated_Source\PSoC4/CYBLE.c ****     *  the connection parameters set in the component customizer. This function needs
1054:Generated_Source\PSoC4/CYBLE.c ****     *  to be called only once after the target device is discovered by 
1055:Generated_Source\PSoC4/CYBLE.c ****     *  CyBle_GapcStartScan() and further scanning has stopped. Scanning is 
1056:Generated_Source\PSoC4/CYBLE.c ****     *  successfully stopped on invoking CyBle_GapcStopScan() and then receiving the
1057:Generated_Source\PSoC4/CYBLE.c ****     *  event CYBLE_EVT_GAPC_SCAN_START_STOP with sub-parameter 'success' = 0x01u.
1058:Generated_Source\PSoC4/CYBLE.c ****     *  
1059:Generated_Source\PSoC4/CYBLE.c ****     *  On successful connection, the following events are generated at the GAP 
1060:Generated_Source\PSoC4/CYBLE.c ****     *  Central device (as well as the GAP Peripheral device), in the following order.
ARM GAS  C:\Users\Lucia\AppData\Local\Temp\cc0KspdR.s 			page 33


1061:Generated_Source\PSoC4/CYBLE.c ****     *  * CYBLE_EVT_GATT_CONNECT_IND
1062:Generated_Source\PSoC4/CYBLE.c ****     *  * CYBLE_EVT_GAP_DEVICE_CONNECTED - If the device connects to a GAP Central and 
1063:Generated_Source\PSoC4/CYBLE.c ****     *    Link Layer Privacy is disabled in component customizer.
1064:Generated_Source\PSoC4/CYBLE.c ****     *  * CYBLE_EVT_GAP_ENHANCE_CONN_COMPLETE - If the device connects to a GAP Central and 
1065:Generated_Source\PSoC4/CYBLE.c ****     *    Link Layer Privacy is enabled in component customizer.
1066:Generated_Source\PSoC4/CYBLE.c ****     *  * CYBLE_EVT_GAP_DEVICE_CONNECTED
1067:Generated_Source\PSoC4/CYBLE.c ****     *  
1068:Generated_Source\PSoC4/CYBLE.c ****     *  A procedure is considered to have timed out if a connection response packet is 
1069:Generated_Source\PSoC4/CYBLE.c ****     *  not received within time set by cyBle_connectingTimeout global variable
1070:Generated_Source\PSoC4/CYBLE.c ****     *  (30 seconds by default). CYBLE_EVT_TIMEOUT event with CYBLE_GENERIC_TO parameter
1071:Generated_Source\PSoC4/CYBLE.c ****     *  will indicate about connection procedure timeout. Connection will automatically
1072:Generated_Source\PSoC4/CYBLE.c ****     *  be canceled and state will be changed to CYBLE_STATE_DISCONNECTED.
1073:Generated_Source\PSoC4/CYBLE.c ****     * 
1074:Generated_Source\PSoC4/CYBLE.c ****     *  \param address: The device address of the remote device to connect to. 
1075:Generated_Source\PSoC4/CYBLE.c ****     *  
1076:Generated_Source\PSoC4/CYBLE.c ****     * \return
1077:Generated_Source\PSoC4/CYBLE.c ****     *  CYBLE_API_RESULT_T : Return value indicates if the function succeeded or 
1078:Generated_Source\PSoC4/CYBLE.c ****     *  failed. Following are the possible error codes.
1079:Generated_Source\PSoC4/CYBLE.c ****     *
1080:Generated_Source\PSoC4/CYBLE.c ****     *   Errors codes                       | Description
1081:Generated_Source\PSoC4/CYBLE.c ****     *   ------------                       | -----------
1082:Generated_Source\PSoC4/CYBLE.c ****     *   CYBLE_ERROR_OK                     | On successful operation.
1083:Generated_Source\PSoC4/CYBLE.c ****     *   CYBLE_ERROR_STACK_INTERNAL         | On error occurred in the BLE stack.
1084:Generated_Source\PSoC4/CYBLE.c ****     *   CYBLE_ERROR_INVALID_PARAMETER      | On passing an invalid parameter.
1085:Generated_Source\PSoC4/CYBLE.c ****     *   CYBLE_ERROR_INVALID_STATE          | On calling this API not in Disconnected state.
1086:Generated_Source\PSoC4/CYBLE.c ****     *  
1087:Generated_Source\PSoC4/CYBLE.c ****     ******************************************************************************/
1088:Generated_Source\PSoC4/CYBLE.c ****     CYBLE_API_RESULT_T CyBle_GapcConnectDevice(const CYBLE_GAP_BD_ADDR_T * address)
1089:Generated_Source\PSoC4/CYBLE.c ****     {
1090:Generated_Source\PSoC4/CYBLE.c ****         CYBLE_API_RESULT_T apiResult;
1091:Generated_Source\PSoC4/CYBLE.c ****         uint8 i;
1092:Generated_Source\PSoC4/CYBLE.c **** 
1093:Generated_Source\PSoC4/CYBLE.c ****         if(CyBle_GetState() != CYBLE_STATE_DISCONNECTED)
1094:Generated_Source\PSoC4/CYBLE.c ****         {
1095:Generated_Source\PSoC4/CYBLE.c ****             apiResult = CYBLE_ERROR_INVALID_STATE;
1096:Generated_Source\PSoC4/CYBLE.c ****         }
1097:Generated_Source\PSoC4/CYBLE.c ****         else if(address == NULL)
1098:Generated_Source\PSoC4/CYBLE.c ****         {
1099:Generated_Source\PSoC4/CYBLE.c ****             apiResult = CYBLE_ERROR_INVALID_PARAMETER;
1100:Generated_Source\PSoC4/CYBLE.c ****         }
1101:Generated_Source\PSoC4/CYBLE.c ****         else
1102:Generated_Source\PSoC4/CYBLE.c ****         {
1103:Generated_Source\PSoC4/CYBLE.c ****             for(i = 0u; i < CYBLE_GAP_BD_ADDR_SIZE; i++)
1104:Generated_Source\PSoC4/CYBLE.c ****             {
1105:Generated_Source\PSoC4/CYBLE.c ****                 cyBle_connectionParameters.peerBdAddr[i] = address->bdAddr[i];
1106:Generated_Source\PSoC4/CYBLE.c ****             }
1107:Generated_Source\PSoC4/CYBLE.c ****             cyBle_connectionParameters.peerAddrType = address -> type;
1108:Generated_Source\PSoC4/CYBLE.c ****             apiResult = CyBle_GapcInitConnection(&cyBle_connectionParameters);
1109:Generated_Source\PSoC4/CYBLE.c ****             
1110:Generated_Source\PSoC4/CYBLE.c ****             if(apiResult == CYBLE_ERROR_OK)
1111:Generated_Source\PSoC4/CYBLE.c ****             {
1112:Generated_Source\PSoC4/CYBLE.c ****                 CyBle_SetState(CYBLE_STATE_CONNECTING);
1113:Generated_Source\PSoC4/CYBLE.c ****                 if(cyBle_connectingTimeout != 0u)
1114:Generated_Source\PSoC4/CYBLE.c ****                 {
1115:Generated_Source\PSoC4/CYBLE.c ****                     (void)CyBle_StartTimer(cyBle_connectingTimeout);
1116:Generated_Source\PSoC4/CYBLE.c ****                 }
1117:Generated_Source\PSoC4/CYBLE.c ****             }
ARM GAS  C:\Users\Lucia\AppData\Local\Temp\cc0KspdR.s 			page 34


1118:Generated_Source\PSoC4/CYBLE.c ****         }
1119:Generated_Source\PSoC4/CYBLE.c ****         return (apiResult);
1120:Generated_Source\PSoC4/CYBLE.c ****     }
1121:Generated_Source\PSoC4/CYBLE.c ****     
1122:Generated_Source\PSoC4/CYBLE.c **** 
1123:Generated_Source\PSoC4/CYBLE.c ****     /******************************************************************************
1124:Generated_Source\PSoC4/CYBLE.c ****     * Function Name: CyBle_GapcCancelDeviceConnection
1125:Generated_Source\PSoC4/CYBLE.c ****     ***************************************************************************//**
1126:Generated_Source\PSoC4/CYBLE.c ****     * 
1127:Generated_Source\PSoC4/CYBLE.c ****     *  This function cancels a previously initiated connection with the remote 
1128:Generated_Source\PSoC4/CYBLE.c ****     *  device. It is a blocking function. No event is generated on calling this 
1129:Generated_Source\PSoC4/CYBLE.c ****     *  function. If the devices are already connected then this function should not
1130:Generated_Source\PSoC4/CYBLE.c ****     *  be used. If you intend to disconnect from an existing connection, the function
1131:Generated_Source\PSoC4/CYBLE.c ****     *  CyBle_GapDisconnect() should be used.
1132:Generated_Source\PSoC4/CYBLE.c ****     * 
1133:Generated_Source\PSoC4/CYBLE.c ****     * \return
1134:Generated_Source\PSoC4/CYBLE.c ****     *  CYBLE_API_RESULT_T : Return value indicates if the function succeeded or 
1135:Generated_Source\PSoC4/CYBLE.c ****     *  failed. Following are the possible error codes.
1136:Generated_Source\PSoC4/CYBLE.c ****     *
1137:Generated_Source\PSoC4/CYBLE.c ****     *   Errors codes                       | Description
1138:Generated_Source\PSoC4/CYBLE.c ****     *   ---------------------------------- | --------------------------------------
1139:Generated_Source\PSoC4/CYBLE.c ****     *   CYBLE_ERROR_OK                     | On successful operation.
1140:Generated_Source\PSoC4/CYBLE.c ****     *   CYBLE_ERROR_STACK_INTERNAL         | An error occurred in the BLE stack.
1141:Generated_Source\PSoC4/CYBLE.c ****     *   CYBLE_ERROR_INVALID_STATE          | On calling this API not in Connecting state.
1142:Generated_Source\PSoC4/CYBLE.c ****     *  
1143:Generated_Source\PSoC4/CYBLE.c ****     *******************************************************************************/
1144:Generated_Source\PSoC4/CYBLE.c ****     CYBLE_API_RESULT_T CyBle_GapcCancelDeviceConnection(void)
1145:Generated_Source\PSoC4/CYBLE.c ****     {
1146:Generated_Source\PSoC4/CYBLE.c ****         CYBLE_API_RESULT_T apiResult;
1147:Generated_Source\PSoC4/CYBLE.c ****         
1148:Generated_Source\PSoC4/CYBLE.c ****         if(CyBle_GetState() != CYBLE_STATE_CONNECTING)
1149:Generated_Source\PSoC4/CYBLE.c ****         {
1150:Generated_Source\PSoC4/CYBLE.c ****             apiResult = CYBLE_ERROR_INVALID_STATE;
1151:Generated_Source\PSoC4/CYBLE.c ****         }
1152:Generated_Source\PSoC4/CYBLE.c ****         else 
1153:Generated_Source\PSoC4/CYBLE.c ****         {
1154:Generated_Source\PSoC4/CYBLE.c ****             apiResult = CyBle_GapcCancelConnection();
1155:Generated_Source\PSoC4/CYBLE.c ****             
1156:Generated_Source\PSoC4/CYBLE.c ****             if(cyBle_connectingTimeout != 0u)
1157:Generated_Source\PSoC4/CYBLE.c ****             {
1158:Generated_Source\PSoC4/CYBLE.c ****                 (void)CyBle_StopTimer();
1159:Generated_Source\PSoC4/CYBLE.c ****             }
1160:Generated_Source\PSoC4/CYBLE.c **** 
1161:Generated_Source\PSoC4/CYBLE.c ****             if(apiResult == CYBLE_ERROR_OK)
1162:Generated_Source\PSoC4/CYBLE.c ****             {
1163:Generated_Source\PSoC4/CYBLE.c ****                 CyBle_SetState(CYBLE_STATE_DISCONNECTED);
1164:Generated_Source\PSoC4/CYBLE.c ****             }
1165:Generated_Source\PSoC4/CYBLE.c ****         }
1166:Generated_Source\PSoC4/CYBLE.c ****         return (apiResult);
1167:Generated_Source\PSoC4/CYBLE.c ****     }    
1168:Generated_Source\PSoC4/CYBLE.c **** 
1169:Generated_Source\PSoC4/CYBLE.c ****     
1170:Generated_Source\PSoC4/CYBLE.c **** #endif /* CYBLE_GAP_ROLE_CENTRAL */
1171:Generated_Source\PSoC4/CYBLE.c **** 
1172:Generated_Source\PSoC4/CYBLE.c **** 
1173:Generated_Source\PSoC4/CYBLE.c **** #if(CYBLE_GATT_ROLE_SERVER)
1174:Generated_Source\PSoC4/CYBLE.c **** 
ARM GAS  C:\Users\Lucia\AppData\Local\Temp\cc0KspdR.s 			page 35


1175:Generated_Source\PSoC4/CYBLE.c **** #if(CYBLE_GAP_ROLE_PERIPHERAL)
1176:Generated_Source\PSoC4/CYBLE.c **** 
1177:Generated_Source\PSoC4/CYBLE.c ****         /******************************************************************************
1178:Generated_Source\PSoC4/CYBLE.c ****         * Function Name: CyBle_ChangeAdLocalName
1179:Generated_Source\PSoC4/CYBLE.c ****         ***************************************************************************//**
1180:Generated_Source\PSoC4/CYBLE.c ****         *  This API is used to set the local device name in the advertisement or scan 
1181:Generated_Source\PSoC4/CYBLE.c ****         *  response data structure.
1182:Generated_Source\PSoC4/CYBLE.c ****         * 
1183:Generated_Source\PSoC4/CYBLE.c ****         *  \param name: The local device name string to be set in advertisement data 
1184:Generated_Source\PSoC4/CYBLE.c ****         *            structure.
1185:Generated_Source\PSoC4/CYBLE.c ****         *  \param dest: 0 - advertisement structure, not zero value selects scan response
1186:Generated_Source\PSoC4/CYBLE.c ****         *              structure.
1187:Generated_Source\PSoC4/CYBLE.c ****         * 
1188:Generated_Source\PSoC4/CYBLE.c ****         * \return
1189:Generated_Source\PSoC4/CYBLE.c ****         *  None
1190:Generated_Source\PSoC4/CYBLE.c ****         *  
1191:Generated_Source\PSoC4/CYBLE.c ****         *******************************************************************************/
1192:Generated_Source\PSoC4/CYBLE.c ****         static void CyBle_ChangeAdLocalName(const char8 name[], uint8 dest)
1193:Generated_Source\PSoC4/CYBLE.c ****         {
 758              		.loc 1 1193 0
 759              		.cfi_startproc
 760              		@ args = 0, pretend = 0, frame = 24
 761              		@ frame_needed = 1, uses_anonymous_args = 0
 762 0000 80B5     		push	{r7, lr}
 763              		.cfi_def_cfa_offset 8
 764              		.cfi_offset 7, -8
 765              		.cfi_offset 14, -4
 766 0002 86B0     		sub	sp, sp, #24
 767              		.cfi_def_cfa_offset 32
 768 0004 00AF     		add	r7, sp, #0
 769              		.cfi_def_cfa_register 7
 770 0006 7860     		str	r0, [r7, #4]
 771 0008 0A00     		movs	r2, r1
 772 000a FB1C     		adds	r3, r7, #3
 773 000c 1A70     		strb	r2, [r3]
1194:Generated_Source\PSoC4/CYBLE.c ****             uint8 i;
1195:Generated_Source\PSoC4/CYBLE.c ****             uint8 flag = 0u;
 774              		.loc 1 1195 0
 775 000e 1623     		movs	r3, #22
 776 0010 FB18     		adds	r3, r7, r3
 777 0012 0022     		movs	r2, #0
 778 0014 1A70     		strb	r2, [r3]
1196:Generated_Source\PSoC4/CYBLE.c ****             uint8 adLength = 0u;
 779              		.loc 1 1196 0
 780 0016 1523     		movs	r3, #21
 781 0018 FB18     		adds	r3, r7, r3
 782 001a 0022     		movs	r2, #0
 783 001c 1A70     		strb	r2, [r3]
1197:Generated_Source\PSoC4/CYBLE.c ****             uint8 byteCounter = 0u;
 784              		.loc 1 1197 0
 785 001e 1423     		movs	r3, #20
 786 0020 FB18     		adds	r3, r7, r3
 787 0022 0022     		movs	r2, #0
 788 0024 1A70     		strb	r2, [r3]
1198:Generated_Source\PSoC4/CYBLE.c ****             uint8 *destBuffer;
1199:Generated_Source\PSoC4/CYBLE.c ****             uint8 maxLength;
1200:Generated_Source\PSoC4/CYBLE.c ****             
ARM GAS  C:\Users\Lucia\AppData\Local\Temp\cc0KspdR.s 			page 36


1201:Generated_Source\PSoC4/CYBLE.c ****             if(dest == 0u)      /* Destination - advertising structure */
 789              		.loc 1 1201 0
 790 0026 FB1C     		adds	r3, r7, #3
 791 0028 1B78     		ldrb	r3, [r3]
 792 002a 002B     		cmp	r3, #0
 793 002c 07D1     		bne	.L36
1202:Generated_Source\PSoC4/CYBLE.c ****             {
1203:Generated_Source\PSoC4/CYBLE.c ****                 destBuffer = cyBle_discoveryData.advData;
 794              		.loc 1 1203 0
 795 002e 5C4B     		ldr	r3, .L53
 796 0030 3B61     		str	r3, [r7, #16]
1204:Generated_Source\PSoC4/CYBLE.c ****                 maxLength = cyBle_discoveryData.advDataLen;
 797              		.loc 1 1204 0
 798 0032 0F23     		movs	r3, #15
 799 0034 FB18     		adds	r3, r7, r3
 800 0036 5A4A     		ldr	r2, .L53
 801 0038 D27F     		ldrb	r2, [r2, #31]
 802 003a 1A70     		strb	r2, [r3]
 803 003c 3BE0     		b	.L38
 804              	.L36:
1205:Generated_Source\PSoC4/CYBLE.c ****             }
1206:Generated_Source\PSoC4/CYBLE.c ****             else                /* Destination - scan response structure */
1207:Generated_Source\PSoC4/CYBLE.c ****             {
1208:Generated_Source\PSoC4/CYBLE.c ****                 destBuffer = cyBle_scanRspData.scanRspData;
 805              		.loc 1 1208 0
 806 003e 594B     		ldr	r3, .L53+4
 807 0040 3B61     		str	r3, [r7, #16]
1209:Generated_Source\PSoC4/CYBLE.c ****                 maxLength = cyBle_scanRspData.scanRspDataLen;
 808              		.loc 1 1209 0
 809 0042 0F23     		movs	r3, #15
 810 0044 FB18     		adds	r3, r7, r3
 811 0046 574A     		ldr	r2, .L53+4
 812 0048 D27F     		ldrb	r2, [r2, #31]
 813 004a 1A70     		strb	r2, [r3]
1210:Generated_Source\PSoC4/CYBLE.c ****             }
1211:Generated_Source\PSoC4/CYBLE.c ****             
1212:Generated_Source\PSoC4/CYBLE.c ****             while((byteCounter < maxLength) && (flag == 0u))
 814              		.loc 1 1212 0
 815 004c 33E0     		b	.L38
 816              	.L44:
1213:Generated_Source\PSoC4/CYBLE.c ****             {
1214:Generated_Source\PSoC4/CYBLE.c ****                 adLength = destBuffer[byteCounter];
 817              		.loc 1 1214 0
 818 004e 1423     		movs	r3, #20
 819 0050 FB18     		adds	r3, r7, r3
 820 0052 1B78     		ldrb	r3, [r3]
 821 0054 3A69     		ldr	r2, [r7, #16]
 822 0056 D218     		adds	r2, r2, r3
 823 0058 1523     		movs	r3, #21
 824 005a FB18     		adds	r3, r7, r3
 825 005c 1278     		ldrb	r2, [r2]
 826 005e 1A70     		strb	r2, [r3]
1215:Generated_Source\PSoC4/CYBLE.c ****                 
1216:Generated_Source\PSoC4/CYBLE.c ****                 if(0u != adLength)
 827              		.loc 1 1216 0
 828 0060 1523     		movs	r3, #21
 829 0062 FB18     		adds	r3, r7, r3
ARM GAS  C:\Users\Lucia\AppData\Local\Temp\cc0KspdR.s 			page 37


 830 0064 1B78     		ldrb	r3, [r3]
 831 0066 002B     		cmp	r3, #0
 832 0068 33D0     		beq	.L51
1217:Generated_Source\PSoC4/CYBLE.c ****                 {
1218:Generated_Source\PSoC4/CYBLE.c ****                     /* Increment byte counter so it can point to AD type */
1219:Generated_Source\PSoC4/CYBLE.c ****                     byteCounter++;
 833              		.loc 1 1219 0
 834 006a 1423     		movs	r3, #20
 835 006c FB18     		adds	r3, r7, r3
 836 006e 1A78     		ldrb	r2, [r3]
 837 0070 1423     		movs	r3, #20
 838 0072 FB18     		adds	r3, r7, r3
 839 0074 0132     		adds	r2, r2, #1
 840 0076 1A70     		strb	r2, [r3]
1220:Generated_Source\PSoC4/CYBLE.c ****                     
1221:Generated_Source\PSoC4/CYBLE.c ****                     if((destBuffer[byteCounter] == CYBLE_SHORT_LOCAL_NAME) || 
 841              		.loc 1 1221 0
 842 0078 1423     		movs	r3, #20
 843 007a FB18     		adds	r3, r7, r3
 844 007c 1B78     		ldrb	r3, [r3]
 845 007e 3A69     		ldr	r2, [r7, #16]
 846 0080 D318     		adds	r3, r2, r3
 847 0082 1B78     		ldrb	r3, [r3]
 848 0084 082B     		cmp	r3, #8
 849 0086 07D0     		beq	.L40
1222:Generated_Source\PSoC4/CYBLE.c ****                        (destBuffer[byteCounter] == CYBLE_COMPLETE_LOCAL_NAME))
 850              		.loc 1 1222 0 discriminator 1
 851 0088 1423     		movs	r3, #20
 852 008a FB18     		adds	r3, r7, r3
 853 008c 1B78     		ldrb	r3, [r3]
 854 008e 3A69     		ldr	r2, [r7, #16]
 855 0090 D318     		adds	r3, r2, r3
 856 0092 1B78     		ldrb	r3, [r3]
1221:Generated_Source\PSoC4/CYBLE.c ****                        (destBuffer[byteCounter] == CYBLE_COMPLETE_LOCAL_NAME))
 857              		.loc 1 1221 0 discriminator 1
 858 0094 092B     		cmp	r3, #9
 859 0096 04D1     		bne	.L41
 860              	.L40:
1223:Generated_Source\PSoC4/CYBLE.c ****                     {
1224:Generated_Source\PSoC4/CYBLE.c ****                         /* Start of the Local Name AD type was fount. Set flag and exit the loop. *
1225:Generated_Source\PSoC4/CYBLE.c ****                         flag = 1u;
 861              		.loc 1 1225 0
 862 0098 1623     		movs	r3, #22
 863 009a FB18     		adds	r3, r7, r3
 864 009c 0122     		movs	r2, #1
 865 009e 1A70     		strb	r2, [r3]
 866 00a0 09E0     		b	.L38
 867              	.L41:
1226:Generated_Source\PSoC4/CYBLE.c ****                     }
1227:Generated_Source\PSoC4/CYBLE.c ****                     else
1228:Generated_Source\PSoC4/CYBLE.c ****                     {
1229:Generated_Source\PSoC4/CYBLE.c ****                         byteCounter += adLength;
 868              		.loc 1 1229 0
 869 00a2 1423     		movs	r3, #20
 870 00a4 FB18     		adds	r3, r7, r3
 871 00a6 1422     		movs	r2, #20
 872 00a8 B918     		adds	r1, r7, r2
ARM GAS  C:\Users\Lucia\AppData\Local\Temp\cc0KspdR.s 			page 38


 873 00aa 1522     		movs	r2, #21
 874 00ac BA18     		adds	r2, r7, r2
 875 00ae 0978     		ldrb	r1, [r1]
 876 00b0 1278     		ldrb	r2, [r2]
 877 00b2 8A18     		adds	r2, r1, r2
 878 00b4 1A70     		strb	r2, [r3]
 879              	.L38:
1212:Generated_Source\PSoC4/CYBLE.c ****             {
 880              		.loc 1 1212 0
 881 00b6 1423     		movs	r3, #20
 882 00b8 FA18     		adds	r2, r7, r3
 883 00ba 0F23     		movs	r3, #15
 884 00bc FB18     		adds	r3, r7, r3
 885 00be 1278     		ldrb	r2, [r2]
 886 00c0 1B78     		ldrb	r3, [r3]
 887 00c2 9A42     		cmp	r2, r3
 888 00c4 06D2     		bcs	.L43
1212:Generated_Source\PSoC4/CYBLE.c ****             {
 889              		.loc 1 1212 0 is_stmt 0 discriminator 1
 890 00c6 1623     		movs	r3, #22
 891 00c8 FB18     		adds	r3, r7, r3
 892 00ca 1B78     		ldrb	r3, [r3]
 893 00cc 002B     		cmp	r3, #0
 894 00ce BED0     		beq	.L44
 895 00d0 00E0     		b	.L43
 896              	.L51:
1230:Generated_Source\PSoC4/CYBLE.c ****                     }
1231:Generated_Source\PSoC4/CYBLE.c ****                 }
1232:Generated_Source\PSoC4/CYBLE.c ****                 else
1233:Generated_Source\PSoC4/CYBLE.c ****                 {
1234:Generated_Source\PSoC4/CYBLE.c ****                     /* The end of advertisement data structure was encountered though exit the loop
1235:Generated_Source\PSoC4/CYBLE.c ****                     break;
 897              		.loc 1 1235 0 is_stmt 1
 898 00d2 C046     		nop
 899              	.L43:
1236:Generated_Source\PSoC4/CYBLE.c ****                 }
1237:Generated_Source\PSoC4/CYBLE.c ****             }
1238:Generated_Source\PSoC4/CYBLE.c ****             
1239:Generated_Source\PSoC4/CYBLE.c ****             if(0u != flag)
 900              		.loc 1 1239 0
 901 00d4 1623     		movs	r3, #22
 902 00d6 FB18     		adds	r3, r7, r3
 903 00d8 1B78     		ldrb	r3, [r3]
 904 00da 002B     		cmp	r3, #0
 905 00dc 5BD0     		beq	.L52
1240:Generated_Source\PSoC4/CYBLE.c ****             {
1241:Generated_Source\PSoC4/CYBLE.c ****                 /* Reuse "adLength" to hold location of the last character of local name in 
1242:Generated_Source\PSoC4/CYBLE.c ****                    AD structure. */
1243:Generated_Source\PSoC4/CYBLE.c ****                 adLength += byteCounter;
 906              		.loc 1 1243 0
 907 00de 1523     		movs	r3, #21
 908 00e0 FB18     		adds	r3, r7, r3
 909 00e2 1522     		movs	r2, #21
 910 00e4 B918     		adds	r1, r7, r2
 911 00e6 1422     		movs	r2, #20
 912 00e8 BA18     		adds	r2, r7, r2
 913 00ea 0978     		ldrb	r1, [r1]
ARM GAS  C:\Users\Lucia\AppData\Local\Temp\cc0KspdR.s 			page 39


 914 00ec 1278     		ldrb	r2, [r2]
 915 00ee 8A18     		adds	r2, r1, r2
 916 00f0 1A70     		strb	r2, [r3]
1244:Generated_Source\PSoC4/CYBLE.c ****                 
1245:Generated_Source\PSoC4/CYBLE.c ****                 /* Increment byte counter to point to start of the local Name string */
1246:Generated_Source\PSoC4/CYBLE.c ****                 byteCounter++;
 917              		.loc 1 1246 0
 918 00f2 1423     		movs	r3, #20
 919 00f4 FB18     		adds	r3, r7, r3
 920 00f6 1A78     		ldrb	r2, [r3]
 921 00f8 1423     		movs	r3, #20
 922 00fa FB18     		adds	r3, r7, r3
 923 00fc 0132     		adds	r2, r2, #1
 924 00fe 1A70     		strb	r2, [r3]
1247:Generated_Source\PSoC4/CYBLE.c ****                 
1248:Generated_Source\PSoC4/CYBLE.c ****                 for(i = byteCounter; ((i < (adLength)) && (CYBLE_NULL_CHARCTER != name[i - byteCoun
 925              		.loc 1 1248 0
 926 0100 1723     		movs	r3, #23
 927 0102 FB18     		adds	r3, r7, r3
 928 0104 1422     		movs	r2, #20
 929 0106 BA18     		adds	r2, r7, r2
 930 0108 1278     		ldrb	r2, [r2]
 931 010a 1A70     		strb	r2, [r3]
 932 010c 17E0     		b	.L46
 933              	.L48:
1249:Generated_Source\PSoC4/CYBLE.c ****                 {
1250:Generated_Source\PSoC4/CYBLE.c ****                     destBuffer[i] = (uint8)name[i - byteCounter];
 934              		.loc 1 1250 0 discriminator 4
 935 010e 1723     		movs	r3, #23
 936 0110 FB18     		adds	r3, r7, r3
 937 0112 1B78     		ldrb	r3, [r3]
 938 0114 3A69     		ldr	r2, [r7, #16]
 939 0116 D318     		adds	r3, r2, r3
 940 0118 1722     		movs	r2, #23
 941 011a BA18     		adds	r2, r7, r2
 942 011c 1178     		ldrb	r1, [r2]
 943 011e 1422     		movs	r2, #20
 944 0120 BA18     		adds	r2, r7, r2
 945 0122 1278     		ldrb	r2, [r2]
 946 0124 8A1A     		subs	r2, r1, r2
 947 0126 1100     		movs	r1, r2
 948 0128 7A68     		ldr	r2, [r7, #4]
 949 012a 5218     		adds	r2, r2, r1
 950 012c 1278     		ldrb	r2, [r2]
 951 012e 1A70     		strb	r2, [r3]
1248:Generated_Source\PSoC4/CYBLE.c ****                 {
 952              		.loc 1 1248 0 discriminator 4
 953 0130 1723     		movs	r3, #23
 954 0132 FB18     		adds	r3, r7, r3
 955 0134 1A78     		ldrb	r2, [r3]
 956 0136 1723     		movs	r3, #23
 957 0138 FB18     		adds	r3, r7, r3
 958 013a 0132     		adds	r2, r2, #1
 959 013c 1A70     		strb	r2, [r3]
 960              	.L46:
1248:Generated_Source\PSoC4/CYBLE.c ****                 {
 961              		.loc 1 1248 0 is_stmt 0 discriminator 1
ARM GAS  C:\Users\Lucia\AppData\Local\Temp\cc0KspdR.s 			page 40


 962 013e 1723     		movs	r3, #23
 963 0140 FA18     		adds	r2, r7, r3
 964 0142 1523     		movs	r3, #21
 965 0144 FB18     		adds	r3, r7, r3
 966 0146 1278     		ldrb	r2, [r2]
 967 0148 1B78     		ldrb	r3, [r3]
 968 014a 9A42     		cmp	r2, r3
 969 014c 1BD2     		bcs	.L49
1248:Generated_Source\PSoC4/CYBLE.c ****                 {
 970              		.loc 1 1248 0 discriminator 3
 971 014e 1723     		movs	r3, #23
 972 0150 FB18     		adds	r3, r7, r3
 973 0152 1A78     		ldrb	r2, [r3]
 974 0154 1423     		movs	r3, #20
 975 0156 FB18     		adds	r3, r7, r3
 976 0158 1B78     		ldrb	r3, [r3]
 977 015a D31A     		subs	r3, r2, r3
 978 015c 1A00     		movs	r2, r3
 979 015e 7B68     		ldr	r3, [r7, #4]
 980 0160 9B18     		adds	r3, r3, r2
 981 0162 1B78     		ldrb	r3, [r3]
 982 0164 002B     		cmp	r3, #0
 983 0166 D2D1     		bne	.L48
1251:Generated_Source\PSoC4/CYBLE.c ****                 }
1252:Generated_Source\PSoC4/CYBLE.c ****                 
1253:Generated_Source\PSoC4/CYBLE.c ****                 /* This loop handles the case when new local name is shorted than old one.
1254:Generated_Source\PSoC4/CYBLE.c ****                    In this case all remaining characters should be null characters. */
1255:Generated_Source\PSoC4/CYBLE.c ****                 while(adLength > i)
 984              		.loc 1 1255 0 is_stmt 1
 985 0168 0DE0     		b	.L49
 986              	.L50:
1256:Generated_Source\PSoC4/CYBLE.c ****                 {
1257:Generated_Source\PSoC4/CYBLE.c ****                     /* Terminate string */
1258:Generated_Source\PSoC4/CYBLE.c ****                     destBuffer[i] = (uint8)CYBLE_NULL_CHARCTER;
 987              		.loc 1 1258 0
 988 016a 1723     		movs	r3, #23
 989 016c FB18     		adds	r3, r7, r3
 990 016e 1B78     		ldrb	r3, [r3]
 991 0170 3A69     		ldr	r2, [r7, #16]
 992 0172 D318     		adds	r3, r2, r3
 993 0174 0022     		movs	r2, #0
 994 0176 1A70     		strb	r2, [r3]
1259:Generated_Source\PSoC4/CYBLE.c ****                     i++;
 995              		.loc 1 1259 0
 996 0178 1723     		movs	r3, #23
 997 017a FB18     		adds	r3, r7, r3
 998 017c 1A78     		ldrb	r2, [r3]
 999 017e 1723     		movs	r3, #23
 1000 0180 FB18     		adds	r3, r7, r3
 1001 0182 0132     		adds	r2, r2, #1
 1002 0184 1A70     		strb	r2, [r3]
 1003              	.L49:
1255:Generated_Source\PSoC4/CYBLE.c ****                 {
 1004              		.loc 1 1255 0
 1005 0186 1523     		movs	r3, #21
 1006 0188 FA18     		adds	r2, r7, r3
 1007 018a 1723     		movs	r3, #23
ARM GAS  C:\Users\Lucia\AppData\Local\Temp\cc0KspdR.s 			page 41


 1008 018c FB18     		adds	r3, r7, r3
 1009 018e 1278     		ldrb	r2, [r2]
 1010 0190 1B78     		ldrb	r3, [r3]
 1011 0192 9A42     		cmp	r2, r3
 1012 0194 E9D8     		bhi	.L50
 1013              	.L52:
1260:Generated_Source\PSoC4/CYBLE.c ****                 }
1261:Generated_Source\PSoC4/CYBLE.c ****             }
1262:Generated_Source\PSoC4/CYBLE.c ****         }
 1014              		.loc 1 1262 0
 1015 0196 C046     		nop
 1016 0198 BD46     		mov	sp, r7
 1017 019a 06B0     		add	sp, sp, #24
 1018              		@ sp needed
 1019 019c 80BD     		pop	{r7, pc}
 1020              	.L54:
 1021 019e C046     		.align	2
 1022              	.L53:
 1023 01a0 00000000 		.word	cyBle_discoveryData
 1024 01a4 00000000 		.word	cyBle_scanRspData
 1025              		.cfi_endproc
 1026              	.LFE9:
 1027              		.size	CyBle_ChangeAdLocalName, .-CyBle_ChangeAdLocalName
 1028              		.section	.text.CyBle_GapSetLocalName,"ax",%progbits
 1029              		.align	2
 1030              		.global	CyBle_GapSetLocalName
 1031              		.code	16
 1032              		.thumb_func
 1033              		.type	CyBle_GapSetLocalName, %function
 1034              	CyBle_GapSetLocalName:
 1035              	.LFB10:
1263:Generated_Source\PSoC4/CYBLE.c ****         
1264:Generated_Source\PSoC4/CYBLE.c **** #endif /* (CYBLE_GAP_ROLE_PERIPHERAL) */  
1265:Generated_Source\PSoC4/CYBLE.c ****     
1266:Generated_Source\PSoC4/CYBLE.c ****     
1267:Generated_Source\PSoC4/CYBLE.c ****     /******************************************************************************
1268:Generated_Source\PSoC4/CYBLE.c ****     * Function Name: CyBle_GapSetLocalName
1269:Generated_Source\PSoC4/CYBLE.c ****     ***************************************************************************//**
1270:Generated_Source\PSoC4/CYBLE.c ****     *  This API is used to set the local device name - a Characteristic of the 
1271:Generated_Source\PSoC4/CYBLE.c ****     *  GAP Service. If the characteristic length entered in the component customizer
1272:Generated_Source\PSoC4/CYBLE.c ****     *  is shorter than the string specified by the "name" parameter, the local device
1273:Generated_Source\PSoC4/CYBLE.c ****     *  name will be cut to the length specified in the customizer.
1274:Generated_Source\PSoC4/CYBLE.c ****     * 
1275:Generated_Source\PSoC4/CYBLE.c ****     *  \param name: The local device name string. The name string to be written as
1276:Generated_Source\PSoC4/CYBLE.c ****     *              the local device name. It represents a UTF-8 encoded User
1277:Generated_Source\PSoC4/CYBLE.c ****     *              Friendly Descriptive Name for the device. The length of the local
1278:Generated_Source\PSoC4/CYBLE.c ****     *              device string is entered into the component customizer and it can
1279:Generated_Source\PSoC4/CYBLE.c ****     *              be set to a value from 0 to 248 bytes. If the name contained in
1280:Generated_Source\PSoC4/CYBLE.c ****     *              the parameter is shorter than the length from the customizer, the
1281:Generated_Source\PSoC4/CYBLE.c ****     *              end of the name is indicated by a NULL octet (0x00).
1282:Generated_Source\PSoC4/CYBLE.c ****     * 
1283:Generated_Source\PSoC4/CYBLE.c ****     * \return
1284:Generated_Source\PSoC4/CYBLE.c ****     *  CYBLE_API_RESULT_T : Return value indicates if the function succeeded or 
1285:Generated_Source\PSoC4/CYBLE.c ****     *  failed. Following are the possible error codes.
1286:Generated_Source\PSoC4/CYBLE.c ****     *
1287:Generated_Source\PSoC4/CYBLE.c ****     *   Errors codes                       | Description
1288:Generated_Source\PSoC4/CYBLE.c ****     *   ------------                       | -----------
ARM GAS  C:\Users\Lucia\AppData\Local\Temp\cc0KspdR.s 			page 42


1289:Generated_Source\PSoC4/CYBLE.c ****     *   CYBLE_ERROR_OK                     | Function completed successfully.
1290:Generated_Source\PSoC4/CYBLE.c ****     *   CYBLE_ERROR_INVALID_PARAMETER      | On specifying NULL as input parameter
1291:Generated_Source\PSoC4/CYBLE.c ****     *  
1292:Generated_Source\PSoC4/CYBLE.c ****     *******************************************************************************/
1293:Generated_Source\PSoC4/CYBLE.c ****     CYBLE_API_RESULT_T CyBle_GapSetLocalName(const char8 name[])
1294:Generated_Source\PSoC4/CYBLE.c ****     {
 1036              		.loc 1 1294 0
 1037              		.cfi_startproc
 1038              		@ args = 0, pretend = 0, frame = 24
 1039              		@ frame_needed = 1, uses_anonymous_args = 0
 1040 0000 80B5     		push	{r7, lr}
 1041              		.cfi_def_cfa_offset 8
 1042              		.cfi_offset 7, -8
 1043              		.cfi_offset 14, -4
 1044 0002 86B0     		sub	sp, sp, #24
 1045              		.cfi_def_cfa_offset 32
 1046 0004 00AF     		add	r7, sp, #0
 1047              		.cfi_def_cfa_register 7
 1048 0006 7860     		str	r0, [r7, #4]
1295:Generated_Source\PSoC4/CYBLE.c ****         CYBLE_API_RESULT_T apiResult = CYBLE_ERROR_OK;
 1049              		.loc 1 1295 0
 1050 0008 1623     		movs	r3, #22
 1051 000a FB18     		adds	r3, r7, r3
 1052 000c 0022     		movs	r2, #0
 1053 000e 1A80     		strh	r2, [r3]
1296:Generated_Source\PSoC4/CYBLE.c ****         uint8 i;
1297:Generated_Source\PSoC4/CYBLE.c ****         char8 *ptr;
1298:Generated_Source\PSoC4/CYBLE.c ****         uint8 charLen;
1299:Generated_Source\PSoC4/CYBLE.c **** 
1300:Generated_Source\PSoC4/CYBLE.c ****         if(NULL != name)
 1054              		.loc 1 1300 0
 1055 0010 7B68     		ldr	r3, [r7, #4]
 1056 0012 002B     		cmp	r3, #0
 1057 0014 5CD0     		beq	.L56
1301:Generated_Source\PSoC4/CYBLE.c ****         {
1302:Generated_Source\PSoC4/CYBLE.c ****             /* Get the pointer to the Device Name characteristic  */
1303:Generated_Source\PSoC4/CYBLE.c ****             ptr = (char8 *) CYBLE_GATT_DB_ATTR_GET_ATTR_GEN_PTR(cyBle_gaps.deviceNameCharHandle);
 1058              		.loc 1 1303 0
 1059 0016 344B     		ldr	r3, .L63
 1060 0018 5B88     		ldrh	r3, [r3, #2]
 1061 001a 5A1E     		subs	r2, r3, #1
 1062 001c 3349     		ldr	r1, .L63+4
 1063 001e 1300     		movs	r3, r2
 1064 0020 9B00     		lsls	r3, r3, #2
 1065 0022 9B18     		adds	r3, r3, r2
 1066 0024 9B00     		lsls	r3, r3, #2
 1067 0026 CB18     		adds	r3, r1, r3
 1068 0028 1033     		adds	r3, r3, #16
 1069 002a 1B68     		ldr	r3, [r3]
 1070 002c 5B68     		ldr	r3, [r3, #4]
 1071 002e 3B61     		str	r3, [r7, #16]
1304:Generated_Source\PSoC4/CYBLE.c **** 
1305:Generated_Source\PSoC4/CYBLE.c ****             /* First need to get the maximum length of the characteristic data in the GATT
1306:Generated_Source\PSoC4/CYBLE.c ****                 database to make sure there is enough place for the data. The length
1307:Generated_Source\PSoC4/CYBLE.c ****                 can't be longer than 248, so only the LSB of 16 bit of length is to
1308:Generated_Source\PSoC4/CYBLE.c ****                 be used. */
1309:Generated_Source\PSoC4/CYBLE.c ****             charLen = (uint8)CYBLE_GATT_DB_ATTR_GET_ATTR_GEN_MAX_LEN(cyBle_gaps.deviceNameCharHandl
ARM GAS  C:\Users\Lucia\AppData\Local\Temp\cc0KspdR.s 			page 43


 1072              		.loc 1 1309 0
 1073 0030 2D4B     		ldr	r3, .L63
 1074 0032 5B88     		ldrh	r3, [r3, #2]
 1075 0034 5A1E     		subs	r2, r3, #1
 1076 0036 2D49     		ldr	r1, .L63+4
 1077 0038 1300     		movs	r3, r2
 1078 003a 9B00     		lsls	r3, r3, #2
 1079 003c 9B18     		adds	r3, r3, r2
 1080 003e 9B00     		lsls	r3, r3, #2
 1081 0040 CB18     		adds	r3, r1, r3
 1082 0042 0C33     		adds	r3, r3, #12
 1083 0044 1A88     		ldrh	r2, [r3]
 1084 0046 0F23     		movs	r3, #15
 1085 0048 FB18     		adds	r3, r7, r3
 1086 004a 1A70     		strb	r2, [r3]
1310:Generated_Source\PSoC4/CYBLE.c **** 
1311:Generated_Source\PSoC4/CYBLE.c ****             /* Copy name into characteristic */
1312:Generated_Source\PSoC4/CYBLE.c ****             for(i = 0u; ((i < charLen) && (CYBLE_NULL_CHARCTER != name[i])); i++)
 1087              		.loc 1 1312 0
 1088 004c 1523     		movs	r3, #21
 1089 004e FB18     		adds	r3, r7, r3
 1090 0050 0022     		movs	r2, #0
 1091 0052 1A70     		strb	r2, [r3]
 1092 0054 12E0     		b	.L57
 1093              	.L59:
1313:Generated_Source\PSoC4/CYBLE.c ****             {
1314:Generated_Source\PSoC4/CYBLE.c ****                 ptr[i] = name[i];
 1094              		.loc 1 1314 0 discriminator 4
 1095 0056 1523     		movs	r3, #21
 1096 0058 FB18     		adds	r3, r7, r3
 1097 005a 1B78     		ldrb	r3, [r3]
 1098 005c 3A69     		ldr	r2, [r7, #16]
 1099 005e D318     		adds	r3, r2, r3
 1100 0060 1522     		movs	r2, #21
 1101 0062 BA18     		adds	r2, r7, r2
 1102 0064 1278     		ldrb	r2, [r2]
 1103 0066 7968     		ldr	r1, [r7, #4]
 1104 0068 8A18     		adds	r2, r1, r2
 1105 006a 1278     		ldrb	r2, [r2]
 1106 006c 1A70     		strb	r2, [r3]
1312:Generated_Source\PSoC4/CYBLE.c ****             {
 1107              		.loc 1 1312 0 discriminator 4
 1108 006e 1523     		movs	r3, #21
 1109 0070 FB18     		adds	r3, r7, r3
 1110 0072 1A78     		ldrb	r2, [r3]
 1111 0074 1523     		movs	r3, #21
 1112 0076 FB18     		adds	r3, r7, r3
 1113 0078 0132     		adds	r2, r2, #1
 1114 007a 1A70     		strb	r2, [r3]
 1115              	.L57:
1312:Generated_Source\PSoC4/CYBLE.c ****             {
 1116              		.loc 1 1312 0 is_stmt 0 discriminator 1
 1117 007c 1523     		movs	r3, #21
 1118 007e FA18     		adds	r2, r7, r3
 1119 0080 0F23     		movs	r3, #15
 1120 0082 FB18     		adds	r3, r7, r3
 1121 0084 1278     		ldrb	r2, [r2]
ARM GAS  C:\Users\Lucia\AppData\Local\Temp\cc0KspdR.s 			page 44


 1122 0086 1B78     		ldrb	r3, [r3]
 1123 0088 9A42     		cmp	r2, r3
 1124 008a 07D2     		bcs	.L58
1312:Generated_Source\PSoC4/CYBLE.c ****             {
 1125              		.loc 1 1312 0 discriminator 3
 1126 008c 1523     		movs	r3, #21
 1127 008e FB18     		adds	r3, r7, r3
 1128 0090 1B78     		ldrb	r3, [r3]
 1129 0092 7A68     		ldr	r2, [r7, #4]
 1130 0094 D318     		adds	r3, r2, r3
 1131 0096 1B78     		ldrb	r3, [r3]
 1132 0098 002B     		cmp	r3, #0
 1133 009a DCD1     		bne	.L59
 1134              	.L58:
1315:Generated_Source\PSoC4/CYBLE.c ****             }
1316:Generated_Source\PSoC4/CYBLE.c **** 
1317:Generated_Source\PSoC4/CYBLE.c ****             if(i < charLen)
 1135              		.loc 1 1317 0 is_stmt 1
 1136 009c 1523     		movs	r3, #21
 1137 009e FA18     		adds	r2, r7, r3
 1138 00a0 0F23     		movs	r3, #15
 1139 00a2 FB18     		adds	r3, r7, r3
 1140 00a4 1278     		ldrb	r2, [r2]
 1141 00a6 1B78     		ldrb	r3, [r3]
 1142 00a8 9A42     		cmp	r2, r3
 1143 00aa 06D2     		bcs	.L60
1318:Generated_Source\PSoC4/CYBLE.c ****             {
1319:Generated_Source\PSoC4/CYBLE.c ****                 /* Terminate string */
1320:Generated_Source\PSoC4/CYBLE.c ****                 ptr[i] = CYBLE_NULL_CHARCTER;
 1144              		.loc 1 1320 0
 1145 00ac 1523     		movs	r3, #21
 1146 00ae FB18     		adds	r3, r7, r3
 1147 00b0 1B78     		ldrb	r3, [r3]
 1148 00b2 3A69     		ldr	r2, [r7, #16]
 1149 00b4 D318     		adds	r3, r2, r3
 1150 00b6 0022     		movs	r2, #0
 1151 00b8 1A70     		strb	r2, [r3]
 1152              	.L60:
1321:Generated_Source\PSoC4/CYBLE.c ****             }
1322:Generated_Source\PSoC4/CYBLE.c ****             
1323:Generated_Source\PSoC4/CYBLE.c ****             /* Set new actual length */
1324:Generated_Source\PSoC4/CYBLE.c ****             
1325:Generated_Source\PSoC4/CYBLE.c ****             /* Update device name in advertising and scan response structure */
1326:Generated_Source\PSoC4/CYBLE.c ****             #if(CYBLE_GAP_ROLE_PERIPHERAL)
1327:Generated_Source\PSoC4/CYBLE.c ****                 CyBle_ChangeAdLocalName(name, 0u);
 1153              		.loc 1 1327 0
 1154 00ba 7B68     		ldr	r3, [r7, #4]
 1155 00bc 0021     		movs	r1, #0
 1156 00be 1800     		movs	r0, r3
 1157 00c0 FFF7FEFF 		bl	CyBle_ChangeAdLocalName
1328:Generated_Source\PSoC4/CYBLE.c ****                 CyBle_ChangeAdLocalName(name, 1u);
 1158              		.loc 1 1328 0
 1159 00c4 7B68     		ldr	r3, [r7, #4]
 1160 00c6 0121     		movs	r1, #1
 1161 00c8 1800     		movs	r0, r3
 1162 00ca FFF7FEFF 		bl	CyBle_ChangeAdLocalName
 1163 00ce 03E0     		b	.L61
ARM GAS  C:\Users\Lucia\AppData\Local\Temp\cc0KspdR.s 			page 45


 1164              	.L56:
1329:Generated_Source\PSoC4/CYBLE.c ****             #endif /* (CYBLE_GAP_ROLE_PERIPHERAL) */
1330:Generated_Source\PSoC4/CYBLE.c ****         }
1331:Generated_Source\PSoC4/CYBLE.c ****         else
1332:Generated_Source\PSoC4/CYBLE.c ****         {
1333:Generated_Source\PSoC4/CYBLE.c ****             apiResult = CYBLE_ERROR_INVALID_PARAMETER;
 1165              		.loc 1 1333 0
 1166 00d0 1623     		movs	r3, #22
 1167 00d2 FB18     		adds	r3, r7, r3
 1168 00d4 0122     		movs	r2, #1
 1169 00d6 1A80     		strh	r2, [r3]
 1170              	.L61:
1334:Generated_Source\PSoC4/CYBLE.c ****         }
1335:Generated_Source\PSoC4/CYBLE.c ****         
1336:Generated_Source\PSoC4/CYBLE.c ****         return(apiResult);
 1171              		.loc 1 1336 0
 1172 00d8 1623     		movs	r3, #22
 1173 00da FB18     		adds	r3, r7, r3
 1174 00dc 1B88     		ldrh	r3, [r3]
1337:Generated_Source\PSoC4/CYBLE.c ****     }
 1175              		.loc 1 1337 0
 1176 00de 1800     		movs	r0, r3
 1177 00e0 BD46     		mov	sp, r7
 1178 00e2 06B0     		add	sp, sp, #24
 1179              		@ sp needed
 1180 00e4 80BD     		pop	{r7, pc}
 1181              	.L64:
 1182 00e6 C046     		.align	2
 1183              	.L63:
 1184 00e8 00000000 		.word	cyBle_gaps
 1185 00ec 00000000 		.word	cyBle_gattDB
 1186              		.cfi_endproc
 1187              	.LFE10:
 1188              		.size	CyBle_GapSetLocalName, .-CyBle_GapSetLocalName
 1189              		.section	.text.CyBle_GapGetLocalName,"ax",%progbits
 1190              		.align	2
 1191              		.global	CyBle_GapGetLocalName
 1192              		.code	16
 1193              		.thumb_func
 1194              		.type	CyBle_GapGetLocalName, %function
 1195              	CyBle_GapGetLocalName:
 1196              	.LFB11:
1338:Generated_Source\PSoC4/CYBLE.c **** 
1339:Generated_Source\PSoC4/CYBLE.c **** 
1340:Generated_Source\PSoC4/CYBLE.c ****     /******************************************************************************
1341:Generated_Source\PSoC4/CYBLE.c ****     * Function Name: CyBle_GapGetLocalName
1342:Generated_Source\PSoC4/CYBLE.c ****     ***************************************************************************//**
1343:Generated_Source\PSoC4/CYBLE.c ****     *  
1344:Generated_Source\PSoC4/CYBLE.c ****     *  This API is used to read the local device name - a Characteristic of the 
1345:Generated_Source\PSoC4/CYBLE.c ****     *  GAP Service.
1346:Generated_Source\PSoC4/CYBLE.c ****     * 
1347:Generated_Source\PSoC4/CYBLE.c ****     * \param name: The local device name string. Used to read the local name to the
1348:Generated_Source\PSoC4/CYBLE.c ****     *             given string array. It represents a UTF-8 encoded User Friendly 
1349:Generated_Source\PSoC4/CYBLE.c ****     *             Descriptive Name for the device. The length of the local device
1350:Generated_Source\PSoC4/CYBLE.c ****     *             string is entered into the component customizer and it can be set
1351:Generated_Source\PSoC4/CYBLE.c ****     *             to a value from 0 to 248 bytes. If the name contained in the
1352:Generated_Source\PSoC4/CYBLE.c ****     *             parameter is shorter than the length from the customizer, the end
ARM GAS  C:\Users\Lucia\AppData\Local\Temp\cc0KspdR.s 			page 46


1353:Generated_Source\PSoC4/CYBLE.c ****     *             of the name is indicated by a NULL octet (0x00).
1354:Generated_Source\PSoC4/CYBLE.c ****     * 
1355:Generated_Source\PSoC4/CYBLE.c ****     * \return
1356:Generated_Source\PSoC4/CYBLE.c ****     *  CYBLE_API_RESULT_T : Return value indicates if the function succeeded or 
1357:Generated_Source\PSoC4/CYBLE.c ****     *  failed. Following are the possible error codes.
1358:Generated_Source\PSoC4/CYBLE.c ****     *
1359:Generated_Source\PSoC4/CYBLE.c ****     *   Errors codes                       | Description
1360:Generated_Source\PSoC4/CYBLE.c ****     *   ------------                       | -----------
1361:Generated_Source\PSoC4/CYBLE.c ****     *   CYBLE_ERROR_OK                     | Function completed successfully.
1362:Generated_Source\PSoC4/CYBLE.c ****     *   CYBLE_ERROR_INVALID_PARAMETER      | On specifying NULL as input parameter
1363:Generated_Source\PSoC4/CYBLE.c ****     *
1364:Generated_Source\PSoC4/CYBLE.c ****     *******************************************************************************/
1365:Generated_Source\PSoC4/CYBLE.c ****     CYBLE_API_RESULT_T CyBle_GapGetLocalName(char8 name[])
1366:Generated_Source\PSoC4/CYBLE.c ****     {
 1197              		.loc 1 1366 0
 1198              		.cfi_startproc
 1199              		@ args = 0, pretend = 0, frame = 24
 1200              		@ frame_needed = 1, uses_anonymous_args = 0
 1201 0000 80B5     		push	{r7, lr}
 1202              		.cfi_def_cfa_offset 8
 1203              		.cfi_offset 7, -8
 1204              		.cfi_offset 14, -4
 1205 0002 86B0     		sub	sp, sp, #24
 1206              		.cfi_def_cfa_offset 32
 1207 0004 00AF     		add	r7, sp, #0
 1208              		.cfi_def_cfa_register 7
 1209 0006 7860     		str	r0, [r7, #4]
1367:Generated_Source\PSoC4/CYBLE.c ****         CYBLE_API_RESULT_T apiResult = CYBLE_ERROR_OK;
 1210              		.loc 1 1367 0
 1211 0008 1623     		movs	r3, #22
 1212 000a FB18     		adds	r3, r7, r3
 1213 000c 0022     		movs	r2, #0
 1214 000e 1A80     		strh	r2, [r3]
1368:Generated_Source\PSoC4/CYBLE.c ****         uint8 charLen;
1369:Generated_Source\PSoC4/CYBLE.c ****         uint8 i;
1370:Generated_Source\PSoC4/CYBLE.c ****         char8 *ptr;
1371:Generated_Source\PSoC4/CYBLE.c **** 
1372:Generated_Source\PSoC4/CYBLE.c ****         if(NULL != name)
 1215              		.loc 1 1372 0
 1216 0010 7B68     		ldr	r3, [r7, #4]
 1217 0012 002B     		cmp	r3, #0
 1218 0014 4BD0     		beq	.L66
1373:Generated_Source\PSoC4/CYBLE.c ****         {
1374:Generated_Source\PSoC4/CYBLE.c ****             /* Get the pointer to the Device Name characteristic  */
1375:Generated_Source\PSoC4/CYBLE.c ****             ptr = (char8 *) CYBLE_GATT_DB_ATTR_GET_ATTR_GEN_PTR(cyBle_gaps.deviceNameCharHandle);
 1219              		.loc 1 1375 0
 1220 0016 2B4B     		ldr	r3, .L72
 1221 0018 5B88     		ldrh	r3, [r3, #2]
 1222 001a 5A1E     		subs	r2, r3, #1
 1223 001c 2A49     		ldr	r1, .L72+4
 1224 001e 1300     		movs	r3, r2
 1225 0020 9B00     		lsls	r3, r3, #2
 1226 0022 9B18     		adds	r3, r3, r2
 1227 0024 9B00     		lsls	r3, r3, #2
 1228 0026 CB18     		adds	r3, r1, r3
 1229 0028 1033     		adds	r3, r3, #16
 1230 002a 1B68     		ldr	r3, [r3]
ARM GAS  C:\Users\Lucia\AppData\Local\Temp\cc0KspdR.s 			page 47


 1231 002c 5B68     		ldr	r3, [r3, #4]
 1232 002e 3B61     		str	r3, [r7, #16]
1376:Generated_Source\PSoC4/CYBLE.c **** 
1377:Generated_Source\PSoC4/CYBLE.c ****             /* First need to get the length of the characteristic data in the GATT
1378:Generated_Source\PSoC4/CYBLE.c ****                 database to make sure there is enough place for the data. The length
1379:Generated_Source\PSoC4/CYBLE.c ****                 can't be longer than 248, so only the LSB of 16 bit of length is to
1380:Generated_Source\PSoC4/CYBLE.c ****                 be used. */
1381:Generated_Source\PSoC4/CYBLE.c ****             charLen = (uint8)CYBLE_GATT_DB_ATTR_GET_ATTR_GEN_LEN(cyBle_gaps.deviceNameCharHandle);
 1233              		.loc 1 1381 0
 1234 0030 244B     		ldr	r3, .L72
 1235 0032 5B88     		ldrh	r3, [r3, #2]
 1236 0034 5A1E     		subs	r2, r3, #1
 1237 0036 2449     		ldr	r1, .L72+4
 1238 0038 1300     		movs	r3, r2
 1239 003a 9B00     		lsls	r3, r3, #2
 1240 003c 9B18     		adds	r3, r3, r2
 1241 003e 9B00     		lsls	r3, r3, #2
 1242 0040 CB18     		adds	r3, r1, r3
 1243 0042 1033     		adds	r3, r3, #16
 1244 0044 1B68     		ldr	r3, [r3]
 1245 0046 1A88     		ldrh	r2, [r3]
 1246 0048 0F23     		movs	r3, #15
 1247 004a FB18     		adds	r3, r7, r3
 1248 004c 1A70     		strb	r2, [r3]
1382:Generated_Source\PSoC4/CYBLE.c **** 
1383:Generated_Source\PSoC4/CYBLE.c ****             /* Copy name from characteristic */
1384:Generated_Source\PSoC4/CYBLE.c ****             for(i = 0u; ((i < charLen) && (CYBLE_NULL_CHARCTER != ptr[i])); i++)
 1249              		.loc 1 1384 0
 1250 004e 1523     		movs	r3, #21
 1251 0050 FB18     		adds	r3, r7, r3
 1252 0052 0022     		movs	r2, #0
 1253 0054 1A70     		strb	r2, [r3]
 1254 0056 12E0     		b	.L67
 1255              	.L69:
1385:Generated_Source\PSoC4/CYBLE.c ****             {
1386:Generated_Source\PSoC4/CYBLE.c ****                 name[i] = ptr[i];
 1256              		.loc 1 1386 0 discriminator 4
 1257 0058 1523     		movs	r3, #21
 1258 005a FB18     		adds	r3, r7, r3
 1259 005c 1B78     		ldrb	r3, [r3]
 1260 005e 7A68     		ldr	r2, [r7, #4]
 1261 0060 D318     		adds	r3, r2, r3
 1262 0062 1522     		movs	r2, #21
 1263 0064 BA18     		adds	r2, r7, r2
 1264 0066 1278     		ldrb	r2, [r2]
 1265 0068 3969     		ldr	r1, [r7, #16]
 1266 006a 8A18     		adds	r2, r1, r2
 1267 006c 1278     		ldrb	r2, [r2]
 1268 006e 1A70     		strb	r2, [r3]
1384:Generated_Source\PSoC4/CYBLE.c ****             {
 1269              		.loc 1 1384 0 discriminator 4
 1270 0070 1523     		movs	r3, #21
 1271 0072 FB18     		adds	r3, r7, r3
 1272 0074 1A78     		ldrb	r2, [r3]
 1273 0076 1523     		movs	r3, #21
 1274 0078 FB18     		adds	r3, r7, r3
 1275 007a 0132     		adds	r2, r2, #1
ARM GAS  C:\Users\Lucia\AppData\Local\Temp\cc0KspdR.s 			page 48


 1276 007c 1A70     		strb	r2, [r3]
 1277              	.L67:
1384:Generated_Source\PSoC4/CYBLE.c ****             {
 1278              		.loc 1 1384 0 is_stmt 0 discriminator 1
 1279 007e 1523     		movs	r3, #21
 1280 0080 FA18     		adds	r2, r7, r3
 1281 0082 0F23     		movs	r3, #15
 1282 0084 FB18     		adds	r3, r7, r3
 1283 0086 1278     		ldrb	r2, [r2]
 1284 0088 1B78     		ldrb	r3, [r3]
 1285 008a 9A42     		cmp	r2, r3
 1286 008c 07D2     		bcs	.L68
1384:Generated_Source\PSoC4/CYBLE.c ****             {
 1287              		.loc 1 1384 0 discriminator 3
 1288 008e 1523     		movs	r3, #21
 1289 0090 FB18     		adds	r3, r7, r3
 1290 0092 1B78     		ldrb	r3, [r3]
 1291 0094 3A69     		ldr	r2, [r7, #16]
 1292 0096 D318     		adds	r3, r2, r3
 1293 0098 1B78     		ldrb	r3, [r3]
 1294 009a 002B     		cmp	r3, #0
 1295 009c DCD1     		bne	.L69
 1296              	.L68:
1387:Generated_Source\PSoC4/CYBLE.c ****             }
1388:Generated_Source\PSoC4/CYBLE.c **** 
1389:Generated_Source\PSoC4/CYBLE.c ****             /* Terminate string */
1390:Generated_Source\PSoC4/CYBLE.c ****             name[i] = CYBLE_NULL_CHARCTER;
 1297              		.loc 1 1390 0 is_stmt 1
 1298 009e 1523     		movs	r3, #21
 1299 00a0 FB18     		adds	r3, r7, r3
 1300 00a2 1B78     		ldrb	r3, [r3]
 1301 00a4 7A68     		ldr	r2, [r7, #4]
 1302 00a6 D318     		adds	r3, r2, r3
 1303 00a8 0022     		movs	r2, #0
 1304 00aa 1A70     		strb	r2, [r3]
 1305 00ac 03E0     		b	.L70
 1306              	.L66:
1391:Generated_Source\PSoC4/CYBLE.c ****         }
1392:Generated_Source\PSoC4/CYBLE.c ****         else
1393:Generated_Source\PSoC4/CYBLE.c ****         {
1394:Generated_Source\PSoC4/CYBLE.c ****             apiResult = CYBLE_ERROR_INVALID_PARAMETER;
 1307              		.loc 1 1394 0
 1308 00ae 1623     		movs	r3, #22
 1309 00b0 FB18     		adds	r3, r7, r3
 1310 00b2 0122     		movs	r2, #1
 1311 00b4 1A80     		strh	r2, [r3]
 1312              	.L70:
1395:Generated_Source\PSoC4/CYBLE.c ****         }
1396:Generated_Source\PSoC4/CYBLE.c ****         
1397:Generated_Source\PSoC4/CYBLE.c ****         return(apiResult);
 1313              		.loc 1 1397 0
 1314 00b6 1623     		movs	r3, #22
 1315 00b8 FB18     		adds	r3, r7, r3
 1316 00ba 1B88     		ldrh	r3, [r3]
1398:Generated_Source\PSoC4/CYBLE.c ****     }
 1317              		.loc 1 1398 0
 1318 00bc 1800     		movs	r0, r3
ARM GAS  C:\Users\Lucia\AppData\Local\Temp\cc0KspdR.s 			page 49


 1319 00be BD46     		mov	sp, r7
 1320 00c0 06B0     		add	sp, sp, #24
 1321              		@ sp needed
 1322 00c2 80BD     		pop	{r7, pc}
 1323              	.L73:
 1324              		.align	2
 1325              	.L72:
 1326 00c4 00000000 		.word	cyBle_gaps
 1327 00c8 00000000 		.word	cyBle_gattDB
 1328              		.cfi_endproc
 1329              	.LFE11:
 1330              		.size	CyBle_GapGetLocalName, .-CyBle_GapGetLocalName
 1331              		.section	.text.CyBle_Get16ByPtr,"ax",%progbits
 1332              		.align	2
 1333              		.global	CyBle_Get16ByPtr
 1334              		.code	16
 1335              		.thumb_func
 1336              		.type	CyBle_Get16ByPtr, %function
 1337              	CyBle_Get16ByPtr:
 1338              	.LFB12:
1399:Generated_Source\PSoC4/CYBLE.c **** 
1400:Generated_Source\PSoC4/CYBLE.c **** #endif /* (CYBLE_GATT_ROLE_SERVER) */
1401:Generated_Source\PSoC4/CYBLE.c **** 
1402:Generated_Source\PSoC4/CYBLE.c **** 
1403:Generated_Source\PSoC4/CYBLE.c **** /******************************************************************************
1404:Generated_Source\PSoC4/CYBLE.c **** * Function Name: CyBle_Get16ByPtr
1405:Generated_Source\PSoC4/CYBLE.c **** ***************************************************************************//**
1406:Generated_Source\PSoC4/CYBLE.c **** * 
1407:Generated_Source\PSoC4/CYBLE.c **** *  Returns the two-bytes value by using a pointer to the LSB.
1408:Generated_Source\PSoC4/CYBLE.c **** * 
1409:Generated_Source\PSoC4/CYBLE.c **** *  \param ptr: Pointer to the LSB of two-bytes data (little endian).
1410:Generated_Source\PSoC4/CYBLE.c **** * 
1411:Generated_Source\PSoC4/CYBLE.c **** *  \return
1412:Generated_Source\PSoC4/CYBLE.c **** *  uint16: Two-bytes data.
1413:Generated_Source\PSoC4/CYBLE.c **** * 
1414:Generated_Source\PSoC4/CYBLE.c **** ******************************************************************************/
1415:Generated_Source\PSoC4/CYBLE.c **** uint16 CyBle_Get16ByPtr(const uint8 ptr[])
1416:Generated_Source\PSoC4/CYBLE.c **** {
 1339              		.loc 1 1416 0
 1340              		.cfi_startproc
 1341              		@ args = 0, pretend = 0, frame = 8
 1342              		@ frame_needed = 1, uses_anonymous_args = 0
 1343 0000 80B5     		push	{r7, lr}
 1344              		.cfi_def_cfa_offset 8
 1345              		.cfi_offset 7, -8
 1346              		.cfi_offset 14, -4
 1347 0002 82B0     		sub	sp, sp, #8
 1348              		.cfi_def_cfa_offset 16
 1349 0004 00AF     		add	r7, sp, #0
 1350              		.cfi_def_cfa_register 7
 1351 0006 7860     		str	r0, [r7, #4]
1417:Generated_Source\PSoC4/CYBLE.c ****     return ((uint16) ptr[0u] | ((uint16) (((uint16) ptr[1u]) << 8u)));
 1352              		.loc 1 1417 0
 1353 0008 7B68     		ldr	r3, [r7, #4]
 1354 000a 1B78     		ldrb	r3, [r3]
 1355 000c 9AB2     		uxth	r2, r3
 1356 000e 7B68     		ldr	r3, [r7, #4]
ARM GAS  C:\Users\Lucia\AppData\Local\Temp\cc0KspdR.s 			page 50


 1357 0010 0133     		adds	r3, r3, #1
 1358 0012 1B78     		ldrb	r3, [r3]
 1359 0014 9BB2     		uxth	r3, r3
 1360 0016 1B02     		lsls	r3, r3, #8
 1361 0018 9BB2     		uxth	r3, r3
 1362 001a 1343     		orrs	r3, r2
 1363 001c 9BB2     		uxth	r3, r3
1418:Generated_Source\PSoC4/CYBLE.c **** }
 1364              		.loc 1 1418 0
 1365 001e 1800     		movs	r0, r3
 1366 0020 BD46     		mov	sp, r7
 1367 0022 02B0     		add	sp, sp, #8
 1368              		@ sp needed
 1369 0024 80BD     		pop	{r7, pc}
 1370              		.cfi_endproc
 1371              	.LFE12:
 1372              		.size	CyBle_Get16ByPtr, .-CyBle_Get16ByPtr
 1373 0026 C046     		.section	.text.CyBle_Set16ByPtr,"ax",%progbits
 1374              		.align	2
 1375              		.global	CyBle_Set16ByPtr
 1376              		.code	16
 1377              		.thumb_func
 1378              		.type	CyBle_Set16ByPtr, %function
 1379              	CyBle_Set16ByPtr:
 1380              	.LFB13:
1419:Generated_Source\PSoC4/CYBLE.c **** 
1420:Generated_Source\PSoC4/CYBLE.c **** 
1421:Generated_Source\PSoC4/CYBLE.c **** /******************************************************************************
1422:Generated_Source\PSoC4/CYBLE.c **** * Function Name: CyBle_Set16ByPtr
1423:Generated_Source\PSoC4/CYBLE.c **** ***************************************************************************//**
1424:Generated_Source\PSoC4/CYBLE.c **** * 
1425:Generated_Source\PSoC4/CYBLE.c **** *  Sets the two-bytes value by using a pointer to the LSB.
1426:Generated_Source\PSoC4/CYBLE.c **** * 
1427:Generated_Source\PSoC4/CYBLE.c **** *  \param ptr:    Pointer to the LSB of two-bytes data (little endian).
1428:Generated_Source\PSoC4/CYBLE.c **** *  \param value:  Two-bytes data to be written.
1429:Generated_Source\PSoC4/CYBLE.c **** * 
1430:Generated_Source\PSoC4/CYBLE.c **** *  \return
1431:Generated_Source\PSoC4/CYBLE.c **** *  None
1432:Generated_Source\PSoC4/CYBLE.c **** * 
1433:Generated_Source\PSoC4/CYBLE.c **** ******************************************************************************/
1434:Generated_Source\PSoC4/CYBLE.c **** void CyBle_Set16ByPtr(uint8 ptr[], uint16 value)
1435:Generated_Source\PSoC4/CYBLE.c **** {
 1381              		.loc 1 1435 0
 1382              		.cfi_startproc
 1383              		@ args = 0, pretend = 0, frame = 8
 1384              		@ frame_needed = 1, uses_anonymous_args = 0
 1385 0000 80B5     		push	{r7, lr}
 1386              		.cfi_def_cfa_offset 8
 1387              		.cfi_offset 7, -8
 1388              		.cfi_offset 14, -4
 1389 0002 82B0     		sub	sp, sp, #8
 1390              		.cfi_def_cfa_offset 16
 1391 0004 00AF     		add	r7, sp, #0
 1392              		.cfi_def_cfa_register 7
 1393 0006 7860     		str	r0, [r7, #4]
 1394 0008 0A00     		movs	r2, r1
 1395 000a BB1C     		adds	r3, r7, #2
ARM GAS  C:\Users\Lucia\AppData\Local\Temp\cc0KspdR.s 			page 51


 1396 000c 1A80     		strh	r2, [r3]
1436:Generated_Source\PSoC4/CYBLE.c ****     ptr[0u] = (uint8) value;
 1397              		.loc 1 1436 0
 1398 000e BB1C     		adds	r3, r7, #2
 1399 0010 1B88     		ldrh	r3, [r3]
 1400 0012 DAB2     		uxtb	r2, r3
 1401 0014 7B68     		ldr	r3, [r7, #4]
 1402 0016 1A70     		strb	r2, [r3]
1437:Generated_Source\PSoC4/CYBLE.c ****     ptr[1u] = (uint8) (value >> 8u);
 1403              		.loc 1 1437 0
 1404 0018 7B68     		ldr	r3, [r7, #4]
 1405 001a 0133     		adds	r3, r3, #1
 1406 001c BA1C     		adds	r2, r7, #2
 1407 001e 1288     		ldrh	r2, [r2]
 1408 0020 120A     		lsrs	r2, r2, #8
 1409 0022 92B2     		uxth	r2, r2
 1410 0024 D2B2     		uxtb	r2, r2
 1411 0026 1A70     		strb	r2, [r3]
1438:Generated_Source\PSoC4/CYBLE.c **** }
 1412              		.loc 1 1438 0
 1413 0028 C046     		nop
 1414 002a BD46     		mov	sp, r7
 1415 002c 02B0     		add	sp, sp, #8
 1416              		@ sp needed
 1417 002e 80BD     		pop	{r7, pc}
 1418              		.cfi_endproc
 1419              	.LFE13:
 1420              		.size	CyBle_Set16ByPtr, .-CyBle_Set16ByPtr
 1421              		.text
 1422              	.Letext0:
 1423              		.file 2 "Generated_Source\\PSoC4\\cytypes.h"
 1424              		.file 3 "Generated_Source\\PSoC4\\CYBLE_Stack.h"
 1425              		.file 4 "Generated_Source\\PSoC4\\CYBLE_StackGap.h"
 1426              		.file 5 "Generated_Source\\PSoC4\\CYBLE_StackGatt.h"
 1427              		.file 6 "Generated_Source\\PSoC4\\CYBLE_StackGattDb.h"
 1428              		.file 7 "Generated_Source\\PSoC4\\CYBLE.h"
 1429              		.file 8 "Generated_Source\\PSoC4\\CYBLE_dis.h"
 1430              		.file 9 "Generated_Source\\PSoC4\\CYBLE_hrs.h"
 1431              		.file 10 "Generated_Source\\PSoC4\\CYBLE_eventHandler.h"
 1432              		.file 11 "Generated_Source\\PSoC4\\CYBLE_gatt.h"