ARM GAS  C:\Users\Lucia\AppData\Local\Temp\ccAijTzF.s 			page 1


   1              		.syntax unified
   2              		.cpu cortex-m0
   3              		.fpu softvfp
   4              		.eabi_attribute 20, 1
   5              		.eabi_attribute 21, 1
   6              		.eabi_attribute 23, 3
   7              		.eabi_attribute 24, 1
   8              		.eabi_attribute 25, 1
   9              		.eabi_attribute 26, 1
  10              		.eabi_attribute 30, 6
  11              		.eabi_attribute 34, 0
  12              		.eabi_attribute 18, 4
  13              		.thumb
  14              		.syntax unified
  15              		.file	"main.c"
  16              		.text
  17              	.Ltext0:
  18              		.cfi_sections	.debug_frame
  19              		.global	mainTimer
  20              		.bss
  21              		.align	2
  22              		.type	mainTimer, %object
  23              		.size	mainTimer, 4
  24              	mainTimer:
  25 0000 00000000 		.space	4
  26              		.comm	apiResult,2,2
  27              		.section	.text.AppCallBack,"ax",%progbits
  28              		.align	2
  29              		.global	AppCallBack
  30              		.code	16
  31              		.thumb_func
  32              		.type	AppCallBack, %function
  33              	AppCallBack:
  34              	.LFB38:
  35              		.file 1 "main.c"
   1:main.c        **** /*******************************************************************************
   2:main.c        **** * File Name: main.c
   3:main.c        **** *
   4:main.c        **** * Version 1.0
   5:main.c        **** *
   6:main.c        **** * Description:
   7:main.c        **** *  This project demonstrates the operation of the Heart Rate Profile
   8:main.c        **** *  in Server (Peripheral) role.
   9:main.c        **** *
  10:main.c        **** * Note:
  11:main.c        **** *
  12:main.c        **** * Hardware Dependency:
  13:main.c        **** *  CY8CKIT-042 BLE
  14:main.c        **** *
  15:main.c        **** ********************************************************************************
  16:main.c        **** * Copyright 2014, Cypress Semiconductor Corporation.  All rights reserved.
  17:main.c        **** * You may use this file only in accordance with the license, terms, conditions,
  18:main.c        **** * disclaimers, and limitations in the end user license agreement accompanying
  19:main.c        **** * the software package with which this file was provided.
  20:main.c        **** *******************************************************************************/
  21:main.c        **** 
  22:main.c        **** #include "hrss.h"
ARM GAS  C:\Users\Lucia\AppData\Local\Temp\ccAijTzF.s 			page 2


  23:main.c        **** 
  24:main.c        **** volatile uint32 mainTimer = 0;
  25:main.c        **** CYBLE_API_RESULT_T apiResult;
  26:main.c        **** 
  27:main.c        **** 
  28:main.c        **** /*******************************************************************************
  29:main.c        **** * Function Name: AppCallBack()
  30:main.c        **** ********************************************************************************
  31:main.c        **** *
  32:main.c        **** * Summary:
  33:main.c        **** *   This is an event callback function to receive events from the BLE Component.
  34:main.c        **** *
  35:main.c        **** * Parameters:
  36:main.c        **** *  event - the event code
  37:main.c        **** *  *eventParam - the event parameters
  38:main.c        **** *
  39:main.c        **** *******************************************************************************/
  40:main.c        **** void AppCallBack(uint32 event, void* eventParam)
  41:main.c        **** {
  36              		.loc 1 41 0
  37              		.cfi_startproc
  38              		@ args = 0, pretend = 0, frame = 8
  39              		@ frame_needed = 1, uses_anonymous_args = 0
  40 0000 80B5     		push	{r7, lr}
  41              		.cfi_def_cfa_offset 8
  42              		.cfi_offset 7, -8
  43              		.cfi_offset 14, -4
  44 0002 82B0     		sub	sp, sp, #8
  45              		.cfi_def_cfa_offset 16
  46 0004 00AF     		add	r7, sp, #0
  47              		.cfi_def_cfa_register 7
  48 0006 7860     		str	r0, [r7, #4]
  49 0008 3960     		str	r1, [r7]
  42:main.c        **** #ifdef DEBUG_OUT    
  43:main.c        ****     DebugOut(event, eventParam);
  50              		.loc 1 43 0
  51 000a 3A68     		ldr	r2, [r7]
  52 000c 7B68     		ldr	r3, [r7, #4]
  53 000e 1100     		movs	r1, r2
  54 0010 1800     		movs	r0, r3
  55 0012 FFF7FEFF 		bl	DebugOut
  44:main.c        **** #endif
  45:main.c        **** 
  46:main.c        ****     switch(event)
  56              		.loc 1 46 0
  57 0016 7B68     		ldr	r3, [r7, #4]
  58 0018 272B     		cmp	r3, #39
  59 001a 0AD0     		beq	.L3
  60 001c 282B     		cmp	r3, #40
  61 001e 02D0     		beq	.L4
  62 0020 012B     		cmp	r3, #1
  63 0022 00D0     		beq	.L4
  47:main.c        ****     {
  48:main.c        ****         case CYBLE_EVT_STACK_ON:
  49:main.c        ****         case CYBLE_EVT_GAP_DEVICE_DISCONNECTED:
  50:main.c        ****             heartRateSimulation = DISABLED;
  51:main.c        ****             /* Put the device into discoverable mode so that remote can search it. */
ARM GAS  C:\Users\Lucia\AppData\Local\Temp\ccAijTzF.s 			page 3


  52:main.c        ****             StartAdvertisement();
  53:main.c        ****             break;
  54:main.c        ****             
  55:main.c        ****         case CYBLE_EVT_GAP_DEVICE_CONNECTED:
  56:main.c        ****             Advertising_LED_Write(LED_OFF);
  57:main.c        ****             break;
  58:main.c        **** 
  59:main.c        ****         default:
  60:main.c        ****             break;
  64              		.loc 1 60 0
  65 0024 09E0     		b	.L5
  66              	.L4:
  50:main.c        ****             /* Put the device into discoverable mode so that remote can search it. */
  67              		.loc 1 50 0
  68 0026 074B     		ldr	r3, .L6
  69 0028 0022     		movs	r2, #0
  70 002a 1A70     		strb	r2, [r3]
  52:main.c        ****             break;
  71              		.loc 1 52 0
  72 002c FFF7FEFF 		bl	StartAdvertisement
  53:main.c        ****             
  73              		.loc 1 53 0
  74 0030 03E0     		b	.L5
  75              	.L3:
  56:main.c        ****             break;
  76              		.loc 1 56 0
  77 0032 0120     		movs	r0, #1
  78 0034 FFF7FEFF 		bl	Advertising_LED_Write
  57:main.c        **** 
  79              		.loc 1 57 0
  80 0038 C046     		nop
  81              	.L5:
  61:main.c        ****     }
  62:main.c        **** }
  82              		.loc 1 62 0
  83 003a C046     		nop
  84 003c BD46     		mov	sp, r7
  85 003e 02B0     		add	sp, sp, #8
  86              		@ sp needed
  87 0040 80BD     		pop	{r7, pc}
  88              	.L7:
  89 0042 C046     		.align	2
  90              	.L6:
  91 0044 00000000 		.word	heartRateSimulation
  92              		.cfi_endproc
  93              	.LFE38:
  94              		.size	AppCallBack, .-AppCallBack
  95              		.section	.text.Timer_Interrupt,"ax",%progbits
  96              		.align	2
  97              		.global	Timer_Interrupt
  98              		.code	16
  99              		.thumb_func
 100              		.type	Timer_Interrupt, %function
 101              	Timer_Interrupt:
 102              	.LFB39:
  63:main.c        **** 
  64:main.c        **** 
ARM GAS  C:\Users\Lucia\AppData\Local\Temp\ccAijTzF.s 			page 4


  65:main.c        **** /*******************************************************************************
  66:main.c        **** * Function Name: Timer_Interrupt
  67:main.c        **** ********************************************************************************
  68:main.c        **** *
  69:main.c        **** * Summary:
  70:main.c        **** *  Handles the Interrupt Service Routine for the WDT timer.
  71:main.c        **** *  It is called from common WDT ISR located in BLE component. 
  72:main.c        **** *
  73:main.c        **** *******************************************************************************/
  74:main.c        **** void Timer_Interrupt(void)
  75:main.c        **** {
 103              		.loc 1 75 0
 104              		.cfi_startproc
 105              		@ args = 0, pretend = 0, frame = 0
 106              		@ frame_needed = 1, uses_anonymous_args = 0
 107 0000 80B5     		push	{r7, lr}
 108              		.cfi_def_cfa_offset 8
 109              		.cfi_offset 7, -8
 110              		.cfi_offset 14, -4
 111 0002 00AF     		add	r7, sp, #0
 112              		.cfi_def_cfa_register 7
  76:main.c        ****     if(CySysWdtGetInterruptSource() & WDT_INTERRUPT_SOURCE)
 113              		.loc 1 76 0
 114 0004 FFF7FEFF 		bl	CySysWdtGetInterruptSource
 115 0008 0200     		movs	r2, r0
 116 000a 8023     		movs	r3, #128
 117 000c DB00     		lsls	r3, r3, #3
 118 000e 1340     		ands	r3, r2
 119 0010 19D0     		beq	.L11
 120              	.LBB2:
  77:main.c        ****     {
  78:main.c        ****         static uint8 led = LED_OFF;
  79:main.c        ****         
  80:main.c        ****         /* Blink LED to indicate that device advertises */
  81:main.c        ****         if(CYBLE_STATE_ADVERTISING == CyBle_GetState())
 121              		.loc 1 81 0
 122 0012 0E4B     		ldr	r3, .L12
 123 0014 1B78     		ldrb	r3, [r3]
 124 0016 032B     		cmp	r3, #3
 125 0018 0BD1     		bne	.L10
  82:main.c        ****         {
  83:main.c        ****             led ^= LED_OFF;
 126              		.loc 1 83 0
 127 001a 0D4B     		ldr	r3, .L12+4
 128 001c 1B78     		ldrb	r3, [r3]
 129 001e 0122     		movs	r2, #1
 130 0020 5340     		eors	r3, r2
 131 0022 DAB2     		uxtb	r2, r3
 132 0024 0A4B     		ldr	r3, .L12+4
 133 0026 1A70     		strb	r2, [r3]
  84:main.c        ****             Advertising_LED_Write(led);
 134              		.loc 1 84 0
 135 0028 094B     		ldr	r3, .L12+4
 136 002a 1B78     		ldrb	r3, [r3]
 137 002c 1800     		movs	r0, r3
 138 002e FFF7FEFF 		bl	Advertising_LED_Write
 139              	.L10:
ARM GAS  C:\Users\Lucia\AppData\Local\Temp\ccAijTzF.s 			page 5


  85:main.c        ****         }
  86:main.c        ****         
  87:main.c        ****         /* Indicate that timer is raised to the main loop */
  88:main.c        ****         mainTimer++;
 140              		.loc 1 88 0
 141 0032 084B     		ldr	r3, .L12+8
 142 0034 1B68     		ldr	r3, [r3]
 143 0036 5A1C     		adds	r2, r3, #1
 144 0038 064B     		ldr	r3, .L12+8
 145 003a 1A60     		str	r2, [r3]
  89:main.c        ****         
  90:main.c        ****         /* Clears interrupt request  */
  91:main.c        ****         CySysWdtClearInterrupt(WDT_INTERRUPT_SOURCE);
 146              		.loc 1 91 0
 147 003c 8023     		movs	r3, #128
 148 003e DB00     		lsls	r3, r3, #3
 149 0040 1800     		movs	r0, r3
 150 0042 FFF7FEFF 		bl	CySysWdtClearInterrupt
 151              	.L11:
 152              	.LBE2:
  92:main.c        ****     }
  93:main.c        **** }
 153              		.loc 1 93 0
 154 0046 C046     		nop
 155 0048 BD46     		mov	sp, r7
 156              		@ sp needed
 157 004a 80BD     		pop	{r7, pc}
 158              	.L13:
 159              		.align	2
 160              	.L12:
 161 004c 00000000 		.word	cyBle_state
 162 0050 00000000 		.word	led.8355
 163 0054 00000000 		.word	mainTimer
 164              		.cfi_endproc
 165              	.LFE39:
 166              		.size	Timer_Interrupt, .-Timer_Interrupt
 167              		.section	.text.WDT_Start,"ax",%progbits
 168              		.align	2
 169              		.global	WDT_Start
 170              		.code	16
 171              		.thumb_func
 172              		.type	WDT_Start, %function
 173              	WDT_Start:
 174              	.LFB40:
  94:main.c        **** 
  95:main.c        **** /*******************************************************************************
  96:main.c        **** * Function Name: WDT_Start
  97:main.c        **** ********************************************************************************
  98:main.c        **** *
  99:main.c        **** * Summary:
 100:main.c        **** *  Configures WDT(counter 2) to trigger an interrupt every second.
 101:main.c        **** *
 102:main.c        **** *******************************************************************************/
 103:main.c        **** 
 104:main.c        **** void WDT_Start(void)
 105:main.c        **** {
 175              		.loc 1 105 0
ARM GAS  C:\Users\Lucia\AppData\Local\Temp\ccAijTzF.s 			page 6


 176              		.cfi_startproc
 177              		@ args = 0, pretend = 0, frame = 0
 178              		@ frame_needed = 1, uses_anonymous_args = 0
 179 0000 80B5     		push	{r7, lr}
 180              		.cfi_def_cfa_offset 8
 181              		.cfi_offset 7, -8
 182              		.cfi_offset 14, -4
 183 0002 00AF     		add	r7, sp, #0
 184              		.cfi_def_cfa_register 7
 106:main.c        ****     /* Unlock the WDT registers for modification */
 107:main.c        ****     CySysWdtUnlock(); 
 185              		.loc 1 107 0
 186 0004 FFF7FEFF 		bl	CySysWdtUnlock
 108:main.c        ****     /* Setup ISR callback */
 109:main.c        ****     WdtIsr_StartEx(Timer_Interrupt);
 187              		.loc 1 109 0
 188 0008 0E4B     		ldr	r3, .L15
 189 000a 1800     		movs	r0, r3
 190 000c FFF7FEFF 		bl	WdtIsr_StartEx
 110:main.c        ****     /* Write the mode to generate interrupt on match */
 111:main.c        ****     CySysWdtWriteMode(WDT_COUNTER, CY_SYS_WDT_MODE_INT);
 191              		.loc 1 111 0
 192 0010 0121     		movs	r1, #1
 193 0012 0120     		movs	r0, #1
 194 0014 FFF7FEFF 		bl	CySysWdtSetMode
 112:main.c        ****     /* Configure the WDT counter clear on a match setting */
 113:main.c        ****     CySysWdtWriteClearOnMatch(WDT_COUNTER, WDT_COUNTER_ENABLE);
 195              		.loc 1 113 0
 196 0018 0121     		movs	r1, #1
 197 001a 0120     		movs	r0, #1
 198 001c FFF7FEFF 		bl	CySysWdtSetClearOnMatch
 114:main.c        ****     /* Configure the WDT counter match comparison value */
 115:main.c        ****     CySysWdtWriteMatch(WDT_COUNTER, WDT_1SEC);
 199              		.loc 1 115 0
 200 0020 094B     		ldr	r3, .L15+4
 201 0022 1900     		movs	r1, r3
 202 0024 0120     		movs	r0, #1
 203 0026 FFF7FEFF 		bl	CySysWdtSetMatch
 116:main.c        ****     /* Reset WDT counter */
 117:main.c        ****     CySysWdtResetCounters(WDT_COUNTER);
 204              		.loc 1 117 0
 205 002a 0120     		movs	r0, #1
 206 002c FFF7FEFF 		bl	CySysWdtResetCounters
 118:main.c        ****     /* Enable the specified WDT counter */
 119:main.c        ****     CySysWdtEnable(WDT_COUNTER_MASK);
 207              		.loc 1 119 0
 208 0030 8023     		movs	r3, #128
 209 0032 5B00     		lsls	r3, r3, #1
 210 0034 1800     		movs	r0, r3
 211 0036 FFF7FEFF 		bl	CySysWdtEnable
 120:main.c        ****     /* Lock out configuration changes to the Watchdog timer registers */
 121:main.c        ****     CySysWdtLock();    
 212              		.loc 1 121 0
 213 003a FFF7FEFF 		bl	CySysWdtLock
 122:main.c        **** }
 214              		.loc 1 122 0
 215 003e C046     		nop
ARM GAS  C:\Users\Lucia\AppData\Local\Temp\ccAijTzF.s 			page 7


 216 0040 BD46     		mov	sp, r7
 217              		@ sp needed
 218 0042 80BD     		pop	{r7, pc}
 219              	.L16:
 220              		.align	2
 221              	.L15:
 222 0044 00000000 		.word	Timer_Interrupt
 223 0048 FF7F0000 		.word	32767
 224              		.cfi_endproc
 225              	.LFE40:
 226              		.size	WDT_Start, .-WDT_Start
 227              		.section	.rodata
 228              		.align	2
 229              	.LC5:
 230 0000 424C4520 		.ascii	"BLE Heart Rate Sensor Example Project \015\000"
 230      48656172 
 230      74205261 
 230      74652053 
 230      656E736F 
 231              		.align	2
 232              	.LC9:
 233 0028 4379426C 		.ascii	"CyBle_Start API Error: %x \015\012\000"
 233      655F5374 
 233      61727420 
 233      41504920 
 233      4572726F 
 234 0045 000000   		.align	2
 235              	.LC11:
 236 0048 4379426C 		.ascii	"CyBle_GetStackLibraryVersion API Error: 0x%x \015\012"
 236      655F4765 
 236      74537461 
 236      636B4C69 
 236      62726172 
 237 0077 00       		.ascii	"\000"
 238              		.align	2
 239              	.LC13:
 240 0078 53746163 		.ascii	"Stack Version: %d.%d.%d.%d \015\012\000"
 240      6B205665 
 240      7273696F 
 240      6E3A2025 
 240      642E2564 
 241              		.section	.text.main,"ax",%progbits
 242              		.align	2
 243              		.global	main
 244              		.code	16
 245              		.thumb_func
 246              		.type	main, %function
 247              	main:
 248              	.LFB41:
 123:main.c        **** 
 124:main.c        **** 
 125:main.c        **** int main()
 126:main.c        **** {
 249              		.loc 1 126 0
 250              		.cfi_startproc
 251              		@ args = 0, pretend = 0, frame = 8
 252              		@ frame_needed = 1, uses_anonymous_args = 0
ARM GAS  C:\Users\Lucia\AppData\Local\Temp\ccAijTzF.s 			page 8


 253 0000 90B5     		push	{r4, r7, lr}
 254              		.cfi_def_cfa_offset 12
 255              		.cfi_offset 4, -12
 256              		.cfi_offset 7, -8
 257              		.cfi_offset 14, -4
 258 0002 85B0     		sub	sp, sp, #20
 259              		.cfi_def_cfa_offset 32
 260 0004 02AF     		add	r7, sp, #8
 261              		.cfi_def_cfa 7, 24
 127:main.c        ****     CYBLE_STACK_LIB_VERSION_T stackVersion;
 128:main.c        **** 
 129:main.c        ****     CyGlobalIntEnable;
 262              		.loc 1 129 0
 263              		.syntax divided
 264              	@ 129 "main.c" 1
 265 0006 62B6     		CPSIE   i
 266              	@ 0 "" 2
 130:main.c        ****     
 131:main.c        ****     UART_DEB_Start();               /* Start communication component */
 267              		.loc 1 131 0
 268              		.thumb
 269              		.syntax unified
 270 0008 FFF7FEFF 		bl	UART_DEB_Start
 132:main.c        ****     printf("BLE Heart Rate Sensor Example Project \r\n");
 271              		.loc 1 132 0
 272 000c 2D4B     		ldr	r3, .L23
 273 000e 1800     		movs	r0, r3
 274 0010 FFF7FEFF 		bl	puts
 133:main.c        ****     
 134:main.c        ****     Disconnect_LED_Write(LED_OFF);
 275              		.loc 1 134 0
 276 0014 0120     		movs	r0, #1
 277 0016 FFF7FEFF 		bl	Disconnect_LED_Write
 135:main.c        ****     Advertising_LED_Write(LED_OFF);
 278              		.loc 1 135 0
 279 001a 0120     		movs	r0, #1
 280 001c FFF7FEFF 		bl	Advertising_LED_Write
 136:main.c        **** 
 137:main.c        ****     /* Start CYBLE component and register generic event handler */
 138:main.c        ****     apiResult = CyBle_Start(AppCallBack);
 281              		.loc 1 138 0
 282 0020 294B     		ldr	r3, .L23+4
 283 0022 1800     		movs	r0, r3
 284 0024 FFF7FEFF 		bl	CyBle_Start
 285 0028 0300     		movs	r3, r0
 286 002a 1A00     		movs	r2, r3
 287 002c 274B     		ldr	r3, .L23+8
 288 002e 1A80     		strh	r2, [r3]
 139:main.c        ****     if(apiResult != CYBLE_ERROR_OK)
 289              		.loc 1 139 0
 290 0030 264B     		ldr	r3, .L23+8
 291 0032 1B88     		ldrh	r3, [r3]
 292 0034 002B     		cmp	r3, #0
 293 0036 07D0     		beq	.L18
 140:main.c        ****     {
 141:main.c        ****         printf("CyBle_Start API Error: %x \r\n", apiResult);
 294              		.loc 1 141 0
ARM GAS  C:\Users\Lucia\AppData\Local\Temp\ccAijTzF.s 			page 9


 295 0038 244B     		ldr	r3, .L23+8
 296 003a 1B88     		ldrh	r3, [r3]
 297 003c 1A00     		movs	r2, r3
 298 003e 244B     		ldr	r3, .L23+12
 299 0040 1100     		movs	r1, r2
 300 0042 1800     		movs	r0, r3
 301 0044 FFF7FEFF 		bl	printf
 302              	.L18:
 142:main.c        ****     }
 143:main.c        ****     
 144:main.c        ****     apiResult = CyBle_GetStackLibraryVersion(&stackVersion);
 303              		.loc 1 144 0
 304 0048 3B00     		movs	r3, r7
 305 004a 1800     		movs	r0, r3
 306 004c FFF7FEFF 		bl	CyBle_GetStackLibraryVersion
 307 0050 0300     		movs	r3, r0
 308 0052 1A00     		movs	r2, r3
 309 0054 1D4B     		ldr	r3, .L23+8
 310 0056 1A80     		strh	r2, [r3]
 145:main.c        ****     if(apiResult != CYBLE_ERROR_OK)
 311              		.loc 1 145 0
 312 0058 1C4B     		ldr	r3, .L23+8
 313 005a 1B88     		ldrh	r3, [r3]
 314 005c 002B     		cmp	r3, #0
 315 005e 08D0     		beq	.L19
 146:main.c        ****     {
 147:main.c        ****         printf("CyBle_GetStackLibraryVersion API Error: 0x%x \r\n", apiResult);
 316              		.loc 1 147 0
 317 0060 1A4B     		ldr	r3, .L23+8
 318 0062 1B88     		ldrh	r3, [r3]
 319 0064 1A00     		movs	r2, r3
 320 0066 1B4B     		ldr	r3, .L23+16
 321 0068 1100     		movs	r1, r2
 322 006a 1800     		movs	r0, r3
 323 006c FFF7FEFF 		bl	printf
 324 0070 0FE0     		b	.L20
 325              	.L19:
 148:main.c        ****     }
 149:main.c        ****     else
 150:main.c        ****     {
 151:main.c        ****         printf("Stack Version: %d.%d.%d.%d \r\n", stackVersion.majorVersion, 
 326              		.loc 1 151 0
 327 0072 3B00     		movs	r3, r7
 328 0074 1B88     		ldrh	r3, [r3]
 329 0076 1900     		movs	r1, r3
 152:main.c        ****             stackVersion.minorVersion, stackVersion.patch, stackVersion.buildNumber);
 330              		.loc 1 152 0
 331 0078 3B00     		movs	r3, r7
 332 007a 5B88     		ldrh	r3, [r3, #2]
 151:main.c        ****             stackVersion.minorVersion, stackVersion.patch, stackVersion.buildNumber);
 333              		.loc 1 151 0
 334 007c 1A00     		movs	r2, r3
 335              		.loc 1 152 0
 336 007e 3B00     		movs	r3, r7
 337 0080 9B88     		ldrh	r3, [r3, #4]
 151:main.c        ****             stackVersion.minorVersion, stackVersion.patch, stackVersion.buildNumber);
 338              		.loc 1 151 0
ARM GAS  C:\Users\Lucia\AppData\Local\Temp\ccAijTzF.s 			page 10


 339 0082 1C00     		movs	r4, r3
 340              		.loc 1 152 0
 341 0084 3B00     		movs	r3, r7
 342 0086 DB88     		ldrh	r3, [r3, #6]
 151:main.c        ****             stackVersion.minorVersion, stackVersion.patch, stackVersion.buildNumber);
 343              		.loc 1 151 0
 344 0088 1348     		ldr	r0, .L23+20
 345 008a 0093     		str	r3, [sp]
 346 008c 2300     		movs	r3, r4
 347 008e FFF7FEFF 		bl	printf
 348              	.L20:
 153:main.c        ****     }
 154:main.c        ****     
 155:main.c        ****     /* Services initialization */
 156:main.c        ****     HrsInit();
 349              		.loc 1 156 0
 350 0092 FFF7FEFF 		bl	HrsInit
 157:main.c        ****     
 158:main.c        ****     WDT_Start();
 351              		.loc 1 158 0
 352 0096 FFF7FEFF 		bl	WDT_Start
 353              	.L22:
 159:main.c        ****     
 160:main.c        ****     /***************************************************************************
 161:main.c        ****     * Main polling loop
 162:main.c        ****     ***************************************************************************/
 163:main.c        ****     while(1)
 164:main.c        ****     {        
 165:main.c        ****         /***********************************************************************
 166:main.c        ****         * Wait for connection established with Central device
 167:main.c        ****         ***********************************************************************/
 168:main.c        ****         if(CyBle_GetState() == CYBLE_STATE_CONNECTED)
 354              		.loc 1 168 0
 355 009a 104B     		ldr	r3, .L23+24
 356 009c 1B78     		ldrb	r3, [r3]
 357 009e 022B     		cmp	r3, #2
 358 00a0 0CD1     		bne	.L21
 169:main.c        ****         {
 170:main.c        ****             /*******************************************************************
 171:main.c        ****             *  Periodically simulate heart rate and measure a battery level 
 172:main.c        ****             *  and send results to the Client
 173:main.c        ****             *******************************************************************/        
 174:main.c        ****             if(mainTimer != 0u)
 359              		.loc 1 174 0
 360 00a2 0F4B     		ldr	r3, .L23+28
 361 00a4 1B68     		ldr	r3, [r3]
 362 00a6 002B     		cmp	r3, #0
 363 00a8 08D0     		beq	.L21
 175:main.c        ****             {
 176:main.c        ****                 mainTimer = 0u;
 364              		.loc 1 176 0
 365 00aa 0D4B     		ldr	r3, .L23+28
 366 00ac 0022     		movs	r2, #0
 367 00ae 1A60     		str	r2, [r3]
 177:main.c        ****                 if(heartRateSimulation == ENABLED)
 368              		.loc 1 177 0
 369 00b0 0C4B     		ldr	r3, .L23+32
ARM GAS  C:\Users\Lucia\AppData\Local\Temp\ccAijTzF.s 			page 11


 370 00b2 1B78     		ldrb	r3, [r3]
 371 00b4 012B     		cmp	r3, #1
 372 00b6 01D1     		bne	.L21
 178:main.c        ****                 {
 179:main.c        ****                     SimulateHeartRate();
 373              		.loc 1 179 0
 374 00b8 FFF7FEFF 		bl	SimulateHeartRate
 375              	.L21:
 180:main.c        ****                 }
 181:main.c        ****             }
 182:main.c        ****         }
 183:main.c        ****         
 184:main.c        ****         /*******************************************************************
 185:main.c        ****         *  Process all pending BLE events in the stack
 186:main.c        ****         *******************************************************************/
 187:main.c        ****         CyBle_ProcessEvents();
 376              		.loc 1 187 0
 377 00bc FFF7FEFF 		bl	CyBle_ProcessEvents
 188:main.c        ****     }
 378              		.loc 1 188 0
 379 00c0 EBE7     		b	.L22
 380              	.L24:
 381 00c2 C046     		.align	2
 382              	.L23:
 383 00c4 00000000 		.word	.LC5
 384 00c8 00000000 		.word	AppCallBack
 385 00cc 00000000 		.word	apiResult
 386 00d0 28000000 		.word	.LC9
 387 00d4 48000000 		.word	.LC11
 388 00d8 78000000 		.word	.LC13
 389 00dc 00000000 		.word	cyBle_state
 390 00e0 00000000 		.word	mainTimer
 391 00e4 00000000 		.word	heartRateSimulation
 392              		.cfi_endproc
 393              	.LFE41:
 394              		.size	main, .-main
 395              		.data
 396              		.type	led.8355, %object
 397              		.size	led.8355, 1
 398              	led.8355:
 399 0000 01       		.byte	1
 400              		.text
 401              	.Letext0:
 402              		.file 2 "Generated_Source\\PSoC4/cytypes.h"
 403              		.file 3 "Generated_Source\\PSoC4/CYBLE_Stack.h"
 404              		.file 4 "Generated_Source\\PSoC4/CYBLE_hrs.h"
 405              		.file 5 "Generated_Source\\PSoC4/CYBLE_dis.h"
 406              		.file 6 "Generated_Source\\PSoC4/CYBLE_eventHandler.h"
 407              		.file 7 "hrss.h"