ARM GAS  C:\Users\Luci\AppData\Local\Temp\ccGSFWvZ.s 			page 1


   1              		.cpu cortex-m0
   2              		.fpu softvfp
   3              		.eabi_attribute 20, 1
   4              		.eabi_attribute 21, 1
   5              		.eabi_attribute 23, 3
   6              		.eabi_attribute 24, 1
   7              		.eabi_attribute 25, 1
   8              		.eabi_attribute 26, 1
   9              		.eabi_attribute 30, 1
  10              		.eabi_attribute 34, 0
  11              		.eabi_attribute 18, 4
  12              		.code	16
  13              		.file	"ADC.c"
  14              		.text
  15              	.Ltext0:
  16              		.cfi_sections	.debug_frame
  17              		.section	.text.ADC_Init,"ax",%progbits
  18              		.align	2
  19              		.global	ADC_Init
  20              		.code	16
  21              		.thumb_func
  22              		.type	ADC_Init, %function
  23              	ADC_Init:
  24              	.LFB3:
  25              		.file 1 ".\\Generated_Source\\PSoC4\\ADC.c"
   1:.\Generated_Source\PSoC4/ADC.c **** /*******************************************************************************
   2:.\Generated_Source\PSoC4/ADC.c **** * File Name: ADC.c
   3:.\Generated_Source\PSoC4/ADC.c **** * Version 2.10
   4:.\Generated_Source\PSoC4/ADC.c **** *
   5:.\Generated_Source\PSoC4/ADC.c **** * Description:
   6:.\Generated_Source\PSoC4/ADC.c **** *  This file provides the source code to the API for the Sequencing Successive
   7:.\Generated_Source\PSoC4/ADC.c **** *  Approximation ADC Component Component.
   8:.\Generated_Source\PSoC4/ADC.c **** *
   9:.\Generated_Source\PSoC4/ADC.c **** * Note:
  10:.\Generated_Source\PSoC4/ADC.c **** *
  11:.\Generated_Source\PSoC4/ADC.c **** ********************************************************************************
  12:.\Generated_Source\PSoC4/ADC.c **** * Copyright 2008-2015, Cypress Semiconductor Corporation.  All rights reserved.
  13:.\Generated_Source\PSoC4/ADC.c **** * You may use this file only in accordance with the license, terms, conditions,
  14:.\Generated_Source\PSoC4/ADC.c **** * disclaimers, and limitations in the end user license agreement accompanying
  15:.\Generated_Source\PSoC4/ADC.c **** * the software package with which this file was provided.
  16:.\Generated_Source\PSoC4/ADC.c **** *******************************************************************************/
  17:.\Generated_Source\PSoC4/ADC.c **** 
  18:.\Generated_Source\PSoC4/ADC.c **** #include "ADC.h"
  19:.\Generated_Source\PSoC4/ADC.c **** 
  20:.\Generated_Source\PSoC4/ADC.c **** 
  21:.\Generated_Source\PSoC4/ADC.c **** /***************************************
  22:.\Generated_Source\PSoC4/ADC.c **** * Global data allocation
  23:.\Generated_Source\PSoC4/ADC.c **** ***************************************/
  24:.\Generated_Source\PSoC4/ADC.c **** uint8 ADC_initVar = 0u;
  25:.\Generated_Source\PSoC4/ADC.c **** volatile int16 ADC_offset[ADC_TOTAL_CHANNELS_NUM];
  26:.\Generated_Source\PSoC4/ADC.c **** volatile int32 ADC_countsPer10Volt[ADC_TOTAL_CHANNELS_NUM];   /* Gain compensation */
  27:.\Generated_Source\PSoC4/ADC.c **** 
  28:.\Generated_Source\PSoC4/ADC.c **** 
  29:.\Generated_Source\PSoC4/ADC.c **** /***************************************
  30:.\Generated_Source\PSoC4/ADC.c **** * Local data allocation
  31:.\Generated_Source\PSoC4/ADC.c **** ***************************************/
  32:.\Generated_Source\PSoC4/ADC.c **** /* Channels configuration generated by customiser */
ARM GAS  C:\Users\Luci\AppData\Local\Temp\ccGSFWvZ.s 			page 2


  33:.\Generated_Source\PSoC4/ADC.c **** static const uint32 CYCODE ADC_channelsConfig[] = { 0x00000400u, 0x00000500u, 0x00001400u, 0x000014
  34:.\Generated_Source\PSoC4/ADC.c **** 
  35:.\Generated_Source\PSoC4/ADC.c **** 
  36:.\Generated_Source\PSoC4/ADC.c **** /*******************************************************************************
  37:.\Generated_Source\PSoC4/ADC.c **** * Function Name: ADC_Start
  38:.\Generated_Source\PSoC4/ADC.c **** ********************************************************************************
  39:.\Generated_Source\PSoC4/ADC.c **** *
  40:.\Generated_Source\PSoC4/ADC.c **** * Summary:
  41:.\Generated_Source\PSoC4/ADC.c **** *  Performs all required initialization for this component
  42:.\Generated_Source\PSoC4/ADC.c **** *  and enables the power. The power will be set to the appropriate
  43:.\Generated_Source\PSoC4/ADC.c **** *  power based on the clock frequency.
  44:.\Generated_Source\PSoC4/ADC.c **** *
  45:.\Generated_Source\PSoC4/ADC.c **** * Parameters:
  46:.\Generated_Source\PSoC4/ADC.c **** *  None.
  47:.\Generated_Source\PSoC4/ADC.c **** *
  48:.\Generated_Source\PSoC4/ADC.c **** * Return:
  49:.\Generated_Source\PSoC4/ADC.c **** *  None.
  50:.\Generated_Source\PSoC4/ADC.c **** *
  51:.\Generated_Source\PSoC4/ADC.c **** * Global variables:
  52:.\Generated_Source\PSoC4/ADC.c **** *  The ADC_initVar variable is used to indicate when/if initial
  53:.\Generated_Source\PSoC4/ADC.c **** *  configuration of this component has happened. The variable is initialized to
  54:.\Generated_Source\PSoC4/ADC.c **** *  zero and set to 1 the first time ADC_Start() is called. This allows for
  55:.\Generated_Source\PSoC4/ADC.c **** *  component Re-Start without re-initialization in all subsequent calls to the
  56:.\Generated_Source\PSoC4/ADC.c **** *  ADC_Start() routine.
  57:.\Generated_Source\PSoC4/ADC.c **** *  If re-initialization of the component is required the variable should be set
  58:.\Generated_Source\PSoC4/ADC.c **** *  to zero before call of ADC_Start() routine, or the user may call
  59:.\Generated_Source\PSoC4/ADC.c **** *  ADC_Init() and ADC_Enable() as done in the
  60:.\Generated_Source\PSoC4/ADC.c **** *  ADC_Start() routine.
  61:.\Generated_Source\PSoC4/ADC.c **** *
  62:.\Generated_Source\PSoC4/ADC.c **** *******************************************************************************/
  63:.\Generated_Source\PSoC4/ADC.c **** void ADC_Start(void)
  64:.\Generated_Source\PSoC4/ADC.c **** {
  65:.\Generated_Source\PSoC4/ADC.c ****     /* If not Initialized then initialize all required hardware and software */
  66:.\Generated_Source\PSoC4/ADC.c ****     if(ADC_initVar == 0u)
  67:.\Generated_Source\PSoC4/ADC.c ****     {
  68:.\Generated_Source\PSoC4/ADC.c ****         ADC_Init();
  69:.\Generated_Source\PSoC4/ADC.c ****         ADC_initVar = 1u;
  70:.\Generated_Source\PSoC4/ADC.c ****     }
  71:.\Generated_Source\PSoC4/ADC.c ****     ADC_Enable();
  72:.\Generated_Source\PSoC4/ADC.c **** }
  73:.\Generated_Source\PSoC4/ADC.c **** 
  74:.\Generated_Source\PSoC4/ADC.c **** 
  75:.\Generated_Source\PSoC4/ADC.c **** /*******************************************************************************
  76:.\Generated_Source\PSoC4/ADC.c **** * Function Name: ADC_Init
  77:.\Generated_Source\PSoC4/ADC.c **** ********************************************************************************
  78:.\Generated_Source\PSoC4/ADC.c **** *
  79:.\Generated_Source\PSoC4/ADC.c **** * Summary:
  80:.\Generated_Source\PSoC4/ADC.c **** *  Initialize component's parameters to the parameters set by user in the
  81:.\Generated_Source\PSoC4/ADC.c **** *  customizer of the component placed onto schematic. Usually called in
  82:.\Generated_Source\PSoC4/ADC.c **** *  ADC_Start().
  83:.\Generated_Source\PSoC4/ADC.c **** *
  84:.\Generated_Source\PSoC4/ADC.c **** * Parameters:
  85:.\Generated_Source\PSoC4/ADC.c **** *  None.
  86:.\Generated_Source\PSoC4/ADC.c **** *
  87:.\Generated_Source\PSoC4/ADC.c **** * Return:
  88:.\Generated_Source\PSoC4/ADC.c **** *  None.
  89:.\Generated_Source\PSoC4/ADC.c **** *
ARM GAS  C:\Users\Luci\AppData\Local\Temp\ccGSFWvZ.s 			page 3


  90:.\Generated_Source\PSoC4/ADC.c **** * Global variables:
  91:.\Generated_Source\PSoC4/ADC.c **** *  The ADC_offset variable is initialized.
  92:.\Generated_Source\PSoC4/ADC.c **** *
  93:.\Generated_Source\PSoC4/ADC.c **** *******************************************************************************/
  94:.\Generated_Source\PSoC4/ADC.c **** void ADC_Init(void)
  95:.\Generated_Source\PSoC4/ADC.c **** {
  26              		.loc 1 95 0
  27              		.cfi_startproc
  28 0000 10B5     		push	{r4, lr}
  29              		.cfi_def_cfa_offset 8
  30              		.cfi_offset 4, -8
  31              		.cfi_offset 14, -4
  96:.\Generated_Source\PSoC4/ADC.c ****     uint32 chNum;
  97:.\Generated_Source\PSoC4/ADC.c ****     uint32 tmpRegVal;
  98:.\Generated_Source\PSoC4/ADC.c ****     int32 counts;
  99:.\Generated_Source\PSoC4/ADC.c **** 
 100:.\Generated_Source\PSoC4/ADC.c ****     #if(ADC_TOTAL_CHANNELS_NUM > 1u)
 101:.\Generated_Source\PSoC4/ADC.c ****         static const uint8 CYCODE ADC_InputsPlacement[] =
 102:.\Generated_Source\PSoC4/ADC.c ****         {
 103:.\Generated_Source\PSoC4/ADC.c ****             (uint8)(ADC_cy_psoc4_sarmux_8__CH_0_PORT << 4u) |
 104:.\Generated_Source\PSoC4/ADC.c ****             (uint8)ADC_cy_psoc4_sarmux_8__CH_0_PIN
 105:.\Generated_Source\PSoC4/ADC.c ****             ,(uint8)(ADC_cy_psoc4_sarmux_8__CH_1_PORT << 4u) |
 106:.\Generated_Source\PSoC4/ADC.c ****              (uint8)ADC_cy_psoc4_sarmux_8__CH_1_PIN
 107:.\Generated_Source\PSoC4/ADC.c ****             #if(ADC_TOTAL_CHANNELS_NUM > 2u)
 108:.\Generated_Source\PSoC4/ADC.c ****                 ,(uint8)(ADC_cy_psoc4_sarmux_8__CH_2_PORT << 4u) |
 109:.\Generated_Source\PSoC4/ADC.c ****                  (uint8)ADC_cy_psoc4_sarmux_8__CH_2_PIN
 110:.\Generated_Source\PSoC4/ADC.c ****             #endif /* End ADC_TOTAL_CHANNELS_NUM > 2u */
 111:.\Generated_Source\PSoC4/ADC.c ****             #if(ADC_TOTAL_CHANNELS_NUM > 3u)
 112:.\Generated_Source\PSoC4/ADC.c ****                 ,(uint8)(ADC_cy_psoc4_sarmux_8__CH_3_PORT << 4u) |
 113:.\Generated_Source\PSoC4/ADC.c ****                  (uint8)ADC_cy_psoc4_sarmux_8__CH_3_PIN
 114:.\Generated_Source\PSoC4/ADC.c ****             #endif /* End ADC_TOTAL_CHANNELS_NUM > 3u */
 115:.\Generated_Source\PSoC4/ADC.c ****             #if(ADC_TOTAL_CHANNELS_NUM > 4u)
 116:.\Generated_Source\PSoC4/ADC.c ****                 ,(uint8)(ADC_cy_psoc4_sarmux_8__CH_4_PORT << 4u) |
 117:.\Generated_Source\PSoC4/ADC.c ****                  (uint8)ADC_cy_psoc4_sarmux_8__CH_4_PIN
 118:.\Generated_Source\PSoC4/ADC.c ****             #endif /* End ADC_TOTAL_CHANNELS_NUM > 4u */
 119:.\Generated_Source\PSoC4/ADC.c ****             #if(ADC_TOTAL_CHANNELS_NUM > 5u)
 120:.\Generated_Source\PSoC4/ADC.c ****                 ,(uint8)(ADC_cy_psoc4_sarmux_8__CH_5_PORT << 4u) |
 121:.\Generated_Source\PSoC4/ADC.c ****                  (uint8)ADC_cy_psoc4_sarmux_8__CH_5_PIN
 122:.\Generated_Source\PSoC4/ADC.c ****             #endif /* End ADC_TOTAL_CHANNELS_NUM > 5u */
 123:.\Generated_Source\PSoC4/ADC.c ****             #if(ADC_TOTAL_CHANNELS_NUM > 6u)
 124:.\Generated_Source\PSoC4/ADC.c ****                 ,(uint8)(ADC_cy_psoc4_sarmux_8__CH_6_PORT << 4u) |
 125:.\Generated_Source\PSoC4/ADC.c ****                  (uint8)ADC_cy_psoc4_sarmux_8__CH_6_PIN
 126:.\Generated_Source\PSoC4/ADC.c ****             #endif /* End ADC_TOTAL_CHANNELS_NUM > 6u */
 127:.\Generated_Source\PSoC4/ADC.c ****             #if(ADC_TOTAL_CHANNELS_NUM > 7u)
 128:.\Generated_Source\PSoC4/ADC.c ****                 ,(uint8)(ADC_cy_psoc4_sarmux_8__CH_7_PORT << 4u) |
 129:.\Generated_Source\PSoC4/ADC.c ****                  (uint8)ADC_cy_psoc4_sarmux_8__CH_7_PIN
 130:.\Generated_Source\PSoC4/ADC.c ****             #endif /* End ADC_TOTAL_CHANNELS_NUM > 7u */
 131:.\Generated_Source\PSoC4/ADC.c ****             #if(ADC_TOTAL_CHANNELS_NUM > 8u)
 132:.\Generated_Source\PSoC4/ADC.c ****                 ,(uint8)(ADC_cy_psoc4_sarmux_8__CH_8_PORT << 4u) |
 133:.\Generated_Source\PSoC4/ADC.c ****                  (uint8)ADC_cy_psoc4_sarmux_8__CH_8_PIN
 134:.\Generated_Source\PSoC4/ADC.c ****             #endif /* End ADC_TOTAL_CHANNELS_NUM > 8u */
 135:.\Generated_Source\PSoC4/ADC.c ****         };
 136:.\Generated_Source\PSoC4/ADC.c ****     #endif /* End ADC_TOTAL_CHANNELS_NUM > 1u */
 137:.\Generated_Source\PSoC4/ADC.c **** 
 138:.\Generated_Source\PSoC4/ADC.c ****     #if(ADC_IRQ_REMOVE == 0u)
 139:.\Generated_Source\PSoC4/ADC.c ****         /* Start and set interrupt vector */
 140:.\Generated_Source\PSoC4/ADC.c ****         CyIntSetPriority(ADC_INTC_NUMBER, ADC_INTC_PRIOR_NUMBER);
ARM GAS  C:\Users\Luci\AppData\Local\Temp\ccGSFWvZ.s 			page 4


  32              		.loc 1 140 0
  33 0002 0F20     		mov	r0, #15
  34 0004 0321     		mov	r1, #3
  35 0006 FFF7FEFF 		bl	CyIntSetPriority
  36              	.LVL0:
 141:.\Generated_Source\PSoC4/ADC.c ****         (void)CyIntSetVector(ADC_INTC_NUMBER, &ADC_ISR);
  37              		.loc 1 141 0
  38 000a 0F20     		mov	r0, #15
  39 000c 4C49     		ldr	r1, .L14
  40 000e FFF7FEFF 		bl	CyIntSetVector
  41              	.LVL1:
 142:.\Generated_Source\PSoC4/ADC.c ****     #endif   /* End ADC_IRQ_REMOVE */
 143:.\Generated_Source\PSoC4/ADC.c **** 
 144:.\Generated_Source\PSoC4/ADC.c ****     /* Init SAR and MUX registers */
 145:.\Generated_Source\PSoC4/ADC.c ****     ADC_SAR_CHAN_EN_REG = ADC_DEFAULT_EN_CHANNELS;
  42              		.loc 1 145 0
  43 0012 0F22     		mov	r2, #15
  44 0014 4B4B     		ldr	r3, .L14+4
  45 0016 1A60     		str	r2, [r3]
 146:.\Generated_Source\PSoC4/ADC.c ****     ADC_SAR_CTRL_REG |= ADC_DEFAULT_CTRL_REG_CFG | 
 147:.\Generated_Source\PSoC4/ADC.c ****         /* Enable the SAR internal pump when global pump is enabled */
 148:.\Generated_Source\PSoC4/ADC.c ****         (((ADC_PUMP_CTRL_REG & ADC_PUMP_CTRL_ENABLED) != 0u) ? 
  46              		.loc 1 148 0
  47 0018 4B4B     		ldr	r3, .L14+8
  48 001a 1B68     		ldr	r3, [r3]
 146:.\Generated_Source\PSoC4/ADC.c ****     ADC_SAR_CTRL_REG |= ADC_DEFAULT_CTRL_REG_CFG | 
  49              		.loc 1 146 0
  50 001c 002B     		cmp	r3, #0
  51 001e 01DA     		bge	.L12
  52 0020 4A49     		ldr	r1, .L14+12
  53 0022 00E0     		b	.L2
  54              	.L12:
  55 0024 4A49     		ldr	r1, .L14+16
  56              	.L2:
 146:.\Generated_Source\PSoC4/ADC.c ****     ADC_SAR_CTRL_REG |= ADC_DEFAULT_CTRL_REG_CFG | 
  57              		.loc 1 146 0 is_stmt 0 discriminator 4
  58 0026 4B4A     		ldr	r2, .L14+20
  59 0028 1368     		ldr	r3, [r2]
  60 002a 0B43     		orr	r3, r1
  61 002c 1360     		str	r3, [r2]
 149:.\Generated_Source\PSoC4/ADC.c ****         ADC_BOOSTPUMP_EN : 0u);
 150:.\Generated_Source\PSoC4/ADC.c ****     ADC_SAR_SAMPLE_CTRL_REG = ADC_DEFAULT_SAMPLE_CTRL_REG_CFG;
  62              		.loc 1 150 0 is_stmt 1 discriminator 4
  63 002e 4A4A     		ldr	r2, .L14+24
  64 0030 4A4B     		ldr	r3, .L14+28
  65 0032 1A60     		str	r2, [r3]
 151:.\Generated_Source\PSoC4/ADC.c ****     ADC_SAR_RANGE_THRES_REG = ADC_DEFAULT_RANGE_THRES_REG_CFG;
  66              		.loc 1 151 0 discriminator 4
  67 0034 4A4A     		ldr	r2, .L14+32
  68 0036 4B4B     		ldr	r3, .L14+36
  69 0038 1A60     		str	r2, [r3]
 152:.\Generated_Source\PSoC4/ADC.c ****     ADC_SAR_RANGE_COND_REG  = ADC_COMPARE_MODE;
  70              		.loc 1 152 0 discriminator 4
  71 003a 0023     		mov	r3, #0
  72 003c 4A4A     		ldr	r2, .L14+40
  73 003e 1360     		str	r3, [r2]
 153:.\Generated_Source\PSoC4/ADC.c ****     ADC_SAR_SAMPLE_TIME01_REG = ADC_DEFAULT_SAMPLE_TIME01_REG_CFG;
ARM GAS  C:\Users\Luci\AppData\Local\Temp\ccGSFWvZ.s 			page 5


  74              		.loc 1 153 0 discriminator 4
  75 0040 4A49     		ldr	r1, .L14+44
  76 0042 4B4A     		ldr	r2, .L14+48
  77 0044 1160     		str	r1, [r2]
 154:.\Generated_Source\PSoC4/ADC.c ****     ADC_SAR_SAMPLE_TIME23_REG = ADC_DEFAULT_SAMPLE_TIME23_REG_CFG;
  78              		.loc 1 154 0 discriminator 4
  79 0046 4B49     		ldr	r1, .L14+52
  80 0048 4B4A     		ldr	r2, .L14+56
  81 004a 1160     		str	r1, [r2]
 155:.\Generated_Source\PSoC4/ADC.c ****     
 156:.\Generated_Source\PSoC4/ADC.c ****     /* Connect Vm to VSSA when even one channel is single-ended or multiple channels configured */
 157:.\Generated_Source\PSoC4/ADC.c ****     #if(ADC_DEFAULT_MUX_SWITCH0 != 0u)
 158:.\Generated_Source\PSoC4/ADC.c ****         ADC_MUX_SWITCH0_REG |= ADC_DEFAULT_MUX_SWITCH0;
 159:.\Generated_Source\PSoC4/ADC.c ****         /* Set MUX_HW_CTRL_VSSA in MUX_SWITCH_HW_CTRL when multiple channels enabled */
 160:.\Generated_Source\PSoC4/ADC.c ****         #if(ADC_TOTAL_CHANNELS_NUM > 1u)
 161:.\Generated_Source\PSoC4/ADC.c ****             ADC_MUX_SWITCH_HW_CTRL_REG |= ADC_DEFAULT_MUX_SWITCH0;
 162:.\Generated_Source\PSoC4/ADC.c ****         #endif /* ADC_TOTAL_CHANNELS_NUM > 1u */
 163:.\Generated_Source\PSoC4/ADC.c ****     #endif /*ADC_CHANNELS_MODE !=0 */
 164:.\Generated_Source\PSoC4/ADC.c **** 
 165:.\Generated_Source\PSoC4/ADC.c ****     ADC_SAR_SATURATE_INTR_MASK_REG = 0u;
  82              		.loc 1 165 0 discriminator 4
  83 004c 4B4A     		ldr	r2, .L14+60
  84 004e 1360     		str	r3, [r2]
 166:.\Generated_Source\PSoC4/ADC.c ****     ADC_SAR_RANGE_INTR_MASK_REG = 0u;
  85              		.loc 1 166 0 discriminator 4
  86 0050 4B4A     		ldr	r2, .L14+64
  87 0052 1360     		str	r3, [r2]
 167:.\Generated_Source\PSoC4/ADC.c ****     ADC_SAR_INTR_MASK_REG = ADC_SAR_INTR_MASK;
  88              		.loc 1 167 0 discriminator 4
  89 0054 1122     		mov	r2, #17
  90 0056 4B4B     		ldr	r3, .L14+68
  91 0058 1A60     		str	r2, [r3]
 168:.\Generated_Source\PSoC4/ADC.c **** 
 169:.\Generated_Source\PSoC4/ADC.c ****     #if(ADC_CY_SAR_IP_VER == ADC_CY_SAR_IP_PSOC4)
 170:.\Generated_Source\PSoC4/ADC.c ****         ADC_ANA_TRIM_REG = ADC_TRIM_COEF;
 171:.\Generated_Source\PSoC4/ADC.c ****     #endif /* (ADC_CY_SAR_IP_VER == ADC_CY_SAR_IP_PSOC4) */
 172:.\Generated_Source\PSoC4/ADC.c **** 
 173:.\Generated_Source\PSoC4/ADC.c ****     /* Read and modify default configuration based on characterization */
 174:.\Generated_Source\PSoC4/ADC.c ****     tmpRegVal = ADC_SAR_DFT_CTRL_REG;
  92              		.loc 1 174 0 discriminator 4
  93 005a 4B49     		ldr	r1, .L14+72
  94 005c 0A68     		ldr	r2, [r1]
  95              	.LVL2:
 175:.\Generated_Source\PSoC4/ADC.c ****     tmpRegVal &= (uint32)~ADC_DCEN;
  96              		.loc 1 175 0 discriminator 4
  97 005e 4B4B     		ldr	r3, .L14+76
  98 0060 1340     		and	r3, r2
  99              	.LVL3:
 176:.\Generated_Source\PSoC4/ADC.c ****     
 177:.\Generated_Source\PSoC4/ADC.c ****     #if(ADC_CY_SAR_IP_VER == ADC_CY_SAR_IP_PSOC4)
 178:.\Generated_Source\PSoC4/ADC.c ****         #if(ADC_NOMINAL_CLOCK_FREQ > (ADC_MAX_FREQUENCY / 2))
 179:.\Generated_Source\PSoC4/ADC.c ****             tmpRegVal |= ADC_SEL_CSEL_DFT_CHAR;
 180:.\Generated_Source\PSoC4/ADC.c ****         #else  /* clock speed < 9 Mhz */
 181:.\Generated_Source\PSoC4/ADC.c ****             tmpRegVal |= ADC_DLY_INC;
 182:.\Generated_Source\PSoC4/ADC.c ****         #endif /* clock speed > 9 Mhz */
 183:.\Generated_Source\PSoC4/ADC.c ****     #else
 184:.\Generated_Source\PSoC4/ADC.c ****         #if ((ADC_DEFAULT_VREF_SEL == ADC__INTERNAL1024) || \
ARM GAS  C:\Users\Luci\AppData\Local\Temp\ccGSFWvZ.s 			page 6


 185:.\Generated_Source\PSoC4/ADC.c ****              (ADC_DEFAULT_VREF_SEL == ADC__INTERNALVREF))
 186:.\Generated_Source\PSoC4/ADC.c ****             tmpRegVal |= ADC_DLY_INC;
 100              		.loc 1 186 0 discriminator 4
 101 0062 0122     		mov	r2, #1
 102 0064 1343     		orr	r3, r2
 103              	.LVL4:
 187:.\Generated_Source\PSoC4/ADC.c ****         #else
 188:.\Generated_Source\PSoC4/ADC.c ****             tmpRegVal |= ADC_DCEN;
 189:.\Generated_Source\PSoC4/ADC.c ****             tmpRegVal &= (uint32)~ADC_DLY_INC;
 190:.\Generated_Source\PSoC4/ADC.c ****         #endif /* ((ADC_DEFAULT_VREF_SEL == ADC__INTERNAL1024) || \
 191:.\Generated_Source\PSoC4/ADC.c ****                    (ADC_DEFAULT_VREF_SEL == ADC__INTERNALVREF)) */
 192:.\Generated_Source\PSoC4/ADC.c ****     #endif /* (ADC_CY_SAR_IP_VER == ADC_CY_SAR_IP_PSOC4) */
 193:.\Generated_Source\PSoC4/ADC.c ****     
 194:.\Generated_Source\PSoC4/ADC.c ****     ADC_SAR_DFT_CTRL_REG = tmpRegVal;
 104              		.loc 1 194 0 discriminator 4
 105 0066 0B60     		str	r3, [r1]
 106              	.LVL5:
 195:.\Generated_Source\PSoC4/ADC.c **** 
 196:.\Generated_Source\PSoC4/ADC.c ****     #if(ADC_MAX_RESOLUTION != ADC_RESOLUTION_12)
 197:.\Generated_Source\PSoC4/ADC.c ****         ADC_WOUNDING_REG = ADC_ALT_WOUNDING;
 198:.\Generated_Source\PSoC4/ADC.c ****     #endif /* ADC_MAX_RESOLUTION != ADC_RESOLUTION_12 */
 199:.\Generated_Source\PSoC4/ADC.c **** 
 200:.\Generated_Source\PSoC4/ADC.c ****     for(chNum = 0u; chNum < ADC_TOTAL_CHANNELS_NUM; chNum++)
 107              		.loc 1 200 0 discriminator 4
 108 0068 0022     		mov	r2, #0
 109 006a 66E0     		b	.L3
 110              	.LVL6:
 111              	.L11:
 201:.\Generated_Source\PSoC4/ADC.c ****     {
 202:.\Generated_Source\PSoC4/ADC.c ****         tmpRegVal = (ADC_channelsConfig[chNum] & ADC_CHANNEL_CONFIG_MASK);
 112              		.loc 1 202 0
 113 006c 4849     		ldr	r1, .L14+80
 114 006e 9300     		lsl	r3, r2, #2
 115 0070 5858     		ldr	r0, [r3, r1]
 116 0072 DC23     		mov	r3, #220
 117 0074 9B01     		lsl	r3, r3, #6
 118 0076 0340     		and	r3, r0
 119              	.LVL7:
 203:.\Generated_Source\PSoC4/ADC.c ****         #if(ADC_TOTAL_CHANNELS_NUM > 1u)
 204:.\Generated_Source\PSoC4/ADC.c ****             tmpRegVal |= ADC_InputsPlacement[chNum];
 120              		.loc 1 204 0
 121 0078 8918     		add	r1, r1, r2
 122 007a 097D     		ldrb	r1, [r1, #20]
 123 007c 0B43     		orr	r3, r1
 124              	.LVL8:
 205:.\Generated_Source\PSoC4/ADC.c ****         #endif /* End ADC_TOTAL_CHANNELS_NUM > 1u */
 206:.\Generated_Source\PSoC4/ADC.c ****         
 207:.\Generated_Source\PSoC4/ADC.c ****         
 208:.\Generated_Source\PSoC4/ADC.c ****         /* When the part is limited to 10-bit then the SUB_RESOLUTION bit
 209:.\Generated_Source\PSoC4/ADC.c ****         *  will be ignored and the RESOLUTION bit selects between 10-bit
 210:.\Generated_Source\PSoC4/ADC.c ****         *  (0) and 8-bit (1) resolution.
 211:.\Generated_Source\PSoC4/ADC.c ****         */
 212:.\Generated_Source\PSoC4/ADC.c ****         #if((ADC_MAX_RESOLUTION != ADC_RESOLUTION_12) && \
 213:.\Generated_Source\PSoC4/ADC.c ****             (ADC_ALT_WOUNDING == ADC_WOUNDING_10BIT))
 214:.\Generated_Source\PSoC4/ADC.c ****             tmpRegVal &= (uint32)(~ADC_ALT_RESOLUTION_ON);
 215:.\Generated_Source\PSoC4/ADC.c ****         #endif /* ADC_MAX_RESOLUTION != ADC_RESOLUTION_12 */
 216:.\Generated_Source\PSoC4/ADC.c **** 
ARM GAS  C:\Users\Luci\AppData\Local\Temp\ccGSFWvZ.s 			page 7


 217:.\Generated_Source\PSoC4/ADC.c ****         #if(ADC_INJ_CHANNEL_ENABLED)
 218:.\Generated_Source\PSoC4/ADC.c ****         if(chNum < ADC_SEQUENCED_CHANNELS_NUM)
 125              		.loc 1 218 0
 126 007e 032A     		cmp	r2, #3
 127 0080 1ED8     		bhi	.L4
 219:.\Generated_Source\PSoC4/ADC.c ****         #endif /* ADC_INJ_CHANNEL_ENABLED */
 220:.\Generated_Source\PSoC4/ADC.c ****         {
 221:.\Generated_Source\PSoC4/ADC.c ****             CY_SET_REG32((reg32 *)(ADC_SAR_CHAN_CONFIG_IND + (uint32)(chNum << 2)), tmpRegVal);
 128              		.loc 1 221 0
 129 0082 9100     		lsl	r1, r2, #2
 130 0084 434C     		ldr	r4, .L14+84
 131 0086 A446     		mov	ip, r4
 132 0088 6144     		add	r1, r1, ip
 133 008a 0B60     		str	r3, [r1]
 222:.\Generated_Source\PSoC4/ADC.c **** 
 223:.\Generated_Source\PSoC4/ADC.c ****             if((ADC_channelsConfig[chNum] & ADC_IS_SATURATE_EN_MASK) != 0u)
 134              		.loc 1 223 0
 135 008c C307     		lsl	r3, r0, #31
 136 008e 08D5     		bpl	.L5
 137              	.LVL9:
 224:.\Generated_Source\PSoC4/ADC.c ****             {
 225:.\Generated_Source\PSoC4/ADC.c ****                 ADC_SAR_SATURATE_INTR_MASK_REG |= (uint16)((uint16)1 << chNum);
 138              		.loc 1 225 0
 139 0090 3A48     		ldr	r0, .L14+60
 140 0092 0468     		ldr	r4, [r0]
 141 0094 8021     		mov	r1, #128
 142              	.LVL10:
 143 0096 4902     		lsl	r1, r1, #9
 144 0098 0B1C     		mov	r3, r1
 145 009a 9340     		lsl	r3, r3, r2
 146 009c 1B0C     		lsr	r3, r3, #16
 147 009e 2343     		orr	r3, r4
 148 00a0 0360     		str	r3, [r0]
 149              	.LVL11:
 150              	.L5:
 226:.\Generated_Source\PSoC4/ADC.c ****             }
 227:.\Generated_Source\PSoC4/ADC.c **** 
 228:.\Generated_Source\PSoC4/ADC.c ****             if((ADC_channelsConfig[chNum] & ADC_IS_RANGE_CTRL_EN_MASK) != 0u)
 151              		.loc 1 228 0
 152 00a2 9300     		lsl	r3, r2, #2
 153 00a4 3A49     		ldr	r1, .L14+80
 154              	.LVL12:
 155 00a6 5B58     		ldr	r3, [r3, r1]
 156 00a8 9B07     		lsl	r3, r3, #30
 157 00aa 22D5     		bpl	.L6
 229:.\Generated_Source\PSoC4/ADC.c ****             {
 230:.\Generated_Source\PSoC4/ADC.c ****                 ADC_SAR_RANGE_INTR_MASK_REG |= (uint16)((uint16)1 << chNum);
 158              		.loc 1 230 0
 159 00ac 3448     		ldr	r0, .L14+64
 160 00ae 0468     		ldr	r4, [r0]
 161 00b0 8021     		mov	r1, #128
 162              	.LVL13:
 163 00b2 4902     		lsl	r1, r1, #9
 164 00b4 0B1C     		mov	r3, r1
 165 00b6 9340     		lsl	r3, r3, r2
 166 00b8 1B0C     		lsr	r3, r3, #16
 167 00ba 2343     		orr	r3, r4
ARM GAS  C:\Users\Luci\AppData\Local\Temp\ccGSFWvZ.s 			page 8


 168 00bc 0360     		str	r3, [r0]
 169 00be 18E0     		b	.L6
 170              	.LVL14:
 171              	.L4:
 231:.\Generated_Source\PSoC4/ADC.c ****             }
 232:.\Generated_Source\PSoC4/ADC.c ****         }
 233:.\Generated_Source\PSoC4/ADC.c ****         #if(ADC_INJ_CHANNEL_ENABLED)
 234:.\Generated_Source\PSoC4/ADC.c ****             else
 235:.\Generated_Source\PSoC4/ADC.c ****             {
 236:.\Generated_Source\PSoC4/ADC.c ****                 CY_SET_REG32(ADC_SAR_INJ_CHAN_CONFIG_PTR, tmpRegVal | ADC_INJ_TAILGATING);
 172              		.loc 1 236 0
 173 00c0 8021     		mov	r1, #128
 174 00c2 C905     		lsl	r1, r1, #23
 175 00c4 0B43     		orr	r3, r1
 176              	.LVL15:
 177 00c6 3449     		ldr	r1, .L14+88
 178 00c8 0B60     		str	r3, [r1]
 237:.\Generated_Source\PSoC4/ADC.c **** 
 238:.\Generated_Source\PSoC4/ADC.c ****                 if((ADC_channelsConfig[chNum] & ADC_IS_SATURATE_EN_MASK) != 0u)
 179              		.loc 1 238 0
 180 00ca 9300     		lsl	r3, r2, #2
 181 00cc 3049     		ldr	r1, .L14+80
 182              	.LVL16:
 183 00ce 5B58     		ldr	r3, [r3, r1]
 184 00d0 DB07     		lsl	r3, r3, #31
 185 00d2 04D5     		bpl	.L7
 239:.\Generated_Source\PSoC4/ADC.c ****                 {
 240:.\Generated_Source\PSoC4/ADC.c ****                     ADC_SAR_INTR_MASK_REG |= ADC_INJ_SATURATE_MASK;
 186              		.loc 1 240 0
 187 00d4 2B49     		ldr	r1, .L14+68
 188              	.LVL17:
 189 00d6 0868     		ldr	r0, [r1]
 190              	.LVL18:
 191 00d8 2023     		mov	r3, #32
 192 00da 0343     		orr	r3, r0
 193 00dc 0B60     		str	r3, [r1]
 194              	.L7:
 241:.\Generated_Source\PSoC4/ADC.c ****                 }
 242:.\Generated_Source\PSoC4/ADC.c **** 
 243:.\Generated_Source\PSoC4/ADC.c ****                 if((ADC_channelsConfig[chNum] & ADC_IS_RANGE_CTRL_EN_MASK) != 0u)
 195              		.loc 1 243 0
 196 00de 9300     		lsl	r3, r2, #2
 197 00e0 2B49     		ldr	r1, .L14+80
 198              	.LVL19:
 199 00e2 5B58     		ldr	r3, [r3, r1]
 200 00e4 9B07     		lsl	r3, r3, #30
 201 00e6 04D5     		bpl	.L6
 244:.\Generated_Source\PSoC4/ADC.c ****                 {
 245:.\Generated_Source\PSoC4/ADC.c ****                     ADC_SAR_INTR_MASK_REG |= ADC_INJ_RANGE_MASK;
 202              		.loc 1 245 0
 203 00e8 2649     		ldr	r1, .L14+68
 204              	.LVL20:
 205 00ea 0868     		ldr	r0, [r1]
 206 00ec 4023     		mov	r3, #64
 207 00ee 0343     		orr	r3, r0
 208 00f0 0B60     		str	r3, [r1]
 209              	.L6:
ARM GAS  C:\Users\Luci\AppData\Local\Temp\ccGSFWvZ.s 			page 9


 246:.\Generated_Source\PSoC4/ADC.c ****                 }
 247:.\Generated_Source\PSoC4/ADC.c ****             }
 248:.\Generated_Source\PSoC4/ADC.c ****         #endif /* ADC_INJ_CHANNEL_ENABLED */
 249:.\Generated_Source\PSoC4/ADC.c **** 
 250:.\Generated_Source\PSoC4/ADC.c ****         if((ADC_channelsConfig[chNum] & ADC_ALT_RESOLUTION_ON) != 0u)
 210              		.loc 1 250 0
 211 00f2 9300     		lsl	r3, r2, #2
 212 00f4 2649     		ldr	r1, .L14+80
 213              	.LVL21:
 214 00f6 5958     		ldr	r1, [r3, r1]
 215              	.LVL22:
 216 00f8 8B05     		lsl	r3, r1, #22
 217 00fa 02D5     		bpl	.L13
 251:.\Generated_Source\PSoC4/ADC.c ****         {
 252:.\Generated_Source\PSoC4/ADC.c ****                counts = (int32)ADC_DEFAULT_MAX_WRK_ALT;
 218              		.loc 1 252 0
 219 00fc 8020     		mov	r0, #128
 220 00fe 4000     		lsl	r0, r0, #1
 221 0100 01E0     		b	.L8
 222              	.L13:
 253:.\Generated_Source\PSoC4/ADC.c ****         }
 254:.\Generated_Source\PSoC4/ADC.c ****         else
 255:.\Generated_Source\PSoC4/ADC.c ****         {
 256:.\Generated_Source\PSoC4/ADC.c ****                counts = (int32)ADC_SAR_WRK_MAX_12BIT;
 223              		.loc 1 256 0
 224 0102 8020     		mov	r0, #128
 225 0104 4001     		lsl	r0, r0, #5
 226              	.L8:
 227              	.LVL23:
 257:.\Generated_Source\PSoC4/ADC.c ****         }
 258:.\Generated_Source\PSoC4/ADC.c **** 
 259:.\Generated_Source\PSoC4/ADC.c ****         if((ADC_channelsConfig[chNum] & ADC_DIFFERENTIAL_EN) == 0u)
 228              		.loc 1 259 0
 229 0106 CB05     		lsl	r3, r1, #23
 230 0108 04D4     		bmi	.L9
 260:.\Generated_Source\PSoC4/ADC.c ****         {
 261:.\Generated_Source\PSoC4/ADC.c ****             #if((ADC_DEFAULT_SE_RESULT_FORMAT_SEL == ADC__FSIGNED) && \
 262:.\Generated_Source\PSoC4/ADC.c ****                 (ADC_DEFAULT_NEG_INPUT_SEL == ADC__VREF))
 263:.\Generated_Source\PSoC4/ADC.c ****                 /* Set offset to the minus half scale to convert results to unsigned format */
 264:.\Generated_Source\PSoC4/ADC.c ****                 ADC_offset[chNum] = (int16)(counts / -2);
 265:.\Generated_Source\PSoC4/ADC.c ****             #else
 266:.\Generated_Source\PSoC4/ADC.c ****                 ADC_offset[chNum] = 0;
 231              		.loc 1 266 0
 232 010a 5300     		lsl	r3, r2, #1
 233 010c 0024     		mov	r4, #0
 234 010e 2349     		ldr	r1, .L14+92
 235 0110 5C52     		strh	r4, [r3, r1]
 236 0112 03E0     		b	.L10
 237              	.L9:
 267:.\Generated_Source\PSoC4/ADC.c ****             #endif /* end DEFAULT_SE_RESULT_FORMAT_SEL == ADC__FSIGNED */
 268:.\Generated_Source\PSoC4/ADC.c ****         }
 269:.\Generated_Source\PSoC4/ADC.c ****         else    /* Differential channel */
 270:.\Generated_Source\PSoC4/ADC.c ****         {
 271:.\Generated_Source\PSoC4/ADC.c ****             #if(ADC_DEFAULT_DIFF_RESULT_FORMAT_SEL == ADC__FUNSIGNED)
 272:.\Generated_Source\PSoC4/ADC.c ****                 /* Set offset to the half scale to convert results to signed format */
 273:.\Generated_Source\PSoC4/ADC.c ****                 ADC_offset[chNum] = (int16)(counts / 2);
 274:.\Generated_Source\PSoC4/ADC.c ****             #else
ARM GAS  C:\Users\Luci\AppData\Local\Temp\ccGSFWvZ.s 			page 10


 275:.\Generated_Source\PSoC4/ADC.c ****                 ADC_offset[chNum] = 0;
 238              		.loc 1 275 0
 239 0114 5300     		lsl	r3, r2, #1
 240 0116 0024     		mov	r4, #0
 241 0118 2049     		ldr	r1, .L14+92
 242 011a 5C52     		strh	r4, [r3, r1]
 243              	.L10:
 276:.\Generated_Source\PSoC4/ADC.c ****             #endif /* end ADC_DEFAULT_DIFF_RESULT_FORMAT_SEL == ADC__FUNSIGNED */
 277:.\Generated_Source\PSoC4/ADC.c ****         }
 278:.\Generated_Source\PSoC4/ADC.c ****         /* Calculate gain in counts per 10 volts with rounding */
 279:.\Generated_Source\PSoC4/ADC.c ****         ADC_countsPer10Volt[chNum] = (int16)(((counts * ADC_10MV_COUNTS) +
 244              		.loc 1 279 0 discriminator 2
 245 011c 204B     		ldr	r3, .L14+96
 246 011e 4343     		mul	r3, r0
 247 0120 8021     		mov	r1, #128
 248 0122 C900     		lsl	r1, r1, #3
 249 0124 8C46     		mov	ip, r1
 250 0126 6344     		add	r3, r3, ip
 280:.\Generated_Source\PSoC4/ADC.c ****                             ADC_DEFAULT_VREF_MV_VALUE) / (ADC_DEFAULT_VREF_MV_VALUE * 2));
 251              		.loc 1 280 0 discriminator 2
 252 0128 D917     		asr	r1, r3, #31
 253 012a 490D     		lsr	r1, r1, #21
 254 012c CB18     		add	r3, r1, r3
 255 012e DB12     		asr	r3, r3, #11
 279:.\Generated_Source\PSoC4/ADC.c ****                             ADC_DEFAULT_VREF_MV_VALUE) / (ADC_DEFAULT_VREF_MV_VALUE * 2));
 256              		.loc 1 279 0 discriminator 2
 257 0130 1BB2     		sxth	r3, r3
 258 0132 9000     		lsl	r0, r2, #2
 259              	.LVL24:
 260 0134 1B49     		ldr	r1, .L14+100
 261 0136 4350     		str	r3, [r0, r1]
 200:.\Generated_Source\PSoC4/ADC.c ****     {
 262              		.loc 1 200 0 discriminator 2
 263 0138 0132     		add	r2, r2, #1
 264              	.LVL25:
 265              	.L3:
 200:.\Generated_Source\PSoC4/ADC.c ****     {
 266              		.loc 1 200 0 is_stmt 0 discriminator 1
 267 013a 042A     		cmp	r2, #4
 268 013c 96D9     		bls	.L11
 281:.\Generated_Source\PSoC4/ADC.c ****     }
 282:.\Generated_Source\PSoC4/ADC.c **** }
 269              		.loc 1 282 0 is_stmt 1
 270              		@ sp needed
 271 013e 10BD     		pop	{r4, pc}
 272              	.L15:
 273              		.align	2
 274              	.L14:
 275 0140 00000000 		.word	ADC_ISR
 276 0144 20003A40 		.word	1077542944
 277 0148 80033A40 		.word	1077543808
 278 014c 402E1013 		.word	319827520
 279 0150 402E0013 		.word	318778944
 280 0154 00003A40 		.word	1077542912
 281 0158 A8000080 		.word	-2147483480
 282 015c 04003A40 		.word	1077542916
 283 0160 0000FF07 		.word	134152192
ARM GAS  C:\Users\Luci\AppData\Local\Temp\ccGSFWvZ.s 			page 11


 284 0164 18003A40 		.word	1077542936
 285 0168 1C003A40 		.word	1077542940
 286 016c E9030400 		.word	263145
 287 0170 10003A40 		.word	1077542928
 288 0174 04000400 		.word	262148
 289 0178 14003A40 		.word	1077542932
 290 017c 28023A40 		.word	1077543464
 291 0180 38023A40 		.word	1077543480
 292 0184 18023A40 		.word	1077543448
 293 0188 30003A40 		.word	1077542960
 294 018c FFFFFFDF 		.word	-536870913
 295 0190 00000000 		.word	.LANCHOR0
 296 0194 80003A40 		.word	1077543040
 297 0198 80023A40 		.word	1077543552
 298 019c 00000000 		.word	ADC_offset
 299 01a0 10270000 		.word	10000
 300 01a4 00000000 		.word	ADC_countsPer10Volt
 301              		.cfi_endproc
 302              	.LFE3:
 303              		.size	ADC_Init, .-ADC_Init
 304              		.section	.text.ADC_Enable,"ax",%progbits
 305              		.align	2
 306              		.global	ADC_Enable
 307              		.code	16
 308              		.thumb_func
 309              		.type	ADC_Enable, %function
 310              	ADC_Enable:
 311              	.LFB4:
 283:.\Generated_Source\PSoC4/ADC.c **** 
 284:.\Generated_Source\PSoC4/ADC.c **** /*******************************************************************************
 285:.\Generated_Source\PSoC4/ADC.c **** * Function Name: ADC_SAR_1_Enable
 286:.\Generated_Source\PSoC4/ADC.c **** ********************************************************************************
 287:.\Generated_Source\PSoC4/ADC.c **** *
 288:.\Generated_Source\PSoC4/ADC.c **** * Summary:
 289:.\Generated_Source\PSoC4/ADC.c **** *  Enables the clock and analog power for SAR ADC.
 290:.\Generated_Source\PSoC4/ADC.c **** *
 291:.\Generated_Source\PSoC4/ADC.c **** * Parameters:
 292:.\Generated_Source\PSoC4/ADC.c **** *  None.
 293:.\Generated_Source\PSoC4/ADC.c **** *
 294:.\Generated_Source\PSoC4/ADC.c **** * Return:
 295:.\Generated_Source\PSoC4/ADC.c **** *  None.
 296:.\Generated_Source\PSoC4/ADC.c **** *
 297:.\Generated_Source\PSoC4/ADC.c **** *******************************************************************************/
 298:.\Generated_Source\PSoC4/ADC.c **** void ADC_Enable(void)
 299:.\Generated_Source\PSoC4/ADC.c **** {
 312              		.loc 1 299 0
 313              		.cfi_startproc
 314 0000 08B5     		push	{r3, lr}
 315              		.cfi_def_cfa_offset 8
 316              		.cfi_offset 3, -8
 317              		.cfi_offset 14, -4
 300:.\Generated_Source\PSoC4/ADC.c ****     if (0u == (ADC_SAR_CTRL_REG & ADC_ENABLE))
 318              		.loc 1 300 0
 319 0002 094B     		ldr	r3, .L19
 320 0004 1B68     		ldr	r3, [r3]
 321 0006 002B     		cmp	r3, #0
 322 0008 0CDB     		blt	.L16
ARM GAS  C:\Users\Luci\AppData\Local\Temp\ccGSFWvZ.s 			page 12


 323              	.L18:
 301:.\Generated_Source\PSoC4/ADC.c ****     {
 302:.\Generated_Source\PSoC4/ADC.c ****         #if(ADC_CY_SAR_IP_VER != ADC_CY_SAR_IP_PSOC4)
 303:.\Generated_Source\PSoC4/ADC.c **** 
 304:.\Generated_Source\PSoC4/ADC.c ****             while (0u != (ADC_SAR_STATUS_REG & ADC_STATUS_BUSY))
 324              		.loc 1 304 0 discriminator 1
 325 000a 084B     		ldr	r3, .L19+4
 326 000c 1B68     		ldr	r3, [r3]
 327 000e 002B     		cmp	r3, #0
 328 0010 FBDB     		blt	.L18
 305:.\Generated_Source\PSoC4/ADC.c ****             {
 306:.\Generated_Source\PSoC4/ADC.c ****                 /* wait for SAR to go idle for to avoid deadlock */
 307:.\Generated_Source\PSoC4/ADC.c ****             }
 308:.\Generated_Source\PSoC4/ADC.c ****         #endif /* (ADC_CY_SAR_IP_VER != ADC_CY_SAR_IP_PSOC4) */
 309:.\Generated_Source\PSoC4/ADC.c ****         
 310:.\Generated_Source\PSoC4/ADC.c ****         ADC_SAR_CTRL_REG |= ADC_ENABLE;
 329              		.loc 1 310 0
 330 0012 054A     		ldr	r2, .L19
 331 0014 1368     		ldr	r3, [r2]
 332 0016 8021     		mov	r1, #128
 333 0018 0906     		lsl	r1, r1, #24
 334 001a 0B43     		orr	r3, r1
 335 001c 1360     		str	r3, [r2]
 311:.\Generated_Source\PSoC4/ADC.c ****         
 312:.\Generated_Source\PSoC4/ADC.c ****         /* The block is ready to use 10 us after the enable signal is set high. */
 313:.\Generated_Source\PSoC4/ADC.c ****         CyDelayUs(ADC_10US_DELAY);         
 336              		.loc 1 313 0
 337 001e 0A20     		mov	r0, #10
 338 0020 FFF7FEFF 		bl	CyDelayUs
 339              	.LVL26:
 340              	.L16:
 314:.\Generated_Source\PSoC4/ADC.c ****     }
 315:.\Generated_Source\PSoC4/ADC.c **** }
 341              		.loc 1 315 0
 342              		@ sp needed
 343 0024 08BD     		pop	{r3, pc}
 344              	.L20:
 345 0026 C046     		.align	2
 346              	.L19:
 347 0028 00003A40 		.word	1077542912
 348 002c 08023A40 		.word	1077543432
 349              		.cfi_endproc
 350              	.LFE4:
 351              		.size	ADC_Enable, .-ADC_Enable
 352              		.section	.text.ADC_Start,"ax",%progbits
 353              		.align	2
 354              		.global	ADC_Start
 355              		.code	16
 356              		.thumb_func
 357              		.type	ADC_Start, %function
 358              	ADC_Start:
 359              	.LFB2:
  64:.\Generated_Source\PSoC4/ADC.c ****     /* If not Initialized then initialize all required hardware and software */
 360              		.loc 1 64 0
 361              		.cfi_startproc
 362 0000 08B5     		push	{r3, lr}
 363              		.cfi_def_cfa_offset 8
ARM GAS  C:\Users\Luci\AppData\Local\Temp\ccGSFWvZ.s 			page 13


 364              		.cfi_offset 3, -8
 365              		.cfi_offset 14, -4
  66:.\Generated_Source\PSoC4/ADC.c ****     {
 366              		.loc 1 66 0
 367 0002 064B     		ldr	r3, .L23
 368 0004 1B78     		ldrb	r3, [r3]
 369 0006 002B     		cmp	r3, #0
 370 0008 04D1     		bne	.L22
  68:.\Generated_Source\PSoC4/ADC.c ****         ADC_initVar = 1u;
 371              		.loc 1 68 0
 372 000a FFF7FEFF 		bl	ADC_Init
 373              	.LVL27:
  69:.\Generated_Source\PSoC4/ADC.c ****     }
 374              		.loc 1 69 0
 375 000e 0122     		mov	r2, #1
 376 0010 024B     		ldr	r3, .L23
 377 0012 1A70     		strb	r2, [r3]
 378              	.L22:
  71:.\Generated_Source\PSoC4/ADC.c **** }
 379              		.loc 1 71 0
 380 0014 FFF7FEFF 		bl	ADC_Enable
 381              	.LVL28:
  72:.\Generated_Source\PSoC4/ADC.c **** 
 382              		.loc 1 72 0
 383              		@ sp needed
 384 0018 08BD     		pop	{r3, pc}
 385              	.L24:
 386 001a C046     		.align	2
 387              	.L23:
 388 001c 00000000 		.word	.LANCHOR1
 389              		.cfi_endproc
 390              	.LFE2:
 391              		.size	ADC_Start, .-ADC_Start
 392              		.section	.text.ADC_Stop,"ax",%progbits
 393              		.align	2
 394              		.global	ADC_Stop
 395              		.code	16
 396              		.thumb_func
 397              		.type	ADC_Stop, %function
 398              	ADC_Stop:
 399              	.LFB5:
 316:.\Generated_Source\PSoC4/ADC.c **** 
 317:.\Generated_Source\PSoC4/ADC.c **** 
 318:.\Generated_Source\PSoC4/ADC.c **** /*******************************************************************************
 319:.\Generated_Source\PSoC4/ADC.c **** * Function Name: ADC_Stop
 320:.\Generated_Source\PSoC4/ADC.c **** ********************************************************************************
 321:.\Generated_Source\PSoC4/ADC.c **** *
 322:.\Generated_Source\PSoC4/ADC.c **** * Summary:
 323:.\Generated_Source\PSoC4/ADC.c **** *  This function stops ADC conversions and puts the ADC into its lowest power
 324:.\Generated_Source\PSoC4/ADC.c **** *  mode.
 325:.\Generated_Source\PSoC4/ADC.c **** *
 326:.\Generated_Source\PSoC4/ADC.c **** * Parameters:
 327:.\Generated_Source\PSoC4/ADC.c **** *  None.
 328:.\Generated_Source\PSoC4/ADC.c **** *
 329:.\Generated_Source\PSoC4/ADC.c **** * Return:
 330:.\Generated_Source\PSoC4/ADC.c **** *  None.
 331:.\Generated_Source\PSoC4/ADC.c **** *
ARM GAS  C:\Users\Luci\AppData\Local\Temp\ccGSFWvZ.s 			page 14


 332:.\Generated_Source\PSoC4/ADC.c **** *******************************************************************************/
 333:.\Generated_Source\PSoC4/ADC.c **** void ADC_Stop(void)
 334:.\Generated_Source\PSoC4/ADC.c **** {
 400              		.loc 1 334 0
 401              		.cfi_startproc
 335:.\Generated_Source\PSoC4/ADC.c ****     ADC_SAR_CTRL_REG &= (uint32)~ADC_ENABLE;
 402              		.loc 1 335 0
 403 0000 024A     		ldr	r2, .L26
 404 0002 1368     		ldr	r3, [r2]
 405 0004 5B00     		lsl	r3, r3, #1
 406 0006 5B08     		lsr	r3, r3, #1
 407 0008 1360     		str	r3, [r2]
 336:.\Generated_Source\PSoC4/ADC.c **** }
 408              		.loc 1 336 0
 409              		@ sp needed
 410 000a 7047     		bx	lr
 411              	.L27:
 412              		.align	2
 413              	.L26:
 414 000c 00003A40 		.word	1077542912
 415              		.cfi_endproc
 416              	.LFE5:
 417              		.size	ADC_Stop, .-ADC_Stop
 418              		.section	.text.ADC_StartConvert,"ax",%progbits
 419              		.align	2
 420              		.global	ADC_StartConvert
 421              		.code	16
 422              		.thumb_func
 423              		.type	ADC_StartConvert, %function
 424              	ADC_StartConvert:
 425              	.LFB6:
 337:.\Generated_Source\PSoC4/ADC.c **** 
 338:.\Generated_Source\PSoC4/ADC.c **** 
 339:.\Generated_Source\PSoC4/ADC.c **** /*******************************************************************************
 340:.\Generated_Source\PSoC4/ADC.c **** * Function Name: ADC_StartConvert
 341:.\Generated_Source\PSoC4/ADC.c **** ********************************************************************************
 342:.\Generated_Source\PSoC4/ADC.c **** *
 343:.\Generated_Source\PSoC4/ADC.c **** * Summary:
 344:.\Generated_Source\PSoC4/ADC.c **** *  Description:
 345:.\Generated_Source\PSoC4/ADC.c **** *  For free running mode, this API starts the conversion process and it
 346:.\Generated_Source\PSoC4/ADC.c **** *  runs continuously.
 347:.\Generated_Source\PSoC4/ADC.c **** *
 348:.\Generated_Source\PSoC4/ADC.c **** *  In a triggered mode, this routine triggers every conversion by
 349:.\Generated_Source\PSoC4/ADC.c **** *  writing into the FW_TRIGGER bit in SAR_START_CTRL reg. In triggered mode,
 350:.\Generated_Source\PSoC4/ADC.c **** *  every conversion has to start by this API.
 351:.\Generated_Source\PSoC4/ADC.c **** *
 352:.\Generated_Source\PSoC4/ADC.c **** * Parameters:
 353:.\Generated_Source\PSoC4/ADC.c **** *  None.
 354:.\Generated_Source\PSoC4/ADC.c **** *
 355:.\Generated_Source\PSoC4/ADC.c **** * Return:
 356:.\Generated_Source\PSoC4/ADC.c **** *  None.
 357:.\Generated_Source\PSoC4/ADC.c **** *
 358:.\Generated_Source\PSoC4/ADC.c **** *******************************************************************************/
 359:.\Generated_Source\PSoC4/ADC.c **** void ADC_StartConvert(void)
 360:.\Generated_Source\PSoC4/ADC.c **** {
 426              		.loc 1 360 0
 427              		.cfi_startproc
ARM GAS  C:\Users\Luci\AppData\Local\Temp\ccGSFWvZ.s 			page 15


 361:.\Generated_Source\PSoC4/ADC.c ****     #if(ADC_DEFAULT_SAMPLE_MODE_SEL == ADC__FREERUNNING)
 362:.\Generated_Source\PSoC4/ADC.c ****         ADC_SAR_SAMPLE_CTRL_REG |= ADC_CONTINUOUS_EN;
 428              		.loc 1 362 0
 429 0000 034A     		ldr	r2, .L29
 430 0002 1368     		ldr	r3, [r2]
 431 0004 8021     		mov	r1, #128
 432 0006 4902     		lsl	r1, r1, #9
 433 0008 0B43     		orr	r3, r1
 434 000a 1360     		str	r3, [r2]
 363:.\Generated_Source\PSoC4/ADC.c ****     #else /* Firmware trigger */
 364:.\Generated_Source\PSoC4/ADC.c ****         ADC_SAR_START_CTRL_REG = ADC_FW_TRIGGER;
 365:.\Generated_Source\PSoC4/ADC.c ****     #endif /* End ADC_DEFAULT_SAMPLE_MODE == ADC__FREERUNNING */
 366:.\Generated_Source\PSoC4/ADC.c **** 
 367:.\Generated_Source\PSoC4/ADC.c **** }
 435              		.loc 1 367 0
 436              		@ sp needed
 437 000c 7047     		bx	lr
 438              	.L30:
 439 000e C046     		.align	2
 440              	.L29:
 441 0010 04003A40 		.word	1077542916
 442              		.cfi_endproc
 443              	.LFE6:
 444              		.size	ADC_StartConvert, .-ADC_StartConvert
 445              		.section	.text.ADC_StopConvert,"ax",%progbits
 446              		.align	2
 447              		.global	ADC_StopConvert
 448              		.code	16
 449              		.thumb_func
 450              		.type	ADC_StopConvert, %function
 451              	ADC_StopConvert:
 452              	.LFB7:
 368:.\Generated_Source\PSoC4/ADC.c **** 
 369:.\Generated_Source\PSoC4/ADC.c **** 
 370:.\Generated_Source\PSoC4/ADC.c **** /*******************************************************************************
 371:.\Generated_Source\PSoC4/ADC.c **** * Function Name: ADC_StopConvert
 372:.\Generated_Source\PSoC4/ADC.c **** ********************************************************************************
 373:.\Generated_Source\PSoC4/ADC.c **** *
 374:.\Generated_Source\PSoC4/ADC.c **** * Summary:
 375:.\Generated_Source\PSoC4/ADC.c **** *  Forces the ADC to stop all conversions.
 376:.\Generated_Source\PSoC4/ADC.c **** *
 377:.\Generated_Source\PSoC4/ADC.c **** * Parameters:
 378:.\Generated_Source\PSoC4/ADC.c **** *  None.
 379:.\Generated_Source\PSoC4/ADC.c **** *
 380:.\Generated_Source\PSoC4/ADC.c **** * Return:
 381:.\Generated_Source\PSoC4/ADC.c **** *  None.
 382:.\Generated_Source\PSoC4/ADC.c **** *
 383:.\Generated_Source\PSoC4/ADC.c **** *******************************************************************************/
 384:.\Generated_Source\PSoC4/ADC.c **** void ADC_StopConvert(void)
 385:.\Generated_Source\PSoC4/ADC.c **** {
 453              		.loc 1 385 0
 454              		.cfi_startproc
 386:.\Generated_Source\PSoC4/ADC.c ****     #if(ADC_DEFAULT_SAMPLE_MODE_SEL == ADC__FREERUNNING)
 387:.\Generated_Source\PSoC4/ADC.c ****         ADC_SAR_SAMPLE_CTRL_REG &= (uint32)(~ADC_CONTINUOUS_EN);
 455              		.loc 1 387 0
 456 0000 024A     		ldr	r2, .L32
 457 0002 1168     		ldr	r1, [r2]
ARM GAS  C:\Users\Luci\AppData\Local\Temp\ccGSFWvZ.s 			page 16


 458 0004 024B     		ldr	r3, .L32+4
 459 0006 0B40     		and	r3, r1
 460 0008 1360     		str	r3, [r2]
 388:.\Generated_Source\PSoC4/ADC.c ****     #endif /* ADC_DEFAULT_SAMPLE_MODE == ADC__FREERUNNING */
 389:.\Generated_Source\PSoC4/ADC.c **** }
 461              		.loc 1 389 0
 462              		@ sp needed
 463 000a 7047     		bx	lr
 464              	.L33:
 465              		.align	2
 466              	.L32:
 467 000c 04003A40 		.word	1077542916
 468 0010 FFFFFEFF 		.word	-65537
 469              		.cfi_endproc
 470              	.LFE7:
 471              		.size	ADC_StopConvert, .-ADC_StopConvert
 472              		.section	.text.ADC_IsEndConversion,"ax",%progbits
 473              		.align	2
 474              		.global	ADC_IsEndConversion
 475              		.code	16
 476              		.thumb_func
 477              		.type	ADC_IsEndConversion, %function
 478              	ADC_IsEndConversion:
 479              	.LFB8:
 390:.\Generated_Source\PSoC4/ADC.c **** 
 391:.\Generated_Source\PSoC4/ADC.c **** 
 392:.\Generated_Source\PSoC4/ADC.c **** /*******************************************************************************
 393:.\Generated_Source\PSoC4/ADC.c **** * Function Name: ADC_IsEndConversion
 394:.\Generated_Source\PSoC4/ADC.c **** ********************************************************************************
 395:.\Generated_Source\PSoC4/ADC.c **** *
 396:.\Generated_Source\PSoC4/ADC.c **** * Summary:
 397:.\Generated_Source\PSoC4/ADC.c **** *  Description: Checks for ADC end of conversion for the case one
 398:.\Generated_Source\PSoC4/ADC.c **** *  channel and end of scan for the case of multiple channels. It acts
 399:.\Generated_Source\PSoC4/ADC.c **** *  as a software version of the EOC. This function provides the
 400:.\Generated_Source\PSoC4/ADC.c **** *  programmer with two options. In one mode this function
 401:.\Generated_Source\PSoC4/ADC.c **** *  immediately returns with the conversion status. In the other mode,
 402:.\Generated_Source\PSoC4/ADC.c **** *  the function does not return (blocking) until the conversion has
 403:.\Generated_Source\PSoC4/ADC.c **** *  completed.
 404:.\Generated_Source\PSoC4/ADC.c **** *
 405:.\Generated_Source\PSoC4/ADC.c **** * Parameters:
 406:.\Generated_Source\PSoC4/ADC.c **** *  ADC_RETURN_STATUS        -> Immediately returns conversion result status
 407:.\Generated_Source\PSoC4/ADC.c **** *  ADC_WAIT_FOR_RESULT      -> Does not return until ADC complete
 408:.\Generated_Source\PSoC4/ADC.c **** *  ADC_RETURN_STATUS_INJ    -> Immediately returns conversion result status
 409:.\Generated_Source\PSoC4/ADC.c **** *                              for injection channel
 410:.\Generated_Source\PSoC4/ADC.c **** *  ADC_WAIT_FOR_RESULT_INJ  -> Does not return until ADC completes injection
 411:.\Generated_Source\PSoC4/ADC.c **** *                              channel conversion
 412:.\Generated_Source\PSoC4/ADC.c **** *
 413:.\Generated_Source\PSoC4/ADC.c **** * Return:
 414:.\Generated_Source\PSoC4/ADC.c **** *  If a non-zero value is returned, the last conversion or scan has completed.
 415:.\Generated_Source\PSoC4/ADC.c **** *  If the returned value is zero, the ADC is still in the process of a scan.
 416:.\Generated_Source\PSoC4/ADC.c **** *
 417:.\Generated_Source\PSoC4/ADC.c **** *******************************************************************************/
 418:.\Generated_Source\PSoC4/ADC.c **** uint32 ADC_IsEndConversion(uint32 retMode)
 419:.\Generated_Source\PSoC4/ADC.c **** {
 480              		.loc 1 419 0
 481              		.cfi_startproc
 482              	.LVL29:
ARM GAS  C:\Users\Luci\AppData\Local\Temp\ccGSFWvZ.s 			page 17


 483 0000 011C     		mov	r1, r0
 484              	.LVL30:
 420:.\Generated_Source\PSoC4/ADC.c ****     uint32 status = 0u;
 421:.\Generated_Source\PSoC4/ADC.c **** 
 422:.\Generated_Source\PSoC4/ADC.c ****     if((retMode & (ADC_RETURN_STATUS | ADC_WAIT_FOR_RESULT)) != 0u)
 485              		.loc 1 422 0
 486 0002 8307     		lsl	r3, r0, #30
 487 0004 0CD0     		beq	.L41
 488              	.LVL31:
 489              	.L37:
 423:.\Generated_Source\PSoC4/ADC.c ****     {
 424:.\Generated_Source\PSoC4/ADC.c ****         do
 425:.\Generated_Source\PSoC4/ADC.c ****         {
 426:.\Generated_Source\PSoC4/ADC.c ****             status = ADC_SAR_INTR_REG & ADC_EOS_MASK;
 490              		.loc 1 426 0 discriminator 2
 491 0006 104B     		ldr	r3, .L42
 492 0008 1B68     		ldr	r3, [r3]
 493 000a 0120     		mov	r0, #1
 494 000c 1840     		and	r0, r3
 495              	.LVL32:
 427:.\Generated_Source\PSoC4/ADC.c ****         }while((status == 0u) && ((retMode & ADC_WAIT_FOR_RESULT) != 0u));
 496              		.loc 1 427 0 discriminator 2
 497 000e 01D1     		bne	.L36
 498              		.loc 1 427 0 is_stmt 0 discriminator 1
 499 0010 8B07     		lsl	r3, r1, #30
 500 0012 F8D4     		bmi	.L37
 501              	.L36:
 428:.\Generated_Source\PSoC4/ADC.c **** 
 429:.\Generated_Source\PSoC4/ADC.c ****         if(status != 0u)
 502              		.loc 1 429 0 is_stmt 1
 503 0014 0028     		cmp	r0, #0
 504 0016 04D0     		beq	.L35
 430:.\Generated_Source\PSoC4/ADC.c ****         {
 431:.\Generated_Source\PSoC4/ADC.c ****             /* Clear EOS bit */
 432:.\Generated_Source\PSoC4/ADC.c ****             ADC_SAR_INTR_REG = ADC_EOS_MASK;
 505              		.loc 1 432 0
 506 0018 0122     		mov	r2, #1
 507 001a 0B4B     		ldr	r3, .L42
 508 001c 1A60     		str	r2, [r3]
 509 001e 00E0     		b	.L35
 510              	.LVL33:
 511              	.L41:
 420:.\Generated_Source\PSoC4/ADC.c **** 
 512              		.loc 1 420 0
 513 0020 0020     		mov	r0, #0
 514              	.LVL34:
 515              	.L35:
 433:.\Generated_Source\PSoC4/ADC.c ****         }
 434:.\Generated_Source\PSoC4/ADC.c ****     }
 435:.\Generated_Source\PSoC4/ADC.c **** 
 436:.\Generated_Source\PSoC4/ADC.c ****     #if(ADC_INJ_CHANNEL_ENABLED)
 437:.\Generated_Source\PSoC4/ADC.c ****         if((retMode & (ADC_RETURN_STATUS_INJ | ADC_WAIT_FOR_RESULT_INJ)) != 0u)
 516              		.loc 1 437 0
 517 0022 0C23     		mov	r3, #12
 518 0024 0B42     		tst	r3, r1
 519 0026 0DD0     		beq	.L38
 520              	.L40:
ARM GAS  C:\Users\Luci\AppData\Local\Temp\ccGSFWvZ.s 			page 18


 438:.\Generated_Source\PSoC4/ADC.c ****         {
 439:.\Generated_Source\PSoC4/ADC.c ****             do
 440:.\Generated_Source\PSoC4/ADC.c ****             {
 441:.\Generated_Source\PSoC4/ADC.c ****                 status |= ADC_SAR_INTR_REG & ADC_INJ_EOC_MASK;
 521              		.loc 1 441 0
 522 0028 074B     		ldr	r3, .L42
 523 002a 1A68     		ldr	r2, [r3]
 524 002c 1023     		mov	r3, #16
 525 002e 1A40     		and	r2, r3
 526 0030 1043     		orr	r0, r2
 527              	.LVL35:
 442:.\Generated_Source\PSoC4/ADC.c ****             }while(((status & ADC_INJ_EOC_MASK) == 0u) &&
 528              		.loc 1 442 0
 529 0032 0340     		and	r3, r0
 443:.\Generated_Source\PSoC4/ADC.c ****                    ((retMode & ADC_WAIT_FOR_RESULT_INJ) != 0u));
 530              		.loc 1 443 0
 531 0034 01D1     		bne	.L39
 442:.\Generated_Source\PSoC4/ADC.c ****             }while(((status & ADC_INJ_EOC_MASK) == 0u) &&
 532              		.loc 1 442 0 discriminator 1
 533 0036 0A07     		lsl	r2, r1, #28
 534 0038 F6D4     		bmi	.L40
 535              	.L39:
 444:.\Generated_Source\PSoC4/ADC.c **** 
 445:.\Generated_Source\PSoC4/ADC.c ****             if((status & ADC_INJ_EOC_MASK) != 0u)
 536              		.loc 1 445 0
 537 003a 002B     		cmp	r3, #0
 538 003c 02D0     		beq	.L38
 446:.\Generated_Source\PSoC4/ADC.c ****             {
 447:.\Generated_Source\PSoC4/ADC.c ****                 /* Clear Injection EOS bit */
 448:.\Generated_Source\PSoC4/ADC.c ****                 ADC_SAR_INTR_REG = ADC_INJ_EOC_MASK;
 539              		.loc 1 448 0
 540 003e 1022     		mov	r2, #16
 541 0040 014B     		ldr	r3, .L42
 542 0042 1A60     		str	r2, [r3]
 543              	.L38:
 449:.\Generated_Source\PSoC4/ADC.c ****             }
 450:.\Generated_Source\PSoC4/ADC.c ****         }
 451:.\Generated_Source\PSoC4/ADC.c ****     #endif /* ADC_INJ_CHANNEL_ENABLED */
 452:.\Generated_Source\PSoC4/ADC.c **** 
 453:.\Generated_Source\PSoC4/ADC.c ****     return (status);
 454:.\Generated_Source\PSoC4/ADC.c **** }
 544              		.loc 1 454 0
 545              		@ sp needed
 546 0044 7047     		bx	lr
 547              	.L43:
 548 0046 C046     		.align	2
 549              	.L42:
 550 0048 10023A40 		.word	1077543440
 551              		.cfi_endproc
 552              	.LFE8:
 553              		.size	ADC_IsEndConversion, .-ADC_IsEndConversion
 554              		.section	.text.ADC_GetResult16,"ax",%progbits
 555              		.align	2
 556              		.global	ADC_GetResult16
 557              		.code	16
 558              		.thumb_func
 559              		.type	ADC_GetResult16, %function
ARM GAS  C:\Users\Luci\AppData\Local\Temp\ccGSFWvZ.s 			page 19


 560              	ADC_GetResult16:
 561              	.LFB9:
 455:.\Generated_Source\PSoC4/ADC.c **** 
 456:.\Generated_Source\PSoC4/ADC.c **** 
 457:.\Generated_Source\PSoC4/ADC.c **** /*******************************************************************************
 458:.\Generated_Source\PSoC4/ADC.c **** * Function Name: ADC_GetResult16
 459:.\Generated_Source\PSoC4/ADC.c **** ********************************************************************************
 460:.\Generated_Source\PSoC4/ADC.c **** *
 461:.\Generated_Source\PSoC4/ADC.c **** * Summary:
 462:.\Generated_Source\PSoC4/ADC.c **** *  Gets the data available in the SAR DATA register.
 463:.\Generated_Source\PSoC4/ADC.c **** *
 464:.\Generated_Source\PSoC4/ADC.c **** * Parameters:
 465:.\Generated_Source\PSoC4/ADC.c **** *  chan: The ADC channel in which to return the result. The first channel
 466:.\Generated_Source\PSoC4/ADC.c **** *  is 0 and the injection channel if enabled is the number of valid channels.
 467:.\Generated_Source\PSoC4/ADC.c **** *
 468:.\Generated_Source\PSoC4/ADC.c **** * Return:
 469:.\Generated_Source\PSoC4/ADC.c **** *  Returns converted data as a signed 16-bit integer
 470:.\Generated_Source\PSoC4/ADC.c **** *
 471:.\Generated_Source\PSoC4/ADC.c **** *******************************************************************************/
 472:.\Generated_Source\PSoC4/ADC.c **** int16 ADC_GetResult16(uint32 chan)
 473:.\Generated_Source\PSoC4/ADC.c **** {
 562              		.loc 1 473 0
 563              		.cfi_startproc
 564              	.LVL36:
 565 0000 10B5     		push	{r4, lr}
 566              		.cfi_def_cfa_offset 8
 567              		.cfi_offset 4, -8
 568              		.cfi_offset 14, -4
 569 0002 041E     		sub	r4, r0, #0
 474:.\Generated_Source\PSoC4/ADC.c ****     uint32 result;
 475:.\Generated_Source\PSoC4/ADC.c **** 
 476:.\Generated_Source\PSoC4/ADC.c ****     /* Halt CPU in debug mode if channel is out of valid range */
 477:.\Generated_Source\PSoC4/ADC.c ****     CYASSERT(chan < ADC_TOTAL_CHANNELS_NUM);
 570              		.loc 1 477 0
 571 0004 042C     		cmp	r4, #4
 572 0006 02D9     		bls	.L45
 573              		.loc 1 477 0 is_stmt 0 discriminator 1
 574 0008 0020     		mov	r0, #0
 575              	.LVL37:
 576 000a FFF7FEFF 		bl	CyHalt
 577              	.LVL38:
 578              	.L45:
 478:.\Generated_Source\PSoC4/ADC.c **** 
 479:.\Generated_Source\PSoC4/ADC.c ****     if(chan < ADC_SEQUENCED_CHANNELS_NUM)
 579              		.loc 1 479 0 is_stmt 1
 580 000e 032C     		cmp	r4, #3
 581 0010 07D8     		bhi	.L46
 480:.\Generated_Source\PSoC4/ADC.c ****     {
 481:.\Generated_Source\PSoC4/ADC.c ****         result = CY_GET_REG32((reg32 *)(ADC_SAR_CHAN_RESULT_IND + (uint32)(chan << 2u))) &
 582              		.loc 1 481 0
 583 0012 A400     		lsl	r4, r4, #2
 584              	.LVL39:
 585 0014 064B     		ldr	r3, .L48
 586 0016 9C46     		mov	ip, r3
 587 0018 6444     		add	r4, r4, ip
 588 001a 2068     		ldr	r0, [r4]
 589 001c 0004     		lsl	r0, r0, #16
ARM GAS  C:\Users\Luci\AppData\Local\Temp\ccGSFWvZ.s 			page 20


 590 001e 000C     		lsr	r0, r0, #16
 591              	.LVL40:
 592 0020 03E0     		b	.L47
 593              	.LVL41:
 594              	.L46:
 482:.\Generated_Source\PSoC4/ADC.c ****                 ADC_RESULT_MASK;
 483:.\Generated_Source\PSoC4/ADC.c ****     }
 484:.\Generated_Source\PSoC4/ADC.c ****     else
 485:.\Generated_Source\PSoC4/ADC.c ****     {
 486:.\Generated_Source\PSoC4/ADC.c ****         #if(ADC_INJ_CHANNEL_ENABLED)
 487:.\Generated_Source\PSoC4/ADC.c ****             result = ADC_SAR_INJ_RESULT_REG & ADC_RESULT_MASK;
 595              		.loc 1 487 0
 596 0022 044B     		ldr	r3, .L48+4
 597 0024 1868     		ldr	r0, [r3]
 598 0026 0004     		lsl	r0, r0, #16
 599 0028 000C     		lsr	r0, r0, #16
 600              	.LVL42:
 601              	.L47:
 488:.\Generated_Source\PSoC4/ADC.c ****         #else
 489:.\Generated_Source\PSoC4/ADC.c ****             result = 0u;
 490:.\Generated_Source\PSoC4/ADC.c ****         #endif /* ADC_INJ_CHANNEL_ENABLED */
 491:.\Generated_Source\PSoC4/ADC.c ****     }
 492:.\Generated_Source\PSoC4/ADC.c **** 
 493:.\Generated_Source\PSoC4/ADC.c ****     return ( (int16)result );
 602              		.loc 1 493 0
 603 002a 00B2     		sxth	r0, r0
 604              	.LVL43:
 494:.\Generated_Source\PSoC4/ADC.c **** }
 605              		.loc 1 494 0
 606              		@ sp needed
 607 002c 10BD     		pop	{r4, pc}
 608              	.L49:
 609 002e C046     		.align	2
 610              	.L48:
 611 0030 80013A40 		.word	1077543296
 612 0034 90023A40 		.word	1077543568
 613              		.cfi_endproc
 614              	.LFE9:
 615              		.size	ADC_GetResult16, .-ADC_GetResult16
 616              		.section	.text.ADC_SetChanMask,"ax",%progbits
 617              		.align	2
 618              		.global	ADC_SetChanMask
 619              		.code	16
 620              		.thumb_func
 621              		.type	ADC_SetChanMask, %function
 622              	ADC_SetChanMask:
 623              	.LFB10:
 495:.\Generated_Source\PSoC4/ADC.c **** 
 496:.\Generated_Source\PSoC4/ADC.c **** 
 497:.\Generated_Source\PSoC4/ADC.c **** /*******************************************************************************
 498:.\Generated_Source\PSoC4/ADC.c **** * Function Name: ADC_SetChanMask
 499:.\Generated_Source\PSoC4/ADC.c **** ********************************************************************************
 500:.\Generated_Source\PSoC4/ADC.c **** *
 501:.\Generated_Source\PSoC4/ADC.c **** * Summary:
 502:.\Generated_Source\PSoC4/ADC.c **** *  Sets the channel enable mask.
 503:.\Generated_Source\PSoC4/ADC.c **** *
 504:.\Generated_Source\PSoC4/ADC.c **** * Parameters:
ARM GAS  C:\Users\Luci\AppData\Local\Temp\ccGSFWvZ.s 			page 21


 505:.\Generated_Source\PSoC4/ADC.c **** *  mask: Sets which channels that will be
 506:.\Generated_Source\PSoC4/ADC.c **** *  scanned. Setting bits for channels that do not exist will have no
 507:.\Generated_Source\PSoC4/ADC.c **** *  effect. For example, if only 6 channels were enabled, setting a
 508:.\Generated_Source\PSoC4/ADC.c **** *  mask of 0x0103 would only enable the last two channels (0 and 1).
 509:.\Generated_Source\PSoC4/ADC.c **** *  This API will not enable the injection channel.
 510:.\Generated_Source\PSoC4/ADC.c **** *  Examples: If the component is setup to sequence through 8
 511:.\Generated_Source\PSoC4/ADC.c **** *  channels, a mask of 0x000F would enable channels 0, 1, 2, and 3.
 512:.\Generated_Source\PSoC4/ADC.c **** *
 513:.\Generated_Source\PSoC4/ADC.c **** * Return:
 514:.\Generated_Source\PSoC4/ADC.c **** *  None.
 515:.\Generated_Source\PSoC4/ADC.c **** *
 516:.\Generated_Source\PSoC4/ADC.c **** *******************************************************************************/
 517:.\Generated_Source\PSoC4/ADC.c **** void ADC_SetChanMask(uint32 mask)
 518:.\Generated_Source\PSoC4/ADC.c **** {
 624              		.loc 1 518 0
 625              		.cfi_startproc
 626              	.LVL44:
 519:.\Generated_Source\PSoC4/ADC.c ****     ADC_SAR_CHAN_EN_REG = mask & ADC_MAX_CHANNELS_EN_MASK;
 627              		.loc 1 519 0
 628 0000 0F23     		mov	r3, #15
 629 0002 1840     		and	r0, r3
 630              	.LVL45:
 631 0004 014B     		ldr	r3, .L51
 632 0006 1860     		str	r0, [r3]
 520:.\Generated_Source\PSoC4/ADC.c **** }
 633              		.loc 1 520 0
 634              		@ sp needed
 635 0008 7047     		bx	lr
 636              	.L52:
 637 000a C046     		.align	2
 638              	.L51:
 639 000c 20003A40 		.word	1077542944
 640              		.cfi_endproc
 641              	.LFE10:
 642              		.size	ADC_SetChanMask, .-ADC_SetChanMask
 643              		.section	.text.ADC_EnableInjection,"ax",%progbits
 644              		.align	2
 645              		.global	ADC_EnableInjection
 646              		.code	16
 647              		.thumb_func
 648              		.type	ADC_EnableInjection, %function
 649              	ADC_EnableInjection:
 650              	.LFB11:
 521:.\Generated_Source\PSoC4/ADC.c **** 
 522:.\Generated_Source\PSoC4/ADC.c **** #if(ADC_INJ_CHANNEL_ENABLED)
 523:.\Generated_Source\PSoC4/ADC.c **** 
 524:.\Generated_Source\PSoC4/ADC.c **** 
 525:.\Generated_Source\PSoC4/ADC.c ****     /*******************************************************************************
 526:.\Generated_Source\PSoC4/ADC.c ****     * Function Name: ADC_EnableInjection
 527:.\Generated_Source\PSoC4/ADC.c ****     ********************************************************************************
 528:.\Generated_Source\PSoC4/ADC.c ****     *
 529:.\Generated_Source\PSoC4/ADC.c ****     * Summary:
 530:.\Generated_Source\PSoC4/ADC.c ****     *  Enables the injection channel for the next scan only.
 531:.\Generated_Source\PSoC4/ADC.c ****     *
 532:.\Generated_Source\PSoC4/ADC.c ****     * Parameters:
 533:.\Generated_Source\PSoC4/ADC.c ****     *  None.
 534:.\Generated_Source\PSoC4/ADC.c ****     *
ARM GAS  C:\Users\Luci\AppData\Local\Temp\ccGSFWvZ.s 			page 22


 535:.\Generated_Source\PSoC4/ADC.c ****     * Return:
 536:.\Generated_Source\PSoC4/ADC.c ****     *  None.
 537:.\Generated_Source\PSoC4/ADC.c ****     *
 538:.\Generated_Source\PSoC4/ADC.c ****     *******************************************************************************/
 539:.\Generated_Source\PSoC4/ADC.c ****     void ADC_EnableInjection(void)
 540:.\Generated_Source\PSoC4/ADC.c ****     {
 651              		.loc 1 540 0
 652              		.cfi_startproc
 541:.\Generated_Source\PSoC4/ADC.c ****         ADC_SAR_INJ_CHAN_CONFIG_REG |= ADC_INJ_CHAN_EN;
 653              		.loc 1 541 0
 654 0000 034A     		ldr	r2, .L54
 655 0002 1368     		ldr	r3, [r2]
 656 0004 8021     		mov	r1, #128
 657 0006 0906     		lsl	r1, r1, #24
 658 0008 0B43     		orr	r3, r1
 659 000a 1360     		str	r3, [r2]
 542:.\Generated_Source\PSoC4/ADC.c ****     }
 660              		.loc 1 542 0
 661              		@ sp needed
 662 000c 7047     		bx	lr
 663              	.L55:
 664 000e C046     		.align	2
 665              	.L54:
 666 0010 80023A40 		.word	1077543552
 667              		.cfi_endproc
 668              	.LFE11:
 669              		.size	ADC_EnableInjection, .-ADC_EnableInjection
 670              		.section	.text.ADC_SetLowLimit,"ax",%progbits
 671              		.align	2
 672              		.global	ADC_SetLowLimit
 673              		.code	16
 674              		.thumb_func
 675              		.type	ADC_SetLowLimit, %function
 676              	ADC_SetLowLimit:
 677              	.LFB12:
 543:.\Generated_Source\PSoC4/ADC.c **** 
 544:.\Generated_Source\PSoC4/ADC.c **** #endif /* ADC_INJ_CHANNEL_ENABLED */
 545:.\Generated_Source\PSoC4/ADC.c **** 
 546:.\Generated_Source\PSoC4/ADC.c **** 
 547:.\Generated_Source\PSoC4/ADC.c **** /*******************************************************************************
 548:.\Generated_Source\PSoC4/ADC.c **** * Function Name: ADC_SetLowLimit
 549:.\Generated_Source\PSoC4/ADC.c **** ********************************************************************************
 550:.\Generated_Source\PSoC4/ADC.c **** *
 551:.\Generated_Source\PSoC4/ADC.c **** * Summary:
 552:.\Generated_Source\PSoC4/ADC.c **** *  Sets the low limit parameter for a limit condition.
 553:.\Generated_Source\PSoC4/ADC.c **** *
 554:.\Generated_Source\PSoC4/ADC.c **** * Parameters:
 555:.\Generated_Source\PSoC4/ADC.c **** *  lowLimit: The low limit for a limit condition.
 556:.\Generated_Source\PSoC4/ADC.c **** *
 557:.\Generated_Source\PSoC4/ADC.c **** * Return:
 558:.\Generated_Source\PSoC4/ADC.c **** *  None.
 559:.\Generated_Source\PSoC4/ADC.c **** *
 560:.\Generated_Source\PSoC4/ADC.c **** *******************************************************************************/
 561:.\Generated_Source\PSoC4/ADC.c **** void ADC_SetLowLimit(uint32 lowLimit)
 562:.\Generated_Source\PSoC4/ADC.c **** {
 678              		.loc 1 562 0
 679              		.cfi_startproc
ARM GAS  C:\Users\Luci\AppData\Local\Temp\ccGSFWvZ.s 			page 23


 680              	.LVL46:
 563:.\Generated_Source\PSoC4/ADC.c ****     ADC_SAR_RANGE_THRES_REG &= (uint32)(~ADC_RANGE_LOW_MASK);
 681              		.loc 1 563 0
 682 0000 054A     		ldr	r2, .L57
 683 0002 1368     		ldr	r3, [r2]
 684 0004 1B0C     		lsr	r3, r3, #16
 685 0006 1B04     		lsl	r3, r3, #16
 686 0008 1360     		str	r3, [r2]
 564:.\Generated_Source\PSoC4/ADC.c ****     ADC_SAR_RANGE_THRES_REG |= lowLimit & ADC_RANGE_LOW_MASK;
 687              		.loc 1 564 0
 688 000a 1368     		ldr	r3, [r2]
 689 000c 0004     		lsl	r0, r0, #16
 690              	.LVL47:
 691 000e 000C     		lsr	r0, r0, #16
 692 0010 1843     		orr	r0, r3
 693 0012 1060     		str	r0, [r2]
 565:.\Generated_Source\PSoC4/ADC.c **** }
 694              		.loc 1 565 0
 695              		@ sp needed
 696 0014 7047     		bx	lr
 697              	.L58:
 698 0016 C046     		.align	2
 699              	.L57:
 700 0018 18003A40 		.word	1077542936
 701              		.cfi_endproc
 702              	.LFE12:
 703              		.size	ADC_SetLowLimit, .-ADC_SetLowLimit
 704              		.section	.text.ADC_SetHighLimit,"ax",%progbits
 705              		.align	2
 706              		.global	ADC_SetHighLimit
 707              		.code	16
 708              		.thumb_func
 709              		.type	ADC_SetHighLimit, %function
 710              	ADC_SetHighLimit:
 711              	.LFB13:
 566:.\Generated_Source\PSoC4/ADC.c **** 
 567:.\Generated_Source\PSoC4/ADC.c **** 
 568:.\Generated_Source\PSoC4/ADC.c **** /*******************************************************************************
 569:.\Generated_Source\PSoC4/ADC.c **** * Function Name: ADC_SetHighLimit
 570:.\Generated_Source\PSoC4/ADC.c **** ********************************************************************************
 571:.\Generated_Source\PSoC4/ADC.c **** *
 572:.\Generated_Source\PSoC4/ADC.c **** * Summary:
 573:.\Generated_Source\PSoC4/ADC.c **** *  Sets the low limit parameter for a limit condition.
 574:.\Generated_Source\PSoC4/ADC.c **** *
 575:.\Generated_Source\PSoC4/ADC.c **** * Parameters:
 576:.\Generated_Source\PSoC4/ADC.c **** *  highLimit: The high limit for a limit condition.
 577:.\Generated_Source\PSoC4/ADC.c **** *
 578:.\Generated_Source\PSoC4/ADC.c **** * Return:
 579:.\Generated_Source\PSoC4/ADC.c **** *  None.
 580:.\Generated_Source\PSoC4/ADC.c **** *
 581:.\Generated_Source\PSoC4/ADC.c **** *******************************************************************************/
 582:.\Generated_Source\PSoC4/ADC.c **** void ADC_SetHighLimit(uint32 highLimit)
 583:.\Generated_Source\PSoC4/ADC.c **** {
 712              		.loc 1 583 0
 713              		.cfi_startproc
 714              	.LVL48:
 584:.\Generated_Source\PSoC4/ADC.c ****     ADC_SAR_RANGE_THRES_REG &= (uint32)(~ADC_RANGE_HIGH_MASK);
ARM GAS  C:\Users\Luci\AppData\Local\Temp\ccGSFWvZ.s 			page 24


 715              		.loc 1 584 0
 716 0000 044A     		ldr	r2, .L60
 717 0002 1368     		ldr	r3, [r2]
 718 0004 1B04     		lsl	r3, r3, #16
 719 0006 1B0C     		lsr	r3, r3, #16
 720 0008 1360     		str	r3, [r2]
 585:.\Generated_Source\PSoC4/ADC.c ****     ADC_SAR_RANGE_THRES_REG |= (uint32)(highLimit << ADC_RANGE_HIGH_OFFSET);
 721              		.loc 1 585 0
 722 000a 1368     		ldr	r3, [r2]
 723 000c 0004     		lsl	r0, r0, #16
 724              	.LVL49:
 725 000e 1843     		orr	r0, r3
 726 0010 1060     		str	r0, [r2]
 586:.\Generated_Source\PSoC4/ADC.c **** }
 727              		.loc 1 586 0
 728              		@ sp needed
 729 0012 7047     		bx	lr
 730              	.L61:
 731              		.align	2
 732              	.L60:
 733 0014 18003A40 		.word	1077542936
 734              		.cfi_endproc
 735              	.LFE13:
 736              		.size	ADC_SetHighLimit, .-ADC_SetHighLimit
 737              		.section	.text.ADC_SetLimitMask,"ax",%progbits
 738              		.align	2
 739              		.global	ADC_SetLimitMask
 740              		.code	16
 741              		.thumb_func
 742              		.type	ADC_SetLimitMask, %function
 743              	ADC_SetLimitMask:
 744              	.LFB14:
 587:.\Generated_Source\PSoC4/ADC.c **** 
 588:.\Generated_Source\PSoC4/ADC.c **** 
 589:.\Generated_Source\PSoC4/ADC.c **** /*******************************************************************************
 590:.\Generated_Source\PSoC4/ADC.c **** * Function Name: ADC_SetLimitMask
 591:.\Generated_Source\PSoC4/ADC.c **** ********************************************************************************
 592:.\Generated_Source\PSoC4/ADC.c **** *
 593:.\Generated_Source\PSoC4/ADC.c **** * Summary:
 594:.\Generated_Source\PSoC4/ADC.c **** *  Sets the channel limit condition mask.
 595:.\Generated_Source\PSoC4/ADC.c **** *
 596:.\Generated_Source\PSoC4/ADC.c **** * Parameters:
 597:.\Generated_Source\PSoC4/ADC.c **** *  mask: Sets which channels that may cause a
 598:.\Generated_Source\PSoC4/ADC.c **** *  limit condition interrupt. Setting bits for channels that do not exist
 599:.\Generated_Source\PSoC4/ADC.c **** *  will have no effect. For example, if only 6 channels were enabled,
 600:.\Generated_Source\PSoC4/ADC.c **** *  setting a mask of 0x0103 would only enable the last two channels (0 and 1).
 601:.\Generated_Source\PSoC4/ADC.c **** *
 602:.\Generated_Source\PSoC4/ADC.c **** * Return:
 603:.\Generated_Source\PSoC4/ADC.c **** *  None.
 604:.\Generated_Source\PSoC4/ADC.c **** *
 605:.\Generated_Source\PSoC4/ADC.c **** *******************************************************************************/
 606:.\Generated_Source\PSoC4/ADC.c **** void ADC_SetLimitMask(uint32 mask)
 607:.\Generated_Source\PSoC4/ADC.c **** {
 745              		.loc 1 607 0
 746              		.cfi_startproc
 747              	.LVL50:
 608:.\Generated_Source\PSoC4/ADC.c ****     ADC_SAR_RANGE_INTR_MASK_REG = mask & ADC_MAX_CHANNELS_EN_MASK;
ARM GAS  C:\Users\Luci\AppData\Local\Temp\ccGSFWvZ.s 			page 25


 748              		.loc 1 608 0
 749 0000 0F23     		mov	r3, #15
 750 0002 1840     		and	r0, r3
 751              	.LVL51:
 752 0004 014B     		ldr	r3, .L63
 753 0006 1860     		str	r0, [r3]
 609:.\Generated_Source\PSoC4/ADC.c **** }
 754              		.loc 1 609 0
 755              		@ sp needed
 756 0008 7047     		bx	lr
 757              	.L64:
 758 000a C046     		.align	2
 759              	.L63:
 760 000c 38023A40 		.word	1077543480
 761              		.cfi_endproc
 762              	.LFE14:
 763              		.size	ADC_SetLimitMask, .-ADC_SetLimitMask
 764              		.section	.text.ADC_SetSatMask,"ax",%progbits
 765              		.align	2
 766              		.global	ADC_SetSatMask
 767              		.code	16
 768              		.thumb_func
 769              		.type	ADC_SetSatMask, %function
 770              	ADC_SetSatMask:
 771              	.LFB15:
 610:.\Generated_Source\PSoC4/ADC.c **** 
 611:.\Generated_Source\PSoC4/ADC.c **** 
 612:.\Generated_Source\PSoC4/ADC.c **** /*******************************************************************************
 613:.\Generated_Source\PSoC4/ADC.c **** * Function Name: ADC_SetSatMask
 614:.\Generated_Source\PSoC4/ADC.c **** ********************************************************************************
 615:.\Generated_Source\PSoC4/ADC.c **** *
 616:.\Generated_Source\PSoC4/ADC.c **** * Summary:
 617:.\Generated_Source\PSoC4/ADC.c **** *  Sets the channel saturation event mask.
 618:.\Generated_Source\PSoC4/ADC.c **** *
 619:.\Generated_Source\PSoC4/ADC.c **** * Parameters:
 620:.\Generated_Source\PSoC4/ADC.c **** *  mask: Sets which channels that may cause a
 621:.\Generated_Source\PSoC4/ADC.c **** *  saturation event interrupt. Setting bits for channels that do not exist
 622:.\Generated_Source\PSoC4/ADC.c **** *  will have no effect. For example, if only 8 channels were enabled,
 623:.\Generated_Source\PSoC4/ADC.c **** *  setting a mask of 0x01C0 would only enable two channels (6 and 7).
 624:.\Generated_Source\PSoC4/ADC.c **** *
 625:.\Generated_Source\PSoC4/ADC.c **** * Return:
 626:.\Generated_Source\PSoC4/ADC.c **** *  None.
 627:.\Generated_Source\PSoC4/ADC.c **** *
 628:.\Generated_Source\PSoC4/ADC.c **** *******************************************************************************/
 629:.\Generated_Source\PSoC4/ADC.c **** void ADC_SetSatMask(uint32 mask)
 630:.\Generated_Source\PSoC4/ADC.c **** {
 772              		.loc 1 630 0
 773              		.cfi_startproc
 774              	.LVL52:
 631:.\Generated_Source\PSoC4/ADC.c ****     ADC_SAR_SATURATE_INTR_MASK_REG = mask & ADC_MAX_CHANNELS_EN_MASK;
 775              		.loc 1 631 0
 776 0000 0F23     		mov	r3, #15
 777 0002 1840     		and	r0, r3
 778              	.LVL53:
 779 0004 014B     		ldr	r3, .L66
 780 0006 1860     		str	r0, [r3]
 632:.\Generated_Source\PSoC4/ADC.c **** }
ARM GAS  C:\Users\Luci\AppData\Local\Temp\ccGSFWvZ.s 			page 26


 781              		.loc 1 632 0
 782              		@ sp needed
 783 0008 7047     		bx	lr
 784              	.L67:
 785 000a C046     		.align	2
 786              	.L66:
 787 000c 28023A40 		.word	1077543464
 788              		.cfi_endproc
 789              	.LFE15:
 790              		.size	ADC_SetSatMask, .-ADC_SetSatMask
 791              		.section	.text.ADC_SetOffset,"ax",%progbits
 792              		.align	2
 793              		.global	ADC_SetOffset
 794              		.code	16
 795              		.thumb_func
 796              		.type	ADC_SetOffset, %function
 797              	ADC_SetOffset:
 798              	.LFB16:
 633:.\Generated_Source\PSoC4/ADC.c **** 
 634:.\Generated_Source\PSoC4/ADC.c **** 
 635:.\Generated_Source\PSoC4/ADC.c **** /*******************************************************************************
 636:.\Generated_Source\PSoC4/ADC.c **** * Function Name: ADC_SetOffset
 637:.\Generated_Source\PSoC4/ADC.c **** ********************************************************************************
 638:.\Generated_Source\PSoC4/ADC.c **** *
 639:.\Generated_Source\PSoC4/ADC.c **** * Summary:
 640:.\Generated_Source\PSoC4/ADC.c **** *   Description: Sets the ADC offset which is used by the functions
 641:.\Generated_Source\PSoC4/ADC.c **** *   ADC_CountsTo_uVolts, ADC_CountsTo_mVolts and ADC_CountsTo_Volts
 642:.\Generated_Source\PSoC4/ADC.c **** *   to substract the offset from the given reading
 643:.\Generated_Source\PSoC4/ADC.c **** *   before calculating the voltage conversion.
 644:.\Generated_Source\PSoC4/ADC.c **** *
 645:.\Generated_Source\PSoC4/ADC.c **** * Parameters:
 646:.\Generated_Source\PSoC4/ADC.c **** *  chan: ADC channel number.
 647:.\Generated_Source\PSoC4/ADC.c **** *  offset: This value is a measured value when the
 648:.\Generated_Source\PSoC4/ADC.c **** *          inputs are shorted or connected to the same input voltage.
 649:.\Generated_Source\PSoC4/ADC.c **** *
 650:.\Generated_Source\PSoC4/ADC.c **** * Return:
 651:.\Generated_Source\PSoC4/ADC.c **** *  None.
 652:.\Generated_Source\PSoC4/ADC.c **** *
 653:.\Generated_Source\PSoC4/ADC.c **** * Global variables:
 654:.\Generated_Source\PSoC4/ADC.c **** *  ADC_Offset:  Modified to set the user provided offset.
 655:.\Generated_Source\PSoC4/ADC.c **** *
 656:.\Generated_Source\PSoC4/ADC.c **** *******************************************************************************/
 657:.\Generated_Source\PSoC4/ADC.c **** void ADC_SetOffset(uint32 chan, int16 offset)
 658:.\Generated_Source\PSoC4/ADC.c **** {
 799              		.loc 1 658 0
 800              		.cfi_startproc
 801              	.LVL54:
 802 0000 38B5     		push	{r3, r4, r5, lr}
 803              		.cfi_def_cfa_offset 16
 804              		.cfi_offset 3, -16
 805              		.cfi_offset 4, -12
 806              		.cfi_offset 5, -8
 807              		.cfi_offset 14, -4
 808 0002 041C     		mov	r4, r0
 809 0004 0D1C     		mov	r5, r1
 659:.\Generated_Source\PSoC4/ADC.c ****     /* Halt CPU in debug mode if channel is out of valid range */
 660:.\Generated_Source\PSoC4/ADC.c ****     CYASSERT(chan < ADC_TOTAL_CHANNELS_NUM);
ARM GAS  C:\Users\Luci\AppData\Local\Temp\ccGSFWvZ.s 			page 27


 810              		.loc 1 660 0
 811 0006 0428     		cmp	r0, #4
 812 0008 02D9     		bls	.L69
 813              		.loc 1 660 0 is_stmt 0 discriminator 1
 814 000a 0020     		mov	r0, #0
 815              	.LVL55:
 816 000c FFF7FEFF 		bl	CyHalt
 817              	.LVL56:
 818              	.L69:
 661:.\Generated_Source\PSoC4/ADC.c **** 
 662:.\Generated_Source\PSoC4/ADC.c ****     ADC_offset[chan] = offset;
 819              		.loc 1 662 0 is_stmt 1
 820 0010 6400     		lsl	r4, r4, #1
 821              	.LVL57:
 822 0012 014B     		ldr	r3, .L70
 823 0014 E552     		strh	r5, [r4, r3]
 663:.\Generated_Source\PSoC4/ADC.c **** }
 824              		.loc 1 663 0
 825              		@ sp needed
 826 0016 38BD     		pop	{r3, r4, r5, pc}
 827              	.L71:
 828              		.align	2
 829              	.L70:
 830 0018 00000000 		.word	ADC_offset
 831              		.cfi_endproc
 832              	.LFE16:
 833              		.size	ADC_SetOffset, .-ADC_SetOffset
 834              		.section	.text.ADC_SetGain,"ax",%progbits
 835              		.align	2
 836              		.global	ADC_SetGain
 837              		.code	16
 838              		.thumb_func
 839              		.type	ADC_SetGain, %function
 840              	ADC_SetGain:
 841              	.LFB17:
 664:.\Generated_Source\PSoC4/ADC.c **** 
 665:.\Generated_Source\PSoC4/ADC.c **** 
 666:.\Generated_Source\PSoC4/ADC.c **** /*******************************************************************************
 667:.\Generated_Source\PSoC4/ADC.c **** * Function Name: ADC_SetGain
 668:.\Generated_Source\PSoC4/ADC.c **** ********************************************************************************
 669:.\Generated_Source\PSoC4/ADC.c **** *
 670:.\Generated_Source\PSoC4/ADC.c **** * Summary:
 671:.\Generated_Source\PSoC4/ADC.c **** *  Description: Sets the ADC gain in counts per 10 volt for the voltage
 672:.\Generated_Source\PSoC4/ADC.c **** *  conversion functions below. This value is set by default by the
 673:.\Generated_Source\PSoC4/ADC.c **** *  reference and input range settings. It should only be used to further
 674:.\Generated_Source\PSoC4/ADC.c **** *  calibrate the ADC with a known input or if an external reference is
 675:.\Generated_Source\PSoC4/ADC.c **** *  used. Affects the ADC_CountsTo_uVolts, ADC_CountsTo_mVolts
 676:.\Generated_Source\PSoC4/ADC.c **** *  and ADC_CountsTo_Volts functions by supplying the correct
 677:.\Generated_Source\PSoC4/ADC.c **** *  conversion between ADC counts and voltage.
 678:.\Generated_Source\PSoC4/ADC.c **** *
 679:.\Generated_Source\PSoC4/ADC.c **** * Parameters:
 680:.\Generated_Source\PSoC4/ADC.c **** *  chan: ADC channel number.
 681:.\Generated_Source\PSoC4/ADC.c **** *  adcGain: ADC gain in counts per 10 volts.
 682:.\Generated_Source\PSoC4/ADC.c **** *
 683:.\Generated_Source\PSoC4/ADC.c **** * Return:
 684:.\Generated_Source\PSoC4/ADC.c **** *  None.
 685:.\Generated_Source\PSoC4/ADC.c **** *
ARM GAS  C:\Users\Luci\AppData\Local\Temp\ccGSFWvZ.s 			page 28


 686:.\Generated_Source\PSoC4/ADC.c **** * Global variables:
 687:.\Generated_Source\PSoC4/ADC.c **** *  ADC_CountsPer10Volt:  modified to set the ADC gain in counts
 688:.\Generated_Source\PSoC4/ADC.c **** *   per 10 volt.
 689:.\Generated_Source\PSoC4/ADC.c **** *
 690:.\Generated_Source\PSoC4/ADC.c **** *******************************************************************************/
 691:.\Generated_Source\PSoC4/ADC.c **** void ADC_SetGain(uint32 chan, int32 adcGain)
 692:.\Generated_Source\PSoC4/ADC.c **** {
 842              		.loc 1 692 0
 843              		.cfi_startproc
 844              	.LVL58:
 845 0000 38B5     		push	{r3, r4, r5, lr}
 846              		.cfi_def_cfa_offset 16
 847              		.cfi_offset 3, -16
 848              		.cfi_offset 4, -12
 849              		.cfi_offset 5, -8
 850              		.cfi_offset 14, -4
 851 0002 041C     		mov	r4, r0
 852 0004 0D1C     		mov	r5, r1
 693:.\Generated_Source\PSoC4/ADC.c ****     /* Halt CPU in debug mode if channel is out of valid range */
 694:.\Generated_Source\PSoC4/ADC.c ****     CYASSERT(chan < ADC_TOTAL_CHANNELS_NUM);
 853              		.loc 1 694 0
 854 0006 0428     		cmp	r0, #4
 855 0008 02D9     		bls	.L73
 856              		.loc 1 694 0 is_stmt 0 discriminator 1
 857 000a 0020     		mov	r0, #0
 858              	.LVL59:
 859 000c FFF7FEFF 		bl	CyHalt
 860              	.LVL60:
 861              	.L73:
 695:.\Generated_Source\PSoC4/ADC.c **** 
 696:.\Generated_Source\PSoC4/ADC.c ****     ADC_countsPer10Volt[chan] = adcGain;
 862              		.loc 1 696 0 is_stmt 1
 863 0010 A400     		lsl	r4, r4, #2
 864              	.LVL61:
 865 0012 014B     		ldr	r3, .L74
 866 0014 E550     		str	r5, [r4, r3]
 697:.\Generated_Source\PSoC4/ADC.c **** }
 867              		.loc 1 697 0
 868              		@ sp needed
 869              	.LVL62:
 870 0016 38BD     		pop	{r3, r4, r5, pc}
 871              	.L75:
 872              		.align	2
 873              	.L74:
 874 0018 00000000 		.word	ADC_countsPer10Volt
 875              		.cfi_endproc
 876              	.LFE17:
 877              		.size	ADC_SetGain, .-ADC_SetGain
 878              		.global	__aeabi_idiv
 879              		.section	.text.ADC_CountsTo_mVolts,"ax",%progbits
 880              		.align	2
 881              		.global	ADC_CountsTo_mVolts
 882              		.code	16
 883              		.thumb_func
 884              		.type	ADC_CountsTo_mVolts, %function
 885              	ADC_CountsTo_mVolts:
 886              	.LFB18:
ARM GAS  C:\Users\Luci\AppData\Local\Temp\ccGSFWvZ.s 			page 29


 698:.\Generated_Source\PSoC4/ADC.c **** 
 699:.\Generated_Source\PSoC4/ADC.c **** 
 700:.\Generated_Source\PSoC4/ADC.c **** #if(ADC_DEFAULT_JUSTIFICATION_SEL == ADC__RIGHT)
 701:.\Generated_Source\PSoC4/ADC.c **** 
 702:.\Generated_Source\PSoC4/ADC.c **** 
 703:.\Generated_Source\PSoC4/ADC.c ****     /*******************************************************************************
 704:.\Generated_Source\PSoC4/ADC.c ****     * Function Name: ADC_CountsTo_mVolts
 705:.\Generated_Source\PSoC4/ADC.c ****     ********************************************************************************
 706:.\Generated_Source\PSoC4/ADC.c ****     *
 707:.\Generated_Source\PSoC4/ADC.c ****     * Summary:
 708:.\Generated_Source\PSoC4/ADC.c ****     *  This function converts ADC counts to mVolts
 709:.\Generated_Source\PSoC4/ADC.c ****     *  This function is not available when left data format justification selected.
 710:.\Generated_Source\PSoC4/ADC.c ****     *
 711:.\Generated_Source\PSoC4/ADC.c ****     * Parameters:
 712:.\Generated_Source\PSoC4/ADC.c ****     *  chan: The ADC channel number.
 713:.\Generated_Source\PSoC4/ADC.c ****     *  adcCounts: Result from the ADC conversion
 714:.\Generated_Source\PSoC4/ADC.c ****     *
 715:.\Generated_Source\PSoC4/ADC.c ****     * Return:
 716:.\Generated_Source\PSoC4/ADC.c ****     *  Results in mVolts
 717:.\Generated_Source\PSoC4/ADC.c ****     *
 718:.\Generated_Source\PSoC4/ADC.c ****     * Global variables:
 719:.\Generated_Source\PSoC4/ADC.c ****     *  ADC_countsPer10Volt:  used to convert ADC counts to mVolts.
 720:.\Generated_Source\PSoC4/ADC.c ****     *  ADC_Offset:  Used as the offset while converting ADC counts
 721:.\Generated_Source\PSoC4/ADC.c ****     *   to mVolts.
 722:.\Generated_Source\PSoC4/ADC.c ****     *
 723:.\Generated_Source\PSoC4/ADC.c ****     *******************************************************************************/
 724:.\Generated_Source\PSoC4/ADC.c ****     int16 ADC_CountsTo_mVolts(uint32 chan, int16 adcCounts)
 725:.\Generated_Source\PSoC4/ADC.c ****     {
 887              		.loc 1 725 0
 888              		.cfi_startproc
 889              	.LVL63:
 890 0000 38B5     		push	{r3, r4, r5, lr}
 891              		.cfi_def_cfa_offset 16
 892              		.cfi_offset 3, -16
 893              		.cfi_offset 4, -12
 894              		.cfi_offset 5, -8
 895              		.cfi_offset 14, -4
 896 0002 041C     		mov	r4, r0
 897 0004 0D1C     		mov	r5, r1
 726:.\Generated_Source\PSoC4/ADC.c ****         int16 mVolts;
 727:.\Generated_Source\PSoC4/ADC.c **** 
 728:.\Generated_Source\PSoC4/ADC.c ****         /* Halt CPU in debug mode if channel is out of valid range */
 729:.\Generated_Source\PSoC4/ADC.c ****         CYASSERT(chan < ADC_TOTAL_CHANNELS_NUM);
 898              		.loc 1 729 0
 899 0006 0428     		cmp	r0, #4
 900 0008 02D9     		bls	.L77
 901              		.loc 1 729 0 is_stmt 0 discriminator 1
 902 000a 0020     		mov	r0, #0
 903              	.LVL64:
 904 000c FFF7FEFF 		bl	CyHalt
 905              	.LVL65:
 906              	.L77:
 730:.\Generated_Source\PSoC4/ADC.c **** 
 731:.\Generated_Source\PSoC4/ADC.c ****         /* Divide the adcCount when accumulate averaging mode selected */
 732:.\Generated_Source\PSoC4/ADC.c ****         #if(ADC_DEFAULT_AVG_MODE == ADC__ACCUMULATE)
 733:.\Generated_Source\PSoC4/ADC.c ****             if((ADC_channelsConfig[chan] & ADC_AVERAGING_EN) != 0u)
 734:.\Generated_Source\PSoC4/ADC.c ****             {
ARM GAS  C:\Users\Luci\AppData\Local\Temp\ccGSFWvZ.s 			page 30


 735:.\Generated_Source\PSoC4/ADC.c ****                 adcCounts /= ADC_DEFAULT_AVG_SAMPLES_DIV;
 736:.\Generated_Source\PSoC4/ADC.c ****             }
 737:.\Generated_Source\PSoC4/ADC.c ****         #endif /* ADC_DEFAULT_AVG_MODE == ADC__ACCUMULATE */
 738:.\Generated_Source\PSoC4/ADC.c **** 
 739:.\Generated_Source\PSoC4/ADC.c ****         /* Subtract ADC offset */
 740:.\Generated_Source\PSoC4/ADC.c ****         adcCounts -= ADC_offset[chan];
 907              		.loc 1 740 0 is_stmt 1
 908 0010 6300     		lsl	r3, r4, #1
 909 0012 0F4A     		ldr	r2, .L80
 910 0014 995A     		ldrh	r1, [r3, r2]
 911 0016 691A     		sub	r1, r5, r1
 912 0018 09B2     		sxth	r1, r1
 913              	.LVL66:
 741:.\Generated_Source\PSoC4/ADC.c **** 
 742:.\Generated_Source\PSoC4/ADC.c ****         mVolts = (int16)((((int32)adcCounts * ADC_10MV_COUNTS) + ( (adcCounts > 0) ?
 914              		.loc 1 742 0
 915 001a 0E48     		ldr	r0, .L80+4
 916 001c 021C     		mov	r2, r0
 917 001e 4A43     		mul	r2, r1
 743:.\Generated_Source\PSoC4/ADC.c ****                  (ADC_countsPer10Volt[chan] / 2) : (-(ADC_countsPer10Volt[chan] / 2)) ))
 918              		.loc 1 743 0
 919 0020 0029     		cmp	r1, #0
 920 0022 06DD     		ble	.L78
 921              		.loc 1 743 0 is_stmt 0 discriminator 1
 922 0024 A300     		lsl	r3, r4, #2
 923 0026 0C49     		ldr	r1, .L80+8
 924              	.LVL67:
 925 0028 5B58     		ldr	r3, [r3, r1]
 926 002a D80F     		lsr	r0, r3, #31
 927 002c C018     		add	r0, r0, r3
 928 002e 4310     		asr	r3, r0, #1
 929 0030 06E0     		b	.L79
 930              	.LVL68:
 931              	.L78:
 932              		.loc 1 743 0 discriminator 2
 933 0032 A300     		lsl	r3, r4, #2
 934 0034 0849     		ldr	r1, .L80+8
 935              	.LVL69:
 936 0036 5B58     		ldr	r3, [r3, r1]
 937 0038 D80F     		lsr	r0, r3, #31
 938 003a C318     		add	r3, r0, r3
 939 003c 5B10     		asr	r3, r3, #1
 940 003e 5B42     		neg	r3, r3
 941              	.L79:
 742:.\Generated_Source\PSoC4/ADC.c ****                  (ADC_countsPer10Volt[chan] / 2) : (-(ADC_countsPer10Volt[chan] / 2)) ))
 942              		.loc 1 742 0 is_stmt 1
 943 0040 D018     		add	r0, r2, r3
 744:.\Generated_Source\PSoC4/ADC.c ****                  / ADC_countsPer10Volt[chan]);
 944              		.loc 1 744 0
 945 0042 A400     		lsl	r4, r4, #2
 946              	.LVL70:
 947 0044 044B     		ldr	r3, .L80+8
 948 0046 E158     		ldr	r1, [r4, r3]
 949 0048 FFF7FEFF 		bl	__aeabi_idiv
 950              	.LVL71:
 745:.\Generated_Source\PSoC4/ADC.c **** 
 746:.\Generated_Source\PSoC4/ADC.c ****         return( mVolts );
ARM GAS  C:\Users\Luci\AppData\Local\Temp\ccGSFWvZ.s 			page 31


 951              		.loc 1 746 0
 952 004c 00B2     		sxth	r0, r0
 747:.\Generated_Source\PSoC4/ADC.c ****     }
 953              		.loc 1 747 0
 954              		@ sp needed
 955 004e 38BD     		pop	{r3, r4, r5, pc}
 956              	.L81:
 957              		.align	2
 958              	.L80:
 959 0050 00000000 		.word	ADC_offset
 960 0054 10270000 		.word	10000
 961 0058 00000000 		.word	ADC_countsPer10Volt
 962              		.cfi_endproc
 963              	.LFE18:
 964              		.size	ADC_CountsTo_mVolts, .-ADC_CountsTo_mVolts
 965              		.global	__aeabi_lmul
 966              		.global	__aeabi_ldivmod
 967              		.section	.text.ADC_CountsTo_uVolts,"ax",%progbits
 968              		.align	2
 969              		.global	ADC_CountsTo_uVolts
 970              		.code	16
 971              		.thumb_func
 972              		.type	ADC_CountsTo_uVolts, %function
 973              	ADC_CountsTo_uVolts:
 974              	.LFB19:
 748:.\Generated_Source\PSoC4/ADC.c **** 
 749:.\Generated_Source\PSoC4/ADC.c **** 
 750:.\Generated_Source\PSoC4/ADC.c ****     /*******************************************************************************
 751:.\Generated_Source\PSoC4/ADC.c ****     * Function Name: ADC_CountsTo_uVolts
 752:.\Generated_Source\PSoC4/ADC.c ****     ********************************************************************************
 753:.\Generated_Source\PSoC4/ADC.c ****     *
 754:.\Generated_Source\PSoC4/ADC.c ****     * Summary:
 755:.\Generated_Source\PSoC4/ADC.c ****     *  This function converts ADC counts to micro Volts
 756:.\Generated_Source\PSoC4/ADC.c ****     *  This function is not available when left data format justification selected.
 757:.\Generated_Source\PSoC4/ADC.c ****     *
 758:.\Generated_Source\PSoC4/ADC.c ****     * Parameters:
 759:.\Generated_Source\PSoC4/ADC.c ****     *  chan: The ADC channel number.
 760:.\Generated_Source\PSoC4/ADC.c ****     *  adcCounts: Result from the ADC conversion
 761:.\Generated_Source\PSoC4/ADC.c ****     *
 762:.\Generated_Source\PSoC4/ADC.c ****     * Return:
 763:.\Generated_Source\PSoC4/ADC.c ****     *  Results in uVolts
 764:.\Generated_Source\PSoC4/ADC.c ****     *
 765:.\Generated_Source\PSoC4/ADC.c ****     * Global variables:
 766:.\Generated_Source\PSoC4/ADC.c ****     *  ADC_countsPer10Volt:  used to convert ADC counts to uVolts.
 767:.\Generated_Source\PSoC4/ADC.c ****     *  ADC_Offset:  Used as the offset while converting ADC counts
 768:.\Generated_Source\PSoC4/ADC.c ****     *   to mVolts.
 769:.\Generated_Source\PSoC4/ADC.c ****     *
 770:.\Generated_Source\PSoC4/ADC.c ****     * Theory:
 771:.\Generated_Source\PSoC4/ADC.c ****     *  Care must be taken to not exceed the maximum value for a 31 bit signed
 772:.\Generated_Source\PSoC4/ADC.c ****     *  number in the conversion to uVolts and at the same time not loose
 773:.\Generated_Source\PSoC4/ADC.c ****     *  resolution.
 774:.\Generated_Source\PSoC4/ADC.c ****     *  To convert adcCounts to microVolts it is required to be multiplied
 775:.\Generated_Source\PSoC4/ADC.c ****     *  on 10 million and later divide on gain in counts per 10V.
 776:.\Generated_Source\PSoC4/ADC.c ****     *
 777:.\Generated_Source\PSoC4/ADC.c ****     *******************************************************************************/
 778:.\Generated_Source\PSoC4/ADC.c ****     int32 ADC_CountsTo_uVolts(uint32 chan, int16 adcCounts)
 779:.\Generated_Source\PSoC4/ADC.c ****     {
ARM GAS  C:\Users\Luci\AppData\Local\Temp\ccGSFWvZ.s 			page 32


 975              		.loc 1 779 0
 976              		.cfi_startproc
 977              	.LVL72:
 978 0000 38B5     		push	{r3, r4, r5, lr}
 979              		.cfi_def_cfa_offset 16
 980              		.cfi_offset 3, -16
 981              		.cfi_offset 4, -12
 982              		.cfi_offset 5, -8
 983              		.cfi_offset 14, -4
 984 0002 051C     		mov	r5, r0
 985 0004 0C1C     		mov	r4, r1
 780:.\Generated_Source\PSoC4/ADC.c ****         int64 uVolts;
 781:.\Generated_Source\PSoC4/ADC.c **** 
 782:.\Generated_Source\PSoC4/ADC.c ****         /* Halt CPU in debug mode if channel is out of valid range */
 783:.\Generated_Source\PSoC4/ADC.c ****         CYASSERT(chan < ADC_TOTAL_CHANNELS_NUM);
 986              		.loc 1 783 0
 987 0006 0428     		cmp	r0, #4
 988 0008 02D9     		bls	.L83
 989              		.loc 1 783 0 is_stmt 0 discriminator 1
 990 000a 0020     		mov	r0, #0
 991              	.LVL73:
 992 000c FFF7FEFF 		bl	CyHalt
 993              	.LVL74:
 994              	.L83:
 784:.\Generated_Source\PSoC4/ADC.c **** 
 785:.\Generated_Source\PSoC4/ADC.c ****         /* Divide the adcCount when accumulate averaging mode selected */
 786:.\Generated_Source\PSoC4/ADC.c ****         #if(ADC_DEFAULT_AVG_MODE == ADC__ACCUMULATE)
 787:.\Generated_Source\PSoC4/ADC.c ****             if((ADC_channelsConfig[chan] & ADC_AVERAGING_EN) != 0u)
 788:.\Generated_Source\PSoC4/ADC.c ****             {
 789:.\Generated_Source\PSoC4/ADC.c ****                 adcCounts /= ADC_DEFAULT_AVG_SAMPLES_DIV;
 790:.\Generated_Source\PSoC4/ADC.c ****             }
 791:.\Generated_Source\PSoC4/ADC.c ****         #endif /* ADC_DEFAULT_AVG_MODE == ADC__ACCUMULATE */
 792:.\Generated_Source\PSoC4/ADC.c **** 
 793:.\Generated_Source\PSoC4/ADC.c ****         /* Subtract ADC offset */
 794:.\Generated_Source\PSoC4/ADC.c ****         adcCounts -= ADC_offset[chan];
 995              		.loc 1 794 0 is_stmt 1
 996 0010 6A00     		lsl	r2, r5, #1
 997 0012 084B     		ldr	r3, .L84
 998 0014 D05A     		ldrh	r0, [r2, r3]
 999 0016 201A     		sub	r0, r4, r0
 1000 0018 00B2     		sxth	r0, r0
 1001              	.LVL75:
 795:.\Generated_Source\PSoC4/ADC.c **** 
 796:.\Generated_Source\PSoC4/ADC.c ****         uVolts = ((int64)adcCounts * ADC_10UV_COUNTS) / ADC_countsPer10Volt[chan];
 1002              		.loc 1 796 0
 1003 001a C117     		asr	r1, r0, #31
 1004 001c 064A     		ldr	r2, .L84+4
 1005 001e 0023     		mov	r3, #0
 1006 0020 FFF7FEFF 		bl	__aeabi_lmul
 1007              	.LVL76:
 1008 0024 AD00     		lsl	r5, r5, #2
 1009              	.LVL77:
 1010 0026 054B     		ldr	r3, .L84+8
 1011 0028 EA58     		ldr	r2, [r5, r3]
 1012 002a D317     		asr	r3, r2, #31
 1013 002c FFF7FEFF 		bl	__aeabi_ldivmod
 1014              	.LVL78:
ARM GAS  C:\Users\Luci\AppData\Local\Temp\ccGSFWvZ.s 			page 33


 797:.\Generated_Source\PSoC4/ADC.c **** 
 798:.\Generated_Source\PSoC4/ADC.c ****         return( (int32)uVolts );
 799:.\Generated_Source\PSoC4/ADC.c ****     }
 1015              		.loc 1 799 0
 1016              		@ sp needed
 1017 0030 38BD     		pop	{r3, r4, r5, pc}
 1018              	.L85:
 1019 0032 C046     		.align	2
 1020              	.L84:
 1021 0034 00000000 		.word	ADC_offset
 1022 0038 80969800 		.word	10000000
 1023 003c 00000000 		.word	ADC_countsPer10Volt
 1024              		.cfi_endproc
 1025              	.LFE19:
 1026              		.size	ADC_CountsTo_uVolts, .-ADC_CountsTo_uVolts
 1027              		.global	__aeabi_i2f
 1028              		.global	__aeabi_fmul
 1029              		.global	__aeabi_fdiv
 1030              		.section	.text.ADC_CountsTo_Volts,"ax",%progbits
 1031              		.align	2
 1032              		.global	ADC_CountsTo_Volts
 1033              		.code	16
 1034              		.thumb_func
 1035              		.type	ADC_CountsTo_Volts, %function
 1036              	ADC_CountsTo_Volts:
 1037              	.LFB20:
 800:.\Generated_Source\PSoC4/ADC.c **** 
 801:.\Generated_Source\PSoC4/ADC.c **** 
 802:.\Generated_Source\PSoC4/ADC.c ****     /*******************************************************************************
 803:.\Generated_Source\PSoC4/ADC.c ****     * Function Name: ADC_CountsTo_Volts
 804:.\Generated_Source\PSoC4/ADC.c ****     ********************************************************************************
 805:.\Generated_Source\PSoC4/ADC.c ****     *
 806:.\Generated_Source\PSoC4/ADC.c ****     * Summary:
 807:.\Generated_Source\PSoC4/ADC.c ****     *  Converts the ADC output to Volts as a floating point number.
 808:.\Generated_Source\PSoC4/ADC.c ****     *  This function is not available when left data format justification selected.
 809:.\Generated_Source\PSoC4/ADC.c ****     *
 810:.\Generated_Source\PSoC4/ADC.c ****     * Parameters:
 811:.\Generated_Source\PSoC4/ADC.c ****     *  chan: The ADC channel number.
 812:.\Generated_Source\PSoC4/ADC.c ****     *  Result from the ADC conversion
 813:.\Generated_Source\PSoC4/ADC.c ****     *
 814:.\Generated_Source\PSoC4/ADC.c ****     * Return:
 815:.\Generated_Source\PSoC4/ADC.c ****     *  Results in Volts
 816:.\Generated_Source\PSoC4/ADC.c ****     *
 817:.\Generated_Source\PSoC4/ADC.c ****     * Global variables:
 818:.\Generated_Source\PSoC4/ADC.c ****     *  ADC_countsPer10Volt:  used to convert ADC counts to Volts.
 819:.\Generated_Source\PSoC4/ADC.c ****     *  ADC_Offset:  Used as the offset while converting ADC counts
 820:.\Generated_Source\PSoC4/ADC.c ****     *   to mVolts.
 821:.\Generated_Source\PSoC4/ADC.c ****     *
 822:.\Generated_Source\PSoC4/ADC.c ****     *******************************************************************************/
 823:.\Generated_Source\PSoC4/ADC.c ****     float32 ADC_CountsTo_Volts(uint32 chan, int16 adcCounts)
 824:.\Generated_Source\PSoC4/ADC.c ****     {
 1038              		.loc 1 824 0
 1039              		.cfi_startproc
 1040              	.LVL79:
 1041 0000 38B5     		push	{r3, r4, r5, lr}
 1042              		.cfi_def_cfa_offset 16
 1043              		.cfi_offset 3, -16
ARM GAS  C:\Users\Luci\AppData\Local\Temp\ccGSFWvZ.s 			page 34


 1044              		.cfi_offset 4, -12
 1045              		.cfi_offset 5, -8
 1046              		.cfi_offset 14, -4
 1047 0002 041C     		mov	r4, r0
 1048 0004 0D1C     		mov	r5, r1
 825:.\Generated_Source\PSoC4/ADC.c ****         float32 volts;
 826:.\Generated_Source\PSoC4/ADC.c **** 
 827:.\Generated_Source\PSoC4/ADC.c ****         /* Halt CPU in debug mode if channel is out of valid range */
 828:.\Generated_Source\PSoC4/ADC.c ****         CYASSERT(chan < ADC_TOTAL_CHANNELS_NUM);
 1049              		.loc 1 828 0
 1050 0006 0428     		cmp	r0, #4
 1051 0008 02D9     		bls	.L87
 1052              		.loc 1 828 0 is_stmt 0 discriminator 1
 1053 000a 0020     		mov	r0, #0
 1054              	.LVL80:
 1055 000c FFF7FEFF 		bl	CyHalt
 1056              	.LVL81:
 1057              	.L87:
 829:.\Generated_Source\PSoC4/ADC.c **** 
 830:.\Generated_Source\PSoC4/ADC.c ****         /* Divide the adcCount when accumulate averaging mode selected */
 831:.\Generated_Source\PSoC4/ADC.c ****         #if(ADC_DEFAULT_AVG_MODE == ADC__ACCUMULATE)
 832:.\Generated_Source\PSoC4/ADC.c ****             if((ADC_channelsConfig[chan] & ADC_AVERAGING_EN) != 0u)
 833:.\Generated_Source\PSoC4/ADC.c ****             {
 834:.\Generated_Source\PSoC4/ADC.c ****                 adcCounts /= ADC_DEFAULT_AVG_SAMPLES_DIV;
 835:.\Generated_Source\PSoC4/ADC.c ****             }
 836:.\Generated_Source\PSoC4/ADC.c ****         #endif /* ADC_DEFAULT_AVG_MODE == ADC__ACCUMULATE */
 837:.\Generated_Source\PSoC4/ADC.c **** 
 838:.\Generated_Source\PSoC4/ADC.c ****         /* Subtract ADC offset */
 839:.\Generated_Source\PSoC4/ADC.c ****         adcCounts -= ADC_offset[chan];
 1058              		.loc 1 839 0 is_stmt 1
 1059 0010 6200     		lsl	r2, r4, #1
 1060 0012 0A4B     		ldr	r3, .L88
 1061 0014 D05A     		ldrh	r0, [r2, r3]
 1062 0016 281A     		sub	r0, r5, r0
 1063 0018 00B2     		sxth	r0, r0
 1064              	.LVL82:
 840:.\Generated_Source\PSoC4/ADC.c **** 
 841:.\Generated_Source\PSoC4/ADC.c ****         volts = ((float32)adcCounts * ADC_10V_COUNTS) / (float32)ADC_countsPer10Volt[chan];
 1065              		.loc 1 841 0
 1066 001a FFF7FEFF 		bl	__aeabi_i2f
 1067              	.LVL83:
 1068 001e 0849     		ldr	r1, .L88+4
 1069 0020 FFF7FEFF 		bl	__aeabi_fmul
 1070              	.LVL84:
 1071 0024 051C     		add	r5, r0, #0
 1072 0026 A400     		lsl	r4, r4, #2
 1073              	.LVL85:
 1074 0028 064B     		ldr	r3, .L88+8
 1075 002a E058     		ldr	r0, [r4, r3]
 1076 002c FFF7FEFF 		bl	__aeabi_i2f
 1077              	.LVL86:
 1078 0030 011C     		add	r1, r0, #0
 1079 0032 281C     		add	r0, r5, #0
 1080 0034 FFF7FEFF 		bl	__aeabi_fdiv
 1081              	.LVL87:
 842:.\Generated_Source\PSoC4/ADC.c **** 
 843:.\Generated_Source\PSoC4/ADC.c ****         return( volts );
ARM GAS  C:\Users\Luci\AppData\Local\Temp\ccGSFWvZ.s 			page 35


 844:.\Generated_Source\PSoC4/ADC.c ****     }
 1082              		.loc 1 844 0
 1083              		@ sp needed
 1084 0038 38BD     		pop	{r3, r4, r5, pc}
 1085              	.L89:
 1086 003a C046     		.align	2
 1087              	.L88:
 1088 003c 00000000 		.word	ADC_offset
 1089 0040 00002041 		.word	1092616192
 1090 0044 00000000 		.word	ADC_countsPer10Volt
 1091              		.cfi_endproc
 1092              	.LFE20:
 1093              		.size	ADC_CountsTo_Volts, .-ADC_CountsTo_Volts
 1094              		.comm	ADC_countsPer10Volt,20,4
 1095              		.comm	ADC_offset,10,4
 1096              		.global	ADC_initVar
 1097              		.section	.rodata
 1098              		.align	2
 1099              		.set	.LANCHOR0,. + 0
 1100              		.type	ADC_channelsConfig, %object
 1101              		.size	ADC_channelsConfig, 20
 1102              	ADC_channelsConfig:
 1103 0000 00040000 		.word	1024
 1104 0004 00050000 		.word	1280
 1105 0008 00140000 		.word	5120
 1106 000c 00140000 		.word	5120
 1107 0010 00000000 		.word	0
 1108              		.type	ADC_InputsPlacement.4770, %object
 1109              		.size	ADC_InputsPlacement.4770, 5
 1110              	ADC_InputsPlacement.4770:
 1111 0014 05       		.byte	5
 1112 0015 00       		.byte	0
 1113 0016 12       		.byte	18
 1114 0017 13       		.byte	19
 1115 0018 70       		.byte	112
 1116 0019 000000   		.bss
 1117              		.set	.LANCHOR1,. + 0
 1118              		.type	ADC_initVar, %object
 1119              		.size	ADC_initVar, 1
 1120              	ADC_initVar:
 1121 0000 00       		.space	1
 1122              		.text
 1123              	.Letext0:
 1124              		.file 2 ".\\Generated_Source\\PSoC4\\cytypes.h"
 1125              		.file 3 ".\\Generated_Source\\PSoC4\\CyLib.h"