ARM GAS  C:\Users\Luci\AppData\Local\Temp\ccFJ7SSB.s 			page 1


   1              		.cpu cortex-m0
   2              		.fpu softvfp
   3              		.eabi_attribute 20, 1
   4              		.eabi_attribute 21, 1
   5              		.eabi_attribute 23, 3
   6              		.eabi_attribute 24, 1
   7              		.eabi_attribute 25, 1
   8              		.eabi_attribute 26, 1
   9              		.eabi_attribute 30, 1
  10              		.eabi_attribute 34, 0
  11              		.eabi_attribute 18, 4
  12              		.code	16
  13              		.file	"BLE.c"
  14              		.text
  15              	.Ltext0:
  16              		.cfi_sections	.debug_frame
  17              		.section	.text.CyBle_ServiceInit,"ax",%progbits
  18              		.align	2
  19              		.global	CyBle_ServiceInit
  20              		.code	16
  21              		.thumb_func
  22              		.type	CyBle_ServiceInit, %function
  23              	CyBle_ServiceInit:
  24              	.LFB3:
  25              		.file 1 ".\\Generated_Source\\PSoC4\\BLE.c"
   1:.\Generated_Source\PSoC4/BLE.c **** /*******************************************************************************
   2:.\Generated_Source\PSoC4/BLE.c **** File Name: CYBLE.c
   3:.\Generated_Source\PSoC4/BLE.c **** Version 2.0
   4:.\Generated_Source\PSoC4/BLE.c **** 
   5:.\Generated_Source\PSoC4/BLE.c **** Description:
   6:.\Generated_Source\PSoC4/BLE.c ****  This file contains the source code for the Common APIs of the BLE Component.
   7:.\Generated_Source\PSoC4/BLE.c **** 
   8:.\Generated_Source\PSoC4/BLE.c **** ********************************************************************************
   9:.\Generated_Source\PSoC4/BLE.c **** Copyright 2014-2015, Cypress Semiconductor Corporation.  All rights reserved.
  10:.\Generated_Source\PSoC4/BLE.c **** You may use this file only in accordance with the license, terms, conditions,
  11:.\Generated_Source\PSoC4/BLE.c **** disclaimers, and limitations in the end user license agreement accompanying
  12:.\Generated_Source\PSoC4/BLE.c **** the software package with which this file was provided.
  13:.\Generated_Source\PSoC4/BLE.c **** *******************************************************************************/
  14:.\Generated_Source\PSoC4/BLE.c **** 
  15:.\Generated_Source\PSoC4/BLE.c **** #include "BLE_eventHandler.h"
  16:.\Generated_Source\PSoC4/BLE.c **** #include "BLE_HAL_PVT.h"
  17:.\Generated_Source\PSoC4/BLE.c **** 
  18:.\Generated_Source\PSoC4/BLE.c **** 
  19:.\Generated_Source\PSoC4/BLE.c **** /***************************************
  20:.\Generated_Source\PSoC4/BLE.c **** ##Function Prototypes
  21:.\Generated_Source\PSoC4/BLE.c **** ***************************************/
  22:.\Generated_Source\PSoC4/BLE.c **** 
  23:.\Generated_Source\PSoC4/BLE.c **** #if(CYBLE_GATT_ROLE_SERVER)
  24:.\Generated_Source\PSoC4/BLE.c ****     #if(CYBLE_GAP_ROLE_PERIPHERAL)
  25:.\Generated_Source\PSoC4/BLE.c ****         static void CyBle_ChangeAdLocalName(const char8 name[], uint8 dest);
  26:.\Generated_Source\PSoC4/BLE.c ****     #endif /* (CYBLE_GAP_ROLE_PERIPHERAL) */
  27:.\Generated_Source\PSoC4/BLE.c **** #endif /* (CYBLE_GATT_ROLE_SERVER) */
  28:.\Generated_Source\PSoC4/BLE.c ****     
  29:.\Generated_Source\PSoC4/BLE.c **** 
  30:.\Generated_Source\PSoC4/BLE.c **** /***************************************
  31:.\Generated_Source\PSoC4/BLE.c **** ##Global Variables
  32:.\Generated_Source\PSoC4/BLE.c **** ***************************************/
ARM GAS  C:\Users\Luci\AppData\Local\Temp\ccFJ7SSB.s 			page 2


  33:.\Generated_Source\PSoC4/BLE.c **** 
  34:.\Generated_Source\PSoC4/BLE.c **** /* Indicates whether the BLE has been initialized. The variable is initialized to
  35:.\Generated_Source\PSoC4/BLE.c ****    0 and set to 1 the first time CyBle_Start() is called. This allows the component
  36:.\Generated_Source\PSoC4/BLE.c ****    to restart without reinitialization after the first call to the CyBle_Start() 
  37:.\Generated_Source\PSoC4/BLE.c ****    routine. If reinitialization of the component is required, the variable should 
  38:.\Generated_Source\PSoC4/BLE.c ****    be set to 0 before the CyBle_Start() routine is called. Alternatively, the BLE
  39:.\Generated_Source\PSoC4/BLE.c ****    can be reinitialized by calling the CyBle_Init() function.
  40:.\Generated_Source\PSoC4/BLE.c **** */
  41:.\Generated_Source\PSoC4/BLE.c **** uint8  cyBle_initVar = 0u;
  42:.\Generated_Source\PSoC4/BLE.c **** 
  43:.\Generated_Source\PSoC4/BLE.c **** /* Allocate RAM memory for stack. This buffer could be reused by application when 
  44:.\Generated_Source\PSoC4/BLE.c ****    BLE component is stopped. 
  45:.\Generated_Source\PSoC4/BLE.c **** */
  46:.\Generated_Source\PSoC4/BLE.c **** CYBLE_CYALIGNED_BEGIN uint8 cyBle_stackMemoryRam[CYBLE_STACK_RAM_SIZE] CYBLE_CYALIGNED_END;
  47:.\Generated_Source\PSoC4/BLE.c **** 
  48:.\Generated_Source\PSoC4/BLE.c **** #if(CYBLE_GAP_ROLE_PERIPHERAL || CYBLE_GAP_ROLE_BROADCASTER)
  49:.\Generated_Source\PSoC4/BLE.c **** 
  50:.\Generated_Source\PSoC4/BLE.c **** 
  51:.\Generated_Source\PSoC4/BLE.c **** 
  52:.\Generated_Source\PSoC4/BLE.c **** #endif /* CYBLE_GAP_ROLE_PERIPHERAL || CYBLE_GAP_ROLE_BROADCASTER */
  53:.\Generated_Source\PSoC4/BLE.c **** 
  54:.\Generated_Source\PSoC4/BLE.c **** #if(CYBLE_GAP_ROLE_CENTRAL)
  55:.\Generated_Source\PSoC4/BLE.c ****     
  56:.\Generated_Source\PSoC4/BLE.c **** CYBLE_GAPC_CONN_PARAM_T cyBle_connectionParameters;
  57:.\Generated_Source\PSoC4/BLE.c **** 
  58:.\Generated_Source\PSoC4/BLE.c **** /* Connecting timeout is set to 30 seconds in CyBle_Init function. 
  59:.\Generated_Source\PSoC4/BLE.c ****    Not zero value starts timer in CyBle_GapcConnectDevice API.
  60:.\Generated_Source\PSoC4/BLE.c **** */
  61:.\Generated_Source\PSoC4/BLE.c **** uint16 cyBle_connectingTimeout;
  62:.\Generated_Source\PSoC4/BLE.c ****     
  63:.\Generated_Source\PSoC4/BLE.c **** #endif /* CYBLE_GAP_ROLE_CENTRAL */
  64:.\Generated_Source\PSoC4/BLE.c **** 
  65:.\Generated_Source\PSoC4/BLE.c **** #if(CYBLE_GAP_ROLE_CENTRAL || CYBLE_GAP_ROLE_OBSERVER)
  66:.\Generated_Source\PSoC4/BLE.c ****     
  67:.\Generated_Source\PSoC4/BLE.c **** /* This variable of type CYBLE_GAPC_DISC_INFO_T is present only when  
  68:.\Generated_Source\PSoC4/BLE.c ****    the BLE component is configured for Central GAP role or Central and  
  69:.\Generated_Source\PSoC4/BLE.c ****    Peripheral GAP role. It contains the Scan settings entered in the  
  70:.\Generated_Source\PSoC4/BLE.c ****    customizer. This variable can be used by advanced users to change Scan  
  71:.\Generated_Source\PSoC4/BLE.c ****    settings in runtime.
  72:.\Generated_Source\PSoC4/BLE.c **** */
  73:.\Generated_Source\PSoC4/BLE.c **** CYBLE_GAPC_DISC_INFO_T cyBle_discoveryInfo =
  74:.\Generated_Source\PSoC4/BLE.c **** {
  75:.\Generated_Source\PSoC4/BLE.c ****     0x02u,      /* discProcedure */
  76:.\Generated_Source\PSoC4/BLE.c ****     0x01u,      /* scanType */
  77:.\Generated_Source\PSoC4/BLE.c ****     0x0030u,    /* scanInterval */
  78:.\Generated_Source\PSoC4/BLE.c ****     0x0030u,    /* scanWindow */
  79:.\Generated_Source\PSoC4/BLE.c ****     0x00u,      /* ownAddrType */
  80:.\Generated_Source\PSoC4/BLE.c ****     0x00u,      /* scanFilterPolicy */
  81:.\Generated_Source\PSoC4/BLE.c ****     0x001Eu,    /* scanTO */
  82:.\Generated_Source\PSoC4/BLE.c ****     0x00u,      /* filterDuplicates */
  83:.\Generated_Source\PSoC4/BLE.c **** };
  84:.\Generated_Source\PSoC4/BLE.c ****     
  85:.\Generated_Source\PSoC4/BLE.c **** #endif /* CYBLE_GAP_ROLE_CENTRAL || CYBLE_GAP_ROLE_OBSERVER */
  86:.\Generated_Source\PSoC4/BLE.c **** 
  87:.\Generated_Source\PSoC4/BLE.c **** #if((CYBLE_GAP_ROLE_PERIPHERAL || CYBLE_GAP_ROLE_CENTRAL) && (CYBLE_BONDING_REQUIREMENT == CYBLE_BO
  88:.\Generated_Source\PSoC4/BLE.c **** 
  89:.\Generated_Source\PSoC4/BLE.c **** uint8 cyBle_pendingFlashWrite;
ARM GAS  C:\Users\Luci\AppData\Local\Temp\ccFJ7SSB.s 			page 3


  90:.\Generated_Source\PSoC4/BLE.c ****     
  91:.\Generated_Source\PSoC4/BLE.c **** #endif  /* (CYBLE_BONDING_REQUIREMENT == CYBLE_BONDING_YES) */
  92:.\Generated_Source\PSoC4/BLE.c **** 
  93:.\Generated_Source\PSoC4/BLE.c **** CYBLE_CALLBACK_T CyBle_ApplCallback;
  94:.\Generated_Source\PSoC4/BLE.c **** CYBLE_GAP_BD_ADDR_T cyBle_deviceAddress = {{0x00u, 0x00u, 0x00u, 0x50u, 0xA0u, 0x00u}, 0x00u };
  95:.\Generated_Source\PSoC4/BLE.c **** CYBLE_GAP_BD_ADDR_T * cyBle_sflashDeviceAddress = CYBLE_SFLASH_DEVICE_ADDRESS_PTR;
  96:.\Generated_Source\PSoC4/BLE.c **** 
  97:.\Generated_Source\PSoC4/BLE.c **** 
  98:.\Generated_Source\PSoC4/BLE.c **** /******************************************************************************
  99:.\Generated_Source\PSoC4/BLE.c **** ##Function Name: CyBle_Init
 100:.\Generated_Source\PSoC4/BLE.c **** *******************************************************************************
 101:.\Generated_Source\PSoC4/BLE.c ****  Summary:
 102:.\Generated_Source\PSoC4/BLE.c ****   Initializes the component with the parameters set in the customizer.
 103:.\Generated_Source\PSoC4/BLE.c **** 
 104:.\Generated_Source\PSoC4/BLE.c ****  Parameters:
 105:.\Generated_Source\PSoC4/BLE.c ****   None
 106:.\Generated_Source\PSoC4/BLE.c **** 
 107:.\Generated_Source\PSoC4/BLE.c ****  Return:
 108:.\Generated_Source\PSoC4/BLE.c ****   None
 109:.\Generated_Source\PSoC4/BLE.c **** 
 110:.\Generated_Source\PSoC4/BLE.c **** ******************************************************************************/
 111:.\Generated_Source\PSoC4/BLE.c **** void CyBle_Init(void)
 112:.\Generated_Source\PSoC4/BLE.c **** {
 113:.\Generated_Source\PSoC4/BLE.c ****     cyBle_eventHandlerFlag = 0u;
 114:.\Generated_Source\PSoC4/BLE.c ****     cyBle_busyStatus = CYBLE_STACK_STATE_FREE;
 115:.\Generated_Source\PSoC4/BLE.c ****     
 116:.\Generated_Source\PSoC4/BLE.c ****     #if(CYBLE_GAP_ROLE_PERIPHERAL || CYBLE_GAP_ROLE_BROADCASTER) 
 117:.\Generated_Source\PSoC4/BLE.c ****         cyBle_advertisingIntervalType = CYBLE_ADVERTISING_FAST; 
 118:.\Generated_Source\PSoC4/BLE.c ****     #endif /* (CYBLE_GAP_ROLE_PERIPHERAL || CYBLE_GAP_ROLE_BROADCASTER)  */
 119:.\Generated_Source\PSoC4/BLE.c ****     #if(CYBLE_GAP_ROLE_CENTRAL || CYBLE_GAP_ROLE_OBSERVER)
 120:.\Generated_Source\PSoC4/BLE.c ****         cyBle_scanningIntervalType = CYBLE_SCANNING_FAST; 
 121:.\Generated_Source\PSoC4/BLE.c ****     #endif /* (CYBLE_GAP_ROLE_CENTRAL || CYBLE_GAP_ROLE_OBSERVER) */
 122:.\Generated_Source\PSoC4/BLE.c ****         
 123:.\Generated_Source\PSoC4/BLE.c ****     /* Init default connection parameters. 
 124:.\Generated_Source\PSoC4/BLE.c ****        Application may change it before initiating a connection */
 125:.\Generated_Source\PSoC4/BLE.c ****     #if(CYBLE_GAP_ROLE_CENTRAL)
 126:.\Generated_Source\PSoC4/BLE.c ****         cyBle_connectionParameters.scanIntv = cyBle_discoveryInfo.scanIntv;
 127:.\Generated_Source\PSoC4/BLE.c ****         cyBle_connectionParameters.scanWindow = cyBle_discoveryInfo.scanWindow;
 128:.\Generated_Source\PSoC4/BLE.c ****         cyBle_connectionParameters.ownAddrType = cyBle_discoveryInfo.ownAddrType;
 129:.\Generated_Source\PSoC4/BLE.c ****         cyBle_connectionParameters.initiatorFilterPolicy = cyBle_discoveryInfo.scanFilterPolicy;
 130:.\Generated_Source\PSoC4/BLE.c ****         cyBle_connectionParameters.connIntvMin = CYBLE_GAPC_CONNECTION_INTERVAL_MIN;
 131:.\Generated_Source\PSoC4/BLE.c ****         cyBle_connectionParameters.connIntvMax = CYBLE_GAPC_CONNECTION_INTERVAL_MAX;
 132:.\Generated_Source\PSoC4/BLE.c ****         cyBle_connectionParameters.connLatency = CYBLE_GAPC_CONNECTION_SLAVE_LATENCY;
 133:.\Generated_Source\PSoC4/BLE.c ****         cyBle_connectionParameters.supervisionTO = CYBLE_GAPC_CONNECTION_TIME_OUT;
 134:.\Generated_Source\PSoC4/BLE.c ****         cyBle_connectionParameters.minCeLength = 0x0000u;
 135:.\Generated_Source\PSoC4/BLE.c ****         cyBle_connectionParameters.maxCeLength = 0xFFFFu;
 136:.\Generated_Source\PSoC4/BLE.c ****         
 137:.\Generated_Source\PSoC4/BLE.c ****         cyBle_connectingTimeout = CYBLE_GAPC_CONNECTING_TIMEOUT;
 138:.\Generated_Source\PSoC4/BLE.c ****     #endif /* CYBLE_GAP_ROLE_CENTRAL */
 139:.\Generated_Source\PSoC4/BLE.c **** 
 140:.\Generated_Source\PSoC4/BLE.c ****     CyBle_ServiceInit();
 141:.\Generated_Source\PSoC4/BLE.c **** 
 142:.\Generated_Source\PSoC4/BLE.c **** #if((CYBLE_GAP_ROLE_PERIPHERAL || CYBLE_GAP_ROLE_CENTRAL) && (CYBLE_BONDING_REQUIREMENT == CYBLE_BO
 143:.\Generated_Source\PSoC4/BLE.c ****     cyBle_pendingFlashWrite = 0u;
 144:.\Generated_Source\PSoC4/BLE.c **** #endif  /* (CYBLE_BONDING_REQUIREMENT == CYBLE_BONDING_YES) */
 145:.\Generated_Source\PSoC4/BLE.c **** 
 146:.\Generated_Source\PSoC4/BLE.c **** }
ARM GAS  C:\Users\Luci\AppData\Local\Temp\ccFJ7SSB.s 			page 4


 147:.\Generated_Source\PSoC4/BLE.c **** 
 148:.\Generated_Source\PSoC4/BLE.c **** 
 149:.\Generated_Source\PSoC4/BLE.c **** /******************************************************************************
 150:.\Generated_Source\PSoC4/BLE.c **** ##Function Name: CyBle_ServiceInit
 151:.\Generated_Source\PSoC4/BLE.c **** *******************************************************************************
 152:.\Generated_Source\PSoC4/BLE.c **** 
 153:.\Generated_Source\PSoC4/BLE.c **** Summary:
 154:.\Generated_Source\PSoC4/BLE.c ****  Initializes all included services.
 155:.\Generated_Source\PSoC4/BLE.c **** 
 156:.\Generated_Source\PSoC4/BLE.c **** Parameters:
 157:.\Generated_Source\PSoC4/BLE.c ****  None
 158:.\Generated_Source\PSoC4/BLE.c **** 
 159:.\Generated_Source\PSoC4/BLE.c **** Return:
 160:.\Generated_Source\PSoC4/BLE.c ****  None
 161:.\Generated_Source\PSoC4/BLE.c **** 
 162:.\Generated_Source\PSoC4/BLE.c **** ******************************************************************************/
 163:.\Generated_Source\PSoC4/BLE.c **** void CyBle_ServiceInit(void)
 164:.\Generated_Source\PSoC4/BLE.c **** {
  26              		.loc 1 164 0
  27              		.cfi_startproc
  28 0000 08B5     		push	{r3, lr}
  29              		.cfi_def_cfa_offset 8
  30              		.cfi_offset 3, -8
  31              		.cfi_offset 14, -4
 165:.\Generated_Source\PSoC4/BLE.c ****     #if(CYBLE_GATT_ROLE_CLIENT)
 166:.\Generated_Source\PSoC4/BLE.c ****         (void)memset(&cyBle_gapc, 0, sizeof(cyBle_gapc));
 167:.\Generated_Source\PSoC4/BLE.c ****         (void)memset(&cyBle_gattc, 0, sizeof(cyBle_gattc));
 168:.\Generated_Source\PSoC4/BLE.c ****     #endif /* CYBLE_GATT_ROLE_CLIENT */
 169:.\Generated_Source\PSoC4/BLE.c ****     
 170:.\Generated_Source\PSoC4/BLE.c ****     #ifdef CYBLE_ANS
 171:.\Generated_Source\PSoC4/BLE.c ****         CyBle_AnsInit();
  32              		.loc 1 171 0
  33 0002 FFF7FEFF 		bl	CyBle_AnsInit
  34              	.LVL0:
 172:.\Generated_Source\PSoC4/BLE.c ****     #endif /* CYBLE_ANS */
 173:.\Generated_Source\PSoC4/BLE.c ****     
 174:.\Generated_Source\PSoC4/BLE.c ****     #ifdef CYBLE_BAS
 175:.\Generated_Source\PSoC4/BLE.c ****         CyBle_BasInit();
 176:.\Generated_Source\PSoC4/BLE.c ****     #endif /* CYBLE_BAS */
 177:.\Generated_Source\PSoC4/BLE.c ****     
 178:.\Generated_Source\PSoC4/BLE.c ****     #ifdef CYBLE_BLS
 179:.\Generated_Source\PSoC4/BLE.c ****         CyBle_BlsInit();
 180:.\Generated_Source\PSoC4/BLE.c ****     #endif /* CYBLE_BLS */
 181:.\Generated_Source\PSoC4/BLE.c ****     
 182:.\Generated_Source\PSoC4/BLE.c ****     #ifdef CYBLE_BMS
 183:.\Generated_Source\PSoC4/BLE.c ****         CyBle_BmsInit();
 184:.\Generated_Source\PSoC4/BLE.c ****     #endif /* CYBLE_BMS */
 185:.\Generated_Source\PSoC4/BLE.c ****     
 186:.\Generated_Source\PSoC4/BLE.c ****     #ifdef CYBLE_CGMS
 187:.\Generated_Source\PSoC4/BLE.c ****         CyBle_CgmsInit();
 188:.\Generated_Source\PSoC4/BLE.c ****     #endif /* CYBLE_CGMS */
 189:.\Generated_Source\PSoC4/BLE.c **** 
 190:.\Generated_Source\PSoC4/BLE.c ****     #ifdef CYBLE_CPS
 191:.\Generated_Source\PSoC4/BLE.c ****         CyBle_CpsInit();
 192:.\Generated_Source\PSoC4/BLE.c ****     #endif /* CYBLE_CPS */
 193:.\Generated_Source\PSoC4/BLE.c **** 
 194:.\Generated_Source\PSoC4/BLE.c ****     #ifdef CYBLE_CSCS
ARM GAS  C:\Users\Luci\AppData\Local\Temp\ccFJ7SSB.s 			page 5


 195:.\Generated_Source\PSoC4/BLE.c ****         CyBle_CscsInit();
 196:.\Generated_Source\PSoC4/BLE.c ****     #endif /* CYBLE_CSCS */
 197:.\Generated_Source\PSoC4/BLE.c ****     
 198:.\Generated_Source\PSoC4/BLE.c ****     #ifdef CYBLE_CTS
 199:.\Generated_Source\PSoC4/BLE.c ****         CyBle_CtsInit();
 200:.\Generated_Source\PSoC4/BLE.c ****     #endif /* CYBLE_CTS */
 201:.\Generated_Source\PSoC4/BLE.c **** 
 202:.\Generated_Source\PSoC4/BLE.c ****     #ifdef CYBLE_DIS
 203:.\Generated_Source\PSoC4/BLE.c ****         CyBle_DisInit();
 204:.\Generated_Source\PSoC4/BLE.c ****     #endif /* CYBLE_DIS */
 205:.\Generated_Source\PSoC4/BLE.c **** 
 206:.\Generated_Source\PSoC4/BLE.c ****     #ifdef CYBLE_ESS
 207:.\Generated_Source\PSoC4/BLE.c ****         CyBle_EssInit();
 208:.\Generated_Source\PSoC4/BLE.c ****     #endif /* CYBLE_ESS */
 209:.\Generated_Source\PSoC4/BLE.c ****     
 210:.\Generated_Source\PSoC4/BLE.c ****     #ifdef CYBLE_GLS
 211:.\Generated_Source\PSoC4/BLE.c ****         CyBle_GlsInit();
 212:.\Generated_Source\PSoC4/BLE.c ****     #endif /* CYBLE_GLS */
 213:.\Generated_Source\PSoC4/BLE.c ****     
 214:.\Generated_Source\PSoC4/BLE.c ****     #ifdef CYBLE_CUSTOM
 215:.\Generated_Source\PSoC4/BLE.c ****         CyBle_CustomInit();
 216:.\Generated_Source\PSoC4/BLE.c ****     #endif /* CYBLE_CUSTOM */
 217:.\Generated_Source\PSoC4/BLE.c **** 
 218:.\Generated_Source\PSoC4/BLE.c ****     #ifdef CYBLE_HIDS
 219:.\Generated_Source\PSoC4/BLE.c ****         CyBle_HidsInit();
 220:.\Generated_Source\PSoC4/BLE.c ****     #endif /* CYBLE_HIDS */
 221:.\Generated_Source\PSoC4/BLE.c **** 
 222:.\Generated_Source\PSoC4/BLE.c ****     #ifdef CYBLE_HRS
 223:.\Generated_Source\PSoC4/BLE.c ****         CyBle_HrsInit();
 224:.\Generated_Source\PSoC4/BLE.c ****     #endif /* CYBLE_HRS */
 225:.\Generated_Source\PSoC4/BLE.c ****     
 226:.\Generated_Source\PSoC4/BLE.c ****     #ifdef CYBLE_HTS
 227:.\Generated_Source\PSoC4/BLE.c ****         CyBle_HtsInit();
 228:.\Generated_Source\PSoC4/BLE.c ****     #endif /* CYBLE_RSCS */
 229:.\Generated_Source\PSoC4/BLE.c **** 
 230:.\Generated_Source\PSoC4/BLE.c ****     #ifdef CYBLE_IAS
 231:.\Generated_Source\PSoC4/BLE.c ****         CyBle_IasInit();
 232:.\Generated_Source\PSoC4/BLE.c ****     #endif /* CYBLE_IAS */
 233:.\Generated_Source\PSoC4/BLE.c **** 
 234:.\Generated_Source\PSoC4/BLE.c ****     #ifdef CYBLE_LLS
 235:.\Generated_Source\PSoC4/BLE.c ****         CyBle_LlsInit();
 236:.\Generated_Source\PSoC4/BLE.c ****     #endif /* CYBLE_LLS */
 237:.\Generated_Source\PSoC4/BLE.c **** 
 238:.\Generated_Source\PSoC4/BLE.c ****     #ifdef CYBLE_RTUS
 239:.\Generated_Source\PSoC4/BLE.c ****         CyBle_RtusInit();
 240:.\Generated_Source\PSoC4/BLE.c ****     #endif /* CYBLE_RTUS */
 241:.\Generated_Source\PSoC4/BLE.c **** 
 242:.\Generated_Source\PSoC4/BLE.c ****     #ifdef CYBLE_LNS
 243:.\Generated_Source\PSoC4/BLE.c ****         CyBle_LnsInit();
 244:.\Generated_Source\PSoC4/BLE.c ****     #endif /* CYBLE_LNS */
 245:.\Generated_Source\PSoC4/BLE.c ****     
 246:.\Generated_Source\PSoC4/BLE.c ****     #ifdef CYBLE_PASS
 247:.\Generated_Source\PSoC4/BLE.c ****         CyBle_PassInit();
 248:.\Generated_Source\PSoC4/BLE.c ****     #endif /* CYBLE_PASS */
 249:.\Generated_Source\PSoC4/BLE.c ****     
 250:.\Generated_Source\PSoC4/BLE.c ****     #ifdef CYBLE_RSCS
 251:.\Generated_Source\PSoC4/BLE.c ****         CyBle_RscsInit();
ARM GAS  C:\Users\Luci\AppData\Local\Temp\ccFJ7SSB.s 			page 6


 252:.\Generated_Source\PSoC4/BLE.c ****     #endif /* CYBLE_RSCS */
 253:.\Generated_Source\PSoC4/BLE.c **** 
 254:.\Generated_Source\PSoC4/BLE.c ****     #ifdef CYBLE_SCPS
 255:.\Generated_Source\PSoC4/BLE.c ****         CyBle_ScpsInit();
 256:.\Generated_Source\PSoC4/BLE.c ****     #endif /* CYBLE_SCPS */
 257:.\Generated_Source\PSoC4/BLE.c ****     
 258:.\Generated_Source\PSoC4/BLE.c ****     #ifdef CYBLE_TPS
 259:.\Generated_Source\PSoC4/BLE.c ****         CyBle_TpsInit();
 260:.\Generated_Source\PSoC4/BLE.c ****     #endif /* CYBLE_TPS */
 261:.\Generated_Source\PSoC4/BLE.c ****     
 262:.\Generated_Source\PSoC4/BLE.c ****     #ifdef CYBLE_UDS
 263:.\Generated_Source\PSoC4/BLE.c ****         CyBle_UdsInit();
 264:.\Generated_Source\PSoC4/BLE.c ****     #endif /* CYBLE_UDS */
 265:.\Generated_Source\PSoC4/BLE.c **** 
 266:.\Generated_Source\PSoC4/BLE.c ****     #ifdef CYBLE_WSS
 267:.\Generated_Source\PSoC4/BLE.c ****         CyBle_WssInit();
 268:.\Generated_Source\PSoC4/BLE.c ****     #endif /* CYBLE_WSS */
 269:.\Generated_Source\PSoC4/BLE.c **** }
  35              		.loc 1 269 0
  36              		@ sp needed
  37 0006 08BD     		pop	{r3, pc}
  38              		.cfi_endproc
  39              	.LFE3:
  40              		.size	CyBle_ServiceInit, .-CyBle_ServiceInit
  41              		.section	.text.CyBle_Init,"ax",%progbits
  42              		.align	2
  43              		.global	CyBle_Init
  44              		.code	16
  45              		.thumb_func
  46              		.type	CyBle_Init, %function
  47              	CyBle_Init:
  48              	.LFB2:
 112:.\Generated_Source\PSoC4/BLE.c ****     cyBle_eventHandlerFlag = 0u;
  49              		.loc 1 112 0
  50              		.cfi_startproc
  51 0000 08B5     		push	{r3, lr}
  52              		.cfi_def_cfa_offset 8
  53              		.cfi_offset 3, -8
  54              		.cfi_offset 14, -4
 113:.\Generated_Source\PSoC4/BLE.c ****     cyBle_busyStatus = CYBLE_STACK_STATE_FREE;
  55              		.loc 1 113 0
  56 0002 0022     		mov	r2, #0
  57 0004 114B     		ldr	r3, .L3
  58 0006 1A70     		strb	r2, [r3]
 114:.\Generated_Source\PSoC4/BLE.c ****     
  59              		.loc 1 114 0
  60 0008 114B     		ldr	r3, .L3+4
  61 000a 1A70     		strb	r2, [r3]
 120:.\Generated_Source\PSoC4/BLE.c ****     #endif /* (CYBLE_GAP_ROLE_CENTRAL || CYBLE_GAP_ROLE_OBSERVER) */
  62              		.loc 1 120 0
  63 000c 114B     		ldr	r3, .L3+8
  64 000e 1A70     		strb	r2, [r3]
 126:.\Generated_Source\PSoC4/BLE.c ****         cyBle_connectionParameters.scanWindow = cyBle_discoveryInfo.scanWindow;
  65              		.loc 1 126 0
  66 0010 1149     		ldr	r1, .L3+12
  67 0012 4888     		ldrh	r0, [r1, #2]
  68 0014 114B     		ldr	r3, .L3+16
ARM GAS  C:\Users\Luci\AppData\Local\Temp\ccFJ7SSB.s 			page 7


  69 0016 1880     		strh	r0, [r3]
 127:.\Generated_Source\PSoC4/BLE.c ****         cyBle_connectionParameters.ownAddrType = cyBle_discoveryInfo.ownAddrType;
  70              		.loc 1 127 0
  71 0018 8888     		ldrh	r0, [r1, #4]
  72 001a 5880     		strh	r0, [r3, #2]
 128:.\Generated_Source\PSoC4/BLE.c ****         cyBle_connectionParameters.initiatorFilterPolicy = cyBle_discoveryInfo.scanFilterPolicy;
  73              		.loc 1 128 0
  74 001c 8879     		ldrb	r0, [r1, #6]
  75 001e 1873     		strb	r0, [r3, #12]
 129:.\Generated_Source\PSoC4/BLE.c ****         cyBle_connectionParameters.connIntvMin = CYBLE_GAPC_CONNECTION_INTERVAL_MIN;
  76              		.loc 1 129 0
  77 0020 C979     		ldrb	r1, [r1, #7]
  78 0022 1971     		strb	r1, [r3, #4]
 130:.\Generated_Source\PSoC4/BLE.c ****         cyBle_connectionParameters.connIntvMax = CYBLE_GAPC_CONNECTION_INTERVAL_MAX;
  79              		.loc 1 130 0
  80 0024 0621     		mov	r1, #6
  81 0026 D981     		strh	r1, [r3, #14]
 131:.\Generated_Source\PSoC4/BLE.c ****         cyBle_connectionParameters.connLatency = CYBLE_GAPC_CONNECTION_SLAVE_LATENCY;
  82              		.loc 1 131 0
  83 0028 2231     		add	r1, r1, #34
  84 002a 1982     		strh	r1, [r3, #16]
 132:.\Generated_Source\PSoC4/BLE.c ****         cyBle_connectionParameters.supervisionTO = CYBLE_GAPC_CONNECTION_TIME_OUT;
  85              		.loc 1 132 0
  86 002c 5A82     		strh	r2, [r3, #18]
 133:.\Generated_Source\PSoC4/BLE.c ****         cyBle_connectionParameters.minCeLength = 0x0000u;
  87              		.loc 1 133 0
  88 002e FA21     		mov	r1, #250
  89 0030 8900     		lsl	r1, r1, #2
  90 0032 9982     		strh	r1, [r3, #20]
 134:.\Generated_Source\PSoC4/BLE.c ****         cyBle_connectionParameters.maxCeLength = 0xFFFFu;
  91              		.loc 1 134 0
  92 0034 DA82     		strh	r2, [r3, #22]
 135:.\Generated_Source\PSoC4/BLE.c ****         
  93              		.loc 1 135 0
  94 0036 013A     		sub	r2, r2, #1
  95 0038 1A83     		strh	r2, [r3, #24]
 137:.\Generated_Source\PSoC4/BLE.c ****     #endif /* CYBLE_GAP_ROLE_CENTRAL */
  96              		.loc 1 137 0
  97 003a 1F32     		add	r2, r2, #31
  98 003c 084B     		ldr	r3, .L3+20
  99 003e 1A80     		strh	r2, [r3]
 140:.\Generated_Source\PSoC4/BLE.c **** 
 100              		.loc 1 140 0
 101 0040 FFF7FEFF 		bl	CyBle_ServiceInit
 102              	.LVL1:
 143:.\Generated_Source\PSoC4/BLE.c **** #endif  /* (CYBLE_BONDING_REQUIREMENT == CYBLE_BONDING_YES) */
 103              		.loc 1 143 0
 104 0044 074B     		ldr	r3, .L3+24
 105 0046 0022     		mov	r2, #0
 106 0048 1A70     		strb	r2, [r3]
 146:.\Generated_Source\PSoC4/BLE.c **** 
 107              		.loc 1 146 0
 108              		@ sp needed
 109 004a 08BD     		pop	{r3, pc}
 110              	.L4:
 111              		.align	2
 112              	.L3:
ARM GAS  C:\Users\Luci\AppData\Local\Temp\ccFJ7SSB.s 			page 8


 113 004c 00000000 		.word	cyBle_eventHandlerFlag
 114 0050 00000000 		.word	cyBle_busyStatus
 115 0054 00000000 		.word	cyBle_scanningIntervalType
 116 0058 00000000 		.word	.LANCHOR0
 117 005c 00000000 		.word	cyBle_connectionParameters
 118 0060 00000000 		.word	cyBle_connectingTimeout
 119 0064 00000000 		.word	cyBle_pendingFlashWrite
 120              		.cfi_endproc
 121              	.LFE2:
 122              		.size	CyBle_Init, .-CyBle_Init
 123              		.section	.text.CyBle_Start,"ax",%progbits
 124              		.align	2
 125              		.global	CyBle_Start
 126              		.code	16
 127              		.thumb_func
 128              		.type	CyBle_Start, %function
 129              	CyBle_Start:
 130              	.LFB4:
 270:.\Generated_Source\PSoC4/BLE.c **** 
 271:.\Generated_Source\PSoC4/BLE.c **** 
 272:.\Generated_Source\PSoC4/BLE.c **** /******************************************************************************
 273:.\Generated_Source\PSoC4/BLE.c **** ##Function Name: CyBle_Start
 274:.\Generated_Source\PSoC4/BLE.c **** *******************************************************************************
 275:.\Generated_Source\PSoC4/BLE.c **** 
 276:.\Generated_Source\PSoC4/BLE.c **** Summary:
 277:.\Generated_Source\PSoC4/BLE.c ****  This function initializes the BLE Stack, which consists of the BLE Stack 
 278:.\Generated_Source\PSoC4/BLE.c ****  Manager, BLE Controller, and BLE Host modules. It takes care of initializing
 279:.\Generated_Source\PSoC4/BLE.c ****  the Profile layer, schedulers, Timer and other platform related
 280:.\Generated_Source\PSoC4/BLE.c ****  resources required for the BLE component. It also registers the callback 
 281:.\Generated_Source\PSoC4/BLE.c ****  function for BLE events that will be registered in the BLE stack.
 282:.\Generated_Source\PSoC4/BLE.c **** 
 283:.\Generated_Source\PSoC4/BLE.c ****  Note that this function does not reset the BLE Stack.
 284:.\Generated_Source\PSoC4/BLE.c **** 
 285:.\Generated_Source\PSoC4/BLE.c ****  For HCI-Mode of operation, this function will not initialize the BLE Host 
 286:.\Generated_Source\PSoC4/BLE.c ****  module.
 287:.\Generated_Source\PSoC4/BLE.c **** 
 288:.\Generated_Source\PSoC4/BLE.c ****  Calling this function results in the generation of CYBLE_EVT_STACK_ON event
 289:.\Generated_Source\PSoC4/BLE.c ****  on successful initialization of the BLE Stack.
 290:.\Generated_Source\PSoC4/BLE.c **** 
 291:.\Generated_Source\PSoC4/BLE.c **** Parameters:
 292:.\Generated_Source\PSoC4/BLE.c ****  callbackFunc: Event callback function to receive events from BLE stack.
 293:.\Generated_Source\PSoC4/BLE.c ****   CYBLE_CALLBACK_T is a function pointer type.
 294:.\Generated_Source\PSoC4/BLE.c **** 
 295:.\Generated_Source\PSoC4/BLE.c **** Return:
 296:.\Generated_Source\PSoC4/BLE.c ****  CYBLE_API_RESULT_T : Return value indicates if the function succeeded or 
 297:.\Generated_Source\PSoC4/BLE.c ****  failed. Following are the possible error codes.
 298:.\Generated_Source\PSoC4/BLE.c ****  <table>
 299:.\Generated_Source\PSoC4/BLE.c ****   Errors codes                        Description
 300:.\Generated_Source\PSoC4/BLE.c ****   ------------                        -----------------
 301:.\Generated_Source\PSoC4/BLE.c ****   CYBLE_ERROR_OK                      On successful operation.
 302:.\Generated_Source\PSoC4/BLE.c ****   CYBLE_ERROR_INVALID_PARAMETER       On passing a NULL pointer to the 
 303:.\Generated_Source\PSoC4/BLE.c ****                                        function when the BLE stack is not 
 304:.\Generated_Source\PSoC4/BLE.c ****                                        built in HCI mode.
 305:.\Generated_Source\PSoC4/BLE.c ****                                        CYBLE_ERROR_INVALID_PARAMETER
 306:.\Generated_Source\PSoC4/BLE.c ****                                        is never returned in HCI mode.
 307:.\Generated_Source\PSoC4/BLE.c ****   CYBLE_ERROR_REPEATED_ATTEMPTS       On invoking this function more
 308:.\Generated_Source\PSoC4/BLE.c ****                                        than once without calling
ARM GAS  C:\Users\Luci\AppData\Local\Temp\ccFJ7SSB.s 			page 9


 309:.\Generated_Source\PSoC4/BLE.c ****                                        CyBle_Shutdown() function 
 310:.\Generated_Source\PSoC4/BLE.c ****                                        between calls to this function.
 311:.\Generated_Source\PSoC4/BLE.c ****  </table>
 312:.\Generated_Source\PSoC4/BLE.c **** 
 313:.\Generated_Source\PSoC4/BLE.c ****  Global variables:
 314:.\Generated_Source\PSoC4/BLE.c ****   The BLE_intiVar variable is used to indicate initial
 315:.\Generated_Source\PSoC4/BLE.c ****   configuration of this component. The variable is initialized to zero (0u)
 316:.\Generated_Source\PSoC4/BLE.c ****   and set to one (1u) the first time BLE_Start() is called. This
 317:.\Generated_Source\PSoC4/BLE.c ****   allows for component initialization without re-initialization in all
 318:.\Generated_Source\PSoC4/BLE.c ****   subsequent calls to the BLE_Start() routine.
 319:.\Generated_Source\PSoC4/BLE.c **** 
 320:.\Generated_Source\PSoC4/BLE.c **** ******************************************************************************/
 321:.\Generated_Source\PSoC4/BLE.c **** CYBLE_API_RESULT_T CyBle_Start(CYBLE_CALLBACK_T callbackFunc)
 322:.\Generated_Source\PSoC4/BLE.c **** {
 131              		.loc 1 322 0
 132              		.cfi_startproc
 133              	.LVL2:
 134 0000 10B5     		push	{r4, lr}
 135              		.cfi_def_cfa_offset 8
 136              		.cfi_offset 4, -8
 137              		.cfi_offset 14, -4
 138 0002 88B0     		sub	sp, sp, #32
 139              		.cfi_def_cfa_offset 40
 140 0004 041C     		mov	r4, r0
 141              	.LVL3:
 323:.\Generated_Source\PSoC4/BLE.c ****     CYBLE_API_RESULT_T apiResult = CYBLE_ERROR_INVALID_PARAMETER;
 324:.\Generated_Source\PSoC4/BLE.c ****     
 325:.\Generated_Source\PSoC4/BLE.c ****     /* If not initialized then initialize all the required hardware and software */
 326:.\Generated_Source\PSoC4/BLE.c ****     if(cyBle_initVar == 0u)
 142              		.loc 1 326 0
 143 0006 144B     		ldr	r3, .L10
 144 0008 1B78     		ldrb	r3, [r3]
 145 000a 002B     		cmp	r3, #0
 146 000c 04D1     		bne	.L6
 327:.\Generated_Source\PSoC4/BLE.c ****     {
 328:.\Generated_Source\PSoC4/BLE.c ****         CyBle_Init();
 147              		.loc 1 328 0
 148 000e FFF7FEFF 		bl	CyBle_Init
 149              	.LVL4:
 329:.\Generated_Source\PSoC4/BLE.c ****         cyBle_initVar = 1u;
 150              		.loc 1 329 0
 151 0012 0122     		mov	r2, #1
 152 0014 104B     		ldr	r3, .L10
 153 0016 1A70     		strb	r2, [r3]
 154              	.L6:
 330:.\Generated_Source\PSoC4/BLE.c ****     }
 331:.\Generated_Source\PSoC4/BLE.c ****     
 332:.\Generated_Source\PSoC4/BLE.c ****     if(callbackFunc != NULL)
 155              		.loc 1 332 0
 156 0018 002C     		cmp	r4, #0
 157 001a 19D0     		beq	.L9
 158              	.LBB2:
 333:.\Generated_Source\PSoC4/BLE.c ****     {
 334:.\Generated_Source\PSoC4/BLE.c ****     #if(CYBLE_MODE_PROFILE)
 335:.\Generated_Source\PSoC4/BLE.c ****         CYBLE_STK_APP_DATA_BUFF_T dataBuff[CYBLE_STACK_BUF_COUNT] = 
 159              		.loc 1 335 0
 160 001c 02A8     		add	r0, sp, #8
ARM GAS  C:\Users\Luci\AppData\Local\Temp\ccFJ7SSB.s 			page 10


 161 001e 0F49     		ldr	r1, .L10+4
 162 0020 1822     		mov	r2, #24
 163 0022 FFF7FEFF 		bl	memcpy
 164              	.LVL5:
 336:.\Generated_Source\PSoC4/BLE.c ****         {
 337:.\Generated_Source\PSoC4/BLE.c ****             {CYBLE_GATT_MTU_PLUS_L2CAP_HEADER, CYBLE_GATT_MTU_BUF_COUNT},
 338:.\Generated_Source\PSoC4/BLE.c ****             {CYBLE_GATT_MAX_ATTR_LEN, 1u},
 339:.\Generated_Source\PSoC4/BLE.c ****             {CYBLE_L2CAP_PSM_SIZE, CYBLE_L2CAP_PSM_COUNT},
 340:.\Generated_Source\PSoC4/BLE.c ****             {CYBLE_L2CAP_CBFC_CHANNEL_SIZE, CYBLE_L2CAP_LOGICAL_CHANNEL_COUNT},
 341:.\Generated_Source\PSoC4/BLE.c ****             {CYBLE_L2CAP_MTU, CYBLE_L2CAP_LOGICAL_CHANNEL_COUNT},
 342:.\Generated_Source\PSoC4/BLE.c ****             {CYBLE_L2CAP_MPS, CYBLE_L2CAP_LOGICAL_CHANNEL_COUNT * (CYBLE_L2CAP_MTU/CYBLE_L2CAP_MPS)
 343:.\Generated_Source\PSoC4/BLE.c ****         }; 
 344:.\Generated_Source\PSoC4/BLE.c ****     
 345:.\Generated_Source\PSoC4/BLE.c ****         apiResult = CyBle_StackInit(&CyBle_EventHandler, cyBle_stackMemoryRam, CYBLE_STACK_RAM_SIZE
 165              		.loc 1 345 0
 166 0026 0623     		mov	r3, #6
 167 0028 0093     		str	r3, [sp]
 168 002a 0D48     		ldr	r0, .L10+8
 169 002c 0D49     		ldr	r1, .L10+12
 170 002e 0E4A     		ldr	r2, .L10+16
 171 0030 02AB     		add	r3, sp, #8
 172 0032 FFF7FEFF 		bl	CyBle_StackInit
 173              	.LVL6:
 346:.\Generated_Source\PSoC4/BLE.c ****             dataBuff, CYBLE_STACK_BUF_COUNT);
 347:.\Generated_Source\PSoC4/BLE.c ****     #else
 348:.\Generated_Source\PSoC4/BLE.c ****         apiResult = CyBle_StackInit(&CyBle_EventHandler, cyBle_stackMemoryRam, CYBLE_STACK_RAM_SIZE
 349:.\Generated_Source\PSoC4/BLE.c ****     #endif /* CYBLE_MODE_PROFILE */  
 350:.\Generated_Source\PSoC4/BLE.c **** 
 351:.\Generated_Source\PSoC4/BLE.c ****         CyBle_ApplCallback = callbackFunc;
 174              		.loc 1 351 0
 175 0036 0D4B     		ldr	r3, .L10+20
 176 0038 1C60     		str	r4, [r3]
 352:.\Generated_Source\PSoC4/BLE.c ****         
 353:.\Generated_Source\PSoC4/BLE.c **** 
 354:.\Generated_Source\PSoC4/BLE.c ****         if(apiResult == CYBLE_ERROR_OK)
 177              		.loc 1 354 0
 178 003a 0028     		cmp	r0, #0
 179 003c 09D1     		bne	.L7
 355:.\Generated_Source\PSoC4/BLE.c ****         {
 356:.\Generated_Source\PSoC4/BLE.c ****             CyBle_SetState(CYBLE_STATE_INITIALIZING);
 180              		.loc 1 356 0
 181 003e 0122     		mov	r2, #1
 182 0040 0B4B     		ldr	r3, .L10+24
 183 0042 1A70     		strb	r2, [r3]
 357:.\Generated_Source\PSoC4/BLE.c ****             
 358:.\Generated_Source\PSoC4/BLE.c ****         #if (CYBLE_GATT_ROLE_CLIENT)
 359:.\Generated_Source\PSoC4/BLE.c ****             CyBle_SetClientState(CYBLE_CLIENT_STATE_DISCONNECTED);
 360:.\Generated_Source\PSoC4/BLE.c ****         #endif /* CYBLE_GATT_ROLE_CLIENT */
 361:.\Generated_Source\PSoC4/BLE.c ****             
 362:.\Generated_Source\PSoC4/BLE.c ****         #if(CYBLE_GATT_ROLE_SERVER)
 363:.\Generated_Source\PSoC4/BLE.c ****             apiResult = CyBle_GattsDbRegister(cyBle_gattDB, CYBLE_GATT_DB_INDEX_COUNT, CYBLE_GATT_D
 184              		.loc 1 363 0
 185 0044 0B48     		ldr	r0, .L10+28
 186              	.LVL7:
 187 0046 1821     		mov	r1, #24
 188 0048 0732     		add	r2, r2, #7
 189 004a FFF7FEFF 		bl	CyBle_GattsDbRegister
ARM GAS  C:\Users\Luci\AppData\Local\Temp\ccFJ7SSB.s 			page 11


 190              	.LVL8:
 191 004e 00E0     		b	.L7
 192              	.LVL9:
 193              	.L9:
 194              	.LBE2:
 323:.\Generated_Source\PSoC4/BLE.c ****     
 195              		.loc 1 323 0
 196 0050 0120     		mov	r0, #1
 197              	.LVL10:
 198              	.L7:
 364:.\Generated_Source\PSoC4/BLE.c ****         #endif /* CYBLE_GATT_ROLE_SERVER */
 365:.\Generated_Source\PSoC4/BLE.c ****         }
 366:.\Generated_Source\PSoC4/BLE.c ****     }
 367:.\Generated_Source\PSoC4/BLE.c **** 
 368:.\Generated_Source\PSoC4/BLE.c ****     return (apiResult);
 369:.\Generated_Source\PSoC4/BLE.c **** }
 199              		.loc 1 369 0
 200 0052 08B0     		add	sp, sp, #32
 201              		@ sp needed
 202              	.LVL11:
 203 0054 10BD     		pop	{r4, pc}
 204              	.L11:
 205 0056 C046     		.align	2
 206              	.L10:
 207 0058 00000000 		.word	.LANCHOR1
 208 005c 00000000 		.word	.LANCHOR2
 209 0060 00000000 		.word	CyBle_EventHandler
 210 0064 00000000 		.word	cyBle_stackMemoryRam
 211 0068 5C0A0000 		.word	2652
 212 006c 00000000 		.word	CyBle_ApplCallback
 213 0070 00000000 		.word	cyBle_state
 214 0074 00000000 		.word	cyBle_gattDB
 215              		.cfi_endproc
 216              	.LFE4:
 217              		.size	CyBle_Start, .-CyBle_Start
 218              		.section	.text.CyBle_Stop,"ax",%progbits
 219              		.align	2
 220              		.global	CyBle_Stop
 221              		.code	16
 222              		.thumb_func
 223              		.type	CyBle_Stop, %function
 224              	CyBle_Stop:
 225              	.LFB5:
 370:.\Generated_Source\PSoC4/BLE.c **** 
 371:.\Generated_Source\PSoC4/BLE.c **** 
 372:.\Generated_Source\PSoC4/BLE.c **** /******************************************************************************
 373:.\Generated_Source\PSoC4/BLE.c **** ##Function Name: CyBle_Stop
 374:.\Generated_Source\PSoC4/BLE.c **** *******************************************************************************
 375:.\Generated_Source\PSoC4/BLE.c **** 
 376:.\Generated_Source\PSoC4/BLE.c **** Summary:
 377:.\Generated_Source\PSoC4/BLE.c ****  This function stops any ongoing operation in the BLE Stack and forces the 
 378:.\Generated_Source\PSoC4/BLE.c ****  BLE Stack to shut down. The only function that can be called after calling
 379:.\Generated_Source\PSoC4/BLE.c ****  this function is CyBle_Start(). 
 380:.\Generated_Source\PSoC4/BLE.c **** 
 381:.\Generated_Source\PSoC4/BLE.c **** Parameters:
 382:.\Generated_Source\PSoC4/BLE.c ****  None
 383:.\Generated_Source\PSoC4/BLE.c **** 
ARM GAS  C:\Users\Luci\AppData\Local\Temp\ccFJ7SSB.s 			page 12


 384:.\Generated_Source\PSoC4/BLE.c **** Return:
 385:.\Generated_Source\PSoC4/BLE.c ****  None
 386:.\Generated_Source\PSoC4/BLE.c **** 
 387:.\Generated_Source\PSoC4/BLE.c **** ******************************************************************************/
 388:.\Generated_Source\PSoC4/BLE.c **** void CyBle_Stop(void)
 389:.\Generated_Source\PSoC4/BLE.c **** {
 226              		.loc 1 389 0
 227              		.cfi_startproc
 228 0000 08B5     		push	{r3, lr}
 229              		.cfi_def_cfa_offset 8
 230              		.cfi_offset 3, -8
 231              		.cfi_offset 14, -4
 390:.\Generated_Source\PSoC4/BLE.c ****     CyBle_Shutdown();                         /* Stop all ongoing activities */
 232              		.loc 1 390 0
 233 0002 FFF7FEFF 		bl	CyBle_Shutdown
 234              	.LVL12:
 391:.\Generated_Source\PSoC4/BLE.c ****     CyBle_SetState(CYBLE_STATE_STOPPED);
 235              		.loc 1 391 0
 236 0006 0022     		mov	r2, #0
 237 0008 014B     		ldr	r3, .L13
 238 000a 1A70     		strb	r2, [r3]
 392:.\Generated_Source\PSoC4/BLE.c **** }
 239              		.loc 1 392 0
 240              		@ sp needed
 241 000c 08BD     		pop	{r3, pc}
 242              	.L14:
 243 000e C046     		.align	2
 244              	.L13:
 245 0010 00000000 		.word	cyBle_state
 246              		.cfi_endproc
 247              	.LFE5:
 248              		.size	CyBle_Stop, .-CyBle_Stop
 249              		.section	.text.CyBle_StoreBondingData,"ax",%progbits
 250              		.align	2
 251              		.global	CyBle_StoreBondingData
 252              		.code	16
 253              		.thumb_func
 254              		.type	CyBle_StoreBondingData, %function
 255              	CyBle_StoreBondingData:
 256              	.LFB6:
 393:.\Generated_Source\PSoC4/BLE.c **** 
 394:.\Generated_Source\PSoC4/BLE.c **** 
 395:.\Generated_Source\PSoC4/BLE.c **** #if((CYBLE_GAP_ROLE_PERIPHERAL || CYBLE_GAP_ROLE_CENTRAL) && (CYBLE_BONDING_REQUIREMENT == CYBLE_BO
 396:.\Generated_Source\PSoC4/BLE.c **** 
 397:.\Generated_Source\PSoC4/BLE.c ****     
 398:.\Generated_Source\PSoC4/BLE.c **** /******************************************************************************
 399:.\Generated_Source\PSoC4/BLE.c **** ##Function Name: CyBle_StoreBondingData
 400:.\Generated_Source\PSoC4/BLE.c **** *******************************************************************************
 401:.\Generated_Source\PSoC4/BLE.c **** 
 402:.\Generated_Source\PSoC4/BLE.c **** Summary:
 403:.\Generated_Source\PSoC4/BLE.c ****  This function writes the new bonding data from RAM to the dedicated Flash 
 404:.\Generated_Source\PSoC4/BLE.c ****  location as defined by the component. It performs data comparing between RAM
 405:.\Generated_Source\PSoC4/BLE.c ****  and Flash before writing to Flash. If there is no change between RAM and Flash
 406:.\Generated_Source\PSoC4/BLE.c ****  data, then no write is performed. It writes only one flash row in one call.
 407:.\Generated_Source\PSoC4/BLE.c ****  Application should keep calling this function till API return CYBLE_ERROR_OK. 
 408:.\Generated_Source\PSoC4/BLE.c ****  This function is available only when Bonding requirement is selected in
 409:.\Generated_Source\PSoC4/BLE.c ****  Security settings.    
ARM GAS  C:\Users\Luci\AppData\Local\Temp\ccFJ7SSB.s 			page 13


 410:.\Generated_Source\PSoC4/BLE.c ****     
 411:.\Generated_Source\PSoC4/BLE.c **** Parameters:
 412:.\Generated_Source\PSoC4/BLE.c ****  isForceWrite:  If value is set to 0, then stack will check if flash write 
 413:.\Generated_Source\PSoC4/BLE.c ****                 is permissible. 
 414:.\Generated_Source\PSoC4/BLE.c ****  
 415:.\Generated_Source\PSoC4/BLE.c **** Return:
 416:.\Generated_Source\PSoC4/BLE.c ****  Return value is of type CYBLE_API_RESULT_T.
 417:.\Generated_Source\PSoC4/BLE.c ****  * CYBLE_ERROR_OK - On successful operation
 418:.\Generated_Source\PSoC4/BLE.c ****  * CYBLE_ERROR_FLASH_WRITE_NOT_PERMITED - Flash Write is not complete
 419:.\Generated_Source\PSoC4/BLE.c ****    
 420:.\Generated_Source\PSoC4/BLE.c ****  Side Effects:
 421:.\Generated_Source\PSoC4/BLE.c ****   For BLE devices with 128K of Flash memory this API will automatically 
 422:.\Generated_Source\PSoC4/BLE.c ****   modify the clock settings for the device.
 423:.\Generated_Source\PSoC4/BLE.c ****   Writing to flash requires changes to be done to the IMO (set to 48 MHz)
 424:.\Generated_Source\PSoC4/BLE.c ****   and HFCLK (source set to IMO) settings. The configuration is restored before
 425:.\Generated_Source\PSoC4/BLE.c ****   returning. This will impact the operation of most of the hardware in the
 426:.\Generated_Source\PSoC4/BLE.c ****   device.
 427:.\Generated_Source\PSoC4/BLE.c **** 
 428:.\Generated_Source\PSoC4/BLE.c ****  Global variables:
 429:.\Generated_Source\PSoC4/BLE.c ****   The BLE_pendingFlashWrite variable is used to detect status
 430:.\Generated_Source\PSoC4/BLE.c ****   of pending write to flash operation for stack data and CCCD.
 431:.\Generated_Source\PSoC4/BLE.c ****   This API automatically clears pending bits after write operation complete.
 432:.\Generated_Source\PSoC4/BLE.c ****     
 433:.\Generated_Source\PSoC4/BLE.c **** ******************************************************************************/
 434:.\Generated_Source\PSoC4/BLE.c **** CYBLE_API_RESULT_T CyBle_StoreBondingData(uint8 isForceWrite)
 435:.\Generated_Source\PSoC4/BLE.c **** {
 257              		.loc 1 435 0
 258              		.cfi_startproc
 259              	.LVL13:
 260 0000 10B5     		push	{r4, lr}
 261              		.cfi_def_cfa_offset 8
 262              		.cfi_offset 4, -8
 263              		.cfi_offset 14, -4
 264 0002 041C     		mov	r4, r0
 265              	.LVL14:
 436:.\Generated_Source\PSoC4/BLE.c ****     CYBLE_API_RESULT_T apiResult = CYBLE_ERROR_OK;
 437:.\Generated_Source\PSoC4/BLE.c ****     
 438:.\Generated_Source\PSoC4/BLE.c ****     /* Store Stack data */
 439:.\Generated_Source\PSoC4/BLE.c ****     if((cyBle_pendingFlashWrite & CYBLE_PENDING_STACK_FLASH_WRITE_BIT) != 0u)
 266              		.loc 1 439 0
 267 0004 184B     		ldr	r3, .L21
 268 0006 1B78     		ldrb	r3, [r3]
 269 0008 DB07     		lsl	r3, r3, #31
 270 000a 0BD5     		bpl	.L19
 440:.\Generated_Source\PSoC4/BLE.c ****     {
 441:.\Generated_Source\PSoC4/BLE.c ****         apiResult = CyBle_StoreStackData(isForceWrite);
 271              		.loc 1 441 0
 272 000c FFF7FEFF 		bl	CyBle_StoreStackData
 273              	.LVL15:
 442:.\Generated_Source\PSoC4/BLE.c ****         if(apiResult == CYBLE_ERROR_OK)
 274              		.loc 1 442 0
 275 0010 0028     		cmp	r0, #0
 276 0012 0AD1     		bne	.L16
 443:.\Generated_Source\PSoC4/BLE.c ****         {
 444:.\Generated_Source\PSoC4/BLE.c ****             cyBle_pendingFlashWrite &= (uint8)~CYBLE_PENDING_STACK_FLASH_WRITE_BIT;
 277              		.loc 1 444 0
 278 0014 144A     		ldr	r2, .L21
ARM GAS  C:\Users\Luci\AppData\Local\Temp\ccFJ7SSB.s 			page 14


 279 0016 1378     		ldrb	r3, [r2]
 280 0018 0121     		mov	r1, #1
 281 001a 8B43     		bic	r3, r1
 282 001c 1370     		strb	r3, [r2]
 445:.\Generated_Source\PSoC4/BLE.c ****             /* Change apiResult if there are more pending data to store */
 446:.\Generated_Source\PSoC4/BLE.c ****             if((cyBle_pendingFlashWrite & CYBLE_PENDING_CCCD_FLASH_WRITE_BIT) != 0u)
 283              		.loc 1 446 0
 284 001e 9B07     		lsl	r3, r3, #30
 285 0020 02D4     		bmi	.L20
 286 0022 02E0     		b	.L16
 287              	.LVL16:
 288              	.L19:
 436:.\Generated_Source\PSoC4/BLE.c ****     
 289              		.loc 1 436 0
 290 0024 0020     		mov	r0, #0
 291              	.LVL17:
 292 0026 00E0     		b	.L16
 293              	.LVL18:
 294              	.L20:
 447:.\Generated_Source\PSoC4/BLE.c ****             {
 448:.\Generated_Source\PSoC4/BLE.c ****                 apiResult = CYBLE_ERROR_FLASH_WRITE_NOT_PERMITED;
 295              		.loc 1 448 0
 296 0028 2820     		mov	r0, #40
 297              	.LVL19:
 298              	.L16:
 449:.\Generated_Source\PSoC4/BLE.c ****             }
 450:.\Generated_Source\PSoC4/BLE.c ****         }
 451:.\Generated_Source\PSoC4/BLE.c ****     }
 452:.\Generated_Source\PSoC4/BLE.c **** #if(CYBLE_GATT_DB_CCCD_COUNT != 0u)
 453:.\Generated_Source\PSoC4/BLE.c ****     /* Store CCCD values */
 454:.\Generated_Source\PSoC4/BLE.c ****     if( ((apiResult == CYBLE_ERROR_OK) || (isForceWrite != 0u)) && 
 299              		.loc 1 454 0
 300 002a 0028     		cmp	r0, #0
 301 002c 01D0     		beq	.L17
 302              		.loc 1 454 0 is_stmt 0 discriminator 2
 303 002e 002C     		cmp	r4, #0
 304 0030 18D0     		beq	.L18
 305              	.L17:
 455:.\Generated_Source\PSoC4/BLE.c ****         ((cyBle_pendingFlashWrite & CYBLE_PENDING_CCCD_FLASH_WRITE_BIT) != 0u) &&
 306              		.loc 1 455 0 is_stmt 1 discriminator 3
 307 0032 0D4B     		ldr	r3, .L21
 308 0034 1B78     		ldrb	r3, [r3]
 454:.\Generated_Source\PSoC4/BLE.c ****         ((cyBle_pendingFlashWrite & CYBLE_PENDING_CCCD_FLASH_WRITE_BIT) != 0u) &&
 309              		.loc 1 454 0 discriminator 3
 310 0036 9B07     		lsl	r3, r3, #30
 311 0038 14D5     		bpl	.L18
 456:.\Generated_Source\PSoC4/BLE.c ****         (cyBle_connHandle.bdHandle <= CYBLE_GAP_MAX_BONDED_DEVICE))
 312              		.loc 1 456 0
 313 003a 0C4B     		ldr	r3, .L21+4
 314 003c 1B78     		ldrb	r3, [r3]
 455:.\Generated_Source\PSoC4/BLE.c ****         ((cyBle_pendingFlashWrite & CYBLE_PENDING_CCCD_FLASH_WRITE_BIT) != 0u) &&
 315              		.loc 1 455 0
 316 003e 042B     		cmp	r3, #4
 317 0040 10D8     		bhi	.L18
 457:.\Generated_Source\PSoC4/BLE.c ****     {
 458:.\Generated_Source\PSoC4/BLE.c ****         apiResult = CyBle_StoreAppData(cyBle_attValuesCCCD, cyBle_attValuesCCCDFlashMemory[cyBle_co
 318              		.loc 1 458 0
ARM GAS  C:\Users\Luci\AppData\Local\Temp\ccFJ7SSB.s 			page 15


 319 0042 5900     		lsl	r1, r3, #1
 320 0044 CB18     		add	r3, r1, r3
 321 0046 5B00     		lsl	r3, r3, #1
 322 0048 0949     		ldr	r1, .L21+8
 323 004a 5918     		add	r1, r3, r1
 324 004c 0948     		ldr	r0, .L21+12
 325              	.LVL20:
 326 004e 0622     		mov	r2, #6
 327 0050 231C     		mov	r3, r4
 328 0052 FFF7FEFF 		bl	CyBle_StoreAppData
 329              	.LVL21:
 459:.\Generated_Source\PSoC4/BLE.c ****                                        CYBLE_GATT_DB_CCCD_COUNT, isForceWrite);
 460:.\Generated_Source\PSoC4/BLE.c ****         if(apiResult == CYBLE_ERROR_OK)
 330              		.loc 1 460 0
 331 0056 0028     		cmp	r0, #0
 332 0058 04D1     		bne	.L18
 461:.\Generated_Source\PSoC4/BLE.c ****         {
 462:.\Generated_Source\PSoC4/BLE.c ****             cyBle_pendingFlashWrite &= (uint8)~CYBLE_PENDING_CCCD_FLASH_WRITE_BIT;
 333              		.loc 1 462 0
 334 005a 034A     		ldr	r2, .L21
 335 005c 1378     		ldrb	r3, [r2]
 336 005e 0221     		mov	r1, #2
 337 0060 8B43     		bic	r3, r1
 338 0062 1370     		strb	r3, [r2]
 339              	.LVL22:
 340              	.L18:
 463:.\Generated_Source\PSoC4/BLE.c ****         }
 464:.\Generated_Source\PSoC4/BLE.c ****     }
 465:.\Generated_Source\PSoC4/BLE.c **** #endif /* CYBLE_GATT_DB_CCCD_COUNT != 0u */
 466:.\Generated_Source\PSoC4/BLE.c ****     return(apiResult);
 467:.\Generated_Source\PSoC4/BLE.c **** }
 341              		.loc 1 467 0
 342              		@ sp needed
 343 0064 10BD     		pop	{r4, pc}
 344              	.L22:
 345 0066 C046     		.align	2
 346              	.L21:
 347 0068 00000000 		.word	cyBle_pendingFlashWrite
 348 006c 00000000 		.word	cyBle_connHandle
 349 0070 00000000 		.word	cyBle_attValuesCCCDFlashMemory
 350 0074 00000000 		.word	cyBle_attValuesCCCD
 351              		.cfi_endproc
 352              	.LFE6:
 353              		.size	CyBle_StoreBondingData, .-CyBle_StoreBondingData
 354              		.section	.text.CyBle_GapcStartScan,"ax",%progbits
 355              		.align	2
 356              		.global	CyBle_GapcStartScan
 357              		.code	16
 358              		.thumb_func
 359              		.type	CyBle_GapcStartScan, %function
 360              	CyBle_GapcStartScan:
 361              	.LFB7:
 468:.\Generated_Source\PSoC4/BLE.c **** 
 469:.\Generated_Source\PSoC4/BLE.c **** 
 470:.\Generated_Source\PSoC4/BLE.c **** #endif /* (CYBLE_GAP_ROLE_PERIPHERAL || CYBLE_GAP_ROLE_CENTRAL) && (CYBLE_BONDING_REQUIREMENT == CY
 471:.\Generated_Source\PSoC4/BLE.c **** 
 472:.\Generated_Source\PSoC4/BLE.c **** 
ARM GAS  C:\Users\Luci\AppData\Local\Temp\ccFJ7SSB.s 			page 16


 473:.\Generated_Source\PSoC4/BLE.c **** #if(CYBLE_GAP_ROLE_PERIPHERAL || CYBLE_GAP_ROLE_BROADCASTER)
 474:.\Generated_Source\PSoC4/BLE.c **** 
 475:.\Generated_Source\PSoC4/BLE.c ****     /******************************************************************************
 476:.\Generated_Source\PSoC4/BLE.c ****     ##Function Name: CyBle_GappStartAdvertisement
 477:.\Generated_Source\PSoC4/BLE.c ****     *******************************************************************************
 478:.\Generated_Source\PSoC4/BLE.c ****     
 479:.\Generated_Source\PSoC4/BLE.c ****     Summary:
 480:.\Generated_Source\PSoC4/BLE.c ****      This function is used to start the advertisement using the advertisement data 
 481:.\Generated_Source\PSoC4/BLE.c ****      set in the component customizer's GUI. After invoking this API, the device 
 482:.\Generated_Source\PSoC4/BLE.c ****      will be available for connection by the devices configured for GAP central 
 483:.\Generated_Source\PSoC4/BLE.c ****      role. It is only included if the device is configured for GAP Peripheral or 
 484:.\Generated_Source\PSoC4/BLE.c ****      GAP Peripheral + Central role.
 485:.\Generated_Source\PSoC4/BLE.c ****      
 486:.\Generated_Source\PSoC4/BLE.c ****      On start of advertisement, GAP Peripheral receives the
 487:.\Generated_Source\PSoC4/BLE.c ****      CYBLE_EVT_GAPP_ADVERTISEMENT_START_STOP event. The following events are 
 488:.\Generated_Source\PSoC4/BLE.c ****      possible on invoking this function:
 489:.\Generated_Source\PSoC4/BLE.c ****      
 490:.\Generated_Source\PSoC4/BLE.c ****      * CYBLE_EVT_GAP_DEVICE_CONNECTED: If the device connects to remote GAP 
 491:.\Generated_Source\PSoC4/BLE.c ****                                          Central device
 492:.\Generated_Source\PSoC4/BLE.c ****      * CYBLE_EVT_TIMEOUT: If no device in GAP Central mode connects to this 
 493:.\Generated_Source\PSoC4/BLE.c ****                           device within the specified timeout limit. Stack 
 494:.\Generated_Source\PSoC4/BLE.c ****                           automatically initiate stop advertising when Slow 
 495:.\Generated_Source\PSoC4/BLE.c ****                           advertising was initiated, or starts Slow advertising
 496:.\Generated_Source\PSoC4/BLE.c ****                           after Fast advertising timeout occur.
 497:.\Generated_Source\PSoC4/BLE.c ****      * CYBLE_EVT_GAPP_ADVERTISEMENT_START_STOP: If device started or stopped
 498:.\Generated_Source\PSoC4/BLE.c ****                                                   advertising. Use CyBle_GetState()
 499:.\Generated_Source\PSoC4/BLE.c ****                                                   to determine the state. Sequential 
 500:.\Generated_Source\PSoC4/BLE.c ****                                                   advertising could be started when
 501:.\Generated_Source\PSoC4/BLE.c ****                                                   CYBLE_STATE_DISCONNECTED state is
 502:.\Generated_Source\PSoC4/BLE.c ****                                                   returned.
 503:.\Generated_Source\PSoC4/BLE.c **** 
 504:.\Generated_Source\PSoC4/BLE.c ****     Parameters:
 505:.\Generated_Source\PSoC4/BLE.c ****      uint8 advertisingIntervalType: Fast or slow advertising interval with timings
 506:.\Generated_Source\PSoC4/BLE.c ****                                     entered in Advertising settings section of the
 507:.\Generated_Source\PSoC4/BLE.c ****                                     customizer.
 508:.\Generated_Source\PSoC4/BLE.c ****      * CYBLE_ADVERTISING_FAST   0x00u
 509:.\Generated_Source\PSoC4/BLE.c ****      * CYBLE_ADVERTISING_SLOW   0x01u
 510:.\Generated_Source\PSoC4/BLE.c ****      * CYBLE_ADVERTISING_CUSTOM 0x02u
 511:.\Generated_Source\PSoC4/BLE.c ****     
 512:.\Generated_Source\PSoC4/BLE.c ****     Return:
 513:.\Generated_Source\PSoC4/BLE.c ****      CYBLE_API_RESULT_T : Return value indicates if the function succeeded or
 514:.\Generated_Source\PSoC4/BLE.c ****      failed. Following are the possible error codes.
 515:.\Generated_Source\PSoC4/BLE.c ****      <table>
 516:.\Generated_Source\PSoC4/BLE.c ****       Errors codes                        Description
 517:.\Generated_Source\PSoC4/BLE.c ****       ------------                        -----------
 518:.\Generated_Source\PSoC4/BLE.c ****       CYBLE_ERROR_OK                      On successful operation.
 519:.\Generated_Source\PSoC4/BLE.c ****       CYBLE_ERROR_INVALID_PARAMETER       On passing an invalid parameter.
 520:.\Generated_Source\PSoC4/BLE.c ****       CYBLE_ERROR_INVALID_STATE           On calling this API not in 
 521:.\Generated_Source\PSoC4/BLE.c ****                                           Disconnected state.
 522:.\Generated_Source\PSoC4/BLE.c ****      </table>
 523:.\Generated_Source\PSoC4/BLE.c ****     
 524:.\Generated_Source\PSoC4/BLE.c ****     ******************************************************************************/
 525:.\Generated_Source\PSoC4/BLE.c ****     CYBLE_API_RESULT_T CyBle_GappStartAdvertisement(uint8 advertisingIntervalType)
 526:.\Generated_Source\PSoC4/BLE.c ****     {
 527:.\Generated_Source\PSoC4/BLE.c ****         CYBLE_API_RESULT_T apiResult;
 528:.\Generated_Source\PSoC4/BLE.c ****         
 529:.\Generated_Source\PSoC4/BLE.c ****         if(advertisingIntervalType > CYBLE_ADVERTISING_CUSTOM)
ARM GAS  C:\Users\Luci\AppData\Local\Temp\ccFJ7SSB.s 			page 17


 530:.\Generated_Source\PSoC4/BLE.c ****         {
 531:.\Generated_Source\PSoC4/BLE.c ****             apiResult = CYBLE_ERROR_INVALID_PARAMETER;
 532:.\Generated_Source\PSoC4/BLE.c ****         }
 533:.\Generated_Source\PSoC4/BLE.c ****         else if((CYBLE_STATE_DISCONNECTED == CyBle_GetState()) && ((cyBle_eventHandlerFlag & CYBLE_
 534:.\Generated_Source\PSoC4/BLE.c ****         {   
 535:.\Generated_Source\PSoC4/BLE.c ****             if(advertisingIntervalType == CYBLE_ADVERTISING_FAST)
 536:.\Generated_Source\PSoC4/BLE.c ****             {
 537:.\Generated_Source\PSoC4/BLE.c ****                 cyBle_discoveryModeInfo.advTo = CYBLE_FAST_ADV_TIMEOUT;
 538:.\Generated_Source\PSoC4/BLE.c ****                 cyBle_discoveryModeInfo.advParam->advIntvMin = CYBLE_FAST_ADV_INT_MIN;
 539:.\Generated_Source\PSoC4/BLE.c ****                 cyBle_discoveryModeInfo.advParam->advIntvMax = CYBLE_FAST_ADV_INT_MAX;
 540:.\Generated_Source\PSoC4/BLE.c ****             }
 541:.\Generated_Source\PSoC4/BLE.c ****             else if(advertisingIntervalType == CYBLE_ADVERTISING_SLOW)
 542:.\Generated_Source\PSoC4/BLE.c ****             {
 543:.\Generated_Source\PSoC4/BLE.c ****                 cyBle_discoveryModeInfo.advTo = CYBLE_SLOW_ADV_TIMEOUT;
 544:.\Generated_Source\PSoC4/BLE.c ****                 cyBle_discoveryModeInfo.advParam->advIntvMin = CYBLE_SLOW_ADV_INT_MIN;
 545:.\Generated_Source\PSoC4/BLE.c ****                 cyBle_discoveryModeInfo.advParam->advIntvMax = CYBLE_SLOW_ADV_INT_MAX;
 546:.\Generated_Source\PSoC4/BLE.c ****             }       
 547:.\Generated_Source\PSoC4/BLE.c ****             else /* Do not update advertising intervals */
 548:.\Generated_Source\PSoC4/BLE.c ****             {
 549:.\Generated_Source\PSoC4/BLE.c ****             }
 550:.\Generated_Source\PSoC4/BLE.c ****             cyBle_advertisingIntervalType = advertisingIntervalType;
 551:.\Generated_Source\PSoC4/BLE.c ****             apiResult = CyBle_GappEnterDiscoveryMode(&cyBle_discoveryModeInfo);
 552:.\Generated_Source\PSoC4/BLE.c ****         
 553:.\Generated_Source\PSoC4/BLE.c ****             if(CYBLE_ERROR_OK == apiResult)
 554:.\Generated_Source\PSoC4/BLE.c ****             {
 555:.\Generated_Source\PSoC4/BLE.c ****                 cyBle_eventHandlerFlag |= CYBLE_START_FLAG;
 556:.\Generated_Source\PSoC4/BLE.c ****             }
 557:.\Generated_Source\PSoC4/BLE.c ****         }
 558:.\Generated_Source\PSoC4/BLE.c ****         else
 559:.\Generated_Source\PSoC4/BLE.c ****         {
 560:.\Generated_Source\PSoC4/BLE.c ****             apiResult = CYBLE_ERROR_INVALID_STATE;
 561:.\Generated_Source\PSoC4/BLE.c ****         }
 562:.\Generated_Source\PSoC4/BLE.c **** 
 563:.\Generated_Source\PSoC4/BLE.c ****         return (apiResult);
 564:.\Generated_Source\PSoC4/BLE.c ****     }
 565:.\Generated_Source\PSoC4/BLE.c **** 
 566:.\Generated_Source\PSoC4/BLE.c ****     
 567:.\Generated_Source\PSoC4/BLE.c ****     /******************************************************************************
 568:.\Generated_Source\PSoC4/BLE.c ****     ##Function Name: CyBle_GappStopAdvertisement
 569:.\Generated_Source\PSoC4/BLE.c ****     *******************************************************************************
 570:.\Generated_Source\PSoC4/BLE.c ****     
 571:.\Generated_Source\PSoC4/BLE.c ****      Summary:
 572:.\Generated_Source\PSoC4/BLE.c ****       This function can be used to exit from discovery mode. After the execution 
 573:.\Generated_Source\PSoC4/BLE.c ****       of this function, there will no longer be any advertisements. On stopping 
 574:.\Generated_Source\PSoC4/BLE.c ****       advertising, GAP Peripheral receives CYBLE_EVT_GAPP_ADVERTISEMENT_START_STOP
 575:.\Generated_Source\PSoC4/BLE.c ****       event. It is expected that the application layer tracks the function call 
 576:.\Generated_Source\PSoC4/BLE.c ****       performed before occurrence of this event as this event can occur on making 
 577:.\Generated_Source\PSoC4/BLE.c ****       a call to Cy_BleGappStartAdvertisement(), CyBle_GappEnterDiscoveryMode(), 
 578:.\Generated_Source\PSoC4/BLE.c ****       or CyBle_GappStartAdvertisement() functions as well.
 579:.\Generated_Source\PSoC4/BLE.c ****       
 580:.\Generated_Source\PSoC4/BLE.c ****       The following event occurs on invoking this function:
 581:.\Generated_Source\PSoC4/BLE.c ****       * CYBLE_EVT_GAPP_ADVERTISEMENT_START_STOP
 582:.\Generated_Source\PSoC4/BLE.c ****     
 583:.\Generated_Source\PSoC4/BLE.c ****      Parameters:
 584:.\Generated_Source\PSoC4/BLE.c ****       None
 585:.\Generated_Source\PSoC4/BLE.c ****     
 586:.\Generated_Source\PSoC4/BLE.c ****      Return:
ARM GAS  C:\Users\Luci\AppData\Local\Temp\ccFJ7SSB.s 			page 18


 587:.\Generated_Source\PSoC4/BLE.c ****       None
 588:.\Generated_Source\PSoC4/BLE.c ****     
 589:.\Generated_Source\PSoC4/BLE.c ****     ******************************************************************************/
 590:.\Generated_Source\PSoC4/BLE.c ****     void CyBle_GappStopAdvertisement(void)
 591:.\Generated_Source\PSoC4/BLE.c ****     {
 592:.\Generated_Source\PSoC4/BLE.c ****         CyBle_GappExitDiscoveryMode();
 593:.\Generated_Source\PSoC4/BLE.c ****         cyBle_eventHandlerFlag |= CYBLE_STOP_FLAG;
 594:.\Generated_Source\PSoC4/BLE.c ****     }
 595:.\Generated_Source\PSoC4/BLE.c ****     
 596:.\Generated_Source\PSoC4/BLE.c ****     
 597:.\Generated_Source\PSoC4/BLE.c ****     /******************************************************************************
 598:.\Generated_Source\PSoC4/BLE.c ****     ##Function Name: CyBle_ChangeAdDeviceAddress
 599:.\Generated_Source\PSoC4/BLE.c ****     *******************************************************************************
 600:.\Generated_Source\PSoC4/BLE.c **** 
 601:.\Generated_Source\PSoC4/BLE.c ****     Summary:
 602:.\Generated_Source\PSoC4/BLE.c ****      This API is used to set the Bluetooth device address into the advertisement 
 603:.\Generated_Source\PSoC4/BLE.c ****      or scan response data structure.
 604:.\Generated_Source\PSoC4/BLE.c **** 
 605:.\Generated_Source\PSoC4/BLE.c ****     Parameters:
 606:.\Generated_Source\PSoC4/BLE.c ****      bdAddr: Bluetooth Device address. The variable is of type CYBLE_GAP_BD_ADDR_T
 607:.\Generated_Source\PSoC4/BLE.c ****      uint8 dest: 0 - avrevtisement structure, not zero value selects scan response
 608:.\Generated_Source\PSoC4/BLE.c ****                  structure.
 609:.\Generated_Source\PSoC4/BLE.c **** 
 610:.\Generated_Source\PSoC4/BLE.c ****     Return:
 611:.\Generated_Source\PSoC4/BLE.c ****      None
 612:.\Generated_Source\PSoC4/BLE.c ****  
 613:.\Generated_Source\PSoC4/BLE.c ****     ******************************************************************************/
 614:.\Generated_Source\PSoC4/BLE.c ****     void CyBle_ChangeAdDeviceAddress(const CYBLE_GAP_BD_ADDR_T* bdAddr, uint8 dest)
 615:.\Generated_Source\PSoC4/BLE.c ****     {
 616:.\Generated_Source\PSoC4/BLE.c ****         uint8 i;
 617:.\Generated_Source\PSoC4/BLE.c ****         uint8 *destBuffer = NULL;
 618:.\Generated_Source\PSoC4/BLE.c ****         
 619:.\Generated_Source\PSoC4/BLE.c ****         if(dest == 0u)      /* Destination - advertising structure */
 620:.\Generated_Source\PSoC4/BLE.c ****         {
 621:.\Generated_Source\PSoC4/BLE.c ****             #ifdef CYBLE_ADV_PKT_INDEX_BLUETOOTH_DEVICE_ADDRESS
 622:.\Generated_Source\PSoC4/BLE.c ****                 destBuffer = &cyBle_discoveryData.advData[CYBLE_ADV_PKT_INDEX_BLUETOOTH_DEVICE_ADDR
 623:.\Generated_Source\PSoC4/BLE.c ****             #endif /* CYBLE_ADV_PKT_INDEX_BLUETOOTH_DEVICE_ADDRESS */
 624:.\Generated_Source\PSoC4/BLE.c ****         }
 625:.\Generated_Source\PSoC4/BLE.c ****         else                /* Destination - scan response structure */
 626:.\Generated_Source\PSoC4/BLE.c ****         {
 627:.\Generated_Source\PSoC4/BLE.c ****             #ifdef CYBLE_SCN_PKT_INDEX_BLUETOOTH_DEVICE_ADDRESS
 628:.\Generated_Source\PSoC4/BLE.c ****                 destBuffer = &cyBle_scanRspData.scanRspData[CYBLE_SCN_PKT_INDEX_BLUETOOTH_DEVICE_AD
 629:.\Generated_Source\PSoC4/BLE.c ****             #endif /* CYBLE_SCN_PKT_INDEX_BLUETOOTH_DEVICE_ADDRESS */    
 630:.\Generated_Source\PSoC4/BLE.c ****         }
 631:.\Generated_Source\PSoC4/BLE.c ****         
 632:.\Generated_Source\PSoC4/BLE.c ****         if(destBuffer != NULL)
 633:.\Generated_Source\PSoC4/BLE.c ****         {
 634:.\Generated_Source\PSoC4/BLE.c ****             /* Update Device Address type */
 635:.\Generated_Source\PSoC4/BLE.c ****             destBuffer[0u] = bdAddr->type;
 636:.\Generated_Source\PSoC4/BLE.c ****             
 637:.\Generated_Source\PSoC4/BLE.c ****             for(i = 0; i < CYBLE_GAP_BD_ADDR_SIZE; i++)
 638:.\Generated_Source\PSoC4/BLE.c ****             {
 639:.\Generated_Source\PSoC4/BLE.c ****                 destBuffer[i + 1u] = bdAddr->bdAddr[i];
 640:.\Generated_Source\PSoC4/BLE.c ****             }
 641:.\Generated_Source\PSoC4/BLE.c ****         }
 642:.\Generated_Source\PSoC4/BLE.c ****     }
 643:.\Generated_Source\PSoC4/BLE.c ****   
ARM GAS  C:\Users\Luci\AppData\Local\Temp\ccFJ7SSB.s 			page 19


 644:.\Generated_Source\PSoC4/BLE.c **** #endif /* CYBLE_GAP_ROLE_PERIPHERAL || CYBLE_GAP_ROLE_BROADCASTER */
 645:.\Generated_Source\PSoC4/BLE.c **** 
 646:.\Generated_Source\PSoC4/BLE.c **** 
 647:.\Generated_Source\PSoC4/BLE.c **** #if(CYBLE_GAP_ROLE_CENTRAL || CYBLE_GAP_ROLE_OBSERVER)
 648:.\Generated_Source\PSoC4/BLE.c **** 
 649:.\Generated_Source\PSoC4/BLE.c ****     /******************************************************************************
 650:.\Generated_Source\PSoC4/BLE.c ****     ##Function Name: CyBle_GapcStartScan
 651:.\Generated_Source\PSoC4/BLE.c ****     *******************************************************************************
 652:.\Generated_Source\PSoC4/BLE.c ****     
 653:.\Generated_Source\PSoC4/BLE.c ****      Summary:
 654:.\Generated_Source\PSoC4/BLE.c ****       This function is used for discovering GAP peripheral devices that are 
 655:.\Generated_Source\PSoC4/BLE.c ****       available for connection. It performs the scanning routine using the 
 656:.\Generated_Source\PSoC4/BLE.c ****       parameters entered in the component's customizer.
 657:.\Generated_Source\PSoC4/BLE.c ****       
 658:.\Generated_Source\PSoC4/BLE.c ****       As soon as the discovery operation starts, CYBLE_EVT_GAPC_SCAN_START_STOP 
 659:.\Generated_Source\PSoC4/BLE.c ****       event is generated. The CYBLE_EVT_GAPC_SCAN_PROGRESS_RESULT event is 
 660:.\Generated_Source\PSoC4/BLE.c ****       generated when a GAP peripheral device is located. There are three discovery
 661:.\Generated_Source\PSoC4/BLE.c ****       procedures can be selected in the customizer's GUI:
 662:.\Generated_Source\PSoC4/BLE.c ****       
 663:.\Generated_Source\PSoC4/BLE.c ****       * Observation procedure: A device performing the observer role receives only
 664:.\Generated_Source\PSoC4/BLE.c ****                                advertisement data from devices irrespective of 
 665:.\Generated_Source\PSoC4/BLE.c ****                                their discoverable mode settings. Advertisement 
 666:.\Generated_Source\PSoC4/BLE.c ****                                data received is provided by the event,      
 667:.\Generated_Source\PSoC4/BLE.c ****                                CYBLE_EVT_GAPC_SCAN_PROGRESS_RESULT. This procedure
 668:.\Generated_Source\PSoC4/BLE.c ****                                requires the scanType sub parameter to be passive
 669:.\Generated_Source\PSoC4/BLE.c ****                                scanning. 
 670:.\Generated_Source\PSoC4/BLE.c ****       
 671:.\Generated_Source\PSoC4/BLE.c ****       * Limited Discovery procedure: A device performing the limited discovery
 672:.\Generated_Source\PSoC4/BLE.c ****                                      procedure receives advertisement data and 
 673:.\Generated_Source\PSoC4/BLE.c ****                                      scan# response data from devices in the 
 674:.\Generated_Source\PSoC4/BLE.c ****                                      limited discoverable mode only. Received data
 675:.\Generated_Source\PSoC4/BLE.c ****                                      is provided by the event, 
 676:.\Generated_Source\PSoC4/BLE.c ****                                      CYBLE_EVT_GAPC_SCAN_PROGRESS_RESULT. This 
 677:.\Generated_Source\PSoC4/BLE.c ****                                      procedure requires the scanType sub-parameter 
 678:.\Generated_Source\PSoC4/BLE.c ****                                      to be active scanning.
 679:.\Generated_Source\PSoC4/BLE.c ****       
 680:.\Generated_Source\PSoC4/BLE.c ****       * General Discovery procedure: A device performing the general discovery 
 681:.\Generated_Source\PSoC4/BLE.c ****                                      procedure receives the advertisement data and
 682:.\Generated_Source\PSoC4/BLE.c ****                                      scan response data from devices in both 
 683:.\Generated_Source\PSoC4/BLE.c ****                                      limited discoverable mode and the general 
 684:.\Generated_Source\PSoC4/BLE.c ****                                      discoverable mode. Received data is provided
 685:.\Generated_Source\PSoC4/BLE.c ****                                      by the event,
 686:.\Generated_Source\PSoC4/BLE.c ****                                      CYBLE_EVT_GAPC_SCAN_PROGRESS_RESULT. This 
 687:.\Generated_Source\PSoC4/BLE.c ****                                      procedure requires the scanType sub-parameter
 688:.\Generated_Source\PSoC4/BLE.c ****                                      to be active scanning.
 689:.\Generated_Source\PSoC4/BLE.c ****       
 690:.\Generated_Source\PSoC4/BLE.c ****       Every Advertisement / Scan response packet received results in a new event, 
 691:.\Generated_Source\PSoC4/BLE.c ****       CYBLE_EVT_GAPC_SCAN_PROGRESS_RESULT.
 692:.\Generated_Source\PSoC4/BLE.c ****       If 'scanTo' sub-parameter is a non-zero value, then upon commencement of 
 693:.\Generated_Source\PSoC4/BLE.c ****       discovery procedure and elapsed time = 'scanTo', CYBLE_EVT_TIMEOUT event
 694:.\Generated_Source\PSoC4/BLE.c ****       is generated with the event parameter indicating CYBLE_GAP_SCAN_TO.
 695:.\Generated_Source\PSoC4/BLE.c ****       Possible generated events are:
 696:.\Generated_Source\PSoC4/BLE.c ****       * CYBLE_EVT_GAPC_SCAN_START_STOP: If a device started or stopped scanning. 
 697:.\Generated_Source\PSoC4/BLE.c ****                                         Use CyBle_GetState() to determine the 
 698:.\Generated_Source\PSoC4/BLE.c ****                                         state. Sequential scanning could be 
 699:.\Generated_Source\PSoC4/BLE.c ****                                         started when CYBLE_STATE_DISCONNECTED 
 700:.\Generated_Source\PSoC4/BLE.c ****                                         state is returned. 
ARM GAS  C:\Users\Luci\AppData\Local\Temp\ccFJ7SSB.s 			page 20


 701:.\Generated_Source\PSoC4/BLE.c ****       * CYBLE_EVT_GAPC_SCAN_PROGRESS_RESULT 
 702:.\Generated_Source\PSoC4/BLE.c ****       * CYBLE_EVT_TIMEOUT (CYBLE_GAP_SCAN_TO)
 703:.\Generated_Source\PSoC4/BLE.c ****     
 704:.\Generated_Source\PSoC4/BLE.c ****      Parameters:
 705:.\Generated_Source\PSoC4/BLE.c ****       uint8 scanningIntervalType:  Fast or slow scanning interval with
 706:.\Generated_Source\PSoC4/BLE.c ****           timings entered in Scan settings section of the customiser.
 707:.\Generated_Source\PSoC4/BLE.c ****     	  * CYBLE_SCANNING_FAST   0x00u
 708:.\Generated_Source\PSoC4/BLE.c ****     	  * CYBLE_SCANNING_SLOW   0x01u
 709:.\Generated_Source\PSoC4/BLE.c ****     	  * CYBLE_SCANNING_CUSTOM 0x02u
 710:.\Generated_Source\PSoC4/BLE.c ****     
 711:.\Generated_Source\PSoC4/BLE.c ****     Return:
 712:.\Generated_Source\PSoC4/BLE.c ****      CYBLE_API_RESULT_T : Return value indicates if the function succeeded or
 713:.\Generated_Source\PSoC4/BLE.c ****      failed. Following are the possible error codes.
 714:.\Generated_Source\PSoC4/BLE.c ****      <table>
 715:.\Generated_Source\PSoC4/BLE.c ****       Errors codes                        Description
 716:.\Generated_Source\PSoC4/BLE.c ****       ------------                        -----------
 717:.\Generated_Source\PSoC4/BLE.c ****       CYBLE_ERROR_OK                      On successful operation.
 718:.\Generated_Source\PSoC4/BLE.c ****       CYBLE_ERROR_STACK_INTERNAL          An error occurred in the BLE stack.
 719:.\Generated_Source\PSoC4/BLE.c ****       CYBLE_ERROR_INVALID_PARAMETER       On passing an invalid parameter.
 720:.\Generated_Source\PSoC4/BLE.c ****      </table>
 721:.\Generated_Source\PSoC4/BLE.c ****      
 722:.\Generated_Source\PSoC4/BLE.c ****     ******************************************************************************/
 723:.\Generated_Source\PSoC4/BLE.c ****     CYBLE_API_RESULT_T CyBle_GapcStartScan(uint8 scanningIntervalType)
 724:.\Generated_Source\PSoC4/BLE.c ****     {
 362              		.loc 1 724 0
 363              		.cfi_startproc
 364              	.LVL23:
 365 0000 08B5     		push	{r3, lr}
 366              		.cfi_def_cfa_offset 8
 367              		.cfi_offset 3, -8
 368              		.cfi_offset 14, -4
 725:.\Generated_Source\PSoC4/BLE.c ****         CYBLE_API_RESULT_T apiResult;
 726:.\Generated_Source\PSoC4/BLE.c **** 
 727:.\Generated_Source\PSoC4/BLE.c ****         if(scanningIntervalType > CYBLE_SCANNING_CUSTOM)
 369              		.loc 1 727 0
 370 0002 0228     		cmp	r0, #2
 371 0004 1FD8     		bhi	.L27
 728:.\Generated_Source\PSoC4/BLE.c ****         {
 729:.\Generated_Source\PSoC4/BLE.c ****             apiResult = CYBLE_ERROR_INVALID_PARAMETER;
 730:.\Generated_Source\PSoC4/BLE.c ****         }
 731:.\Generated_Source\PSoC4/BLE.c ****         else
 732:.\Generated_Source\PSoC4/BLE.c ****         {
 733:.\Generated_Source\PSoC4/BLE.c ****             if(scanningIntervalType == CYBLE_SCANNING_FAST)
 372              		.loc 1 733 0
 373 0006 0028     		cmp	r0, #0
 374 0008 06D1     		bne	.L25
 734:.\Generated_Source\PSoC4/BLE.c ****             {
 735:.\Generated_Source\PSoC4/BLE.c ****                 cyBle_discoveryInfo.scanTo = CYBLE_FAST_SCAN_TIMEOUT;
 375              		.loc 1 735 0
 376 000a 104B     		ldr	r3, .L28
 377 000c 1E22     		mov	r2, #30
 378 000e 1A81     		strh	r2, [r3, #8]
 736:.\Generated_Source\PSoC4/BLE.c ****                 cyBle_discoveryInfo.scanIntv = CYBLE_FAST_SCAN_INTERVAL;
 379              		.loc 1 736 0
 380 0010 1232     		add	r2, r2, #18
 381 0012 5A80     		strh	r2, [r3, #2]
 737:.\Generated_Source\PSoC4/BLE.c ****                 cyBle_discoveryInfo.scanWindow = CYBLE_FAST_SCAN_WINDOW;
ARM GAS  C:\Users\Luci\AppData\Local\Temp\ccFJ7SSB.s 			page 21


 382              		.loc 1 737 0
 383 0014 9A80     		strh	r2, [r3, #4]
 384 0016 09E0     		b	.L26
 385              	.L25:
 738:.\Generated_Source\PSoC4/BLE.c ****             }
 739:.\Generated_Source\PSoC4/BLE.c ****             else if(scanningIntervalType == CYBLE_SCANNING_SLOW)
 386              		.loc 1 739 0
 387 0018 0128     		cmp	r0, #1
 388 001a 07D1     		bne	.L26
 740:.\Generated_Source\PSoC4/BLE.c ****             {
 741:.\Generated_Source\PSoC4/BLE.c ****                 cyBle_discoveryInfo.scanTo = CYBLE_SLOW_SCAN_TIMEOUT;
 389              		.loc 1 741 0
 390 001c 0B4B     		ldr	r3, .L28
 391 001e 9622     		mov	r2, #150
 392 0020 1A81     		strh	r2, [r3, #8]
 742:.\Generated_Source\PSoC4/BLE.c ****                 cyBle_discoveryInfo.scanIntv = CYBLE_SLOW_SCAN_INTERVAL;
 393              		.loc 1 742 0
 394 0022 8022     		mov	r2, #128
 395 0024 1201     		lsl	r2, r2, #4
 396 0026 5A80     		strh	r2, [r3, #2]
 743:.\Generated_Source\PSoC4/BLE.c ****                 cyBle_discoveryInfo.scanWindow = CYBLE_SLOW_SCAN_WINDOW;
 397              		.loc 1 743 0
 398 0028 F83A     		sub	r2, r2, #248
 399 002a 9A80     		strh	r2, [r3, #4]
 400              	.L26:
 744:.\Generated_Source\PSoC4/BLE.c ****             }       
 745:.\Generated_Source\PSoC4/BLE.c ****             else /* Do not update scanning intervals */
 746:.\Generated_Source\PSoC4/BLE.c ****             {
 747:.\Generated_Source\PSoC4/BLE.c ****             }
 748:.\Generated_Source\PSoC4/BLE.c ****             
 749:.\Generated_Source\PSoC4/BLE.c ****             cyBle_scanningIntervalType = scanningIntervalType;
 401              		.loc 1 749 0
 402 002c 084B     		ldr	r3, .L28+4
 403 002e 1870     		strb	r0, [r3]
 750:.\Generated_Source\PSoC4/BLE.c ****             apiResult = CyBle_GapcStartDiscovery(&cyBle_discoveryInfo);
 404              		.loc 1 750 0
 405 0030 0648     		ldr	r0, .L28
 406              	.LVL24:
 407 0032 FFF7FEFF 		bl	CyBle_GapcStartDiscovery
 408              	.LVL25:
 751:.\Generated_Source\PSoC4/BLE.c ****         
 752:.\Generated_Source\PSoC4/BLE.c ****             if(CYBLE_ERROR_OK == apiResult)
 409              		.loc 1 752 0
 410 0036 0028     		cmp	r0, #0
 411 0038 06D1     		bne	.L24
 753:.\Generated_Source\PSoC4/BLE.c ****             {
 754:.\Generated_Source\PSoC4/BLE.c ****                 cyBle_eventHandlerFlag |= CYBLE_START_FLAG;
 412              		.loc 1 754 0
 413 003a 064A     		ldr	r2, .L28+8
 414 003c 1178     		ldrb	r1, [r2]
 415 003e 0423     		mov	r3, #4
 416 0040 0B43     		orr	r3, r1
 417 0042 1370     		strb	r3, [r2]
 418 0044 00E0     		b	.L24
 419              	.LVL26:
 420              	.L27:
 729:.\Generated_Source\PSoC4/BLE.c ****         }
ARM GAS  C:\Users\Luci\AppData\Local\Temp\ccFJ7SSB.s 			page 22


 421              		.loc 1 729 0
 422 0046 0120     		mov	r0, #1
 423              	.LVL27:
 424              	.L24:
 755:.\Generated_Source\PSoC4/BLE.c ****             }
 756:.\Generated_Source\PSoC4/BLE.c ****         }
 757:.\Generated_Source\PSoC4/BLE.c ****        
 758:.\Generated_Source\PSoC4/BLE.c ****         return (apiResult);
 759:.\Generated_Source\PSoC4/BLE.c ****     }
 425              		.loc 1 759 0
 426              		@ sp needed
 427 0048 08BD     		pop	{r3, pc}
 428              	.L29:
 429 004a C046     		.align	2
 430              	.L28:
 431 004c 00000000 		.word	.LANCHOR0
 432 0050 00000000 		.word	cyBle_scanningIntervalType
 433 0054 00000000 		.word	cyBle_eventHandlerFlag
 434              		.cfi_endproc
 435              	.LFE7:
 436              		.size	CyBle_GapcStartScan, .-CyBle_GapcStartScan
 437              		.section	.text.CyBle_GapcStopScan,"ax",%progbits
 438              		.align	2
 439              		.global	CyBle_GapcStopScan
 440              		.code	16
 441              		.thumb_func
 442              		.type	CyBle_GapcStopScan, %function
 443              	CyBle_GapcStopScan:
 444              	.LFB8:
 760:.\Generated_Source\PSoC4/BLE.c ****     
 761:.\Generated_Source\PSoC4/BLE.c ****     
 762:.\Generated_Source\PSoC4/BLE.c ****     /******************************************************************************
 763:.\Generated_Source\PSoC4/BLE.c ****     ##Function Name: CyBle_GapcStopScan
 764:.\Generated_Source\PSoC4/BLE.c ****     *******************************************************************************
 765:.\Generated_Source\PSoC4/BLE.c ****     
 766:.\Generated_Source\PSoC4/BLE.c ****      Summary:
 767:.\Generated_Source\PSoC4/BLE.c ****       This function used to stop the discovery of devices. On stopping discovery
 768:.\Generated_Source\PSoC4/BLE.c ****       operation, CYBLE_EVT_GAPC_SCAN_START_STOP event is generated. Application
 769:.\Generated_Source\PSoC4/BLE.c ****       layer needs to keep track of the function call made before receiving this
 770:.\Generated_Source\PSoC4/BLE.c ****       event to associate this event with either the start or stop discovery
 771:.\Generated_Source\PSoC4/BLE.c ****       function.
 772:.\Generated_Source\PSoC4/BLE.c ****     
 773:.\Generated_Source\PSoC4/BLE.c ****       Possible events generated are:
 774:.\Generated_Source\PSoC4/BLE.c ****        * CYBLE_EVT_GAPC_SCAN_START_STOP
 775:.\Generated_Source\PSoC4/BLE.c ****     
 776:.\Generated_Source\PSoC4/BLE.c ****      Parameters:
 777:.\Generated_Source\PSoC4/BLE.c ****       None
 778:.\Generated_Source\PSoC4/BLE.c ****     
 779:.\Generated_Source\PSoC4/BLE.c ****      Return:
 780:.\Generated_Source\PSoC4/BLE.c ****       None
 781:.\Generated_Source\PSoC4/BLE.c ****     
 782:.\Generated_Source\PSoC4/BLE.c ****     ******************************************************************************/
 783:.\Generated_Source\PSoC4/BLE.c ****     void CyBle_GapcStopScan(void)
 784:.\Generated_Source\PSoC4/BLE.c ****     {
 445              		.loc 1 784 0
 446              		.cfi_startproc
 447 0000 08B5     		push	{r3, lr}
ARM GAS  C:\Users\Luci\AppData\Local\Temp\ccFJ7SSB.s 			page 23


 448              		.cfi_def_cfa_offset 8
 449              		.cfi_offset 3, -8
 450              		.cfi_offset 14, -4
 785:.\Generated_Source\PSoC4/BLE.c ****         CyBle_GapcStopDiscovery();
 451              		.loc 1 785 0
 452 0002 FFF7FEFF 		bl	CyBle_GapcStopDiscovery
 453              	.LVL28:
 786:.\Generated_Source\PSoC4/BLE.c ****         
 787:.\Generated_Source\PSoC4/BLE.c ****         cyBle_eventHandlerFlag |= CYBLE_STOP_FLAG;
 454              		.loc 1 787 0
 455 0006 034A     		ldr	r2, .L31
 456 0008 1178     		ldrb	r1, [r2]
 457 000a 0823     		mov	r3, #8
 458 000c 0B43     		orr	r3, r1
 459 000e 1370     		strb	r3, [r2]
 788:.\Generated_Source\PSoC4/BLE.c ****     }
 460              		.loc 1 788 0
 461              		@ sp needed
 462 0010 08BD     		pop	{r3, pc}
 463              	.L32:
 464 0012 C046     		.align	2
 465              	.L31:
 466 0014 00000000 		.word	cyBle_eventHandlerFlag
 467              		.cfi_endproc
 468              	.LFE8:
 469              		.size	CyBle_GapcStopScan, .-CyBle_GapcStopScan
 470              		.section	.text.CyBle_GapcConnectDevice,"ax",%progbits
 471              		.align	2
 472              		.global	CyBle_GapcConnectDevice
 473              		.code	16
 474              		.thumb_func
 475              		.type	CyBle_GapcConnectDevice, %function
 476              	CyBle_GapcConnectDevice:
 477              	.LFB9:
 789:.\Generated_Source\PSoC4/BLE.c **** 
 790:.\Generated_Source\PSoC4/BLE.c ****     
 791:.\Generated_Source\PSoC4/BLE.c **** #endif /* CYBLE_GAP_ROLE_CENTRAL || CYBLE_GAP_ROLE_OBSERVER */
 792:.\Generated_Source\PSoC4/BLE.c **** 
 793:.\Generated_Source\PSoC4/BLE.c **** 
 794:.\Generated_Source\PSoC4/BLE.c **** #if(CYBLE_GAP_ROLE_CENTRAL)
 795:.\Generated_Source\PSoC4/BLE.c **** 
 796:.\Generated_Source\PSoC4/BLE.c ****     /******************************************************************************
 797:.\Generated_Source\PSoC4/BLE.c ****     ##Function Name: CyBle_GapcConnectDevice
 798:.\Generated_Source\PSoC4/BLE.c ****     *******************************************************************************
 799:.\Generated_Source\PSoC4/BLE.c ****     
 800:.\Generated_Source\PSoC4/BLE.c ****     Summary:
 801:.\Generated_Source\PSoC4/BLE.c ****      This function is used to send a connection request to the remote device with
 802:.\Generated_Source\PSoC4/BLE.c ****      the connection parameters set in the component customizer. This function needs
 803:.\Generated_Source\PSoC4/BLE.c ****      to be called only once after the target device is discovered by 
 804:.\Generated_Source\PSoC4/BLE.c ****      CyBle_GapcStartScan() and further scanning has stopped. Scanning is 
 805:.\Generated_Source\PSoC4/BLE.c ****      successfully stopped on invoking CyBle_GapcStopScan() and then receiving the
 806:.\Generated_Source\PSoC4/BLE.c ****      event CYBLE_EVT_GAPC_SCAN_START_STOP with sub-parameter 'success' = 0x01u.
 807:.\Generated_Source\PSoC4/BLE.c ****      
 808:.\Generated_Source\PSoC4/BLE.c ****      On successful connection, the following events are generated at the GAP 
 809:.\Generated_Source\PSoC4/BLE.c ****      Central device (as well as the GAP Peripheral device), in the following order.
 810:.\Generated_Source\PSoC4/BLE.c ****      * CYBLE_EVT_GATT_CONNECT_IND
 811:.\Generated_Source\PSoC4/BLE.c ****      * CYBLE_EVT_GAP_DEVICE_CONNECTED
ARM GAS  C:\Users\Luci\AppData\Local\Temp\ccFJ7SSB.s 			page 24


 812:.\Generated_Source\PSoC4/BLE.c ****  
 813:.\Generated_Source\PSoC4/BLE.c ****      A procedure is considered to have timed out if a connection response packet is 
 814:.\Generated_Source\PSoC4/BLE.c ****      not received within time set by cyBle_connectingTimeout global variable
 815:.\Generated_Source\PSoC4/BLE.c ****      (30 seconds by default). CYBLE_EVT_TIMEOUT event with CYBLE_GENERIC_TO parameter
 816:.\Generated_Source\PSoC4/BLE.c ****      will indicate about connection procedure timeout. Connection will automatically
 817:.\Generated_Source\PSoC4/BLE.c ****      be cancelled and state will be changed to CYBLE_STATE_DISCONNECTED.
 818:.\Generated_Source\PSoC4/BLE.c ****     
 819:.\Generated_Source\PSoC4/BLE.c ****     Parameters:
 820:.\Generated_Source\PSoC4/BLE.c ****      const CYBLE_GAP_BD_ADDR_T address: The device address of the remote device to 
 821:.\Generated_Source\PSoC4/BLE.c ****                                         connect to. 
 822:.\Generated_Source\PSoC4/BLE.c ****      timeout: Timeout for which timer to be started in seconds.
 823:.\Generated_Source\PSoC4/BLE.c ****  
 824:.\Generated_Source\PSoC4/BLE.c ****     Return:
 825:.\Generated_Source\PSoC4/BLE.c ****      CYBLE_API_RESULT_T : Return value indicates if the function succeeded or 
 826:.\Generated_Source\PSoC4/BLE.c ****      failed. Following are the possible error codes.
 827:.\Generated_Source\PSoC4/BLE.c ****      <table>
 828:.\Generated_Source\PSoC4/BLE.c ****       Errors codes                        Description
 829:.\Generated_Source\PSoC4/BLE.c ****       ------------                        -----------
 830:.\Generated_Source\PSoC4/BLE.c ****       CYBLE_ERROR_OK                      On successful operation.
 831:.\Generated_Source\PSoC4/BLE.c ****       CYBLE_ERROR_STACK_INTERNAL          On error occurred in the BLE stack.
 832:.\Generated_Source\PSoC4/BLE.c ****       CYBLE_ERROR_INVALID_PARAMETER       On passing an invalid parameter.
 833:.\Generated_Source\PSoC4/BLE.c ****       CYBLE_ERROR_INVALID_STATE           On calling this API not in 
 834:.\Generated_Source\PSoC4/BLE.c ****                                           Disconnected state.
 835:.\Generated_Source\PSoC4/BLE.c ****      </table>
 836:.\Generated_Source\PSoC4/BLE.c ****  
 837:.\Generated_Source\PSoC4/BLE.c ****     ******************************************************************************/
 838:.\Generated_Source\PSoC4/BLE.c ****     CYBLE_API_RESULT_T CyBle_GapcConnectDevice(const CYBLE_GAP_BD_ADDR_T * address)
 839:.\Generated_Source\PSoC4/BLE.c ****     {
 478              		.loc 1 839 0
 479              		.cfi_startproc
 480              	.LVL29:
 481 0000 10B5     		push	{r4, lr}
 482              		.cfi_def_cfa_offset 8
 483              		.cfi_offset 4, -8
 484              		.cfi_offset 14, -4
 840:.\Generated_Source\PSoC4/BLE.c ****         CYBLE_API_RESULT_T apiResult;
 841:.\Generated_Source\PSoC4/BLE.c ****         uint8 i;
 842:.\Generated_Source\PSoC4/BLE.c **** 
 843:.\Generated_Source\PSoC4/BLE.c ****         if(CYBLE_STATE_DISCONNECTED != CyBle_GetState())
 485              		.loc 1 843 0
 486 0002 134B     		ldr	r3, .L39
 487 0004 1B78     		ldrb	r3, [r3]
 488 0006 052B     		cmp	r3, #5
 489 0008 1CD1     		bne	.L37
 844:.\Generated_Source\PSoC4/BLE.c ****         {
 845:.\Generated_Source\PSoC4/BLE.c ****             apiResult = CYBLE_ERROR_INVALID_STATE;
 846:.\Generated_Source\PSoC4/BLE.c ****         }
 847:.\Generated_Source\PSoC4/BLE.c ****         else if(address == NULL)
 490              		.loc 1 847 0
 491 000a 0028     		cmp	r0, #0
 492 000c 1DD0     		beq	.L38
 493 000e 0023     		mov	r3, #0
 494 0010 05E0     		b	.L35
 495              	.LVL30:
 496              	.L36:
 848:.\Generated_Source\PSoC4/BLE.c ****         {
 849:.\Generated_Source\PSoC4/BLE.c ****             apiResult = CYBLE_ERROR_INVALID_PARAMETER;
ARM GAS  C:\Users\Luci\AppData\Local\Temp\ccFJ7SSB.s 			page 25


 850:.\Generated_Source\PSoC4/BLE.c ****         }
 851:.\Generated_Source\PSoC4/BLE.c ****         else
 852:.\Generated_Source\PSoC4/BLE.c ****         {
 853:.\Generated_Source\PSoC4/BLE.c ****             for(i = 0u; i < CYBLE_GAP_BD_ADDR_SIZE; i++)
 854:.\Generated_Source\PSoC4/BLE.c ****             {
 855:.\Generated_Source\PSoC4/BLE.c ****                 cyBle_connectionParameters.peerBdAddr[i] = address->bdAddr[i];
 497              		.loc 1 855 0 discriminator 3
 498 0012 C15C     		ldrb	r1, [r0, r3]
 499 0014 0F4A     		ldr	r2, .L39+4
 500 0016 D218     		add	r2, r2, r3
 501 0018 5171     		strb	r1, [r2, #5]
 853:.\Generated_Source\PSoC4/BLE.c ****             {
 502              		.loc 1 853 0 discriminator 3
 503 001a 0133     		add	r3, r3, #1
 504              	.LVL31:
 505 001c DBB2     		uxtb	r3, r3
 506              	.LVL32:
 507              	.L35:
 853:.\Generated_Source\PSoC4/BLE.c ****             {
 508              		.loc 1 853 0 is_stmt 0 discriminator 1
 509 001e 052B     		cmp	r3, #5
 510 0020 F7D9     		bls	.L36
 856:.\Generated_Source\PSoC4/BLE.c ****             }
 857:.\Generated_Source\PSoC4/BLE.c ****             cyBle_connectionParameters.peerAddrType = address -> type;
 511              		.loc 1 857 0 is_stmt 1
 512 0022 8379     		ldrb	r3, [r0, #6]
 513              	.LVL33:
 514 0024 0B48     		ldr	r0, .L39+4
 515              	.LVL34:
 516 0026 C372     		strb	r3, [r0, #11]
 858:.\Generated_Source\PSoC4/BLE.c ****             apiResult = CyBle_GapcInitConnection(&cyBle_connectionParameters);
 517              		.loc 1 858 0
 518 0028 FFF7FEFF 		bl	CyBle_GapcInitConnection
 519              	.LVL35:
 520 002c 041E     		sub	r4, r0, #0
 521              	.LVL36:
 859:.\Generated_Source\PSoC4/BLE.c ****             
 860:.\Generated_Source\PSoC4/BLE.c ****             if(CYBLE_ERROR_OK == apiResult)
 522              		.loc 1 860 0
 523 002e 0DD1     		bne	.L34
 861:.\Generated_Source\PSoC4/BLE.c ****             {
 862:.\Generated_Source\PSoC4/BLE.c ****                 CyBle_SetState(CYBLE_STATE_CONNECTING);
 524              		.loc 1 862 0
 525 0030 0422     		mov	r2, #4
 526 0032 074B     		ldr	r3, .L39
 527 0034 1A70     		strb	r2, [r3]
 863:.\Generated_Source\PSoC4/BLE.c ****                 if(cyBle_connectingTimeout != 0u)
 528              		.loc 1 863 0
 529 0036 084B     		ldr	r3, .L39+8
 530 0038 1888     		ldrh	r0, [r3]
 531              	.LVL37:
 532 003a 0028     		cmp	r0, #0
 533 003c 06D0     		beq	.L34
 864:.\Generated_Source\PSoC4/BLE.c ****                 {
 865:.\Generated_Source\PSoC4/BLE.c ****                     (void)CyBle_StartTimer(cyBle_connectingTimeout);
 534              		.loc 1 865 0
 535 003e FFF7FEFF 		bl	CyBle_StartTimer
ARM GAS  C:\Users\Luci\AppData\Local\Temp\ccFJ7SSB.s 			page 26


 536              	.LVL38:
 537 0042 03E0     		b	.L34
 538              	.LVL39:
 539              	.L37:
 845:.\Generated_Source\PSoC4/BLE.c ****         }
 540              		.loc 1 845 0
 541 0044 0424     		mov	r4, #4
 542 0046 FF34     		add	r4, r4, #255
 543 0048 00E0     		b	.L34
 544              	.L38:
 849:.\Generated_Source\PSoC4/BLE.c ****         }
 545              		.loc 1 849 0
 546 004a 0124     		mov	r4, #1
 547              	.LVL40:
 548              	.L34:
 866:.\Generated_Source\PSoC4/BLE.c ****                 }
 867:.\Generated_Source\PSoC4/BLE.c ****             }
 868:.\Generated_Source\PSoC4/BLE.c ****         }
 869:.\Generated_Source\PSoC4/BLE.c ****         return (apiResult);
 870:.\Generated_Source\PSoC4/BLE.c ****     }
 549              		.loc 1 870 0
 550 004c 201C     		mov	r0, r4
 551              		@ sp needed
 552              	.LVL41:
 553 004e 10BD     		pop	{r4, pc}
 554              	.L40:
 555              		.align	2
 556              	.L39:
 557 0050 00000000 		.word	cyBle_state
 558 0054 00000000 		.word	cyBle_connectionParameters
 559 0058 00000000 		.word	cyBle_connectingTimeout
 560              		.cfi_endproc
 561              	.LFE9:
 562              		.size	CyBle_GapcConnectDevice, .-CyBle_GapcConnectDevice
 563              		.section	.text.CyBle_GapcCancelDeviceConnection,"ax",%progbits
 564              		.align	2
 565              		.global	CyBle_GapcCancelDeviceConnection
 566              		.code	16
 567              		.thumb_func
 568              		.type	CyBle_GapcCancelDeviceConnection, %function
 569              	CyBle_GapcCancelDeviceConnection:
 570              	.LFB10:
 871:.\Generated_Source\PSoC4/BLE.c ****     
 872:.\Generated_Source\PSoC4/BLE.c **** 
 873:.\Generated_Source\PSoC4/BLE.c ****     /******************************************************************************
 874:.\Generated_Source\PSoC4/BLE.c ****     ##Function Name: CyBle_GapcCancelDeviceConnection
 875:.\Generated_Source\PSoC4/BLE.c ****     *******************************************************************************
 876:.\Generated_Source\PSoC4/BLE.c ****     
 877:.\Generated_Source\PSoC4/BLE.c ****     Summary:
 878:.\Generated_Source\PSoC4/BLE.c ****      This function cancels a previously initiated connection with the remote 
 879:.\Generated_Source\PSoC4/BLE.c ****      device. It is a blocking function. No event is generated on calling this 
 880:.\Generated_Source\PSoC4/BLE.c ****      function. If the devices are already connected then this function should not
 881:.\Generated_Source\PSoC4/BLE.c ****      be used. If you intend to disconnect from an existing connection, the function
 882:.\Generated_Source\PSoC4/BLE.c ****      CyBle_GapDisconnect() should be used.
 883:.\Generated_Source\PSoC4/BLE.c **** 
 884:.\Generated_Source\PSoC4/BLE.c ****     Parameters:
 885:.\Generated_Source\PSoC4/BLE.c ****      None
ARM GAS  C:\Users\Luci\AppData\Local\Temp\ccFJ7SSB.s 			page 27


 886:.\Generated_Source\PSoC4/BLE.c **** 
 887:.\Generated_Source\PSoC4/BLE.c ****     Return:
 888:.\Generated_Source\PSoC4/BLE.c ****      CYBLE_API_RESULT_T : Return value indicates if the function succeeded or 
 889:.\Generated_Source\PSoC4/BLE.c ****      failed. Following are the possible error codes.
 890:.\Generated_Source\PSoC4/BLE.c ****      <table>
 891:.\Generated_Source\PSoC4/BLE.c ****       Errors codes                        Description
 892:.\Generated_Source\PSoC4/BLE.c ****       ------------                        -----------
 893:.\Generated_Source\PSoC4/BLE.c ****       CYBLE_ERROR_OK                      On successful operation.
 894:.\Generated_Source\PSoC4/BLE.c ****       CYBLE_ERROR_STACK_INTERNAL          An error occurred in the 
 895:.\Generated_Source\PSoC4/BLE.c ****                                            BLE stack.
 896:.\Generated_Source\PSoC4/BLE.c ****       CYBLE_ERROR_INVALID_OPERATION       Device is already connected.
 897:.\Generated_Source\PSoC4/BLE.c ****      </table>
 898:.\Generated_Source\PSoC4/BLE.c ****  
 899:.\Generated_Source\PSoC4/BLE.c ****     ******************************************************************************/
 900:.\Generated_Source\PSoC4/BLE.c ****     CYBLE_API_RESULT_T CyBle_GapcCancelDeviceConnection(void)
 901:.\Generated_Source\PSoC4/BLE.c ****     {
 571              		.loc 1 901 0
 572              		.cfi_startproc
 573 0000 38B5     		push	{r3, r4, r5, lr}
 574              		.cfi_def_cfa_offset 16
 575              		.cfi_offset 3, -16
 576              		.cfi_offset 4, -12
 577              		.cfi_offset 5, -8
 578              		.cfi_offset 14, -4
 902:.\Generated_Source\PSoC4/BLE.c ****         CYBLE_API_RESULT_T apiResult;
 903:.\Generated_Source\PSoC4/BLE.c ****         
 904:.\Generated_Source\PSoC4/BLE.c ****         apiResult = CyBle_GapcCancelConnection();
 579              		.loc 1 904 0
 580 0002 FFF7FEFF 		bl	CyBle_GapcCancelConnection
 581              	.LVL42:
 582 0006 041C     		mov	r4, r0
 583 0008 051C     		mov	r5, r0
 584              	.LVL43:
 905:.\Generated_Source\PSoC4/BLE.c ****             
 906:.\Generated_Source\PSoC4/BLE.c ****         if(cyBle_connectingTimeout != 0u)
 585              		.loc 1 906 0
 586 000a 064B     		ldr	r3, .L44
 587 000c 1B88     		ldrh	r3, [r3]
 588 000e 002B     		cmp	r3, #0
 589 0010 01D0     		beq	.L42
 907:.\Generated_Source\PSoC4/BLE.c ****         {
 908:.\Generated_Source\PSoC4/BLE.c ****             (void)CyBle_StopTimer();
 590              		.loc 1 908 0
 591 0012 FFF7FEFF 		bl	CyBle_StopTimer
 592              	.LVL44:
 593              	.L42:
 909:.\Generated_Source\PSoC4/BLE.c ****         }
 910:.\Generated_Source\PSoC4/BLE.c **** 
 911:.\Generated_Source\PSoC4/BLE.c ****         if(CYBLE_ERROR_OK == apiResult)
 594              		.loc 1 911 0
 595 0016 002D     		cmp	r5, #0
 596 0018 02D1     		bne	.L43
 912:.\Generated_Source\PSoC4/BLE.c ****         {
 913:.\Generated_Source\PSoC4/BLE.c ****             CyBle_SetState(CYBLE_STATE_DISCONNECTED);
 597              		.loc 1 913 0
 598 001a 0522     		mov	r2, #5
 599 001c 024B     		ldr	r3, .L44+4
ARM GAS  C:\Users\Luci\AppData\Local\Temp\ccFJ7SSB.s 			page 28


 600 001e 1A70     		strb	r2, [r3]
 601              	.L43:
 914:.\Generated_Source\PSoC4/BLE.c ****         }
 915:.\Generated_Source\PSoC4/BLE.c ****         return (apiResult);
 916:.\Generated_Source\PSoC4/BLE.c ****     }    
 602              		.loc 1 916 0
 603 0020 201C     		mov	r0, r4
 604              		@ sp needed
 605              	.LVL45:
 606 0022 38BD     		pop	{r3, r4, r5, pc}
 607              	.L45:
 608              		.align	2
 609              	.L44:
 610 0024 00000000 		.word	cyBle_connectingTimeout
 611 0028 00000000 		.word	cyBle_state
 612              		.cfi_endproc
 613              	.LFE10:
 614              		.size	CyBle_GapcCancelDeviceConnection, .-CyBle_GapcCancelDeviceConnection
 615              		.section	.text.CyBle_GapSetLocalName,"ax",%progbits
 616              		.align	2
 617              		.global	CyBle_GapSetLocalName
 618              		.code	16
 619              		.thumb_func
 620              		.type	CyBle_GapSetLocalName, %function
 621              	CyBle_GapSetLocalName:
 622              	.LFB11:
 917:.\Generated_Source\PSoC4/BLE.c **** 
 918:.\Generated_Source\PSoC4/BLE.c ****     
 919:.\Generated_Source\PSoC4/BLE.c **** #endif /* CYBLE_GAP_ROLE_CENTRAL */
 920:.\Generated_Source\PSoC4/BLE.c **** 
 921:.\Generated_Source\PSoC4/BLE.c **** 
 922:.\Generated_Source\PSoC4/BLE.c **** #if(CYBLE_GATT_ROLE_SERVER)
 923:.\Generated_Source\PSoC4/BLE.c **** 
 924:.\Generated_Source\PSoC4/BLE.c **** #if(CYBLE_GAP_ROLE_PERIPHERAL)
 925:.\Generated_Source\PSoC4/BLE.c **** 
 926:.\Generated_Source\PSoC4/BLE.c ****         /******************************************************************************
 927:.\Generated_Source\PSoC4/BLE.c ****         ##Function Name: CyBle_ChangeAdLocalName
 928:.\Generated_Source\PSoC4/BLE.c ****         *******************************************************************************
 929:.\Generated_Source\PSoC4/BLE.c ****         Summary:
 930:.\Generated_Source\PSoC4/BLE.c ****          This API is used to set the local device name in the advertisement or scan 
 931:.\Generated_Source\PSoC4/BLE.c ****          response data structure.
 932:.\Generated_Source\PSoC4/BLE.c **** 
 933:.\Generated_Source\PSoC4/BLE.c ****         Parameters:
 934:.\Generated_Source\PSoC4/BLE.c ****          char8 name: The local device name string to be set in advertisement data 
 935:.\Generated_Source\PSoC4/BLE.c ****                    structure.
 936:.\Generated_Source\PSoC4/BLE.c ****          uint8 dest: 0 - advertisement structure, not zero value selects scan response
 937:.\Generated_Source\PSoC4/BLE.c ****                      structure.
 938:.\Generated_Source\PSoC4/BLE.c **** 
 939:.\Generated_Source\PSoC4/BLE.c ****         Return:
 940:.\Generated_Source\PSoC4/BLE.c ****          None
 941:.\Generated_Source\PSoC4/BLE.c ****      
 942:.\Generated_Source\PSoC4/BLE.c ****         ******************************************************************************/
 943:.\Generated_Source\PSoC4/BLE.c ****         static void CyBle_ChangeAdLocalName(const char8 name[], uint8 dest)
 944:.\Generated_Source\PSoC4/BLE.c ****         {
 945:.\Generated_Source\PSoC4/BLE.c ****             uint8 i;
 946:.\Generated_Source\PSoC4/BLE.c ****             uint8 flag = 0u;
 947:.\Generated_Source\PSoC4/BLE.c ****             uint8 adLength = 0u;
ARM GAS  C:\Users\Luci\AppData\Local\Temp\ccFJ7SSB.s 			page 29


 948:.\Generated_Source\PSoC4/BLE.c ****             uint8 byteCounter = 0u;
 949:.\Generated_Source\PSoC4/BLE.c ****             uint8 *destBuffer;
 950:.\Generated_Source\PSoC4/BLE.c ****             uint8 maxLength;
 951:.\Generated_Source\PSoC4/BLE.c ****             
 952:.\Generated_Source\PSoC4/BLE.c ****             if(dest == 0u)      /* Destination - advertising structure */
 953:.\Generated_Source\PSoC4/BLE.c ****             {
 954:.\Generated_Source\PSoC4/BLE.c ****                 destBuffer = cyBle_discoveryData.advData;
 955:.\Generated_Source\PSoC4/BLE.c ****                 maxLength = cyBle_discoveryData.advDataLen;
 956:.\Generated_Source\PSoC4/BLE.c ****             }
 957:.\Generated_Source\PSoC4/BLE.c ****             else                /* Destination - scan response structure */
 958:.\Generated_Source\PSoC4/BLE.c ****             {
 959:.\Generated_Source\PSoC4/BLE.c ****                 destBuffer = cyBle_scanRspData.scanRspData;
 960:.\Generated_Source\PSoC4/BLE.c ****                 maxLength = cyBle_scanRspData.scanRspDataLen;
 961:.\Generated_Source\PSoC4/BLE.c ****             }
 962:.\Generated_Source\PSoC4/BLE.c ****             
 963:.\Generated_Source\PSoC4/BLE.c ****             while((byteCounter < maxLength) && (0u == flag))
 964:.\Generated_Source\PSoC4/BLE.c ****             {
 965:.\Generated_Source\PSoC4/BLE.c ****                 adLength = destBuffer[byteCounter];
 966:.\Generated_Source\PSoC4/BLE.c ****                 
 967:.\Generated_Source\PSoC4/BLE.c ****                 if(0u != adLength)
 968:.\Generated_Source\PSoC4/BLE.c ****                 {
 969:.\Generated_Source\PSoC4/BLE.c ****                     /* Increment byte counter so it can point to AD type */
 970:.\Generated_Source\PSoC4/BLE.c ****                     byteCounter++;
 971:.\Generated_Source\PSoC4/BLE.c ****                     
 972:.\Generated_Source\PSoC4/BLE.c ****                     if((CYBLE_SHORT_LOCAL_NAME == destBuffer[byteCounter]) || 
 973:.\Generated_Source\PSoC4/BLE.c ****                        (CYBLE_COMPLETE_LOCAL_NAME == destBuffer[byteCounter]))
 974:.\Generated_Source\PSoC4/BLE.c ****                     {
 975:.\Generated_Source\PSoC4/BLE.c ****                         /* Start of the Local Name AD type was fount. Set flag and exit the loop. *
 976:.\Generated_Source\PSoC4/BLE.c ****                         flag = 1u;
 977:.\Generated_Source\PSoC4/BLE.c ****                     }
 978:.\Generated_Source\PSoC4/BLE.c ****                     else
 979:.\Generated_Source\PSoC4/BLE.c ****                     {
 980:.\Generated_Source\PSoC4/BLE.c ****                         byteCounter += adLength;
 981:.\Generated_Source\PSoC4/BLE.c ****                     }
 982:.\Generated_Source\PSoC4/BLE.c ****                 }
 983:.\Generated_Source\PSoC4/BLE.c ****                 else
 984:.\Generated_Source\PSoC4/BLE.c ****                 {
 985:.\Generated_Source\PSoC4/BLE.c ****                     /* The end of advertisement data structure was encountered though exit the loop
 986:.\Generated_Source\PSoC4/BLE.c ****                     break;
 987:.\Generated_Source\PSoC4/BLE.c ****                 }
 988:.\Generated_Source\PSoC4/BLE.c ****             }
 989:.\Generated_Source\PSoC4/BLE.c ****             
 990:.\Generated_Source\PSoC4/BLE.c ****             if(0u != flag)
 991:.\Generated_Source\PSoC4/BLE.c ****             {
 992:.\Generated_Source\PSoC4/BLE.c ****                 /* Reuse "adLength" to hold location of the last character of local name in 
 993:.\Generated_Source\PSoC4/BLE.c ****                    AD structure. */
 994:.\Generated_Source\PSoC4/BLE.c ****                 adLength += byteCounter;
 995:.\Generated_Source\PSoC4/BLE.c ****                 
 996:.\Generated_Source\PSoC4/BLE.c ****                 /* Increment byte counter to point to start of the local Name string */
 997:.\Generated_Source\PSoC4/BLE.c ****                 byteCounter++;
 998:.\Generated_Source\PSoC4/BLE.c ****                 
 999:.\Generated_Source\PSoC4/BLE.c ****                 for(i = byteCounter; ((i < (adLength)) && (CYBLE_NULL_CHARCTER != name[i - byteCoun
1000:.\Generated_Source\PSoC4/BLE.c ****                 {
1001:.\Generated_Source\PSoC4/BLE.c ****                     destBuffer[i] = (uint8)name[i - byteCounter];
1002:.\Generated_Source\PSoC4/BLE.c ****                 }
1003:.\Generated_Source\PSoC4/BLE.c ****                 
1004:.\Generated_Source\PSoC4/BLE.c ****                 /* This loop handles the case when new local name is shorted than old one.
ARM GAS  C:\Users\Luci\AppData\Local\Temp\ccFJ7SSB.s 			page 30


1005:.\Generated_Source\PSoC4/BLE.c ****                    In this case all remaining characters should be null characters. */
1006:.\Generated_Source\PSoC4/BLE.c ****                 while(adLength > i)
1007:.\Generated_Source\PSoC4/BLE.c ****                 {
1008:.\Generated_Source\PSoC4/BLE.c ****                     /* Terminate string */
1009:.\Generated_Source\PSoC4/BLE.c ****                     destBuffer[i] = (uint8)CYBLE_NULL_CHARCTER;
1010:.\Generated_Source\PSoC4/BLE.c ****                     i++;
1011:.\Generated_Source\PSoC4/BLE.c ****                 }
1012:.\Generated_Source\PSoC4/BLE.c ****             }
1013:.\Generated_Source\PSoC4/BLE.c ****         }
1014:.\Generated_Source\PSoC4/BLE.c ****         
1015:.\Generated_Source\PSoC4/BLE.c **** #endif /* (CYBLE_GAP_ROLE_PERIPHERAL) */  
1016:.\Generated_Source\PSoC4/BLE.c ****     
1017:.\Generated_Source\PSoC4/BLE.c ****     
1018:.\Generated_Source\PSoC4/BLE.c ****     /******************************************************************************
1019:.\Generated_Source\PSoC4/BLE.c ****     ##Function Name: CyBle_GapSetLocalName
1020:.\Generated_Source\PSoC4/BLE.c ****     *******************************************************************************
1021:.\Generated_Source\PSoC4/BLE.c ****     Summary:
1022:.\Generated_Source\PSoC4/BLE.c ****      This API is used to set the local device name - a Characteristic of the 
1023:.\Generated_Source\PSoC4/BLE.c ****      GAP Service. If the characteristic length entered in the component customizer
1024:.\Generated_Source\PSoC4/BLE.c ****      is shorter than the string specified by the "name" parameter, the local device
1025:.\Generated_Source\PSoC4/BLE.c ****      name will be cut to the length specified in the customizer.
1026:.\Generated_Source\PSoC4/BLE.c **** 
1027:.\Generated_Source\PSoC4/BLE.c ****     Parameters:
1028:.\Generated_Source\PSoC4/BLE.c ****      char8 name: The local device name string. The name string to be written as
1029:.\Generated_Source\PSoC4/BLE.c ****                  the local device name. It represents a UTF-8 encoded User
1030:.\Generated_Source\PSoC4/BLE.c ****                  Friendly Descriptive Name for the device. The length of the local
1031:.\Generated_Source\PSoC4/BLE.c ****                  device string is entered into the component customizer and it can
1032:.\Generated_Source\PSoC4/BLE.c ****                  be set to a value from 0 to 248 bytes. If the name contained in
1033:.\Generated_Source\PSoC4/BLE.c ****                  the parameter is shorter than the length from the customizer, the
1034:.\Generated_Source\PSoC4/BLE.c ****                  end of the name is indicated by a NULL octet (0x00).
1035:.\Generated_Source\PSoC4/BLE.c **** 
1036:.\Generated_Source\PSoC4/BLE.c ****     Return:
1037:.\Generated_Source\PSoC4/BLE.c ****      CYBLE_API_RESULT_T : Return value indicates if the function succeeded or 
1038:.\Generated_Source\PSoC4/BLE.c ****      failed. Following are the possible error codes.
1039:.\Generated_Source\PSoC4/BLE.c ****      <table>
1040:.\Generated_Source\PSoC4/BLE.c ****       Errors codes                        Description
1041:.\Generated_Source\PSoC4/BLE.c ****       ------------                        -----------
1042:.\Generated_Source\PSoC4/BLE.c ****       CYBLE_ERROR_OK                      Function completed successfully.
1043:.\Generated_Source\PSoC4/BLE.c ****       CYBLE_ERROR_INVALID_PARAMETER       On specifying NULL as input parameter
1044:.\Generated_Source\PSoC4/BLE.c ****      </table>
1045:.\Generated_Source\PSoC4/BLE.c ****  
1046:.\Generated_Source\PSoC4/BLE.c ****     ******************************************************************************/
1047:.\Generated_Source\PSoC4/BLE.c ****     CYBLE_API_RESULT_T CyBle_GapSetLocalName(const char8 name[])
1048:.\Generated_Source\PSoC4/BLE.c ****     {
 623              		.loc 1 1048 0
 624              		.cfi_startproc
 625              	.LVL46:
 626 0000 10B5     		push	{r4, lr}
 627              		.cfi_def_cfa_offset 8
 628              		.cfi_offset 4, -8
 629              		.cfi_offset 14, -4
 630              	.LVL47:
1049:.\Generated_Source\PSoC4/BLE.c ****         CYBLE_API_RESULT_T apiResult = CYBLE_ERROR_OK;
1050:.\Generated_Source\PSoC4/BLE.c ****         uint8 i;
1051:.\Generated_Source\PSoC4/BLE.c ****         char8 *ptr;
1052:.\Generated_Source\PSoC4/BLE.c ****         uint8 charLen;
1053:.\Generated_Source\PSoC4/BLE.c **** 
ARM GAS  C:\Users\Luci\AppData\Local\Temp\ccFJ7SSB.s 			page 31


1054:.\Generated_Source\PSoC4/BLE.c ****         if(NULL != name)
 631              		.loc 1 1054 0
 632 0002 0028     		cmp	r0, #0
 633 0004 15D0     		beq	.L51
1055:.\Generated_Source\PSoC4/BLE.c ****         {
1056:.\Generated_Source\PSoC4/BLE.c ****             /* Get the pointer to the Device Name characteristic  */
1057:.\Generated_Source\PSoC4/BLE.c ****             ptr = (char8 *) CYBLE_GATT_DB_ATTR_GET_ATTR_GEN_PTR(CYBLE_GAP_DEVICE_NAME_INDEX + 1u);
 634              		.loc 1 1057 0
 635 0006 0D4B     		ldr	r3, .L53
 636 0008 9A6B     		ldr	r2, [r3, #56]
 637 000a 5468     		ldr	r4, [r2, #4]
 638              	.LVL48:
1058:.\Generated_Source\PSoC4/BLE.c **** 
1059:.\Generated_Source\PSoC4/BLE.c ****             /* First need to get the maximum length of the characteristic data in the GATT
1060:.\Generated_Source\PSoC4/BLE.c ****                 database to make sure there is enough place for the data. The length
1061:.\Generated_Source\PSoC4/BLE.c ****                 can't be longer than 248, so only the LSB of 16 bit of length is to
1062:.\Generated_Source\PSoC4/BLE.c ****                 be used. */
1063:.\Generated_Source\PSoC4/BLE.c ****             charLen = (uint8)CYBLE_GATT_DB_ATTR_GET_ATTR_GEN_MAX_LEN(CYBLE_GAP_DEVICE_NAME_INDEX + 
 639              		.loc 1 1063 0
 640 000c 998E     		ldrh	r1, [r3, #52]
 641 000e C9B2     		uxtb	r1, r1
 642              	.LVL49:
1064:.\Generated_Source\PSoC4/BLE.c **** 
1065:.\Generated_Source\PSoC4/BLE.c ****             /* Copy name into characteristic */
1066:.\Generated_Source\PSoC4/BLE.c ****             for(i = 0u; ((i < charLen) && (CYBLE_NULL_CHARCTER != name[i])); i++)
 643              		.loc 1 1066 0
 644 0010 0023     		mov	r3, #0
 645 0012 02E0     		b	.L48
 646              	.LVL50:
 647              	.L50:
1067:.\Generated_Source\PSoC4/BLE.c ****             {
1068:.\Generated_Source\PSoC4/BLE.c ****                 ptr[i] = name[i];
 648              		.loc 1 1068 0 discriminator 4
 649 0014 E254     		strb	r2, [r4, r3]
1066:.\Generated_Source\PSoC4/BLE.c ****             {
 650              		.loc 1 1066 0 discriminator 4
 651 0016 0133     		add	r3, r3, #1
 652              	.LVL51:
 653 0018 DBB2     		uxtb	r3, r3
 654              	.LVL52:
 655              	.L48:
1066:.\Generated_Source\PSoC4/BLE.c ****             {
 656              		.loc 1 1066 0 is_stmt 0 discriminator 1
 657 001a 8B42     		cmp	r3, r1
 658 001c 02D2     		bcs	.L49
1066:.\Generated_Source\PSoC4/BLE.c ****             {
 659              		.loc 1 1066 0 discriminator 3
 660 001e C25C     		ldrb	r2, [r0, r3]
 661 0020 002A     		cmp	r2, #0
 662 0022 F7D1     		bne	.L50
 663              	.L49:
1069:.\Generated_Source\PSoC4/BLE.c ****             }
1070:.\Generated_Source\PSoC4/BLE.c **** 
1071:.\Generated_Source\PSoC4/BLE.c ****             if(i < charLen)
 664              		.loc 1 1071 0 is_stmt 1
 665 0024 8B42     		cmp	r3, r1
 666 0026 06D2     		bcs	.L52
ARM GAS  C:\Users\Luci\AppData\Local\Temp\ccFJ7SSB.s 			page 32


1072:.\Generated_Source\PSoC4/BLE.c ****             {
1073:.\Generated_Source\PSoC4/BLE.c ****                 /* Terminate string */
1074:.\Generated_Source\PSoC4/BLE.c ****                 ptr[i] = CYBLE_NULL_CHARCTER;
 667              		.loc 1 1074 0
 668 0028 E318     		add	r3, r4, r3
 669              	.LVL53:
 670 002a 0022     		mov	r2, #0
 671 002c 1A70     		strb	r2, [r3]
1049:.\Generated_Source\PSoC4/BLE.c ****         uint8 i;
 672              		.loc 1 1049 0
 673 002e 0020     		mov	r0, #0
 674              	.LVL54:
 675 0030 02E0     		b	.L47
 676              	.LVL55:
 677              	.L51:
1075:.\Generated_Source\PSoC4/BLE.c ****             }
1076:.\Generated_Source\PSoC4/BLE.c ****             
1077:.\Generated_Source\PSoC4/BLE.c ****             /* Set new actual length */
1078:.\Generated_Source\PSoC4/BLE.c ****             
1079:.\Generated_Source\PSoC4/BLE.c ****             /* Update device name in advertising and scan response structure */
1080:.\Generated_Source\PSoC4/BLE.c ****             #if(CYBLE_GAP_ROLE_PERIPHERAL)
1081:.\Generated_Source\PSoC4/BLE.c ****                 CyBle_ChangeAdLocalName(name, 0u);
1082:.\Generated_Source\PSoC4/BLE.c ****                 CyBle_ChangeAdLocalName(name, 1u);
1083:.\Generated_Source\PSoC4/BLE.c ****             #endif /* (CYBLE_GAP_ROLE_PERIPHERAL) */
1084:.\Generated_Source\PSoC4/BLE.c ****         }
1085:.\Generated_Source\PSoC4/BLE.c ****         else
1086:.\Generated_Source\PSoC4/BLE.c ****         {
1087:.\Generated_Source\PSoC4/BLE.c ****             apiResult = CYBLE_ERROR_INVALID_PARAMETER;
 678              		.loc 1 1087 0
 679 0032 0120     		mov	r0, #1
 680              	.LVL56:
 681 0034 00E0     		b	.L47
 682              	.LVL57:
 683              	.L52:
1049:.\Generated_Source\PSoC4/BLE.c ****         uint8 i;
 684              		.loc 1 1049 0
 685 0036 0020     		mov	r0, #0
 686              	.LVL58:
 687              	.L47:
1088:.\Generated_Source\PSoC4/BLE.c ****         }
1089:.\Generated_Source\PSoC4/BLE.c ****         
1090:.\Generated_Source\PSoC4/BLE.c ****         return(apiResult);
1091:.\Generated_Source\PSoC4/BLE.c ****     }
 688              		.loc 1 1091 0
 689              		@ sp needed
 690 0038 10BD     		pop	{r4, pc}
 691              	.L54:
 692 003a C046     		.align	2
 693              	.L53:
 694 003c 00000000 		.word	cyBle_gattDB
 695              		.cfi_endproc
 696              	.LFE11:
 697              		.size	CyBle_GapSetLocalName, .-CyBle_GapSetLocalName
 698              		.section	.text.CyBle_GapGetLocalName,"ax",%progbits
 699              		.align	2
 700              		.global	CyBle_GapGetLocalName
 701              		.code	16
ARM GAS  C:\Users\Luci\AppData\Local\Temp\ccFJ7SSB.s 			page 33


 702              		.thumb_func
 703              		.type	CyBle_GapGetLocalName, %function
 704              	CyBle_GapGetLocalName:
 705              	.LFB12:
1092:.\Generated_Source\PSoC4/BLE.c **** 
1093:.\Generated_Source\PSoC4/BLE.c **** 
1094:.\Generated_Source\PSoC4/BLE.c ****     /******************************************************************************
1095:.\Generated_Source\PSoC4/BLE.c ****     ##Function Name: CyBle_GapGetLocalName
1096:.\Generated_Source\PSoC4/BLE.c ****     *******************************************************************************
1097:.\Generated_Source\PSoC4/BLE.c ****  
1098:.\Generated_Source\PSoC4/BLE.c ****     Summary:
1099:.\Generated_Source\PSoC4/BLE.c ****      This API is used to read the local device name - a Characteristic of the 
1100:.\Generated_Source\PSoC4/BLE.c ****      GAP Service.
1101:.\Generated_Source\PSoC4/BLE.c **** 
1102:.\Generated_Source\PSoC4/BLE.c ****     Parameters:
1103:.\Generated_Source\PSoC4/BLE.c ****     char8 name: The local device name string. Used to read the local name to the
1104:.\Generated_Source\PSoC4/BLE.c ****                 given string array. It represents a UTF-8 encoded User Friendly 
1105:.\Generated_Source\PSoC4/BLE.c ****                 Descriptive Name for the device. The length of the local device
1106:.\Generated_Source\PSoC4/BLE.c ****                 string is entered into the component customizer and it can be set
1107:.\Generated_Source\PSoC4/BLE.c ****                 to a value from 0 to 248 bytes. If the name contained in the
1108:.\Generated_Source\PSoC4/BLE.c ****                 parameter is shorter than the length from the customizer, the end
1109:.\Generated_Source\PSoC4/BLE.c ****                 of the name is indicated by a NULL octet (0x00).
1110:.\Generated_Source\PSoC4/BLE.c **** 
1111:.\Generated_Source\PSoC4/BLE.c ****     Return:
1112:.\Generated_Source\PSoC4/BLE.c ****      CYBLE_API_RESULT_T : Return value indicates if the function succeeded or 
1113:.\Generated_Source\PSoC4/BLE.c ****      failed. Following are the possible error codes.
1114:.\Generated_Source\PSoC4/BLE.c ****      <table>
1115:.\Generated_Source\PSoC4/BLE.c ****       Errors codes                        Description
1116:.\Generated_Source\PSoC4/BLE.c ****       ------------                        -----------
1117:.\Generated_Source\PSoC4/BLE.c ****       CYBLE_ERROR_OK                      Function completed successfully.
1118:.\Generated_Source\PSoC4/BLE.c ****       CYBLE_ERROR_INVALID_PARAMETER       On specifying NULL as input parameter
1119:.\Generated_Source\PSoC4/BLE.c ****      </table>
1120:.\Generated_Source\PSoC4/BLE.c **** 
1121:.\Generated_Source\PSoC4/BLE.c ****     ******************************************************************************/
1122:.\Generated_Source\PSoC4/BLE.c ****     CYBLE_API_RESULT_T CyBle_GapGetLocalName(char8 name[])
1123:.\Generated_Source\PSoC4/BLE.c ****     {
 706              		.loc 1 1123 0
 707              		.cfi_startproc
 708              	.LVL59:
 709 0000 10B5     		push	{r4, lr}
 710              		.cfi_def_cfa_offset 8
 711              		.cfi_offset 4, -8
 712              		.cfi_offset 14, -4
 713              	.LVL60:
1124:.\Generated_Source\PSoC4/BLE.c ****         CYBLE_API_RESULT_T apiResult = CYBLE_ERROR_OK;
1125:.\Generated_Source\PSoC4/BLE.c ****         uint8 charLen;
1126:.\Generated_Source\PSoC4/BLE.c ****         uint8 i;
1127:.\Generated_Source\PSoC4/BLE.c ****         char8 *ptr;
1128:.\Generated_Source\PSoC4/BLE.c **** 
1129:.\Generated_Source\PSoC4/BLE.c ****         if(NULL != name)
 714              		.loc 1 1129 0
 715 0002 0028     		cmp	r0, #0
 716 0004 12D0     		beq	.L60
1130:.\Generated_Source\PSoC4/BLE.c ****         {
1131:.\Generated_Source\PSoC4/BLE.c ****             /* Get the pointer to the Device Name characteristic  */
1132:.\Generated_Source\PSoC4/BLE.c ****             ptr = (char8 *) CYBLE_GATT_DB_ATTR_GET_ATTR_GEN_PTR(CYBLE_GAP_DEVICE_NAME_INDEX + 1u);
 717              		.loc 1 1132 0
ARM GAS  C:\Users\Luci\AppData\Local\Temp\ccFJ7SSB.s 			page 34


 718 0006 0A4B     		ldr	r3, .L61
 719 0008 9B6B     		ldr	r3, [r3, #56]
 720 000a 5C68     		ldr	r4, [r3, #4]
 721              	.LVL61:
1133:.\Generated_Source\PSoC4/BLE.c **** 
1134:.\Generated_Source\PSoC4/BLE.c ****             /* First need to get the length of the characteristic data in the GATT
1135:.\Generated_Source\PSoC4/BLE.c ****                 database to make sure there is enough place for the data. The length
1136:.\Generated_Source\PSoC4/BLE.c ****                 can't be longer than 248, so only the LSB of 16 bit of length is to
1137:.\Generated_Source\PSoC4/BLE.c ****                 be used. */
1138:.\Generated_Source\PSoC4/BLE.c ****             charLen = (uint8)CYBLE_GATT_DB_ATTR_GET_ATTR_GEN_LEN(CYBLE_GAP_DEVICE_NAME_INDEX + 1u);
 722              		.loc 1 1138 0
 723 000c 1978     		ldrb	r1, [r3]
 724              	.LVL62:
1139:.\Generated_Source\PSoC4/BLE.c **** 
1140:.\Generated_Source\PSoC4/BLE.c ****             /* Copy name from characteristic */
1141:.\Generated_Source\PSoC4/BLE.c ****             for(i = 0u; ((i < charLen) && (CYBLE_NULL_CHARCTER != ptr[i])); i++)
 725              		.loc 1 1141 0
 726 000e 0023     		mov	r3, #0
 727 0010 02E0     		b	.L57
 728              	.LVL63:
 729              	.L59:
1142:.\Generated_Source\PSoC4/BLE.c ****             {
1143:.\Generated_Source\PSoC4/BLE.c ****                 name[i] = ptr[i];
 730              		.loc 1 1143 0 discriminator 4
 731 0012 C254     		strb	r2, [r0, r3]
1141:.\Generated_Source\PSoC4/BLE.c ****             {
 732              		.loc 1 1141 0 discriminator 4
 733 0014 0133     		add	r3, r3, #1
 734              	.LVL64:
 735 0016 DBB2     		uxtb	r3, r3
 736              	.LVL65:
 737              	.L57:
1141:.\Generated_Source\PSoC4/BLE.c ****             {
 738              		.loc 1 1141 0 is_stmt 0 discriminator 1
 739 0018 8B42     		cmp	r3, r1
 740 001a 02D2     		bcs	.L58
1141:.\Generated_Source\PSoC4/BLE.c ****             {
 741              		.loc 1 1141 0 discriminator 3
 742 001c E25C     		ldrb	r2, [r4, r3]
 743 001e 002A     		cmp	r2, #0
 744 0020 F7D1     		bne	.L59
 745              	.L58:
1144:.\Generated_Source\PSoC4/BLE.c ****             }
1145:.\Generated_Source\PSoC4/BLE.c **** 
1146:.\Generated_Source\PSoC4/BLE.c ****             /* Terminate string */
1147:.\Generated_Source\PSoC4/BLE.c ****             name[i] = CYBLE_NULL_CHARCTER;
 746              		.loc 1 1147 0 is_stmt 1
 747 0022 C318     		add	r3, r0, r3
 748              	.LVL66:
 749 0024 0022     		mov	r2, #0
 750 0026 1A70     		strb	r2, [r3]
1124:.\Generated_Source\PSoC4/BLE.c ****         uint8 charLen;
 751              		.loc 1 1124 0
 752 0028 0020     		mov	r0, #0
 753              	.LVL67:
 754 002a 00E0     		b	.L56
 755              	.LVL68:
ARM GAS  C:\Users\Luci\AppData\Local\Temp\ccFJ7SSB.s 			page 35


 756              	.L60:
1148:.\Generated_Source\PSoC4/BLE.c ****         }
1149:.\Generated_Source\PSoC4/BLE.c ****         else
1150:.\Generated_Source\PSoC4/BLE.c ****         {
1151:.\Generated_Source\PSoC4/BLE.c ****             apiResult = CYBLE_ERROR_INVALID_PARAMETER;
 757              		.loc 1 1151 0
 758 002c 0120     		mov	r0, #1
 759              	.LVL69:
 760              	.L56:
1152:.\Generated_Source\PSoC4/BLE.c ****         }
1153:.\Generated_Source\PSoC4/BLE.c ****         
1154:.\Generated_Source\PSoC4/BLE.c ****         return(apiResult);
1155:.\Generated_Source\PSoC4/BLE.c ****     }
 761              		.loc 1 1155 0
 762              		@ sp needed
 763 002e 10BD     		pop	{r4, pc}
 764              	.L62:
 765              		.align	2
 766              	.L61:
 767 0030 00000000 		.word	cyBle_gattDB
 768              		.cfi_endproc
 769              	.LFE12:
 770              		.size	CyBle_GapGetLocalName, .-CyBle_GapGetLocalName
 771              		.section	.text.CyBle_Get16ByPtr,"ax",%progbits
 772              		.align	2
 773              		.global	CyBle_Get16ByPtr
 774              		.code	16
 775              		.thumb_func
 776              		.type	CyBle_Get16ByPtr, %function
 777              	CyBle_Get16ByPtr:
 778              	.LFB13:
1156:.\Generated_Source\PSoC4/BLE.c **** 
1157:.\Generated_Source\PSoC4/BLE.c **** #endif /* (CYBLE_GATT_ROLE_SERVER) */
1158:.\Generated_Source\PSoC4/BLE.c **** 
1159:.\Generated_Source\PSoC4/BLE.c **** 
1160:.\Generated_Source\PSoC4/BLE.c **** /******************************************************************************
1161:.\Generated_Source\PSoC4/BLE.c **** ##Function Name: CyBle_Get16ByPtr
1162:.\Generated_Source\PSoC4/BLE.c **** *******************************************************************************
1163:.\Generated_Source\PSoC4/BLE.c **** 
1164:.\Generated_Source\PSoC4/BLE.c **** Summary:
1165:.\Generated_Source\PSoC4/BLE.c ****  Returns the two-bytes value by using a pointer to the LSB.
1166:.\Generated_Source\PSoC4/BLE.c **** 
1167:.\Generated_Source\PSoC4/BLE.c **** Parameters:
1168:.\Generated_Source\PSoC4/BLE.c ****  uint8 * ptr: Pointer to the LSB of two-bytes data (little endian).
1169:.\Generated_Source\PSoC4/BLE.c **** 
1170:.\Generated_Source\PSoC4/BLE.c **** Return:
1171:.\Generated_Source\PSoC4/BLE.c ****  uint16 value: Two-bytes data.
1172:.\Generated_Source\PSoC4/BLE.c **** 
1173:.\Generated_Source\PSoC4/BLE.c **** ******************************************************************************/
1174:.\Generated_Source\PSoC4/BLE.c **** uint16 CyBle_Get16ByPtr(const uint8 ptr[])
1175:.\Generated_Source\PSoC4/BLE.c **** {
 779              		.loc 1 1175 0
 780              		.cfi_startproc
 781              	.LVL70:
1176:.\Generated_Source\PSoC4/BLE.c ****     return ((uint16) ptr[0u] | ((uint16) (((uint16) ptr[1u]) << 8u)));
 782              		.loc 1 1176 0
 783 0000 0378     		ldrb	r3, [r0]
ARM GAS  C:\Users\Luci\AppData\Local\Temp\ccFJ7SSB.s 			page 36


 784 0002 4078     		ldrb	r0, [r0, #1]
 785              	.LVL71:
 786 0004 0002     		lsl	r0, r0, #8
 787 0006 1843     		orr	r0, r3
1177:.\Generated_Source\PSoC4/BLE.c **** }
 788              		.loc 1 1177 0
 789              		@ sp needed
 790 0008 7047     		bx	lr
 791              		.cfi_endproc
 792              	.LFE13:
 793              		.size	CyBle_Get16ByPtr, .-CyBle_Get16ByPtr
 794 000a C046     		.section	.text.CyBle_Set16ByPtr,"ax",%progbits
 795              		.align	2
 796              		.global	CyBle_Set16ByPtr
 797              		.code	16
 798              		.thumb_func
 799              		.type	CyBle_Set16ByPtr, %function
 800              	CyBle_Set16ByPtr:
 801              	.LFB14:
1178:.\Generated_Source\PSoC4/BLE.c **** 
1179:.\Generated_Source\PSoC4/BLE.c **** 
1180:.\Generated_Source\PSoC4/BLE.c **** /******************************************************************************
1181:.\Generated_Source\PSoC4/BLE.c **** ##Function Name: CyBle_Set16ByPtr
1182:.\Generated_Source\PSoC4/BLE.c **** *******************************************************************************
1183:.\Generated_Source\PSoC4/BLE.c **** 
1184:.\Generated_Source\PSoC4/BLE.c **** Summary:
1185:.\Generated_Source\PSoC4/BLE.c ****  Sets the two-bytes value by using a pointer to the LSB.
1186:.\Generated_Source\PSoC4/BLE.c **** 
1187:.\Generated_Source\PSoC4/BLE.c **** Parameters:
1188:.\Generated_Source\PSoC4/BLE.c ****  uint8 * ptr:   Pointer to the LSB of two-bytes data (little endian).
1189:.\Generated_Source\PSoC4/BLE.c ****  uint16 value:  Two-bytes data to be written.
1190:.\Generated_Source\PSoC4/BLE.c **** 
1191:.\Generated_Source\PSoC4/BLE.c **** Return:
1192:.\Generated_Source\PSoC4/BLE.c ****  None
1193:.\Generated_Source\PSoC4/BLE.c **** 
1194:.\Generated_Source\PSoC4/BLE.c **** ******************************************************************************/
1195:.\Generated_Source\PSoC4/BLE.c **** void CyBle_Set16ByPtr(uint8 ptr[], uint16 value)
1196:.\Generated_Source\PSoC4/BLE.c **** {
 802              		.loc 1 1196 0
 803              		.cfi_startproc
 804              	.LVL72:
1197:.\Generated_Source\PSoC4/BLE.c ****     ptr[0u] = (uint8) value;
 805              		.loc 1 1197 0
 806 0000 0170     		strb	r1, [r0]
1198:.\Generated_Source\PSoC4/BLE.c ****     ptr[1u] = (uint8) (value >> 8u);
 807              		.loc 1 1198 0
 808 0002 090A     		lsr	r1, r1, #8
 809              	.LVL73:
 810 0004 4170     		strb	r1, [r0, #1]
1199:.\Generated_Source\PSoC4/BLE.c **** }
 811              		.loc 1 1199 0
 812              		@ sp needed
 813 0006 7047     		bx	lr
 814              		.cfi_endproc
 815              	.LFE14:
 816              		.size	CyBle_Set16ByPtr, .-CyBle_Set16ByPtr
 817              		.global	cyBle_sflashDeviceAddress
ARM GAS  C:\Users\Luci\AppData\Local\Temp\ccFJ7SSB.s 			page 37


 818              		.global	cyBle_deviceAddress
 819              		.comm	CyBle_ApplCallback,4,4
 820              		.comm	cyBle_pendingFlashWrite,1,1
 821              		.global	cyBle_discoveryInfo
 822              		.comm	cyBle_connectingTimeout,2,2
 823              		.comm	cyBle_connectionParameters,26,4
 824              		.comm	cyBle_stackMemoryRam,2652,8
 825              		.global	cyBle_initVar
 826              		.section	.rodata
 827              		.align	2
 828              		.set	.LANCHOR2,. + 0
 829              	.LC0:
 830 0000 1B00     		.short	27
 831 0002 02       		.byte	2
 832 0003 00       		.space	1
 833 0004 0800     		.short	8
 834 0006 01       		.byte	1
 835 0007 00       		.space	1
 836 0008 2800     		.short	40
 837 000a 01       		.byte	1
 838 000b 00       		.space	1
 839 000c 4000     		.short	64
 840 000e 01       		.byte	1
 841 000f 00       		.space	1
 842 0010 1700     		.short	23
 843 0012 01       		.byte	1
 844 0013 00       		.space	1
 845 0014 1700     		.short	23
 846 0016 01       		.byte	1
 847 0017 00       		.space	1
 848              		.data
 849              		.align	2
 850              		.set	.LANCHOR0,. + 0
 851              		.type	cyBle_discoveryInfo, %object
 852              		.size	cyBle_discoveryInfo, 12
 853              	cyBle_discoveryInfo:
 854 0000 02       		.byte	2
 855 0001 01       		.byte	1
 856 0002 3000     		.short	48
 857 0004 3000     		.short	48
 858 0006 00       		.byte	0
 859 0007 00       		.byte	0
 860 0008 1E00     		.short	30
 861 000a 00       		.byte	0
 862 000b 00       		.space	1
 863              		.type	cyBle_sflashDeviceAddress, %object
 864              		.size	cyBle_sflashDeviceAddress, 4
 865              	cyBle_sflashDeviceAddress:
 866 000c 00F4FF0F 		.word	268432384
 867              		.type	cyBle_deviceAddress, %object
 868              		.size	cyBle_deviceAddress, 7
 869              	cyBle_deviceAddress:
 870 0010 00       		.byte	0
 871 0011 00       		.byte	0
 872 0012 00       		.byte	0
 873 0013 50       		.byte	80
 874 0014 A0       		.byte	-96
ARM GAS  C:\Users\Luci\AppData\Local\Temp\ccFJ7SSB.s 			page 38


 875 0015 00       		.byte	0
 876 0016 00       		.byte	0
 877 0017 00       		.bss
 878              		.set	.LANCHOR1,. + 0
 879              		.type	cyBle_initVar, %object
 880              		.size	cyBle_initVar, 1
 881              	cyBle_initVar:
 882 0000 00       		.space	1
 883              		.text
 884              	.Letext0:
 885              		.file 2 ".\\Generated_Source\\PSoC4\\cytypes.h"
 886              		.file 3 ".\\Generated_Source\\PSoC4\\BLE_Stack.h"
 887              		.file 4 ".\\Generated_Source\\PSoC4\\BLE_StackGap.h"
 888              		.file 5 ".\\Generated_Source\\PSoC4\\BLE_StackGatt.h"
 889              		.file 6 ".\\Generated_Source\\PSoC4\\BLE_StackGattDb.h"
 890              		.file 7 ".\\Generated_Source\\PSoC4\\BLE.h"
 891              		.file 8 ".\\Generated_Source\\PSoC4\\BLE_ans.h"
 892              		.file 9 ".\\Generated_Source\\PSoC4\\BLE_eventHandler.h"
 893              		.file 10 ".\\Generated_Source\\PSoC4\\BLE_gatt.h"
 894              		.file 11 ".\\Generated_Source\\PSoC4\\BLE_StackHostMain.h"