ARM GAS  C:\Users\Luci\AppData\Local\Temp\ccpNpK36.s 			page 1


   1              		.cpu cortex-m0
   2              		.fpu softvfp
   3              		.eabi_attribute 20, 1
   4              		.eabi_attribute 21, 1
   5              		.eabi_attribute 23, 3
   6              		.eabi_attribute 24, 1
   7              		.eabi_attribute 25, 1
   8              		.eabi_attribute 26, 1
   9              		.eabi_attribute 30, 1
  10              		.eabi_attribute 34, 0
  11              		.eabi_attribute 18, 4
  12              		.code	16
  13              		.file	"BLE_HAL_PVT.c"
  14              		.text
  15              	.Ltext0:
  16              		.cfi_sections	.debug_frame
  17              		.section	.text.CyBLE_Nvram_Write,"ax",%progbits
  18              		.align	2
  19              		.global	CyBLE_Nvram_Write
  20              		.code	16
  21              		.thumb_func
  22              		.type	CyBLE_Nvram_Write, %function
  23              	CyBLE_Nvram_Write:
  24              	.LFB2:
  25              		.file 1 ".\\Generated_Source\\PSoC4\\BLE_HAL_PVT.c"
   1:.\Generated_Source\PSoC4/BLE_HAL_PVT.c **** /*******************************************************************************
   2:.\Generated_Source\PSoC4/BLE_HAL_PVT.c **** * File Name: CYBLE_HAL_PVT.c
   3:.\Generated_Source\PSoC4/BLE_HAL_PVT.c **** * Version 2.0
   4:.\Generated_Source\PSoC4/BLE_HAL_PVT.c **** *
   5:.\Generated_Source\PSoC4/BLE_HAL_PVT.c **** * Description:
   6:.\Generated_Source\PSoC4/BLE_HAL_PVT.c **** *  This file contains the source code for the HAL section of the BLE component
   7:.\Generated_Source\PSoC4/BLE_HAL_PVT.c **** *
   8:.\Generated_Source\PSoC4/BLE_HAL_PVT.c **** ********************************************************************************
   9:.\Generated_Source\PSoC4/BLE_HAL_PVT.c **** * Copyright 2014-2015, Cypress Semiconductor Corporation.  All rights reserved.
  10:.\Generated_Source\PSoC4/BLE_HAL_PVT.c **** * You may use this file only in accordance with the license, terms, conditions,
  11:.\Generated_Source\PSoC4/BLE_HAL_PVT.c **** * disclaimers, and limitations in the end user license agreement accompanying
  12:.\Generated_Source\PSoC4/BLE_HAL_PVT.c **** * the software package with which this file was provided.
  13:.\Generated_Source\PSoC4/BLE_HAL_PVT.c **** *******************************************************************************/
  14:.\Generated_Source\PSoC4/BLE_HAL_PVT.c **** 
  15:.\Generated_Source\PSoC4/BLE_HAL_PVT.c **** #include "BLE_HAL_PVT.h"
  16:.\Generated_Source\PSoC4/BLE_HAL_PVT.c **** 
  17:.\Generated_Source\PSoC4/BLE_HAL_PVT.c **** 
  18:.\Generated_Source\PSoC4/BLE_HAL_PVT.c **** #if(CYBLE_MODE == CYBLE_HCI)
  19:.\Generated_Source\PSoC4/BLE_HAL_PVT.c **** 
  20:.\Generated_Source\PSoC4/BLE_HAL_PVT.c **** 
  21:.\Generated_Source\PSoC4/BLE_HAL_PVT.c **** /*******************************************************************************
  22:.\Generated_Source\PSoC4/BLE_HAL_PVT.c **** * Function Name: CyBLE_Uart_Start
  23:.\Generated_Source\PSoC4/BLE_HAL_PVT.c **** ********************************************************************************
  24:.\Generated_Source\PSoC4/BLE_HAL_PVT.c **** *
  25:.\Generated_Source\PSoC4/BLE_HAL_PVT.c **** * Summary:
  26:.\Generated_Source\PSoC4/BLE_HAL_PVT.c **** *  Enables the platform UART Tx and RX interrupts and then enables the UART
  27:.\Generated_Source\PSoC4/BLE_HAL_PVT.c **** *  component.
  28:.\Generated_Source\PSoC4/BLE_HAL_PVT.c **** *
  29:.\Generated_Source\PSoC4/BLE_HAL_PVT.c **** * Parameters:
  30:.\Generated_Source\PSoC4/BLE_HAL_PVT.c **** *  None
  31:.\Generated_Source\PSoC4/BLE_HAL_PVT.c **** *
  32:.\Generated_Source\PSoC4/BLE_HAL_PVT.c **** * Return:
ARM GAS  C:\Users\Luci\AppData\Local\Temp\ccpNpK36.s 			page 2


  33:.\Generated_Source\PSoC4/BLE_HAL_PVT.c **** *  None
  34:.\Generated_Source\PSoC4/BLE_HAL_PVT.c **** *
  35:.\Generated_Source\PSoC4/BLE_HAL_PVT.c **** *******************************************************************************/
  36:.\Generated_Source\PSoC4/BLE_HAL_PVT.c **** void CyBLE_Uart_Start (void)
  37:.\Generated_Source\PSoC4/BLE_HAL_PVT.c **** {
  38:.\Generated_Source\PSoC4/BLE_HAL_PVT.c ****     /* Setup ISR */
  39:.\Generated_Source\PSoC4/BLE_HAL_PVT.c ****     BLE_uart_isr_StartEx(&CyBLE_Uart_Interrupt);
  40:.\Generated_Source\PSoC4/BLE_HAL_PVT.c **** 
  41:.\Generated_Source\PSoC4/BLE_HAL_PVT.c ****     BLE_HAL_Uart_Start();
  42:.\Generated_Source\PSoC4/BLE_HAL_PVT.c **** }
  43:.\Generated_Source\PSoC4/BLE_HAL_PVT.c **** 
  44:.\Generated_Source\PSoC4/BLE_HAL_PVT.c **** 
  45:.\Generated_Source\PSoC4/BLE_HAL_PVT.c **** /*******************************************************************************
  46:.\Generated_Source\PSoC4/BLE_HAL_PVT.c **** * Function Name: CyBLE_Uart_Stop
  47:.\Generated_Source\PSoC4/BLE_HAL_PVT.c **** ********************************************************************************
  48:.\Generated_Source\PSoC4/BLE_HAL_PVT.c **** *
  49:.\Generated_Source\PSoC4/BLE_HAL_PVT.c **** * Summary:
  50:.\Generated_Source\PSoC4/BLE_HAL_PVT.c **** *  Disables the UART, clears all pending interrupts and disables the UART Tx
  51:.\Generated_Source\PSoC4/BLE_HAL_PVT.c **** *  and RX interrupts. This will also empty out the FIFOs.
  52:.\Generated_Source\PSoC4/BLE_HAL_PVT.c **** *
  53:.\Generated_Source\PSoC4/BLE_HAL_PVT.c **** * Parameters:
  54:.\Generated_Source\PSoC4/BLE_HAL_PVT.c **** *  None
  55:.\Generated_Source\PSoC4/BLE_HAL_PVT.c **** *
  56:.\Generated_Source\PSoC4/BLE_HAL_PVT.c **** * Return:
  57:.\Generated_Source\PSoC4/BLE_HAL_PVT.c **** *  None
  58:.\Generated_Source\PSoC4/BLE_HAL_PVT.c **** *
  59:.\Generated_Source\PSoC4/BLE_HAL_PVT.c **** *******************************************************************************/
  60:.\Generated_Source\PSoC4/BLE_HAL_PVT.c **** void CyBLE_Uart_Stop (void)
  61:.\Generated_Source\PSoC4/BLE_HAL_PVT.c **** {
  62:.\Generated_Source\PSoC4/BLE_HAL_PVT.c ****     /* Stop interrupt and UART */
  63:.\Generated_Source\PSoC4/BLE_HAL_PVT.c ****     BLE_uart_isr_Stop();
  64:.\Generated_Source\PSoC4/BLE_HAL_PVT.c **** 
  65:.\Generated_Source\PSoC4/BLE_HAL_PVT.c ****     BLE_HAL_Uart_Stop();
  66:.\Generated_Source\PSoC4/BLE_HAL_PVT.c **** }
  67:.\Generated_Source\PSoC4/BLE_HAL_PVT.c **** 
  68:.\Generated_Source\PSoC4/BLE_HAL_PVT.c **** 
  69:.\Generated_Source\PSoC4/BLE_HAL_PVT.c **** /*******************************************************************************
  70:.\Generated_Source\PSoC4/BLE_HAL_PVT.c **** * Function Name: CyBLE_Uart_Transmit
  71:.\Generated_Source\PSoC4/BLE_HAL_PVT.c **** ********************************************************************************
  72:.\Generated_Source\PSoC4/BLE_HAL_PVT.c **** *
  73:.\Generated_Source\PSoC4/BLE_HAL_PVT.c **** * Summary:
  74:.\Generated_Source\PSoC4/BLE_HAL_PVT.c **** *  Sends the data to Uart Tx FIFO. The API handles data length up to the 
  75:.\Generated_Source\PSoC4/BLE_HAL_PVT.c **** *  supported Tx FIFO length of the uart hardware module.
  76:.\Generated_Source\PSoC4/BLE_HAL_PVT.c **** *
  77:.\Generated_Source\PSoC4/BLE_HAL_PVT.c **** * Parameters:
  78:.\Generated_Source\PSoC4/BLE_HAL_PVT.c **** *  uint8 *data: Pointer to the data to send through the UART
  79:.\Generated_Source\PSoC4/BLE_HAL_PVT.c **** *  uint8 length: the length of data to transmit in bytes
  80:.\Generated_Source\PSoC4/BLE_HAL_PVT.c **** *
  81:.\Generated_Source\PSoC4/BLE_HAL_PVT.c **** * Return:
  82:.\Generated_Source\PSoC4/BLE_HAL_PVT.c **** *  None
  83:.\Generated_Source\PSoC4/BLE_HAL_PVT.c **** *
  84:.\Generated_Source\PSoC4/BLE_HAL_PVT.c **** *******************************************************************************/
  85:.\Generated_Source\PSoC4/BLE_HAL_PVT.c **** void CyBLE_Uart_Transmit (const uint8 *dataBuf, uint8 length)
  86:.\Generated_Source\PSoC4/BLE_HAL_PVT.c **** {
  87:.\Generated_Source\PSoC4/BLE_HAL_PVT.c ****     BLE_HAL_Uart_SpiUartPutArray(dataBuf, (uint32)length);
  88:.\Generated_Source\PSoC4/BLE_HAL_PVT.c **** }
  89:.\Generated_Source\PSoC4/BLE_HAL_PVT.c **** 
ARM GAS  C:\Users\Luci\AppData\Local\Temp\ccpNpK36.s 			page 3


  90:.\Generated_Source\PSoC4/BLE_HAL_PVT.c **** #endif /* (CYBLE_MODE == CYBLE_HCI) */
  91:.\Generated_Source\PSoC4/BLE_HAL_PVT.c **** 
  92:.\Generated_Source\PSoC4/BLE_HAL_PVT.c **** 
  93:.\Generated_Source\PSoC4/BLE_HAL_PVT.c **** /*******************************************************************************
  94:.\Generated_Source\PSoC4/BLE_HAL_PVT.c **** * Function Name: CyBLE_Nvram_Write
  95:.\Generated_Source\PSoC4/BLE_HAL_PVT.c **** ********************************************************************************
  96:.\Generated_Source\PSoC4/BLE_HAL_PVT.c **** *
  97:.\Generated_Source\PSoC4/BLE_HAL_PVT.c **** * Summary:
  98:.\Generated_Source\PSoC4/BLE_HAL_PVT.c **** *  This API writes the data to the NVRAM store. It will check the appropriate
  99:.\Generated_Source\PSoC4/BLE_HAL_PVT.c **** *  alignment of a start address and also perform an address range check based
 100:.\Generated_Source\PSoC4/BLE_HAL_PVT.c **** *  on the length before performing the write operation.
 101:.\Generated_Source\PSoC4/BLE_HAL_PVT.c **** *  This function performs memory compare and writes only row where there are new
 102:.\Generated_Source\PSoC4/BLE_HAL_PVT.c **** *  data to write.
 103:.\Generated_Source\PSoC4/BLE_HAL_PVT.c **** *
 104:.\Generated_Source\PSoC4/BLE_HAL_PVT.c **** * Parameters:
 105:.\Generated_Source\PSoC4/BLE_HAL_PVT.c **** *  const uint8 *buffer: Pointer to the buffer containing the data to be stored.
 106:.\Generated_Source\PSoC4/BLE_HAL_PVT.c **** *  const uint8 *varFlash: Pointer to the array or variable in the flash.
 107:.\Generated_Source\PSoC4/BLE_HAL_PVT.c **** *  uint16 length: the length of the data in bytes.
 108:.\Generated_Source\PSoC4/BLE_HAL_PVT.c **** *
 109:.\Generated_Source\PSoC4/BLE_HAL_PVT.c **** * Return:
 110:.\Generated_Source\PSoC4/BLE_HAL_PVT.c **** *  CYRET_SUCCESS    a successful write
 111:.\Generated_Source\PSoC4/BLE_HAL_PVT.c **** *  CYRET_BAD_PARAM  A request to write outside the flash boundary.
 112:.\Generated_Source\PSoC4/BLE_HAL_PVT.c **** *  CYRET_UNKNOWN    Other errors in writing the flash
 113:.\Generated_Source\PSoC4/BLE_HAL_PVT.c **** *
 114:.\Generated_Source\PSoC4/BLE_HAL_PVT.c **** * Side Effects:
 115:.\Generated_Source\PSoC4/BLE_HAL_PVT.c **** *  For BLE devices with 128K of Flash memory this API will automatically 
 116:.\Generated_Source\PSoC4/BLE_HAL_PVT.c **** *  modify the clock settings for the device.
 117:.\Generated_Source\PSoC4/BLE_HAL_PVT.c **** *  Writing to flash requires changes to be done to the IMO (set to 48 MHz)
 118:.\Generated_Source\PSoC4/BLE_HAL_PVT.c **** *  and HFCLK (source set to IMO) settings. The configuration is restored before
 119:.\Generated_Source\PSoC4/BLE_HAL_PVT.c **** *  returning. This will impact the operation of most of the hardware in the
 120:.\Generated_Source\PSoC4/BLE_HAL_PVT.c **** *  device.
 121:.\Generated_Source\PSoC4/BLE_HAL_PVT.c **** *
 122:.\Generated_Source\PSoC4/BLE_HAL_PVT.c **** *******************************************************************************/
 123:.\Generated_Source\PSoC4/BLE_HAL_PVT.c **** cystatus CyBLE_Nvram_Write (const uint8 buffer[], const uint8 varFlash[], uint16 length)
 124:.\Generated_Source\PSoC4/BLE_HAL_PVT.c **** {
  26              		.loc 1 124 0
  27              		.cfi_startproc
  28              	.LVL0:
  29 0000 F0B5     		push	{r4, r5, r6, r7, lr}
  30              		.cfi_def_cfa_offset 20
  31              		.cfi_offset 4, -20
  32              		.cfi_offset 5, -16
  33              		.cfi_offset 6, -12
  34              		.cfi_offset 7, -8
  35              		.cfi_offset 14, -4
  36 0002 5746     		mov	r7, r10
  37 0004 4E46     		mov	r6, r9
  38 0006 4546     		mov	r5, r8
  39 0008 E0B4     		push	{r5, r6, r7}
  40              		.cfi_def_cfa_offset 32
  41              		.cfi_offset 8, -32
  42              		.cfi_offset 9, -28
  43              		.cfi_offset 10, -24
  44 000a C0B0     		sub	sp, sp, #256
  45              		.cfi_def_cfa_offset 288
  46              	.LVL1:
 125:.\Generated_Source\PSoC4/BLE_HAL_PVT.c ****     uint8 writeBuffer[CY_FLASH_SIZEOF_ROW];
ARM GAS  C:\Users\Luci\AppData\Local\Temp\ccpNpK36.s 			page 4


 126:.\Generated_Source\PSoC4/BLE_HAL_PVT.c ****     uint32 rowId;
 127:.\Generated_Source\PSoC4/BLE_HAL_PVT.c ****     uint32 dstIndex;
 128:.\Generated_Source\PSoC4/BLE_HAL_PVT.c ****     uint32 srcIndex = 0u;
 129:.\Generated_Source\PSoC4/BLE_HAL_PVT.c ****     cystatus rc = CYRET_SUCCESS;
 130:.\Generated_Source\PSoC4/BLE_HAL_PVT.c ****     uint32 eeOffset;
 131:.\Generated_Source\PSoC4/BLE_HAL_PVT.c ****     uint32 byteOffset;
 132:.\Generated_Source\PSoC4/BLE_HAL_PVT.c ****     uint32 rowsNotEqual;
 133:.\Generated_Source\PSoC4/BLE_HAL_PVT.c **** 
 134:.\Generated_Source\PSoC4/BLE_HAL_PVT.c ****     eeOffset = (uint32)varFlash;
  47              		.loc 1 134 0
  48 000c 0E1C     		mov	r6, r1
  49              	.LVL2:
 135:.\Generated_Source\PSoC4/BLE_HAL_PVT.c **** 
 136:.\Generated_Source\PSoC4/BLE_HAL_PVT.c ****     /* Make sure, that varFlash[] points to Flash */
 137:.\Generated_Source\PSoC4/BLE_HAL_PVT.c ****     if ((eeOffset + length) < CYBLE_HAL_FLASH_END_ADDR)
  50              		.loc 1 137 0
  51 000e 171C     		mov	r7, r2
  52 0010 8A18     		add	r2, r1, r2
  53              	.LVL3:
  54 0012 214B     		ldr	r3, .L14
  55 0014 9A42     		cmp	r2, r3
  56 0016 30D8     		bhi	.L11
  57 0018 8046     		mov	r8, r0
 138:.\Generated_Source\PSoC4/BLE_HAL_PVT.c ****     {
 139:.\Generated_Source\PSoC4/BLE_HAL_PVT.c ****         rowId = eeOffset / CY_FLASH_SIZEOF_ROW;
  58              		.loc 1 139 0
  59 001a 0B0A     		lsr	r3, r1, #8
  60 001c 9946     		mov	r9, r3
  61              	.LVL4:
 140:.\Generated_Source\PSoC4/BLE_HAL_PVT.c ****         byteOffset = CY_FLASH_SIZEOF_ROW * rowId;
  62              		.loc 1 140 0
  63 001e 1C02     		lsl	r4, r3, #8
  64              	.LVL5:
 129:.\Generated_Source\PSoC4/BLE_HAL_PVT.c ****     uint32 eeOffset;
  65              		.loc 1 129 0
  66 0020 0023     		mov	r3, #0
  67              	.LVL6:
  68 0022 9C46     		mov	ip, r3
 128:.\Generated_Source\PSoC4/BLE_HAL_PVT.c ****     cystatus rc = CYRET_SUCCESS;
  69              		.loc 1 128 0
  70 0024 0025     		mov	r5, #0
 141:.\Generated_Source\PSoC4/BLE_HAL_PVT.c **** 
 142:.\Generated_Source\PSoC4/BLE_HAL_PVT.c ****         while ((srcIndex < length) && (CYRET_SUCCESS == rc))
  71              		.loc 1 142 0
  72 0026 22E0     		b	.L3
  73              	.LVL7:
  74              	.L7:
 143:.\Generated_Source\PSoC4/BLE_HAL_PVT.c ****         {
 144:.\Generated_Source\PSoC4/BLE_HAL_PVT.c ****             rowsNotEqual = 0u;
 145:.\Generated_Source\PSoC4/BLE_HAL_PVT.c ****             /* Copy data to the write buffer either from the source buffer or from the flash */
 146:.\Generated_Source\PSoC4/BLE_HAL_PVT.c ****             for (dstIndex = 0u; dstIndex < CY_FLASH_SIZEOF_ROW; dstIndex++)
 147:.\Generated_Source\PSoC4/BLE_HAL_PVT.c ****             {
 148:.\Generated_Source\PSoC4/BLE_HAL_PVT.c ****                 if ((byteOffset >= eeOffset) && (srcIndex < length))
  75              		.loc 1 148 0
  76 0028 B442     		cmp	r4, r6
  77 002a 0CD3     		bcc	.L4
  78              		.loc 1 148 0 is_stmt 0 discriminator 1
ARM GAS  C:\Users\Luci\AppData\Local\Temp\ccpNpK36.s 			page 5


  79 002c BD42     		cmp	r5, r7
  80 002e 0AD2     		bcs	.L4
 149:.\Generated_Source\PSoC4/BLE_HAL_PVT.c ****                 {
 150:.\Generated_Source\PSoC4/BLE_HAL_PVT.c ****                     /* Detect that row programming is required */
 151:.\Generated_Source\PSoC4/BLE_HAL_PVT.c ****                     if(writeBuffer[dstIndex] != buffer[srcIndex])
  81              		.loc 1 151 0 is_stmt 1
  82 0030 6A46     		mov	r2, sp
  83 0032 D15C     		ldrb	r1, [r2, r3]
  84 0034 4246     		mov	r2, r8
  85 0036 525D     		ldrb	r2, [r2, r5]
  86 0038 9142     		cmp	r1, r2
  87 003a 02D0     		beq	.L5
 152:.\Generated_Source\PSoC4/BLE_HAL_PVT.c ****                     {
 153:.\Generated_Source\PSoC4/BLE_HAL_PVT.c ****                         writeBuffer[dstIndex] = buffer[srcIndex];
  88              		.loc 1 153 0
  89 003c 6946     		mov	r1, sp
  90 003e CA54     		strb	r2, [r1, r3]
  91              	.LVL8:
 154:.\Generated_Source\PSoC4/BLE_HAL_PVT.c ****                         rowsNotEqual = 1u;  
  92              		.loc 1 154 0
  93 0040 0120     		mov	r0, #1
  94              	.LVL9:
  95              	.L5:
 155:.\Generated_Source\PSoC4/BLE_HAL_PVT.c ****                     }
 156:.\Generated_Source\PSoC4/BLE_HAL_PVT.c ****                     srcIndex++;
  96              		.loc 1 156 0
  97 0042 0135     		add	r5, r5, #1
  98              	.LVL10:
  99 0044 02E0     		b	.L6
 100              	.L4:
 157:.\Generated_Source\PSoC4/BLE_HAL_PVT.c ****                 }
 158:.\Generated_Source\PSoC4/BLE_HAL_PVT.c ****                 else
 159:.\Generated_Source\PSoC4/BLE_HAL_PVT.c ****                 {
 160:.\Generated_Source\PSoC4/BLE_HAL_PVT.c ****                     writeBuffer[dstIndex] = CY_GET_XTND_REG8(CYDEV_FLASH_BASE + byteOffset);
 101              		.loc 1 160 0
 102 0046 2278     		ldrb	r2, [r4]
 103 0048 6946     		mov	r1, sp
 104 004a CA54     		strb	r2, [r1, r3]
 105              	.L6:
 161:.\Generated_Source\PSoC4/BLE_HAL_PVT.c ****                 }
 162:.\Generated_Source\PSoC4/BLE_HAL_PVT.c ****                 byteOffset++;
 106              		.loc 1 162 0 discriminator 2
 107 004c 0134     		add	r4, r4, #1
 108              	.LVL11:
 146:.\Generated_Source\PSoC4/BLE_HAL_PVT.c ****             {
 109              		.loc 1 146 0 discriminator 2
 110 004e 0133     		add	r3, r3, #1
 111              	.LVL12:
 112 0050 01E0     		b	.L9
 113              	.LVL13:
 114              	.L12:
 115 0052 0020     		mov	r0, #0
 116 0054 0023     		mov	r3, #0
 117              	.LVL14:
 118              	.L9:
 146:.\Generated_Source\PSoC4/BLE_HAL_PVT.c ****             {
 119              		.loc 1 146 0 is_stmt 0 discriminator 1
ARM GAS  C:\Users\Luci\AppData\Local\Temp\ccpNpK36.s 			page 6


 120 0056 FF2B     		cmp	r3, #255
 121 0058 E6D9     		bls	.L7
 163:.\Generated_Source\PSoC4/BLE_HAL_PVT.c ****             }
 164:.\Generated_Source\PSoC4/BLE_HAL_PVT.c **** 
 165:.\Generated_Source\PSoC4/BLE_HAL_PVT.c ****             if(rowsNotEqual != 0u)
 122              		.loc 1 165 0 is_stmt 1
 123 005a 0028     		cmp	r0, #0
 124 005c 04D0     		beq	.L8
 166:.\Generated_Source\PSoC4/BLE_HAL_PVT.c ****             {
 167:.\Generated_Source\PSoC4/BLE_HAL_PVT.c ****                 /* Write flash row */
 168:.\Generated_Source\PSoC4/BLE_HAL_PVT.c ****                 rc = CySysFlashWriteRow(rowId, writeBuffer);
 125              		.loc 1 168 0
 126 005e 4846     		mov	r0, r9
 127              	.LVL15:
 128 0060 6946     		mov	r1, sp
 129 0062 FFF7FEFF 		bl	CySysFlashWriteRow
 130              	.LVL16:
 131 0066 8446     		mov	ip, r0
 132              	.LVL17:
 133              	.L8:
 169:.\Generated_Source\PSoC4/BLE_HAL_PVT.c ****             }
 170:.\Generated_Source\PSoC4/BLE_HAL_PVT.c **** 
 171:.\Generated_Source\PSoC4/BLE_HAL_PVT.c ****             /* Go to the next row */
 172:.\Generated_Source\PSoC4/BLE_HAL_PVT.c ****             rowId++;
 134              		.loc 1 172 0
 135 0068 0123     		mov	r3, #1
 136 006a 9A46     		mov	r10, r3
 137 006c D144     		add	r9, r9, r10
 138              	.LVL18:
 139              	.L3:
 142:.\Generated_Source\PSoC4/BLE_HAL_PVT.c ****         {
 140              		.loc 1 142 0
 141 006e BD42     		cmp	r5, r7
 142 0070 05D2     		bcs	.L2
 142:.\Generated_Source\PSoC4/BLE_HAL_PVT.c ****         {
 143              		.loc 1 142 0 is_stmt 0 discriminator 1
 144 0072 6346     		mov	r3, ip
 145 0074 002B     		cmp	r3, #0
 146 0076 ECD0     		beq	.L12
 147 0078 01E0     		b	.L2
 148              	.LVL19:
 149              	.L11:
 173:.\Generated_Source\PSoC4/BLE_HAL_PVT.c ****         }
 174:.\Generated_Source\PSoC4/BLE_HAL_PVT.c ****     }
 175:.\Generated_Source\PSoC4/BLE_HAL_PVT.c ****     else
 176:.\Generated_Source\PSoC4/BLE_HAL_PVT.c ****     {
 177:.\Generated_Source\PSoC4/BLE_HAL_PVT.c ****         rc = CYRET_BAD_PARAM;
 150              		.loc 1 177 0 is_stmt 1
 151 007a 0123     		mov	r3, #1
 152 007c 9C46     		mov	ip, r3
 153              	.LVL20:
 154              	.L2:
 178:.\Generated_Source\PSoC4/BLE_HAL_PVT.c ****     }
 179:.\Generated_Source\PSoC4/BLE_HAL_PVT.c **** 
 180:.\Generated_Source\PSoC4/BLE_HAL_PVT.c ****     /* Mask return codes from flash, if they are not supported */
 181:.\Generated_Source\PSoC4/BLE_HAL_PVT.c ****     if ((CYRET_SUCCESS != rc) && (CYRET_BAD_PARAM != rc))
 155              		.loc 1 181 0
ARM GAS  C:\Users\Luci\AppData\Local\Temp\ccpNpK36.s 			page 7


 156 007e 6346     		mov	r3, ip
 157 0080 012B     		cmp	r3, #1
 158 0082 02D9     		bls	.L10
 182:.\Generated_Source\PSoC4/BLE_HAL_PVT.c ****     {
 183:.\Generated_Source\PSoC4/BLE_HAL_PVT.c ****         rc = CYRET_UNKNOWN;
 159              		.loc 1 183 0
 160 0084 0123     		mov	r3, #1
 161 0086 5B42     		neg	r3, r3
 162 0088 9C46     		mov	ip, r3
 163              	.LVL21:
 164              	.L10:
 184:.\Generated_Source\PSoC4/BLE_HAL_PVT.c ****     }
 185:.\Generated_Source\PSoC4/BLE_HAL_PVT.c ****     
 186:.\Generated_Source\PSoC4/BLE_HAL_PVT.c ****     return (rc);
 187:.\Generated_Source\PSoC4/BLE_HAL_PVT.c **** }
 165              		.loc 1 187 0
 166 008a 6046     		mov	r0, ip
 167 008c 40B0     		add	sp, sp, #256
 168              		@ sp needed
 169              	.LVL22:
 170 008e 1CBC     		pop	{r2, r3, r4}
 171 0090 9046     		mov	r8, r2
 172 0092 9946     		mov	r9, r3
 173 0094 A246     		mov	r10, r4
 174 0096 F0BD     		pop	{r4, r5, r6, r7, pc}
 175              	.L15:
 176              		.align	2
 177              	.L14:
 178 0098 FFFF0300 		.word	262143
 179              		.cfi_endproc
 180              	.LFE2:
 181              		.size	CyBLE_Nvram_Write, .-CyBLE_Nvram_Write
 182              		.section	.text.CyBLE_Nvram_Erase,"ax",%progbits
 183              		.align	2
 184              		.global	CyBLE_Nvram_Erase
 185              		.code	16
 186              		.thumb_func
 187              		.type	CyBLE_Nvram_Erase, %function
 188              	CyBLE_Nvram_Erase:
 189              	.LFB3:
 188:.\Generated_Source\PSoC4/BLE_HAL_PVT.c **** 
 189:.\Generated_Source\PSoC4/BLE_HAL_PVT.c **** /*******************************************************************************
 190:.\Generated_Source\PSoC4/BLE_HAL_PVT.c **** * Function Name: CyBLE_Nvram_Erase
 191:.\Generated_Source\PSoC4/BLE_HAL_PVT.c **** ********************************************************************************
 192:.\Generated_Source\PSoC4/BLE_HAL_PVT.c **** *
 193:.\Generated_Source\PSoC4/BLE_HAL_PVT.c **** * Summary:
 194:.\Generated_Source\PSoC4/BLE_HAL_PVT.c **** *  This API erases the data from the NVRAM store. This API will perform an 
 195:.\Generated_Source\PSoC4/BLE_HAL_PVT.c **** *  address range check based on the length before performing erase operation.
 196:.\Generated_Source\PSoC4/BLE_HAL_PVT.c **** *
 197:.\Generated_Source\PSoC4/BLE_HAL_PVT.c **** * Parameters:
 198:.\Generated_Source\PSoC4/BLE_HAL_PVT.c **** *  const uint8 *varFlash: the pointer to the array or variable in the flash.
 199:.\Generated_Source\PSoC4/BLE_HAL_PVT.c **** *  uint16 length: the length of the data in bytes.
 200:.\Generated_Source\PSoC4/BLE_HAL_PVT.c **** *
 201:.\Generated_Source\PSoC4/BLE_HAL_PVT.c **** * Return:
 202:.\Generated_Source\PSoC4/BLE_HAL_PVT.c **** *  CYRET_SUCCESS    a successful write
 203:.\Generated_Source\PSoC4/BLE_HAL_PVT.c **** *  CYRET_BAD_PARAM  A request to write outside the flash boundary.
 204:.\Generated_Source\PSoC4/BLE_HAL_PVT.c **** *  CYRET_UNKNOWN    Other errors in writing the flash
ARM GAS  C:\Users\Luci\AppData\Local\Temp\ccpNpK36.s 			page 8


 205:.\Generated_Source\PSoC4/BLE_HAL_PVT.c **** *
 206:.\Generated_Source\PSoC4/BLE_HAL_PVT.c **** *******************************************************************************/
 207:.\Generated_Source\PSoC4/BLE_HAL_PVT.c **** cystatus CyBLE_Nvram_Erase (const uint8 *varFlash, uint16 length)
 208:.\Generated_Source\PSoC4/BLE_HAL_PVT.c **** {
 190              		.loc 1 208 0
 191              		.cfi_startproc
 192              	.LVL23:
 193 0000 70B5     		push	{r4, r5, r6, lr}
 194              		.cfi_def_cfa_offset 16
 195              		.cfi_offset 4, -16
 196              		.cfi_offset 5, -12
 197              		.cfi_offset 6, -8
 198              		.cfi_offset 14, -4
 199 0002 C0B0     		sub	sp, sp, #256
 200              		.cfi_def_cfa_offset 272
 201 0004 051C     		mov	r5, r0
 202 0006 0C1C     		mov	r4, r1
 209:.\Generated_Source\PSoC4/BLE_HAL_PVT.c ****     const uint8 *tempFlash;
 210:.\Generated_Source\PSoC4/BLE_HAL_PVT.c ****     uint8 flashBuffer[CY_FLASH_SIZEOF_ROW] = {0u};
 203              		.loc 1 210 0
 204 0008 6846     		mov	r0, sp
 205              	.LVL24:
 206 000a 0021     		mov	r1, #0
 207              	.LVL25:
 208 000c 8022     		mov	r2, #128
 209 000e 5200     		lsl	r2, r2, #1
 210 0010 FFF7FEFF 		bl	memset
 211              	.LVL26:
 211:.\Generated_Source\PSoC4/BLE_HAL_PVT.c ****     uint16 lengthFlash;
 212:.\Generated_Source\PSoC4/BLE_HAL_PVT.c ****     uint16 lengthRemaining;
 213:.\Generated_Source\PSoC4/BLE_HAL_PVT.c ****     cystatus rc = CYRET_UNKNOWN;
 212              		.loc 1 213 0
 213 0014 0120     		mov	r0, #1
 214 0016 4042     		neg	r0, r0
 214:.\Generated_Source\PSoC4/BLE_HAL_PVT.c **** 
 215:.\Generated_Source\PSoC4/BLE_HAL_PVT.c ****     tempFlash = varFlash;
 216:.\Generated_Source\PSoC4/BLE_HAL_PVT.c ****     lengthRemaining = length;
 217:.\Generated_Source\PSoC4/BLE_HAL_PVT.c **** 
 218:.\Generated_Source\PSoC4/BLE_HAL_PVT.c ****     while(lengthRemaining > 0u)
 215              		.loc 1 218 0
 216 0018 10E0     		b	.L17
 217              	.LVL27:
 218              	.L20:
 219:.\Generated_Source\PSoC4/BLE_HAL_PVT.c ****     {
 220:.\Generated_Source\PSoC4/BLE_HAL_PVT.c ****         if(lengthRemaining < CY_FLASH_SIZEOF_ROW)
 219              		.loc 1 220 0
 220 001a FF2C     		cmp	r4, #255
 221 001c 02D9     		bls	.L21
 221:.\Generated_Source\PSoC4/BLE_HAL_PVT.c ****         {
 222:.\Generated_Source\PSoC4/BLE_HAL_PVT.c ****             lengthFlash = lengthRemaining;
 223:.\Generated_Source\PSoC4/BLE_HAL_PVT.c ****         }
 224:.\Generated_Source\PSoC4/BLE_HAL_PVT.c ****         else
 225:.\Generated_Source\PSoC4/BLE_HAL_PVT.c ****         {
 226:.\Generated_Source\PSoC4/BLE_HAL_PVT.c ****             lengthFlash = CY_FLASH_SIZEOF_ROW;
 222              		.loc 1 226 0
 223 001e 8026     		mov	r6, #128
 224 0020 7600     		lsl	r6, r6, #1
ARM GAS  C:\Users\Luci\AppData\Local\Temp\ccpNpK36.s 			page 9


 225 0022 00E0     		b	.L18
 226              	.L21:
 222:.\Generated_Source\PSoC4/BLE_HAL_PVT.c ****         }
 227              		.loc 1 222 0
 228 0024 261C     		mov	r6, r4
 229              	.L18:
 230              	.LVL28:
 227:.\Generated_Source\PSoC4/BLE_HAL_PVT.c ****         }
 228:.\Generated_Source\PSoC4/BLE_HAL_PVT.c ****         rc = CyBLE_Nvram_Write(flashBuffer, tempFlash, lengthFlash);
 231              		.loc 1 228 0
 232 0026 6846     		mov	r0, sp
 233              	.LVL29:
 234 0028 291C     		mov	r1, r5
 235 002a 321C     		mov	r2, r6
 236 002c FFF7FEFF 		bl	CyBLE_Nvram_Write
 237              	.LVL30:
 229:.\Generated_Source\PSoC4/BLE_HAL_PVT.c ****         if(rc != CYRET_SUCCESS)
 238              		.loc 1 229 0
 239 0030 0028     		cmp	r0, #0
 240 0032 05D1     		bne	.L19
 230:.\Generated_Source\PSoC4/BLE_HAL_PVT.c ****         {
 231:.\Generated_Source\PSoC4/BLE_HAL_PVT.c ****             break;
 232:.\Generated_Source\PSoC4/BLE_HAL_PVT.c ****         }
 233:.\Generated_Source\PSoC4/BLE_HAL_PVT.c ****         tempFlash += CY_FLASH_SIZEOF_ROW;
 241              		.loc 1 233 0
 242 0034 0135     		add	r5, r5, #1
 243              	.LVL31:
 244 0036 FF35     		add	r5, r5, #255
 245              	.LVL32:
 234:.\Generated_Source\PSoC4/BLE_HAL_PVT.c ****         lengthRemaining -= lengthFlash;
 246              		.loc 1 234 0
 247 0038 A41B     		sub	r4, r4, r6
 248              	.LVL33:
 249 003a A4B2     		uxth	r4, r4
 250              	.LVL34:
 251              	.L17:
 218:.\Generated_Source\PSoC4/BLE_HAL_PVT.c ****     {
 252              		.loc 1 218 0
 253 003c 002C     		cmp	r4, #0
 254 003e ECD1     		bne	.L20
 255              	.L19:
 235:.\Generated_Source\PSoC4/BLE_HAL_PVT.c ****     }
 236:.\Generated_Source\PSoC4/BLE_HAL_PVT.c **** 
 237:.\Generated_Source\PSoC4/BLE_HAL_PVT.c ****     return rc;
 238:.\Generated_Source\PSoC4/BLE_HAL_PVT.c **** }
 256              		.loc 1 238 0
 257 0040 40B0     		add	sp, sp, #256
 258              		@ sp needed
 259              	.LVL35:
 260              	.LVL36:
 261 0042 70BD     		pop	{r4, r5, r6, pc}
 262              		.cfi_endproc
 263              	.LFE3:
 264              		.size	CyBLE_Nvram_Erase, .-CyBLE_Nvram_Erase
 265              		.section	.text.CyBLE_Bless_LlRegRead,"ax",%progbits
 266              		.align	2
 267              		.global	CyBLE_Bless_LlRegRead
ARM GAS  C:\Users\Luci\AppData\Local\Temp\ccpNpK36.s 			page 10


 268              		.code	16
 269              		.thumb_func
 270              		.type	CyBLE_Bless_LlRegRead, %function
 271              	CyBLE_Bless_LlRegRead:
 272              	.LFB4:
 239:.\Generated_Source\PSoC4/BLE_HAL_PVT.c **** 
 240:.\Generated_Source\PSoC4/BLE_HAL_PVT.c **** 
 241:.\Generated_Source\PSoC4/BLE_HAL_PVT.c **** /*******************************************************************************
 242:.\Generated_Source\PSoC4/BLE_HAL_PVT.c **** * Function Name: CyBLE_Bless_LlRegRead
 243:.\Generated_Source\PSoC4/BLE_HAL_PVT.c **** ********************************************************************************
 244:.\Generated_Source\PSoC4/BLE_HAL_PVT.c **** *
 245:.\Generated_Source\PSoC4/BLE_HAL_PVT.c **** * Summary:
 246:.\Generated_Source\PSoC4/BLE_HAL_PVT.c **** *  This API reads the content of the BLESS Link Layer register from the stack.
 247:.\Generated_Source\PSoC4/BLE_HAL_PVT.c **** *
 248:.\Generated_Source\PSoC4/BLE_HAL_PVT.c **** * Parameters:
 249:.\Generated_Source\PSoC4/BLE_HAL_PVT.c **** *  uint32 *blessAddr: the pointer to the BLESS link layer address.
 250:.\Generated_Source\PSoC4/BLE_HAL_PVT.c **** *  uint16 *regValue: the pointer to the buffer space to copy the read value.
 251:.\Generated_Source\PSoC4/BLE_HAL_PVT.c **** *
 252:.\Generated_Source\PSoC4/BLE_HAL_PVT.c **** * Return:
 253:.\Generated_Source\PSoC4/BLE_HAL_PVT.c **** *  None
 254:.\Generated_Source\PSoC4/BLE_HAL_PVT.c **** *
 255:.\Generated_Source\PSoC4/BLE_HAL_PVT.c **** *******************************************************************************/
 256:.\Generated_Source\PSoC4/BLE_HAL_PVT.c **** void CyBLE_Bless_LlRegRead (const reg32 *blessAddr, uint16 *regValue)
 257:.\Generated_Source\PSoC4/BLE_HAL_PVT.c **** {
 273              		.loc 1 257 0
 274              		.cfi_startproc
 275              	.LVL37:
 258:.\Generated_Source\PSoC4/BLE_HAL_PVT.c ****     *regValue = (uint16)CY_GET_REG32(blessAddr);
 276              		.loc 1 258 0
 277 0000 0368     		ldr	r3, [r0]
 278 0002 0B80     		strh	r3, [r1]
 259:.\Generated_Source\PSoC4/BLE_HAL_PVT.c **** }
 279              		.loc 1 259 0
 280              		@ sp needed
 281 0004 7047     		bx	lr
 282              		.cfi_endproc
 283              	.LFE4:
 284              		.size	CyBLE_Bless_LlRegRead, .-CyBLE_Bless_LlRegRead
 285 0006 C046     		.section	.text.CyBLE_Bless_LlRegWrite,"ax",%progbits
 286              		.align	2
 287              		.global	CyBLE_Bless_LlRegWrite
 288              		.code	16
 289              		.thumb_func
 290              		.type	CyBLE_Bless_LlRegWrite, %function
 291              	CyBLE_Bless_LlRegWrite:
 292              	.LFB5:
 260:.\Generated_Source\PSoC4/BLE_HAL_PVT.c **** 
 261:.\Generated_Source\PSoC4/BLE_HAL_PVT.c **** 
 262:.\Generated_Source\PSoC4/BLE_HAL_PVT.c **** /*******************************************************************************
 263:.\Generated_Source\PSoC4/BLE_HAL_PVT.c **** * Function Name: CyBLE_Bless_LlRegWrite
 264:.\Generated_Source\PSoC4/BLE_HAL_PVT.c **** ********************************************************************************
 265:.\Generated_Source\PSoC4/BLE_HAL_PVT.c **** *
 266:.\Generated_Source\PSoC4/BLE_HAL_PVT.c **** * Summary:
 267:.\Generated_Source\PSoC4/BLE_HAL_PVT.c **** *  This API writes to the BLESS Link Layer register from the stack.
 268:.\Generated_Source\PSoC4/BLE_HAL_PVT.c **** *
 269:.\Generated_Source\PSoC4/BLE_HAL_PVT.c **** * Parameters:
 270:.\Generated_Source\PSoC4/BLE_HAL_PVT.c **** *  uint32 *blessAddr: the pointer to the BLESS link layer address.
ARM GAS  C:\Users\Luci\AppData\Local\Temp\ccpNpK36.s 			page 11


 271:.\Generated_Source\PSoC4/BLE_HAL_PVT.c **** *  uint16 regValue: the pointer to the value to be written to the BLESS LL reg.
 272:.\Generated_Source\PSoC4/BLE_HAL_PVT.c **** *
 273:.\Generated_Source\PSoC4/BLE_HAL_PVT.c **** * Return:
 274:.\Generated_Source\PSoC4/BLE_HAL_PVT.c **** *  None
 275:.\Generated_Source\PSoC4/BLE_HAL_PVT.c **** *
 276:.\Generated_Source\PSoC4/BLE_HAL_PVT.c **** *******************************************************************************/
 277:.\Generated_Source\PSoC4/BLE_HAL_PVT.c **** void CyBLE_Bless_LlRegWrite (reg32 *blessAddr, const uint16 regValue)
 278:.\Generated_Source\PSoC4/BLE_HAL_PVT.c **** {
 293              		.loc 1 278 0
 294              		.cfi_startproc
 295              	.LVL38:
 279:.\Generated_Source\PSoC4/BLE_HAL_PVT.c ****     CY_SET_REG32(blessAddr, regValue);
 296              		.loc 1 279 0
 297 0000 0160     		str	r1, [r0]
 280:.\Generated_Source\PSoC4/BLE_HAL_PVT.c **** }
 298              		.loc 1 280 0
 299              		@ sp needed
 300 0002 7047     		bx	lr
 301              		.cfi_endproc
 302              	.LFE5:
 303              		.size	CyBLE_Bless_LlRegWrite, .-CyBLE_Bless_LlRegWrite
 304              		.section	.text.CyBLE_Bless_RfRegRead,"ax",%progbits
 305              		.align	2
 306              		.global	CyBLE_Bless_RfRegRead
 307              		.code	16
 308              		.thumb_func
 309              		.type	CyBLE_Bless_RfRegRead, %function
 310              	CyBLE_Bless_RfRegRead:
 311              	.LFB6:
 281:.\Generated_Source\PSoC4/BLE_HAL_PVT.c **** 
 282:.\Generated_Source\PSoC4/BLE_HAL_PVT.c **** 
 283:.\Generated_Source\PSoC4/BLE_HAL_PVT.c **** /*******************************************************************************
 284:.\Generated_Source\PSoC4/BLE_HAL_PVT.c **** * Function Name: CyBLE_Bless_RfRegRead
 285:.\Generated_Source\PSoC4/BLE_HAL_PVT.c **** ********************************************************************************
 286:.\Generated_Source\PSoC4/BLE_HAL_PVT.c **** *
 287:.\Generated_Source\PSoC4/BLE_HAL_PVT.c **** * Summary:
 288:.\Generated_Source\PSoC4/BLE_HAL_PVT.c **** *  This API reads the content of the BLESS RF register from the stack.
 289:.\Generated_Source\PSoC4/BLE_HAL_PVT.c **** *
 290:.\Generated_Source\PSoC4/BLE_HAL_PVT.c **** * Parameters:
 291:.\Generated_Source\PSoC4/BLE_HAL_PVT.c **** *  uint32 *blessAddr: the pointer to BLESS RF register address.
 292:.\Generated_Source\PSoC4/BLE_HAL_PVT.c **** *  uint16 *regValue: the pointer to the buffer space to copy the read value.
 293:.\Generated_Source\PSoC4/BLE_HAL_PVT.c **** *
 294:.\Generated_Source\PSoC4/BLE_HAL_PVT.c **** * Return:
 295:.\Generated_Source\PSoC4/BLE_HAL_PVT.c **** *  None
 296:.\Generated_Source\PSoC4/BLE_HAL_PVT.c **** *
 297:.\Generated_Source\PSoC4/BLE_HAL_PVT.c **** *******************************************************************************/
 298:.\Generated_Source\PSoC4/BLE_HAL_PVT.c **** void CyBLE_Bless_RfRegRead (const reg32 *blessAddr, uint16 *regValue)
 299:.\Generated_Source\PSoC4/BLE_HAL_PVT.c **** {
 312              		.loc 1 299 0
 313              		.cfi_startproc
 314              	.LVL39:
 300:.\Generated_Source\PSoC4/BLE_HAL_PVT.c ****     *regValue = (uint16)CY_GET_REG32(blessAddr);
 315              		.loc 1 300 0
 316 0000 0368     		ldr	r3, [r0]
 317 0002 0B80     		strh	r3, [r1]
 301:.\Generated_Source\PSoC4/BLE_HAL_PVT.c **** }
 318              		.loc 1 301 0
ARM GAS  C:\Users\Luci\AppData\Local\Temp\ccpNpK36.s 			page 12


 319              		@ sp needed
 320 0004 7047     		bx	lr
 321              		.cfi_endproc
 322              	.LFE6:
 323              		.size	CyBLE_Bless_RfRegRead, .-CyBLE_Bless_RfRegRead
 324 0006 C046     		.section	.text.CyBLE_Bless_RfRegWrite,"ax",%progbits
 325              		.align	2
 326              		.global	CyBLE_Bless_RfRegWrite
 327              		.code	16
 328              		.thumb_func
 329              		.type	CyBLE_Bless_RfRegWrite, %function
 330              	CyBLE_Bless_RfRegWrite:
 331              	.LFB7:
 302:.\Generated_Source\PSoC4/BLE_HAL_PVT.c **** 
 303:.\Generated_Source\PSoC4/BLE_HAL_PVT.c **** 
 304:.\Generated_Source\PSoC4/BLE_HAL_PVT.c **** /*******************************************************************************
 305:.\Generated_Source\PSoC4/BLE_HAL_PVT.c **** * Function Name: CyBLE_Bless_RfRegWrite
 306:.\Generated_Source\PSoC4/BLE_HAL_PVT.c **** ********************************************************************************
 307:.\Generated_Source\PSoC4/BLE_HAL_PVT.c **** *
 308:.\Generated_Source\PSoC4/BLE_HAL_PVT.c **** * Summary:
 309:.\Generated_Source\PSoC4/BLE_HAL_PVT.c **** *  This API writes to the BLESS RF register from the stack.
 310:.\Generated_Source\PSoC4/BLE_HAL_PVT.c **** *
 311:.\Generated_Source\PSoC4/BLE_HAL_PVT.c **** * Parameters:
 312:.\Generated_Source\PSoC4/BLE_HAL_PVT.c **** *  uint32 *blessAddr: the pointer to the BLESS RF address.
 313:.\Generated_Source\PSoC4/BLE_HAL_PVT.c **** *  uint16 regValue: the pointer to the value to be written to the BLESS RF reg.
 314:.\Generated_Source\PSoC4/BLE_HAL_PVT.c **** *
 315:.\Generated_Source\PSoC4/BLE_HAL_PVT.c **** * Return:
 316:.\Generated_Source\PSoC4/BLE_HAL_PVT.c **** *  None
 317:.\Generated_Source\PSoC4/BLE_HAL_PVT.c **** *
 318:.\Generated_Source\PSoC4/BLE_HAL_PVT.c **** *******************************************************************************/
 319:.\Generated_Source\PSoC4/BLE_HAL_PVT.c **** void CyBLE_Bless_RfRegWrite (reg32 *blessAddr, const uint16 regValue)
 320:.\Generated_Source\PSoC4/BLE_HAL_PVT.c **** {
 332              		.loc 1 320 0
 333              		.cfi_startproc
 334              	.LVL40:
 321:.\Generated_Source\PSoC4/BLE_HAL_PVT.c ****      CY_SET_REG32(blessAddr, regValue);
 335              		.loc 1 321 0
 336 0000 0160     		str	r1, [r0]
 322:.\Generated_Source\PSoC4/BLE_HAL_PVT.c **** }
 337              		.loc 1 322 0
 338              		@ sp needed
 339 0002 7047     		bx	lr
 340              		.cfi_endproc
 341              	.LFE7:
 342              		.size	CyBLE_Bless_RfRegWrite, .-CyBLE_Bless_RfRegWrite
 343              		.section	.text.CyBLE_BlessDeviceConfig,"ax",%progbits
 344              		.align	2
 345              		.global	CyBLE_BlessDeviceConfig
 346              		.code	16
 347              		.thumb_func
 348              		.type	CyBLE_BlessDeviceConfig, %function
 349              	CyBLE_BlessDeviceConfig:
 350              	.LFB8:
 323:.\Generated_Source\PSoC4/BLE_HAL_PVT.c **** 
 324:.\Generated_Source\PSoC4/BLE_HAL_PVT.c **** 
 325:.\Generated_Source\PSoC4/BLE_HAL_PVT.c **** void CyBLE_BlessDeviceConfig(void)
 326:.\Generated_Source\PSoC4/BLE_HAL_PVT.c **** {
ARM GAS  C:\Users\Luci\AppData\Local\Temp\ccpNpK36.s 			page 13


 351              		.loc 1 326 0
 352              		.cfi_startproc
 327:.\Generated_Source\PSoC4/BLE_HAL_PVT.c ****     uint32 trimRegValue;
 328:.\Generated_Source\PSoC4/BLE_HAL_PVT.c ****     uint32 ldo;
 329:.\Generated_Source\PSoC4/BLE_HAL_PVT.c **** 
 330:.\Generated_Source\PSoC4/BLE_HAL_PVT.c ****     trimRegValue = ((uint32)CYBLE_SFLASH_BLESS_BB_BUMP2_HIGH_REG << 8u) | CYBLE_SFLASH_BLESS_BB_BUM
 353              		.loc 1 330 0
 354 0000 244B     		ldr	r3, .L38
 355 0002 1A78     		ldrb	r2, [r3]
 356 0004 1202     		lsl	r2, r2, #8
 357 0006 244B     		ldr	r3, .L38+4
 358 0008 1B78     		ldrb	r3, [r3]
 359 000a 1A43     		orr	r2, r3
 360              	.LVL41:
 331:.\Generated_Source\PSoC4/BLE_HAL_PVT.c ****     ldo = ((uint32)CYBLE_SFLASH_BLESS_LDO_HIGH_REG << 8u) | CYBLE_SFLASH_BLESS_LDO_LOW_REG;
 361              		.loc 1 331 0
 362 000c 234B     		ldr	r3, .L38+8
 363 000e 1B78     		ldrb	r3, [r3]
 364 0010 1B02     		lsl	r3, r3, #8
 365 0012 2349     		ldr	r1, .L38+12
 366 0014 0978     		ldrb	r1, [r1]
 367 0016 0B43     		orr	r3, r1
 368              	.LVL42:
 332:.\Generated_Source\PSoC4/BLE_HAL_PVT.c **** 
 333:.\Generated_Source\PSoC4/BLE_HAL_PVT.c ****     if ((ldo == CYBLE_SFLASH_BLERD_LDO_REG_VAL1) && (trimRegValue == CYBLE_SFLASH_BLERD_BB_BUMP2_RE
 369              		.loc 1 333 0
 370 0018 2249     		ldr	r1, .L38+16
 371 001a 8B42     		cmp	r3, r1
 372 001c 01D1     		bne	.L27
 373              		.loc 1 333 0 is_stmt 0 discriminator 1
 374 001e 072A     		cmp	r2, #7
 375 0020 06D0     		beq	.L31
 376              	.L27:
 334:.\Generated_Source\PSoC4/BLE_HAL_PVT.c ****     {
 335:.\Generated_Source\PSoC4/BLE_HAL_PVT.c ****         ldo = CYBLE_BLERD_LDO_REG_VAL_FINAL;
 336:.\Generated_Source\PSoC4/BLE_HAL_PVT.c ****         trimRegValue = CYBLE_BLERD_BB_BUMP2_REG_VAL_FINAL;
 337:.\Generated_Source\PSoC4/BLE_HAL_PVT.c ****     }
 338:.\Generated_Source\PSoC4/BLE_HAL_PVT.c ****     else if ((ldo == CYBLE_SFLASH_BLERD_LDO_REG_VAL2) && (trimRegValue == CYBLE_BLERD_BB_BUMP2_REG_
 377              		.loc 1 338 0 is_stmt 1
 378 0022 D421     		mov	r1, #212
 379 0024 0901     		lsl	r1, r1, #4
 380 0026 8B42     		cmp	r3, r1
 381 0028 06D1     		bne	.L28
 382              		.loc 1 338 0 is_stmt 0 discriminator 1
 383 002a 042A     		cmp	r2, #4
 384 002c 04D1     		bne	.L28
 385 002e 02E0     		b	.L32
 386              	.L31:
 335:.\Generated_Source\PSoC4/BLE_HAL_PVT.c ****         trimRegValue = CYBLE_BLERD_BB_BUMP2_REG_VAL_FINAL;
 387              		.loc 1 335 0 is_stmt 1
 388 0030 1D4B     		ldr	r3, .L38+20
 389              	.LVL43:
 336:.\Generated_Source\PSoC4/BLE_HAL_PVT.c ****     }
 390              		.loc 1 336 0
 391 0032 0422     		mov	r2, #4
 392              	.LVL44:
 393 0034 00E0     		b	.L28
ARM GAS  C:\Users\Luci\AppData\Local\Temp\ccpNpK36.s 			page 14


 394              	.LVL45:
 395              	.L32:
 339:.\Generated_Source\PSoC4/BLE_HAL_PVT.c ****     {
 340:.\Generated_Source\PSoC4/BLE_HAL_PVT.c ****         ldo = CYBLE_BLERD_LDO_REG_VAL_FINAL;
 396              		.loc 1 340 0
 397 0036 1C4B     		ldr	r3, .L38+20
 398              	.LVL46:
 399              	.L28:
 341:.\Generated_Source\PSoC4/BLE_HAL_PVT.c ****     }
 342:.\Generated_Source\PSoC4/BLE_HAL_PVT.c ****     else
 343:.\Generated_Source\PSoC4/BLE_HAL_PVT.c ****     {
 344:.\Generated_Source\PSoC4/BLE_HAL_PVT.c ****     }
 345:.\Generated_Source\PSoC4/BLE_HAL_PVT.c **** 
 346:.\Generated_Source\PSoC4/BLE_HAL_PVT.c ****     CYBLE_BLE_BLERD_LDO_REG = ldo;
 400              		.loc 1 346 0
 401 0038 1C49     		ldr	r1, .L38+24
 402 003a 0B60     		str	r3, [r1]
 347:.\Generated_Source\PSoC4/BLE_HAL_PVT.c ****     CYBLE_BLE_BLERD_BB_BUMP2_REG = trimRegValue;
 403              		.loc 1 347 0
 404 003c 1C4B     		ldr	r3, .L38+28
 405              	.LVL47:
 406 003e 1A60     		str	r2, [r3]
 407              	.LVL48:
 348:.\Generated_Source\PSoC4/BLE_HAL_PVT.c **** 
 349:.\Generated_Source\PSoC4/BLE_HAL_PVT.c ****     /* Edit only XTAL fast charge bit */
 350:.\Generated_Source\PSoC4/BLE_HAL_PVT.c ****     trimRegValue = ((uint32)CYBLE_SFLASH_BLESS_BB_XO_HIGH_REG << 8u) | CYBLE_SFLASH_BLESS_BB_XO_LOW
 408              		.loc 1 350 0
 409 0040 1C4B     		ldr	r3, .L38+32
 410 0042 1B78     		ldrb	r3, [r3]
 411 0044 1B02     		lsl	r3, r3, #8
 412 0046 1C4A     		ldr	r2, .L38+36
 413              	.LVL49:
 414 0048 1278     		ldrb	r2, [r2]
 415 004a 1343     		orr	r3, r2
 416              	.LVL50:
 351:.\Generated_Source\PSoC4/BLE_HAL_PVT.c **** 
 352:.\Generated_Source\PSoC4/BLE_HAL_PVT.c ****     if ((trimRegValue == CYBLE_SFLASH_BLERD_BB_XO_REG_VAL1) || (trimRegValue == CYBLE_SFLASH_BLERD_
 417              		.loc 1 352 0
 418 004c 8022     		mov	r2, #128
 419 004e 9201     		lsl	r2, r2, #6
 420 0050 9342     		cmp	r3, r2
 421 0052 02D0     		beq	.L33
 422              		.loc 1 352 0 is_stmt 0 discriminator 1
 423 0054 002B     		cmp	r3, #0
 424 0056 02D0     		beq	.L34
 425 0058 02E0     		b	.L29
 426              	.L33:
 353:.\Generated_Source\PSoC4/BLE_HAL_PVT.c ****     {
 354:.\Generated_Source\PSoC4/BLE_HAL_PVT.c ****         trimRegValue = CYBLE_BLERD_BB_XO_REG_VAL_FINAL;
 427              		.loc 1 354 0 is_stmt 1
 428 005a 184B     		ldr	r3, .L38+40
 429              	.LVL51:
 430 005c 00E0     		b	.L29
 431              	.LVL52:
 432              	.L34:
 433 005e 174B     		ldr	r3, .L38+40
 434              	.LVL53:
ARM GAS  C:\Users\Luci\AppData\Local\Temp\ccpNpK36.s 			page 15


 435              	.L29:
 355:.\Generated_Source\PSoC4/BLE_HAL_PVT.c ****     }
 356:.\Generated_Source\PSoC4/BLE_HAL_PVT.c ****     
 357:.\Generated_Source\PSoC4/BLE_HAL_PVT.c ****     CYBLE_BLE_BLERD_BB_XO_REG = trimRegValue;
 436              		.loc 1 357 0
 437 0060 174A     		ldr	r2, .L38+44
 438 0062 1360     		str	r3, [r2]
 358:.\Generated_Source\PSoC4/BLE_HAL_PVT.c ****     
 359:.\Generated_Source\PSoC4/BLE_HAL_PVT.c ****     trimRegValue = ((uint32)CYBLE_SFLASH_BLESS_SY_BUMP1_HIGH_REG << 8u) | CYBLE_SFLASH_BLESS_SY_BUM
 439              		.loc 1 359 0
 440 0064 174B     		ldr	r3, .L38+48
 441              	.LVL54:
 442 0066 1B78     		ldrb	r3, [r3]
 443 0068 1B02     		lsl	r3, r3, #8
 444 006a 174A     		ldr	r2, .L38+52
 445              	.LVL55:
 446 006c 1278     		ldrb	r2, [r2]
 447 006e 1343     		orr	r3, r2
 448              	.LVL56:
 360:.\Generated_Source\PSoC4/BLE_HAL_PVT.c **** 
 361:.\Generated_Source\PSoC4/BLE_HAL_PVT.c ****     if ((trimRegValue == CYBLE_SFLASH_BLERD_SY_BUMP1_REG_VAL1) || 
 449              		.loc 1 361 0
 450 0070 164A     		ldr	r2, .L38+56
 451 0072 9342     		cmp	r3, r2
 452 0074 05D0     		beq	.L35
 453              		.loc 1 361 0 is_stmt 0 discriminator 1
 454 0076 164A     		ldr	r2, .L38+60
 455 0078 9342     		cmp	r3, r2
 456 007a 04D0     		beq	.L36
 362:.\Generated_Source\PSoC4/BLE_HAL_PVT.c ****         (trimRegValue == CYBLE_SFLASH_BLERD_SY_BUMP1_REG_VAL2) ||  
 457              		.loc 1 362 0 is_stmt 1
 458 007c 052B     		cmp	r3, #5
 459 007e 05D1     		bne	.L30
 460 0080 03E0     		b	.L37
 461              	.L35:
 363:.\Generated_Source\PSoC4/BLE_HAL_PVT.c ****         (trimRegValue == CYBLE_SFLASH_BLERD_SY_BUMP1_REG_VAL3))
 364:.\Generated_Source\PSoC4/BLE_HAL_PVT.c ****     {
 365:.\Generated_Source\PSoC4/BLE_HAL_PVT.c ****         trimRegValue = CYBLE_BLERD_SY_BUMP1_REG_VAL_FINAL;
 462              		.loc 1 365 0
 463 0082 144B     		ldr	r3, .L38+64
 464              	.LVL57:
 465 0084 02E0     		b	.L30
 466              	.LVL58:
 467              	.L36:
 468 0086 134B     		ldr	r3, .L38+64
 469              	.LVL59:
 470 0088 00E0     		b	.L30
 471              	.LVL60:
 472              	.L37:
 473 008a 124B     		ldr	r3, .L38+64
 474              	.LVL61:
 475              	.L30:
 366:.\Generated_Source\PSoC4/BLE_HAL_PVT.c ****     }
 367:.\Generated_Source\PSoC4/BLE_HAL_PVT.c ****     CYBLE_BLE_BLERD_SY_BUMP1_REG = trimRegValue;
 476              		.loc 1 367 0
 477 008c 124A     		ldr	r2, .L38+68
 478 008e 1360     		str	r3, [r2]
ARM GAS  C:\Users\Luci\AppData\Local\Temp\ccpNpK36.s 			page 16


 368:.\Generated_Source\PSoC4/BLE_HAL_PVT.c ****       
 369:.\Generated_Source\PSoC4/BLE_HAL_PVT.c **** }
 479              		.loc 1 369 0
 480              		@ sp needed
 481 0090 7047     		bx	lr
 482              	.L39:
 483 0092 C046     		.align	2
 484              	.L38:
 485 0094 59F1FF0F 		.word	268431705
 486 0098 58F1FF0F 		.word	268431704
 487 009c 5FF1FF0F 		.word	268431711
 488 00a0 5EF1FF0F 		.word	268431710
 489 00a4 580B0000 		.word	2904
 490 00a8 580D0000 		.word	3416
 491 00ac 6C002E40 		.word	1076756588
 492 00b0 74002E40 		.word	1076756596
 493 00b4 5BF1FF0F 		.word	268431707
 494 00b8 5AF1FF0F 		.word	268431706
 495 00bc 02200000 		.word	8194
 496 00c0 78002E40 		.word	1076756600
 497 00c4 5DF1FF0F 		.word	268431709
 498 00c8 5CF1FF0F 		.word	268431708
 499 00cc 0F0F0000 		.word	3855
 500 00d0 05050000 		.word	1285
 501 00d4 050F0000 		.word	3845
 502 00d8 80002E40 		.word	1076756608
 503              		.cfi_endproc
 504              	.LFE8:
 505              		.size	CyBLE_BlessDeviceConfig, .-CyBLE_BlessDeviceConfig
 506              		.section	.text.CyBleHal_DelayUs,"ax",%progbits
 507              		.align	2
 508              		.global	CyBleHal_DelayUs
 509              		.code	16
 510              		.thumb_func
 511              		.type	CyBleHal_DelayUs, %function
 512              	CyBleHal_DelayUs:
 513              	.LFB9:
 370:.\Generated_Source\PSoC4/BLE_HAL_PVT.c **** 
 371:.\Generated_Source\PSoC4/BLE_HAL_PVT.c **** 
 372:.\Generated_Source\PSoC4/BLE_HAL_PVT.c **** void CyBleHal_DelayUs(uint16 delayVal)
 373:.\Generated_Source\PSoC4/BLE_HAL_PVT.c **** {
 514              		.loc 1 373 0
 515              		.cfi_startproc
 516              	.LVL62:
 517 0000 08B5     		push	{r3, lr}
 518              		.cfi_def_cfa_offset 8
 519              		.cfi_offset 3, -8
 520              		.cfi_offset 14, -4
 374:.\Generated_Source\PSoC4/BLE_HAL_PVT.c ****     CyDelayUs(delayVal);
 521              		.loc 1 374 0
 522 0002 FFF7FEFF 		bl	CyDelayUs
 523              	.LVL63:
 375:.\Generated_Source\PSoC4/BLE_HAL_PVT.c **** }
 524              		.loc 1 375 0
 525              		@ sp needed
 526 0006 08BD     		pop	{r3, pc}
 527              		.cfi_endproc
ARM GAS  C:\Users\Luci\AppData\Local\Temp\ccpNpK36.s 			page 17


 528              	.LFE9:
 529              		.size	CyBleHal_DelayUs, .-CyBleHal_DelayUs
 530              		.section	.text.CyBleHal_DelayMs,"ax",%progbits
 531              		.align	2
 532              		.global	CyBleHal_DelayMs
 533              		.code	16
 534              		.thumb_func
 535              		.type	CyBleHal_DelayMs, %function
 536              	CyBleHal_DelayMs:
 537              	.LFB10:
 376:.\Generated_Source\PSoC4/BLE_HAL_PVT.c **** 
 377:.\Generated_Source\PSoC4/BLE_HAL_PVT.c **** void CyBleHal_DelayMs(uint32 delayVal)
 378:.\Generated_Source\PSoC4/BLE_HAL_PVT.c **** {
 538              		.loc 1 378 0
 539              		.cfi_startproc
 540              	.LVL64:
 541 0000 08B5     		push	{r3, lr}
 542              		.cfi_def_cfa_offset 8
 543              		.cfi_offset 3, -8
 544              		.cfi_offset 14, -4
 379:.\Generated_Source\PSoC4/BLE_HAL_PVT.c ****     CyDelay(delayVal);
 545              		.loc 1 379 0
 546 0002 FFF7FEFF 		bl	CyDelay
 547              	.LVL65:
 380:.\Generated_Source\PSoC4/BLE_HAL_PVT.c **** }
 548              		.loc 1 380 0
 549              		@ sp needed
 550 0006 08BD     		pop	{r3, pc}
 551              		.cfi_endproc
 552              	.LFE10:
 553              		.size	CyBleHal_DelayMs, .-CyBleHal_DelayMs
 554              		.section	.text.CyBleHal_EnableGlobalInterrupts,"ax",%progbits
 555              		.align	2
 556              		.global	CyBleHal_EnableGlobalInterrupts
 557              		.code	16
 558              		.thumb_func
 559              		.type	CyBleHal_EnableGlobalInterrupts, %function
 560              	CyBleHal_EnableGlobalInterrupts:
 561              	.LFB11:
 381:.\Generated_Source\PSoC4/BLE_HAL_PVT.c **** 
 382:.\Generated_Source\PSoC4/BLE_HAL_PVT.c **** void CyBleHal_EnableGlobalInterrupts(void)
 383:.\Generated_Source\PSoC4/BLE_HAL_PVT.c **** {
 562              		.loc 1 383 0
 563              		.cfi_startproc
 564 0000 08B5     		push	{r3, lr}
 565              		.cfi_def_cfa_offset 8
 566              		.cfi_offset 3, -8
 567              		.cfi_offset 14, -4
 384:.\Generated_Source\PSoC4/BLE_HAL_PVT.c ****     BLE_bless_isr_Enable();
 568              		.loc 1 384 0
 569 0002 FFF7FEFF 		bl	BLE_bless_isr_Enable
 570              	.LVL66:
 385:.\Generated_Source\PSoC4/BLE_HAL_PVT.c **** }
 571              		.loc 1 385 0
 572              		@ sp needed
 573 0006 08BD     		pop	{r3, pc}
 574              		.cfi_endproc
ARM GAS  C:\Users\Luci\AppData\Local\Temp\ccpNpK36.s 			page 18


 575              	.LFE11:
 576              		.size	CyBleHal_EnableGlobalInterrupts, .-CyBleHal_EnableGlobalInterrupts
 577              		.section	.text.CyBleHal_DisableGlobalInterrupts,"ax",%progbits
 578              		.align	2
 579              		.global	CyBleHal_DisableGlobalInterrupts
 580              		.code	16
 581              		.thumb_func
 582              		.type	CyBleHal_DisableGlobalInterrupts, %function
 583              	CyBleHal_DisableGlobalInterrupts:
 584              	.LFB12:
 386:.\Generated_Source\PSoC4/BLE_HAL_PVT.c **** 
 387:.\Generated_Source\PSoC4/BLE_HAL_PVT.c **** void CyBleHal_DisableGlobalInterrupts(void)
 388:.\Generated_Source\PSoC4/BLE_HAL_PVT.c **** {
 585              		.loc 1 388 0
 586              		.cfi_startproc
 587 0000 08B5     		push	{r3, lr}
 588              		.cfi_def_cfa_offset 8
 589              		.cfi_offset 3, -8
 590              		.cfi_offset 14, -4
 389:.\Generated_Source\PSoC4/BLE_HAL_PVT.c ****     BLE_bless_isr_Disable();
 591              		.loc 1 389 0
 592 0002 FFF7FEFF 		bl	BLE_bless_isr_Disable
 593              	.LVL67:
 390:.\Generated_Source\PSoC4/BLE_HAL_PVT.c **** }
 594              		.loc 1 390 0
 595              		@ sp needed
 596 0006 08BD     		pop	{r3, pc}
 597              		.cfi_endproc
 598              	.LFE12:
 599              		.size	CyBleHal_DisableGlobalInterrupts, .-CyBleHal_DisableGlobalInterrupts
 600              		.section	.text.CyBle_HalInit,"ax",%progbits
 601              		.align	2
 602              		.global	CyBle_HalInit
 603              		.code	16
 604              		.thumb_func
 605              		.type	CyBle_HalInit, %function
 606              	CyBle_HalInit:
 607              	.LFB13:
 391:.\Generated_Source\PSoC4/BLE_HAL_PVT.c **** 
 392:.\Generated_Source\PSoC4/BLE_HAL_PVT.c **** void CyBle_HalInit(void)
 393:.\Generated_Source\PSoC4/BLE_HAL_PVT.c **** {
 608              		.loc 1 393 0
 609              		.cfi_startproc
 610 0000 08B5     		push	{r3, lr}
 611              		.cfi_def_cfa_offset 8
 612              		.cfi_offset 3, -8
 613              		.cfi_offset 14, -4
 394:.\Generated_Source\PSoC4/BLE_HAL_PVT.c ****     /* For all we know the interrupt is active. */
 395:.\Generated_Source\PSoC4/BLE_HAL_PVT.c ****     BLE_bless_isr_Disable();
 614              		.loc 1 395 0
 615 0002 FFF7FEFF 		bl	BLE_bless_isr_Disable
 616              	.LVL68:
 396:.\Generated_Source\PSoC4/BLE_HAL_PVT.c **** 
 397:.\Generated_Source\PSoC4/BLE_HAL_PVT.c ****     /* Set the ISR to point to the BLE_bless_isr Interrupt. */
 398:.\Generated_Source\PSoC4/BLE_HAL_PVT.c ****     BLE_bless_isr_SetVector(&CyBLE_Bless_Interrupt);
 617              		.loc 1 398 0
 618 0006 0348     		ldr	r0, .L45
ARM GAS  C:\Users\Luci\AppData\Local\Temp\ccpNpK36.s 			page 19


 619 0008 FFF7FEFF 		bl	BLE_bless_isr_SetVector
 620              	.LVL69:
 399:.\Generated_Source\PSoC4/BLE_HAL_PVT.c **** 
 400:.\Generated_Source\PSoC4/BLE_HAL_PVT.c ****     /* Set the priority. */
 401:.\Generated_Source\PSoC4/BLE_HAL_PVT.c ****     BLE_bless_isr_SetPriority((uint8)BLE_bless_isr_INTC_PRIOR_NUMBER);
 621              		.loc 1 401 0
 622 000c 0320     		mov	r0, #3
 623 000e FFF7FEFF 		bl	BLE_bless_isr_SetPriority
 624              	.LVL70:
 402:.\Generated_Source\PSoC4/BLE_HAL_PVT.c **** }
 625              		.loc 1 402 0
 626              		@ sp needed
 627 0012 08BD     		pop	{r3, pc}
 628              	.L46:
 629              		.align	2
 630              	.L45:
 631 0014 00000000 		.word	CyBLE_Bless_Interrupt
 632              		.cfi_endproc
 633              	.LFE13:
 634              		.size	CyBle_HalInit, .-CyBle_HalInit
 635              		.section	.text.CYBLE_BlessStart,"ax",%progbits
 636              		.align	2
 637              		.global	CYBLE_BlessStart
 638              		.code	16
 639              		.thumb_func
 640              		.type	CYBLE_BlessStart, %function
 641              	CYBLE_BlessStart:
 642              	.LFB14:
 403:.\Generated_Source\PSoC4/BLE_HAL_PVT.c **** 
 404:.\Generated_Source\PSoC4/BLE_HAL_PVT.c **** /* Start Interrupt Controller API. */
 405:.\Generated_Source\PSoC4/BLE_HAL_PVT.c **** void CYBLE_BlessStart(void)
 406:.\Generated_Source\PSoC4/BLE_HAL_PVT.c **** {
 643              		.loc 1 406 0
 644              		.cfi_startproc
 645 0000 08B5     		push	{r3, lr}
 646              		.cfi_def_cfa_offset 8
 647              		.cfi_offset 3, -8
 648              		.cfi_offset 14, -4
 407:.\Generated_Source\PSoC4/BLE_HAL_PVT.c ****     BLE_bless_isr_StartEx(&CyBLE_Bless_Interrupt);
 649              		.loc 1 407 0
 650 0002 0248     		ldr	r0, .L48
 651 0004 FFF7FEFF 		bl	BLE_bless_isr_StartEx
 652              	.LVL71:
 408:.\Generated_Source\PSoC4/BLE_HAL_PVT.c **** }
 653              		.loc 1 408 0
 654              		@ sp needed
 655 0008 08BD     		pop	{r3, pc}
 656              	.L49:
 657 000a C046     		.align	2
 658              	.L48:
 659 000c 00000000 		.word	CyBLE_Bless_Interrupt
 660              		.cfi_endproc
 661              	.LFE14:
 662              		.size	CYBLE_BlessStart, .-CYBLE_BlessStart
 663              		.text
 664              	.Letext0:
 665              		.file 2 ".\\Generated_Source\\PSoC4\\cytypes.h"
ARM GAS  C:\Users\Luci\AppData\Local\Temp\ccpNpK36.s 			page 20


 666              		.file 3 ".\\Generated_Source\\PSoC4\\CyLib.h"
 667              		.file 4 ".\\Generated_Source\\PSoC4\\BLE_bless_isr.h"
 668              		.file 5 ".\\Generated_Source\\PSoC4\\CyFlash.h"