ARM GAS  C:\Users\Luci\AppData\Local\Temp\ccHp2dTN.s 			page 1


   1              		.cpu cortex-m0
   2              		.fpu softvfp
   3              		.eabi_attribute 20, 1
   4              		.eabi_attribute 21, 1
   5              		.eabi_attribute 23, 3
   6              		.eabi_attribute 24, 1
   7              		.eabi_attribute 25, 1
   8              		.eabi_attribute 26, 1
   9              		.eabi_attribute 30, 1
  10              		.eabi_attribute 34, 0
  11              		.eabi_attribute 18, 4
  12              		.code	16
  13              		.file	"CapSense_SMS.c"
  14              		.text
  15              	.Ltext0:
  16              		.cfi_sections	.debug_frame
  17              		.section	.text.CapSense_UpdateThresholds,"ax",%progbits
  18              		.align	2
  19              		.global	CapSense_UpdateThresholds
  20              		.code	16
  21              		.thumb_func
  22              		.type	CapSense_UpdateThresholds, %function
  23              	CapSense_UpdateThresholds:
  24              	.LFB36:
  25              		.file 1 ".\\Generated_Source\\PSoC4\\CapSense_SMS.c"
   1:.\Generated_Source\PSoC4/CapSense_SMS.c **** /*******************************************************************************
   2:.\Generated_Source\PSoC4/CapSense_SMS.c **** * File Name: CapSense_SMS.c
   3:.\Generated_Source\PSoC4/CapSense_SMS.c **** * Version 2.20
   4:.\Generated_Source\PSoC4/CapSense_SMS.c **** *
   5:.\Generated_Source\PSoC4/CapSense_SMS.c **** * Description:
   6:.\Generated_Source\PSoC4/CapSense_SMS.c **** *  This file provides the source code of wrapper between CapSense CSD component 
   7:.\Generated_Source\PSoC4/CapSense_SMS.c **** *  and Auto Tuning library.
   8:.\Generated_Source\PSoC4/CapSense_SMS.c **** *
   9:.\Generated_Source\PSoC4/CapSense_SMS.c **** * Note:
  10:.\Generated_Source\PSoC4/CapSense_SMS.c **** *
  11:.\Generated_Source\PSoC4/CapSense_SMS.c **** ********************************************************************************
  12:.\Generated_Source\PSoC4/CapSense_SMS.c **** * Copyright 2014, Cypress Semiconductor Corporation.  All rights reserved.
  13:.\Generated_Source\PSoC4/CapSense_SMS.c **** * You may use this file only in accordance with the license, terms, conditions,
  14:.\Generated_Source\PSoC4/CapSense_SMS.c **** * disclaimers, and limitations in the end user license agreement accompanying
  15:.\Generated_Source\PSoC4/CapSense_SMS.c **** * the software package with which this file was provided.
  16:.\Generated_Source\PSoC4/CapSense_SMS.c **** *******************************************************************************/
  17:.\Generated_Source\PSoC4/CapSense_SMS.c **** 
  18:.\Generated_Source\PSoC4/CapSense_SMS.c **** #include "CapSense_SMS.h"
  19:.\Generated_Source\PSoC4/CapSense_SMS.c **** #include "CapSense_PVT.h"
  20:.\Generated_Source\PSoC4/CapSense_SMS.c **** 
  21:.\Generated_Source\PSoC4/CapSense_SMS.c **** #include "cytypes.h"
  22:.\Generated_Source\PSoC4/CapSense_SMS.c **** 
  23:.\Generated_Source\PSoC4/CapSense_SMS.c **** #if (CapSense_TUNING_METHOD == CapSense__TUNING_AUTO)
  24:.\Generated_Source\PSoC4/CapSense_SMS.c **** 
  25:.\Generated_Source\PSoC4/CapSense_SMS.c **** 
  26:.\Generated_Source\PSoC4/CapSense_SMS.c **** /*  Real Charge Divider values */
  27:.\Generated_Source\PSoC4/CapSense_SMS.c **** #if (CY_PSOC4_4100BL || CY_PSOC4_4200BL || CY_PSOC4_4100M || CY_PSOC4_4200M)
  28:.\Generated_Source\PSoC4/CapSense_SMS.c ****     /*  Dividers are not chained */
  29:.\Generated_Source\PSoC4/CapSense_SMS.c **** 	#if (CYDEV_BCLK__HFCLK__MHZ > 24u)
  30:.\Generated_Source\PSoC4/CapSense_SMS.c **** 		const uint8 prescalerTable[CapSense_PRESCALERS_TBL_SIZE] = {
  31:.\Generated_Source\PSoC4/CapSense_SMS.c **** 			4u,     4u,     4u,    8u,    8u,    8u,    8u,    16u,    16u,    16u,    16u,    16u,    16u, 
  32:.\Generated_Source\PSoC4/CapSense_SMS.c **** 		};
ARM GAS  C:\Users\Luci\AppData\Local\Temp\ccHp2dTN.s 			page 2


  33:.\Generated_Source\PSoC4/CapSense_SMS.c **** 	#elif (CYDEV_BCLK__HFCLK__MHZ >12u)
  34:.\Generated_Source\PSoC4/CapSense_SMS.c **** 		const uint8 prescalerTable[CapSense_PRESCALERS_TBL_SIZE] = {
  35:.\Generated_Source\PSoC4/CapSense_SMS.c **** 			2u,     2u,     2u,    4u,    4u,    4u,    4u,    8u,    8u,    8u,    8u,    8u,    8u,    8u,
  36:.\Generated_Source\PSoC4/CapSense_SMS.c **** 		};
  37:.\Generated_Source\PSoC4/CapSense_SMS.c **** 	#else   /* (CYDEV_BCLK__HFCLK__MHZ > 12u) */
  38:.\Generated_Source\PSoC4/CapSense_SMS.c **** 		const uint8 prescalerTable[CapSense_PRESCALERS_TBL_SIZE] = {
  39:.\Generated_Source\PSoC4/CapSense_SMS.c **** 			1u,     1u,     1u,    2u,    2u,    2u,    2u,    4u,    4u,    4u,    4u,    4u,    4u,    4u,
  40:.\Generated_Source\PSoC4/CapSense_SMS.c **** 		};
  41:.\Generated_Source\PSoC4/CapSense_SMS.c **** 	#endif /* (CYDEV_BCLK__HFCLK__MHZ > 24u) */
  42:.\Generated_Source\PSoC4/CapSense_SMS.c **** 	
  43:.\Generated_Source\PSoC4/CapSense_SMS.c **** #elif (0u != CapSense_IS_M0S8PERI_BLOCK)
  44:.\Generated_Source\PSoC4/CapSense_SMS.c ****     /*  Dividers are not chained (PSoC 4000) */
  45:.\Generated_Source\PSoC4/CapSense_SMS.c **** 	#if (CYDEV_BCLK__HFCLK__MHZ >= 12u)
  46:.\Generated_Source\PSoC4/CapSense_SMS.c **** 		const uint8 prescalerTable[CapSense_PRESCALERS_TBL_SIZE] = {
  47:.\Generated_Source\PSoC4/CapSense_SMS.c **** 			1u,     1u,     1u,    2u,    2u,    2u,    2u,    4u,    4u,    4u,    4u,    4u,    4u,    4u,
  48:.\Generated_Source\PSoC4/CapSense_SMS.c **** 		};
  49:.\Generated_Source\PSoC4/CapSense_SMS.c **** 
  50:.\Generated_Source\PSoC4/CapSense_SMS.c **** 	#elif (CYDEV_BCLK__HFCLK__MHZ >= 6u)
  51:.\Generated_Source\PSoC4/CapSense_SMS.c **** 		const uint8 prescalerTable[CapSense_PRESCALERS_TBL_SIZE] = {
  52:.\Generated_Source\PSoC4/CapSense_SMS.c **** 			1u,     1u,     1u,    1u,    1u,    1u,    1u,    2u,    2u,    2u,    2u,    2u,    2u,    2u,
  53:.\Generated_Source\PSoC4/CapSense_SMS.c **** 		};
  54:.\Generated_Source\PSoC4/CapSense_SMS.c **** 	#else
  55:.\Generated_Source\PSoC4/CapSense_SMS.c **** 		const uint8 prescalerTable[CapSense_PRESCALERS_TBL_SIZE] = {
  56:.\Generated_Source\PSoC4/CapSense_SMS.c **** 			1u,     1u,     1u,    1u,    1u,    1u,    1u,    1u,    1u,    1u,    1u,    1u,    1u,    1u,
  57:.\Generated_Source\PSoC4/CapSense_SMS.c **** 		};
  58:.\Generated_Source\PSoC4/CapSense_SMS.c **** 	#endif /* (CYDEV_BCLK__HFCLK__MHZ > 12u) */
  59:.\Generated_Source\PSoC4/CapSense_SMS.c **** 
  60:.\Generated_Source\PSoC4/CapSense_SMS.c **** #else
  61:.\Generated_Source\PSoC4/CapSense_SMS.c ****     /*  Dividers are chained (PSoC 4100, PSoC 4200) */ 
  62:.\Generated_Source\PSoC4/CapSense_SMS.c **** 	#if (CYDEV_BCLK__HFCLK__MHZ > 24u)
  63:.\Generated_Source\PSoC4/CapSense_SMS.c **** 		const uint8 prescalerTable[CapSense_PRESCALERS_TBL_SIZE] = {
  64:.\Generated_Source\PSoC4/CapSense_SMS.c **** 			2u,     2u,     2u,    4u,    4u,    4u,    4u,    8u,    8u,    8u,    8u,    8u,    8u,    8u,
  65:.\Generated_Source\PSoC4/CapSense_SMS.c **** 		};
  66:.\Generated_Source\PSoC4/CapSense_SMS.c **** 
  67:.\Generated_Source\PSoC4/CapSense_SMS.c **** 	#elif (CYDEV_BCLK__HFCLK__MHZ >12u)
  68:.\Generated_Source\PSoC4/CapSense_SMS.c **** 		const uint8 prescalerTable[CapSense_PRESCALERS_TBL_SIZE] = {
  69:.\Generated_Source\PSoC4/CapSense_SMS.c **** 			1u,     1u,     1u,    2u,    2u,    2u,    2u,    4u,    4u,    4u,    4u,    4u,    4u,    4u,
  70:.\Generated_Source\PSoC4/CapSense_SMS.c **** 		};
  71:.\Generated_Source\PSoC4/CapSense_SMS.c **** 	#else   /* (CYDEV_BCLK__HFCLK__MHZ > 12u) */
  72:.\Generated_Source\PSoC4/CapSense_SMS.c **** 		const uint8 prescalerTable[CapSense_PRESCALERS_TBL_SIZE] = {
  73:.\Generated_Source\PSoC4/CapSense_SMS.c **** 			1u,     1u,     1u,    1u,    1u,    1u,    1u,    2u,    2u,    2u,    2u,    2u,    2u,    2u,
  74:.\Generated_Source\PSoC4/CapSense_SMS.c **** 		};
  75:.\Generated_Source\PSoC4/CapSense_SMS.c **** 	#endif /* (CYDEV_BCLK__HFCLK__MHZ > 24u) */
  76:.\Generated_Source\PSoC4/CapSense_SMS.c **** #endif /* (CY_PSOC4_4100BL || CY_PSOC4_4200BL || CY_PSOC4_4100M || CY_PSOC4_4200M) */
  77:.\Generated_Source\PSoC4/CapSense_SMS.c **** 
  78:.\Generated_Source\PSoC4/CapSense_SMS.c **** 
  79:.\Generated_Source\PSoC4/CapSense_SMS.c **** uint8 noiseEnvelopeTbl[CapSense_TOTAL_SENSOR_COUNT];
  80:.\Generated_Source\PSoC4/CapSense_SMS.c **** uint8 runningDifferenceTbl[CapSense_TOTAL_SENSOR_COUNT];
  81:.\Generated_Source\PSoC4/CapSense_SMS.c **** uint8 signRegisterTbl[CapSense_TOTAL_SENSOR_COUNT];
  82:.\Generated_Source\PSoC4/CapSense_SMS.c **** uint16 sampleMinTbl[CapSense_TOTAL_SENSOR_COUNT];
  83:.\Generated_Source\PSoC4/CapSense_SMS.c **** uint16 sampleMaxTbl[CapSense_TOTAL_SENSOR_COUNT];
  84:.\Generated_Source\PSoC4/CapSense_SMS.c **** uint16 previousSampleTbl[CapSense_TOTAL_SENSOR_COUNT];
  85:.\Generated_Source\PSoC4/CapSense_SMS.c **** uint8 kValueTbl[CapSense_TOTAL_SENSOR_COUNT];
  86:.\Generated_Source\PSoC4/CapSense_SMS.c **** 
  87:.\Generated_Source\PSoC4/CapSense_SMS.c **** uint8 SMS_LIB_SensorSensitivity[] = {
  88:.\Generated_Source\PSoC4/CapSense_SMS.c ****     2u, 2u, 
  89:.\Generated_Source\PSoC4/CapSense_SMS.c **** };
ARM GAS  C:\Users\Luci\AppData\Local\Temp\ccHp2dTN.s 			page 3


  90:.\Generated_Source\PSoC4/CapSense_SMS.c **** 
  91:.\Generated_Source\PSoC4/CapSense_SMS.c **** CapSense_CONFIG_TYPE_P4_v2_20 CapSense_config;
  92:.\Generated_Source\PSoC4/CapSense_SMS.c **** CapSense_CONFIG_TYPE_POINTERS_P4_v2_20 const CapSense_configPointers = {
  93:.\Generated_Source\PSoC4/CapSense_SMS.c ****     CapSense_modulationIDAC,
  94:.\Generated_Source\PSoC4/CapSense_SMS.c ****     CapSense_compensationIDAC,
  95:.\Generated_Source\PSoC4/CapSense_SMS.c ****      SMS_LIB_SensorSensitivity,
  96:.\Generated_Source\PSoC4/CapSense_SMS.c ****     CapSense_senseClkDividerVal,
  97:.\Generated_Source\PSoC4/CapSense_SMS.c ****     CapSense_sampleClkDividerVal,
  98:.\Generated_Source\PSoC4/CapSense_SMS.c ****     CapSense_widgetNumber,
  99:.\Generated_Source\PSoC4/CapSense_SMS.c ****     CapSense_widgetResolution,
 100:.\Generated_Source\PSoC4/CapSense_SMS.c **** 	(const uint8  *)CapSense_rawDataIndex,
 101:.\Generated_Source\PSoC4/CapSense_SMS.c **** 	(const uint8  *)CapSense_numberOfSensors,
 102:.\Generated_Source\PSoC4/CapSense_SMS.c ****     &CapSense_GetSensorRaw,
 103:.\Generated_Source\PSoC4/CapSense_SMS.c ****     &CapSense_PreScan,
 104:.\Generated_Source\PSoC4/CapSense_SMS.c ****     &CapSense_ReadSensorRaw,
 105:.\Generated_Source\PSoC4/CapSense_SMS.c ****     &CapSense_GetBitValue,
 106:.\Generated_Source\PSoC4/CapSense_SMS.c **** 	&CapSense_SetBitValue
 107:.\Generated_Source\PSoC4/CapSense_SMS.c **** };
 108:.\Generated_Source\PSoC4/CapSense_SMS.c **** 
 109:.\Generated_Source\PSoC4/CapSense_SMS.c **** 
 110:.\Generated_Source\PSoC4/CapSense_SMS.c **** /*******************************************************************************
 111:.\Generated_Source\PSoC4/CapSense_SMS.c **** * Function Name: CapSense_AutoTune
 112:.\Generated_Source\PSoC4/CapSense_SMS.c **** ********************************************************************************
 113:.\Generated_Source\PSoC4/CapSense_SMS.c **** *
 114:.\Generated_Source\PSoC4/CapSense_SMS.c **** * Summary:
 115:.\Generated_Source\PSoC4/CapSense_SMS.c **** *  Provides the tuning procedure for all sensors.
 116:.\Generated_Source\PSoC4/CapSense_SMS.c **** *
 117:.\Generated_Source\PSoC4/CapSense_SMS.c **** * Parameters:
 118:.\Generated_Source\PSoC4/CapSense_SMS.c **** *  None
 119:.\Generated_Source\PSoC4/CapSense_SMS.c **** *
 120:.\Generated_Source\PSoC4/CapSense_SMS.c **** * Return:
 121:.\Generated_Source\PSoC4/CapSense_SMS.c **** *  None
 122:.\Generated_Source\PSoC4/CapSense_SMS.c **** *
 123:.\Generated_Source\PSoC4/CapSense_SMS.c **** * Global Variables:
 124:.\Generated_Source\PSoC4/CapSense_SMS.c **** *   CapSense_config: the structure which contains configuration parameters
 125:.\Generated_Source\PSoC4/CapSense_SMS.c **** *   CapSense_senseClkDividerVal[]: used to store the Analog Switch 
 126:.\Generated_Source\PSoC4/CapSense_SMS.c **** *   dividers for each sensor.
 127:.\Generated_Source\PSoC4/CapSense_SMS.c **** *   CapSense_senseClkDividerVal[]: used to store the 
 128:.\Generated_Source\PSoC4/CapSense_SMS.c **** *    Analog Switch divider for all sensors.
 129:.\Generated_Source\PSoC4/CapSense_SMS.c **** *   CapSense_prescalersTuningDone - used to notify the Tuner GUI that 
 130:.\Generated_Source\PSoC4/CapSense_SMS.c **** *   the pre-scalers tuning  is done.
 131:.\Generated_Source\PSoC4/CapSense_SMS.c **** *
 132:.\Generated_Source\PSoC4/CapSense_SMS.c **** * Side Effects:
 133:.\Generated_Source\PSoC4/CapSense_SMS.c **** *  None
 134:.\Generated_Source\PSoC4/CapSense_SMS.c **** *
 135:.\Generated_Source\PSoC4/CapSense_SMS.c **** *******************************************************************************/
 136:.\Generated_Source\PSoC4/CapSense_SMS.c **** void CapSense_AutoTune(void)
 137:.\Generated_Source\PSoC4/CapSense_SMS.c **** {
 138:.\Generated_Source\PSoC4/CapSense_SMS.c **** 	uint32 curSensor;
 139:.\Generated_Source\PSoC4/CapSense_SMS.c ****     uint32 widget;
 140:.\Generated_Source\PSoC4/CapSense_SMS.c **** 
 141:.\Generated_Source\PSoC4/CapSense_SMS.c **** 	CapSense_config.totalScanslotsNum = CapSense_TOTAL_SCANSLOT_COUNT;
 142:.\Generated_Source\PSoC4/CapSense_SMS.c **** 	CapSense_config.totalWidgetsNum = CapSense_END_OF_WIDGETS_INDEX;
 143:.\Generated_Source\PSoC4/CapSense_SMS.c **** 	CapSense_config.totalSensorsNum = CapSense_TOTAL_SENSOR_COUNT;
 144:.\Generated_Source\PSoC4/CapSense_SMS.c **** 	
 145:.\Generated_Source\PSoC4/CapSense_SMS.c **** 	CapSense_config.hfclkFreq_MHz = CYDEV_BCLK__HFCLK__MHZ;
 146:.\Generated_Source\PSoC4/CapSense_SMS.c **** 	CapSense_config.sensetivitySeed = CapSense_SENSETIVITY_FACTOR;
ARM GAS  C:\Users\Luci\AppData\Local\Temp\ccHp2dTN.s 			page 4


 147:.\Generated_Source\PSoC4/CapSense_SMS.c **** 	
 148:.\Generated_Source\PSoC4/CapSense_SMS.c ****     CapSense_config.pointers = &CapSense_configPointers;       
 149:.\Generated_Source\PSoC4/CapSense_SMS.c ****     
 150:.\Generated_Source\PSoC4/CapSense_SMS.c **** 	CapSense_SetAnalogSwitchesSrcDirect();
 151:.\Generated_Source\PSoC4/CapSense_SMS.c ****     
 152:.\Generated_Source\PSoC4/CapSense_SMS.c ****     for(widget = 0u; widget < CapSense_config.totalWidgetsNum; widget++)
 153:.\Generated_Source\PSoC4/CapSense_SMS.c ****     {
 154:.\Generated_Source\PSoC4/CapSense_SMS.c ****         CapSense_widgetResolution[widget] = CapSense_CALIBRATION_RESOLUTION;
 155:.\Generated_Source\PSoC4/CapSense_SMS.c ****     }
 156:.\Generated_Source\PSoC4/CapSense_SMS.c **** 	
 157:.\Generated_Source\PSoC4/CapSense_SMS.c **** 
 158:.\Generated_Source\PSoC4/CapSense_SMS.c **** 	for(curSensor = 0u; curSensor < CapSense_TOTAL_SCANSLOT_COUNT; curSensor++)
 159:.\Generated_Source\PSoC4/CapSense_SMS.c ****     {
 160:.\Generated_Source\PSoC4/CapSense_SMS.c **** 		CapSense_senseClkDividerVal[curSensor] = CapSense_CALIBRATION_ASD;
 161:.\Generated_Source\PSoC4/CapSense_SMS.c **** 		CapSense_sampleClkDividerVal[curSensor] = CapSense_CALIBRATION_MD;
 162:.\Generated_Source\PSoC4/CapSense_SMS.c **** 	}
 163:.\Generated_Source\PSoC4/CapSense_SMS.c ****     
 164:.\Generated_Source\PSoC4/CapSense_SMS.c ****     CapSense_DisableBaselineIDAC();
 165:.\Generated_Source\PSoC4/CapSense_SMS.c **** 
 166:.\Generated_Source\PSoC4/CapSense_SMS.c ****     CalibrateSensors_P4_v2_20(&CapSense_config, CapSense_CAL_RAW_COUNT);
 167:.\Generated_Source\PSoC4/CapSense_SMS.c **** 
 168:.\Generated_Source\PSoC4/CapSense_SMS.c **** 	#if(0u != CapSense_TOTAL_CENTROIDS_COUNT) 
 169:.\Generated_Source\PSoC4/CapSense_SMS.c **** 		CapSense_NormalizeWidgets(CapSense_END_OF_WIDGETS_INDEX, CapSense_modulationIDAC);
 170:.\Generated_Source\PSoC4/CapSense_SMS.c **** 	#endif /* (0u != CapSense_TOTAL_CENTROIDS_COUNT)  */
 171:.\Generated_Source\PSoC4/CapSense_SMS.c **** 	
 172:.\Generated_Source\PSoC4/CapSense_SMS.c ****     TunePrescalers_P4_v2_20(&CapSense_config);
 173:.\Generated_Source\PSoC4/CapSense_SMS.c **** 	
 174:.\Generated_Source\PSoC4/CapSense_SMS.c **** 	#if(CapSense_PRS_OPTIONS != CapSense__PRS_NONE)
 175:.\Generated_Source\PSoC4/CapSense_SMS.c **** 		CapSense_prescalersTuningDone = 1u;
 176:.\Generated_Source\PSoC4/CapSense_SMS.c **** 	#endif /* (CapSense_PRS_OPTIONS == CapSense__PRS_NONE) */
 177:.\Generated_Source\PSoC4/CapSense_SMS.c ****        
 178:.\Generated_Source\PSoC4/CapSense_SMS.c ****     CalibrateSensors_P4_v2_20(&CapSense_config, CapSense_CAL_RAW_COUNT);
 179:.\Generated_Source\PSoC4/CapSense_SMS.c **** 	#if(0u != CapSense_TOTAL_CENTROIDS_COUNT)
 180:.\Generated_Source\PSoC4/CapSense_SMS.c **** 		CapSense_NormalizeWidgets(CapSense_END_OF_WIDGETS_INDEX, CapSense_modulationIDAC);
 181:.\Generated_Source\PSoC4/CapSense_SMS.c **** 	#endif /* (0u != CapSense_TOTAL_CENTROIDS_COUNT)  */
 182:.\Generated_Source\PSoC4/CapSense_SMS.c ****     TuneSensitivity_P4_v2_20(&CapSense_config);
 183:.\Generated_Source\PSoC4/CapSense_SMS.c **** 	
 184:.\Generated_Source\PSoC4/CapSense_SMS.c **** 	CapSense_EnableBaselineIDAC(&CapSense_config);
 185:.\Generated_Source\PSoC4/CapSense_SMS.c ****     
 186:.\Generated_Source\PSoC4/CapSense_SMS.c ****     for(curSensor = 0u; curSensor < CapSense_TOTAL_SCANSLOT_COUNT; curSensor++)
 187:.\Generated_Source\PSoC4/CapSense_SMS.c ****     {
 188:.\Generated_Source\PSoC4/CapSense_SMS.c ****         CapSense_UpdateThresholds(curSensor);
 189:.\Generated_Source\PSoC4/CapSense_SMS.c ****     }
 190:.\Generated_Source\PSoC4/CapSense_SMS.c **** }
 191:.\Generated_Source\PSoC4/CapSense_SMS.c **** 
 192:.\Generated_Source\PSoC4/CapSense_SMS.c **** 
 193:.\Generated_Source\PSoC4/CapSense_SMS.c **** /*******************************************************************************
 194:.\Generated_Source\PSoC4/CapSense_SMS.c **** * Function Name: CapSense_UpdateThresholds
 195:.\Generated_Source\PSoC4/CapSense_SMS.c **** ********************************************************************************
 196:.\Generated_Source\PSoC4/CapSense_SMS.c **** *
 197:.\Generated_Source\PSoC4/CapSense_SMS.c **** * Summary:
 198:.\Generated_Source\PSoC4/CapSense_SMS.c **** *  The API updates the Finger Threshold, Hysteresis, Noise Threshold, and 
 199:.\Generated_Source\PSoC4/CapSense_SMS.c **** *  Negative Noise Threshold in the AutoTuning (Smartsense) Mode.
 200:.\Generated_Source\PSoC4/CapSense_SMS.c **** *
 201:.\Generated_Source\PSoC4/CapSense_SMS.c **** * Parameters:
 202:.\Generated_Source\PSoC4/CapSense_SMS.c **** *  sensor: sensor number.
 203:.\Generated_Source\PSoC4/CapSense_SMS.c **** *
ARM GAS  C:\Users\Luci\AppData\Local\Temp\ccHp2dTN.s 			page 5


 204:.\Generated_Source\PSoC4/CapSense_SMS.c **** * Return:
 205:.\Generated_Source\PSoC4/CapSense_SMS.c **** *  None
 206:.\Generated_Source\PSoC4/CapSense_SMS.c **** *
 207:.\Generated_Source\PSoC4/CapSense_SMS.c **** * Global Variables:
 208:.\Generated_Source\PSoC4/CapSense_SMS.c **** *  CapSense_widgetNumber[] - contains widget Number for given sensor.
 209:.\Generated_Source\PSoC4/CapSense_SMS.c **** *  0 through 7 (sensor 0 is bit 0, sensor 1 is bit 1).
 210:.\Generated_Source\PSoC4/CapSense_SMS.c **** *  For other sensors the array element equals to 255. 
 211:.\Generated_Source\PSoC4/CapSense_SMS.c **** *  CapSense_numberOfSensors[widget] - Number of sensors in the widget.
 212:.\Generated_Source\PSoC4/CapSense_SMS.c **** *   CapSense_fingerThreshold[] - contains the level of signal for each sensor
 213:.\Generated_Source\PSoC4/CapSense_SMS.c **** *   that determines if a finger present on the sensor.
 214:.\Generated_Source\PSoC4/CapSense_SMS.c **** *   CapSense_negativeNoiseThreshold[] - negative Noise Threshold
 215:.\Generated_Source\PSoC4/CapSense_SMS.c **** *   CapSense_hysteresis[] - the array with hysteresis values.
 216:.\Generated_Source\PSoC4/CapSense_SMS.c **** *
 217:.\Generated_Source\PSoC4/CapSense_SMS.c **** * Side Effects:
 218:.\Generated_Source\PSoC4/CapSense_SMS.c **** *  None
 219:.\Generated_Source\PSoC4/CapSense_SMS.c **** *
 220:.\Generated_Source\PSoC4/CapSense_SMS.c **** *******************************************************************************/
 221:.\Generated_Source\PSoC4/CapSense_SMS.c **** void CapSense_UpdateThresholds(uint32 sensor)
 222:.\Generated_Source\PSoC4/CapSense_SMS.c **** {
  26              		.loc 1 222 0
  27              		.cfi_startproc
  28              	.LVL0:
  29 0000 70B5     		push	{r4, r5, r6, lr}
  30              		.cfi_def_cfa_offset 16
  31              		.cfi_offset 4, -16
  32              		.cfi_offset 5, -12
  33              		.cfi_offset 6, -8
  34              		.cfi_offset 14, -4
  35 0002 82B0     		sub	sp, sp, #8
  36              		.cfi_def_cfa_offset 24
 223:.\Generated_Source\PSoC4/CapSense_SMS.c **** 	uint8 fingerThreshold;
 224:.\Generated_Source\PSoC4/CapSense_SMS.c **** 	uint32 widget;
 225:.\Generated_Source\PSoC4/CapSense_SMS.c **** 	
 226:.\Generated_Source\PSoC4/CapSense_SMS.c **** 	widget = CapSense_widgetNumber[sensor];
  37              		.loc 1 226 0
  38 0004 164B     		ldr	r3, .L7
  39 0006 1C5C     		ldrb	r4, [r3, r0]
  40              	.LVL1:
 227:.\Generated_Source\PSoC4/CapSense_SMS.c **** 
 228:.\Generated_Source\PSoC4/CapSense_SMS.c **** 	#if(0u != CapSense_FLEXIBLE_THRESHOLDS_EN)
 229:.\Generated_Source\PSoC4/CapSense_SMS.c **** 	    fingerThreshold = CapSense_fingerThreshold[widget];
 230:.\Generated_Source\PSoC4/CapSense_SMS.c ****         /* Update Threshold manually (flexible) */   
 231:.\Generated_Source\PSoC4/CapSense_SMS.c **** 		CapSense_noiseThreshold[widget] = (uint8)(fingerThreshold >> 1u);
 232:.\Generated_Source\PSoC4/CapSense_SMS.c **** 		CapSense_negativeNoiseThreshold[widget] = (uint8)(fingerThreshold >> 1u);
 233:.\Generated_Source\PSoC4/CapSense_SMS.c **** 		CapSense_hysteresis[widget] = (uint8)(fingerThreshold >> 3u);
 234:.\Generated_Source\PSoC4/CapSense_SMS.c **** 	#else
 235:.\Generated_Source\PSoC4/CapSense_SMS.c **** 		/* Calculate Finger Threshold and Noise Threshold with Smartsense (automatic) */ 	
 236:.\Generated_Source\PSoC4/CapSense_SMS.c **** 		CalculateThresholds_P4_v2_20(&CapSense_config, (uint8)sensor, CapSense_sensorRaw, (uint8)widget, 
  41              		.loc 1 236 0
  42 0008 C1B2     		uxtb	r1, r0
  43 000a 164E     		ldr	r6, .L7+4
  44 000c 0096     		str	r6, [sp]
  45 000e 164D     		ldr	r5, .L7+8
  46 0010 0195     		str	r5, [sp, #4]
  47 0012 1648     		ldr	r0, .L7+12
  48              	.LVL2:
  49 0014 164A     		ldr	r2, .L7+16
ARM GAS  C:\Users\Luci\AppData\Local\Temp\ccHp2dTN.s 			page 6


  50 0016 231C     		mov	r3, r4
  51 0018 FFF7FEFF 		bl	CalculateThresholds_P4_v2_20
  52              	.LVL3:
 237:.\Generated_Source\PSoC4/CapSense_SMS.c **** 		
 238:.\Generated_Source\PSoC4/CapSense_SMS.c **** 	    fingerThreshold = CapSense_fingerThreshold[widget];
  53              		.loc 1 238 0
  54 001c 335D     		ldrb	r3, [r6, r4]
  55              	.LVL4:
 239:.\Generated_Source\PSoC4/CapSense_SMS.c **** 		
 240:.\Generated_Source\PSoC4/CapSense_SMS.c **** 	    /* Update Threshold based on calculated with Smartsense (automatic) */
 241:.\Generated_Source\PSoC4/CapSense_SMS.c **** 		CapSense_negativeNoiseThreshold[widget] = CapSense_noiseThreshold[widget];
  56              		.loc 1 241 0
  57 001e 295D     		ldrb	r1, [r5, r4]
  58 0020 144A     		ldr	r2, .L7+20
  59 0022 1155     		strb	r1, [r2, r4]
 242:.\Generated_Source\PSoC4/CapSense_SMS.c ****         
 243:.\Generated_Source\PSoC4/CapSense_SMS.c **** 		if(fingerThreshold < CapSense_THRESHOLD_1)
  60              		.loc 1 243 0
  61 0024 DB2B     		cmp	r3, #219
  62 0026 03D8     		bhi	.L2
 244:.\Generated_Source\PSoC4/CapSense_SMS.c **** 		{
 245:.\Generated_Source\PSoC4/CapSense_SMS.c **** 			CapSense_hysteresis[widget] = (uint8)(fingerThreshold >> 3u);
  63              		.loc 1 245 0
  64 0028 DB08     		lsr	r3, r3, #3
  65              	.LVL5:
  66 002a 134A     		ldr	r2, .L7+24
  67 002c 1355     		strb	r3, [r2, r4]
  68 002e 14E0     		b	.L1
  69              	.LVL6:
  70              	.L2:
 246:.\Generated_Source\PSoC4/CapSense_SMS.c **** 		}
 247:.\Generated_Source\PSoC4/CapSense_SMS.c **** 		else if(fingerThreshold <  CapSense_THRESHOLD_2)
  71              		.loc 1 247 0
  72 0030 EC2B     		cmp	r3, #236
  73 0032 03D8     		bhi	.L4
 248:.\Generated_Source\PSoC4/CapSense_SMS.c **** 		{
 249:.\Generated_Source\PSoC4/CapSense_SMS.c **** 			CapSense_hysteresis[widget] = (uint8)(fingerThreshold >> 4u);
  74              		.loc 1 249 0
  75 0034 1B09     		lsr	r3, r3, #4
  76              	.LVL7:
  77 0036 104A     		ldr	r2, .L7+24
  78 0038 1355     		strb	r3, [r2, r4]
  79 003a 0EE0     		b	.L1
  80              	.LVL8:
  81              	.L4:
 250:.\Generated_Source\PSoC4/CapSense_SMS.c **** 		}
 251:.\Generated_Source\PSoC4/CapSense_SMS.c **** 		else if(fingerThreshold <  CapSense_THRESHOLD_3)
  82              		.loc 1 251 0
  83 003c F42B     		cmp	r3, #244
  84 003e 03D8     		bhi	.L5
 252:.\Generated_Source\PSoC4/CapSense_SMS.c **** 		{
 253:.\Generated_Source\PSoC4/CapSense_SMS.c **** 			CapSense_hysteresis[widget] = (uint8)(fingerThreshold >> 5u);
  85              		.loc 1 253 0
  86 0040 5B09     		lsr	r3, r3, #5
  87              	.LVL9:
  88 0042 0D4A     		ldr	r2, .L7+24
  89 0044 1355     		strb	r3, [r2, r4]
ARM GAS  C:\Users\Luci\AppData\Local\Temp\ccHp2dTN.s 			page 7


  90 0046 08E0     		b	.L1
  91              	.LVL10:
  92              	.L5:
 254:.\Generated_Source\PSoC4/CapSense_SMS.c **** 		}
 255:.\Generated_Source\PSoC4/CapSense_SMS.c **** 		else if(fingerThreshold <  CapSense_THRESHOLD_4)
  93              		.loc 1 255 0
  94 0048 F92B     		cmp	r3, #249
  95 004a 03D8     		bhi	.L6
 256:.\Generated_Source\PSoC4/CapSense_SMS.c **** 		{
 257:.\Generated_Source\PSoC4/CapSense_SMS.c **** 			CapSense_hysteresis[widget] = (uint8)(fingerThreshold >> 6u);
  96              		.loc 1 257 0
  97 004c 9B09     		lsr	r3, r3, #6
  98              	.LVL11:
  99 004e 0A4A     		ldr	r2, .L7+24
 100 0050 1355     		strb	r3, [r2, r4]
 101 0052 02E0     		b	.L1
 102              	.LVL12:
 103              	.L6:
 258:.\Generated_Source\PSoC4/CapSense_SMS.c **** 		}
 259:.\Generated_Source\PSoC4/CapSense_SMS.c **** 		else
 260:.\Generated_Source\PSoC4/CapSense_SMS.c **** 		{
 261:.\Generated_Source\PSoC4/CapSense_SMS.c **** 			CapSense_hysteresis[widget] = 0u;
 104              		.loc 1 261 0
 105 0054 0022     		mov	r2, #0
 106 0056 084B     		ldr	r3, .L7+24
 107              	.LVL13:
 108 0058 1A55     		strb	r2, [r3, r4]
 109              	.L1:
 262:.\Generated_Source\PSoC4/CapSense_SMS.c **** 		}
 263:.\Generated_Source\PSoC4/CapSense_SMS.c **** 	#endif /* (0u != CapSense_FLEXIBLE_THRESHOLDS_EN)  */
 264:.\Generated_Source\PSoC4/CapSense_SMS.c **** }
 110              		.loc 1 264 0
 111 005a 02B0     		add	sp, sp, #8
 112              		@ sp needed
 113              	.LVL14:
 114              	.LVL15:
 115 005c 70BD     		pop	{r4, r5, r6, pc}
 116              	.L8:
 117 005e C046     		.align	2
 118              	.L7:
 119 0060 00000000 		.word	CapSense_widgetNumber
 120 0064 00000000 		.word	CapSense_fingerThreshold
 121 0068 00000000 		.word	CapSense_noiseThreshold
 122 006c 00000000 		.word	CapSense_config
 123 0070 00000000 		.word	CapSense_sensorRaw
 124 0074 00000000 		.word	CapSense_negativeNoiseThreshold
 125 0078 00000000 		.word	CapSense_hysteresis
 126              		.cfi_endproc
 127              	.LFE36:
 128              		.size	CapSense_UpdateThresholds, .-CapSense_UpdateThresholds
 129              		.section	.text.CapSense_SetAnalogSwitchesSrcDirect,"ax",%progbits
 130              		.align	2
 131              		.global	CapSense_SetAnalogSwitchesSrcDirect
 132              		.code	16
 133              		.thumb_func
 134              		.type	CapSense_SetAnalogSwitchesSrcDirect, %function
 135              	CapSense_SetAnalogSwitchesSrcDirect:
ARM GAS  C:\Users\Luci\AppData\Local\Temp\ccHp2dTN.s 			page 8


 136              	.LFB37:
 265:.\Generated_Source\PSoC4/CapSense_SMS.c **** 
 266:.\Generated_Source\PSoC4/CapSense_SMS.c **** /*******************************************************************************
 267:.\Generated_Source\PSoC4/CapSense_SMS.c **** * Function Name: CapSense_SetAnalogSwitchesSrcDirect
 268:.\Generated_Source\PSoC4/CapSense_SMS.c **** ********************************************************************************
 269:.\Generated_Source\PSoC4/CapSense_SMS.c **** *
 270:.\Generated_Source\PSoC4/CapSense_SMS.c **** * Summary:
 271:.\Generated_Source\PSoC4/CapSense_SMS.c **** *  This API switches the charge clock source to prescaler. 
 272:.\Generated_Source\PSoC4/CapSense_SMS.c **** *
 273:.\Generated_Source\PSoC4/CapSense_SMS.c **** * Parameters:
 274:.\Generated_Source\PSoC4/CapSense_SMS.c **** *  None
 275:.\Generated_Source\PSoC4/CapSense_SMS.c **** *
 276:.\Generated_Source\PSoC4/CapSense_SMS.c **** * Return:
 277:.\Generated_Source\PSoC4/CapSense_SMS.c **** *  None
 278:.\Generated_Source\PSoC4/CapSense_SMS.c **** *
 279:.\Generated_Source\PSoC4/CapSense_SMS.c **** * Global Variables:
 280:.\Generated_Source\PSoC4/CapSense_SMS.c **** *  None
 281:.\Generated_Source\PSoC4/CapSense_SMS.c **** *
 282:.\Generated_Source\PSoC4/CapSense_SMS.c **** * Side Effects:
 283:.\Generated_Source\PSoC4/CapSense_SMS.c **** *  None
 284:.\Generated_Source\PSoC4/CapSense_SMS.c **** *
 285:.\Generated_Source\PSoC4/CapSense_SMS.c **** *******************************************************************************/
 286:.\Generated_Source\PSoC4/CapSense_SMS.c **** void CapSense_SetAnalogSwitchesSrcDirect(void)
 287:.\Generated_Source\PSoC4/CapSense_SMS.c **** {
 137              		.loc 1 287 0
 138              		.cfi_startproc
 288:.\Generated_Source\PSoC4/CapSense_SMS.c **** 	CapSense_CSD_CFG_REG &= ~(CapSense_CSD_CFG_PRS_SELECT);
 139              		.loc 1 288 0
 140 0000 024A     		ldr	r2, .L10
 141 0002 1368     		ldr	r3, [r2]
 142 0004 4021     		mov	r1, #64
 143 0006 8B43     		bic	r3, r1
 144 0008 1360     		str	r3, [r2]
 289:.\Generated_Source\PSoC4/CapSense_SMS.c **** }
 145              		.loc 1 289 0
 146              		@ sp needed
 147 000a 7047     		bx	lr
 148              	.L11:
 149              		.align	2
 150              	.L10:
 151 000c 04002840 		.word	1076363268
 152              		.cfi_endproc
 153              	.LFE37:
 154              		.size	CapSense_SetAnalogSwitchesSrcDirect, .-CapSense_SetAnalogSwitchesSrcDirect
 155              		.section	.text.CapSense_DisableBaselineIDAC,"ax",%progbits
 156              		.align	2
 157              		.global	CapSense_DisableBaselineIDAC
 158              		.code	16
 159              		.thumb_func
 160              		.type	CapSense_DisableBaselineIDAC, %function
 161              	CapSense_DisableBaselineIDAC:
 162              	.LFB38:
 290:.\Generated_Source\PSoC4/CapSense_SMS.c **** 
 291:.\Generated_Source\PSoC4/CapSense_SMS.c **** 
 292:.\Generated_Source\PSoC4/CapSense_SMS.c **** /*******************************************************************************
 293:.\Generated_Source\PSoC4/CapSense_SMS.c **** * Function Name: CapSense_DisableBaselineIDAC
 294:.\Generated_Source\PSoC4/CapSense_SMS.c **** ********************************************************************************
ARM GAS  C:\Users\Luci\AppData\Local\Temp\ccHp2dTN.s 			page 9


 295:.\Generated_Source\PSoC4/CapSense_SMS.c **** *
 296:.\Generated_Source\PSoC4/CapSense_SMS.c **** * Summary:
 297:.\Generated_Source\PSoC4/CapSense_SMS.c **** *  The API disables the Compensation IDAC. 
 298:.\Generated_Source\PSoC4/CapSense_SMS.c **** *
 299:.\Generated_Source\PSoC4/CapSense_SMS.c **** * Parameters:
 300:.\Generated_Source\PSoC4/CapSense_SMS.c **** *  None
 301:.\Generated_Source\PSoC4/CapSense_SMS.c **** *
 302:.\Generated_Source\PSoC4/CapSense_SMS.c **** * Return:
 303:.\Generated_Source\PSoC4/CapSense_SMS.c **** *  None
 304:.\Generated_Source\PSoC4/CapSense_SMS.c **** *
 305:.\Generated_Source\PSoC4/CapSense_SMS.c **** * Global Variables:
 306:.\Generated_Source\PSoC4/CapSense_SMS.c **** *  None
 307:.\Generated_Source\PSoC4/CapSense_SMS.c **** *
 308:.\Generated_Source\PSoC4/CapSense_SMS.c **** * Side Effects:
 309:.\Generated_Source\PSoC4/CapSense_SMS.c **** *  None
 310:.\Generated_Source\PSoC4/CapSense_SMS.c **** *
 311:.\Generated_Source\PSoC4/CapSense_SMS.c **** *******************************************************************************/
 312:.\Generated_Source\PSoC4/CapSense_SMS.c **** void CapSense_DisableBaselineIDAC(void)
 313:.\Generated_Source\PSoC4/CapSense_SMS.c **** {
 163              		.loc 1 313 0
 164              		.cfi_startproc
 314:.\Generated_Source\PSoC4/CapSense_SMS.c **** 	uint32 newRegValue;
 315:.\Generated_Source\PSoC4/CapSense_SMS.c ****     
 316:.\Generated_Source\PSoC4/CapSense_SMS.c ****     newRegValue = CapSense_CSD_IDAC_REG;
 165              		.loc 1 316 0
 166 0000 044A     		ldr	r2, .L13
 167 0002 1168     		ldr	r1, [r2]
 168              	.LVL16:
 317:.\Generated_Source\PSoC4/CapSense_SMS.c ****     
 318:.\Generated_Source\PSoC4/CapSense_SMS.c ****     newRegValue &= ~(CapSense_CSD_IDAC1_MODE_MASK | CapSense_CSD_IDAC2_MODE_MASK);
 169              		.loc 1 318 0
 170 0004 044B     		ldr	r3, .L13+4
 171 0006 0B40     		and	r3, r1
 172              	.LVL17:
 319:.\Generated_Source\PSoC4/CapSense_SMS.c ****     newRegValue |= CapSense_CSD_IDAC1_MODE_VARIABLE;
 173              		.loc 1 319 0
 174 0008 8021     		mov	r1, #128
 175 000a 8900     		lsl	r1, r1, #2
 176 000c 0B43     		orr	r3, r1
 177              	.LVL18:
 320:.\Generated_Source\PSoC4/CapSense_SMS.c ****     
 321:.\Generated_Source\PSoC4/CapSense_SMS.c **** 	CapSense_CSD_IDAC_REG = newRegValue;
 178              		.loc 1 321 0
 179 000e 1360     		str	r3, [r2]
 322:.\Generated_Source\PSoC4/CapSense_SMS.c **** }
 180              		.loc 1 322 0
 181              		@ sp needed
 182 0010 7047     		bx	lr
 183              	.L14:
 184 0012 C046     		.align	2
 185              	.L13:
 186 0014 08002840 		.word	1076363272
 187 0018 FFFCFFFC 		.word	-50332417
 188              		.cfi_endproc
 189              	.LFE38:
 190              		.size	CapSense_DisableBaselineIDAC, .-CapSense_DisableBaselineIDAC
 191              		.section	.text.CapSense_EnableBaselineIDAC,"ax",%progbits
ARM GAS  C:\Users\Luci\AppData\Local\Temp\ccHp2dTN.s 			page 10


 192              		.align	2
 193              		.global	CapSense_EnableBaselineIDAC
 194              		.code	16
 195              		.thumb_func
 196              		.type	CapSense_EnableBaselineIDAC, %function
 197              	CapSense_EnableBaselineIDAC:
 198              	.LFB39:
 323:.\Generated_Source\PSoC4/CapSense_SMS.c **** 
 324:.\Generated_Source\PSoC4/CapSense_SMS.c **** 
 325:.\Generated_Source\PSoC4/CapSense_SMS.c **** /*******************************************************************************
 326:.\Generated_Source\PSoC4/CapSense_SMS.c **** * Function Name: CapSense_EnableBaselineIDAC
 327:.\Generated_Source\PSoC4/CapSense_SMS.c **** ********************************************************************************
 328:.\Generated_Source\PSoC4/CapSense_SMS.c **** *
 329:.\Generated_Source\PSoC4/CapSense_SMS.c **** * Summary:
 330:.\Generated_Source\PSoC4/CapSense_SMS.c **** *  The API enables the Compensation IDAC. 
 331:.\Generated_Source\PSoC4/CapSense_SMS.c **** *
 332:.\Generated_Source\PSoC4/CapSense_SMS.c **** * Parameters:
 333:.\Generated_Source\PSoC4/CapSense_SMS.c **** *  None
 334:.\Generated_Source\PSoC4/CapSense_SMS.c **** *
 335:.\Generated_Source\PSoC4/CapSense_SMS.c **** * Return:
 336:.\Generated_Source\PSoC4/CapSense_SMS.c **** *  None
 337:.\Generated_Source\PSoC4/CapSense_SMS.c **** *
 338:.\Generated_Source\PSoC4/CapSense_SMS.c **** * Global Variables:
 339:.\Generated_Source\PSoC4/CapSense_SMS.c **** *  CapSense_compensationIDAC[] - used to store a 7-bit idac value for all the sensors.
 340:.\Generated_Source\PSoC4/CapSense_SMS.c **** *
 341:.\Generated_Source\PSoC4/CapSense_SMS.c **** * Side Effects:
 342:.\Generated_Source\PSoC4/CapSense_SMS.c **** *  None
 343:.\Generated_Source\PSoC4/CapSense_SMS.c **** *
 344:.\Generated_Source\PSoC4/CapSense_SMS.c **** *******************************************************************************/
 345:.\Generated_Source\PSoC4/CapSense_SMS.c **** void  CapSense_EnableBaselineIDAC(const CapSense_CONFIG_TYPE_P4_v2_20 *config)
 346:.\Generated_Source\PSoC4/CapSense_SMS.c **** {
 199              		.loc 1 346 0
 200              		.cfi_startproc
 201              	.LVL19:
 202 0000 38B5     		push	{r3, r4, r5, lr}
 203              		.cfi_def_cfa_offset 16
 204              		.cfi_offset 3, -16
 205              		.cfi_offset 4, -12
 206              		.cfi_offset 5, -8
 207              		.cfi_offset 14, -4
 208              	.LVL20:
 347:.\Generated_Source\PSoC4/CapSense_SMS.c ****     uint32 curSensor;
 348:.\Generated_Source\PSoC4/CapSense_SMS.c ****     uint32 newRegValue;
 349:.\Generated_Source\PSoC4/CapSense_SMS.c **** 
 350:.\Generated_Source\PSoC4/CapSense_SMS.c ****     for(curSensor = 0u; curSensor < config->totalScanslotsNum; curSensor++)
 209              		.loc 1 350 0
 210 0002 0023     		mov	r3, #0
 211 0004 08E0     		b	.L16
 212              	.LVL21:
 213              	.L17:
 351:.\Generated_Source\PSoC4/CapSense_SMS.c ****     {
 352:.\Generated_Source\PSoC4/CapSense_SMS.c **** 		CapSense_compensationIDAC[curSensor] = CapSense_modulationIDAC[curSensor] / 2u;
 214              		.loc 1 352 0 discriminator 3
 215 0006 0D49     		ldr	r1, .L18
 216 0008 CA5C     		ldrb	r2, [r1, r3]
 217 000a 5508     		lsr	r5, r2, #1
 218 000c 0C4C     		ldr	r4, .L18+4
ARM GAS  C:\Users\Luci\AppData\Local\Temp\ccHp2dTN.s 			page 11


 219 000e E554     		strb	r5, [r4, r3]
 353:.\Generated_Source\PSoC4/CapSense_SMS.c **** 	    CapSense_modulationIDAC[curSensor] = (CapSense_modulationIDAC[curSensor] + 1u) / 2u;
 220              		.loc 1 353 0 discriminator 3
 221 0010 0132     		add	r2, r2, #1
 222 0012 5208     		lsr	r2, r2, #1
 223 0014 CA54     		strb	r2, [r1, r3]
 350:.\Generated_Source\PSoC4/CapSense_SMS.c ****     {
 224              		.loc 1 350 0 discriminator 3
 225 0016 0133     		add	r3, r3, #1
 226              	.LVL22:
 227              	.L16:
 350:.\Generated_Source\PSoC4/CapSense_SMS.c ****     {
 228              		.loc 1 350 0 is_stmt 0 discriminator 1
 229 0018 0278     		ldrb	r2, [r0]
 230 001a 9A42     		cmp	r2, r3
 231 001c F3D8     		bhi	.L17
 354:.\Generated_Source\PSoC4/CapSense_SMS.c ****     }
 355:.\Generated_Source\PSoC4/CapSense_SMS.c **** 	
 356:.\Generated_Source\PSoC4/CapSense_SMS.c **** 	CyIntDisable(CapSense_ISR_NUMBER);
 232              		.loc 1 356 0 is_stmt 1
 233 001e 1020     		mov	r0, #16
 234              	.LVL23:
 235 0020 FFF7FEFF 		bl	CyIntDisable
 236              	.LVL24:
 357:.\Generated_Source\PSoC4/CapSense_SMS.c **** 	
 358:.\Generated_Source\PSoC4/CapSense_SMS.c **** 	newRegValue = CapSense_CSD_IDAC_REG;
 237              		.loc 1 358 0
 238 0024 074A     		ldr	r2, .L18+8
 239 0026 1168     		ldr	r1, [r2]
 240              	.LVL25:
 359:.\Generated_Source\PSoC4/CapSense_SMS.c ****     newRegValue &= ~(CapSense_CSD_IDAC1_MODE_MASK | CapSense_CSD_IDAC2_MODE_MASK);
 241              		.loc 1 359 0
 242 0028 074B     		ldr	r3, .L18+12
 243 002a 0B40     		and	r3, r1
 244              	.LVL26:
 360:.\Generated_Source\PSoC4/CapSense_SMS.c ****     newRegValue |= (CapSense_CSD_IDAC1_MODE_VARIABLE | CapSense_CSD_IDAC2_MODE_FIXED);
 245              		.loc 1 360 0
 246 002c 0749     		ldr	r1, .L18+16
 247 002e 0B43     		orr	r3, r1
 248              	.LVL27:
 361:.\Generated_Source\PSoC4/CapSense_SMS.c ****     CapSense_CSD_IDAC_REG = newRegValue;
 249              		.loc 1 361 0
 250 0030 1360     		str	r3, [r2]
 362:.\Generated_Source\PSoC4/CapSense_SMS.c **** 	
 363:.\Generated_Source\PSoC4/CapSense_SMS.c **** 	CyIntEnable(CapSense_ISR_NUMBER);
 251              		.loc 1 363 0
 252 0032 1020     		mov	r0, #16
 253 0034 FFF7FEFF 		bl	CyIntEnable
 254              	.LVL28:
 364:.\Generated_Source\PSoC4/CapSense_SMS.c **** }
 255              		.loc 1 364 0
 256              		@ sp needed
 257 0038 38BD     		pop	{r3, r4, r5, pc}
 258              	.L19:
 259 003a C046     		.align	2
 260              	.L18:
 261 003c 00000000 		.word	CapSense_modulationIDAC
ARM GAS  C:\Users\Luci\AppData\Local\Temp\ccHp2dTN.s 			page 12


 262 0040 00000000 		.word	CapSense_compensationIDAC
 263 0044 08002840 		.word	1076363272
 264 0048 FFFCFFFC 		.word	-50332417
 265 004c 00020001 		.word	16777728
 266              		.cfi_endproc
 267              	.LFE39:
 268              		.size	CapSense_EnableBaselineIDAC, .-CapSense_EnableBaselineIDAC
 269              		.section	.text.CapSense_AutoTune,"ax",%progbits
 270              		.align	2
 271              		.global	CapSense_AutoTune
 272              		.code	16
 273              		.thumb_func
 274              		.type	CapSense_AutoTune, %function
 275              	CapSense_AutoTune:
 276              	.LFB35:
 137:.\Generated_Source\PSoC4/CapSense_SMS.c **** 	uint32 curSensor;
 277              		.loc 1 137 0
 278              		.cfi_startproc
 279 0000 38B5     		push	{r3, r4, r5, lr}
 280              		.cfi_def_cfa_offset 16
 281              		.cfi_offset 3, -16
 282              		.cfi_offset 4, -12
 283              		.cfi_offset 5, -8
 284              		.cfi_offset 14, -4
 141:.\Generated_Source\PSoC4/CapSense_SMS.c **** 	CapSense_config.totalWidgetsNum = CapSense_END_OF_WIDGETS_INDEX;
 285              		.loc 1 141 0
 286 0002 204B     		ldr	r3, .L27
 287 0004 0222     		mov	r2, #2
 288 0006 1A70     		strb	r2, [r3]
 142:.\Generated_Source\PSoC4/CapSense_SMS.c **** 	CapSense_config.totalSensorsNum = CapSense_TOTAL_SENSOR_COUNT;
 289              		.loc 1 142 0
 290 0008 5A70     		strb	r2, [r3, #1]
 143:.\Generated_Source\PSoC4/CapSense_SMS.c **** 	
 291              		.loc 1 143 0
 292 000a 9A70     		strb	r2, [r3, #2]
 145:.\Generated_Source\PSoC4/CapSense_SMS.c **** 	CapSense_config.sensetivitySeed = CapSense_SENSETIVITY_FACTOR;
 293              		.loc 1 145 0
 294 000c 2E32     		add	r2, r2, #46
 295 000e DA80     		strh	r2, [r3, #6]
 146:.\Generated_Source\PSoC4/CapSense_SMS.c **** 	
 296              		.loc 1 146 0
 297 0010 1D4A     		ldr	r2, .L27+4
 298 0012 9A80     		strh	r2, [r3, #4]
 148:.\Generated_Source\PSoC4/CapSense_SMS.c ****     
 299              		.loc 1 148 0
 300 0014 1D4A     		ldr	r2, .L27+8
 301 0016 9A60     		str	r2, [r3, #8]
 150:.\Generated_Source\PSoC4/CapSense_SMS.c ****     
 302              		.loc 1 150 0
 303 0018 FFF7FEFF 		bl	CapSense_SetAnalogSwitchesSrcDirect
 304              	.LVL29:
 152:.\Generated_Source\PSoC4/CapSense_SMS.c ****     {
 305              		.loc 1 152 0
 306 001c 0023     		mov	r3, #0
 307 001e 04E0     		b	.L21
 308              	.LVL30:
 309              	.L22:
ARM GAS  C:\Users\Luci\AppData\Local\Temp\ccHp2dTN.s 			page 13


 154:.\Generated_Source\PSoC4/CapSense_SMS.c ****     }
 310              		.loc 1 154 0 discriminator 3
 311 0020 9900     		lsl	r1, r3, #2
 312 0022 1B48     		ldr	r0, .L27+12
 313 0024 1B4A     		ldr	r2, .L27+16
 314 0026 8850     		str	r0, [r1, r2]
 152:.\Generated_Source\PSoC4/CapSense_SMS.c ****     {
 315              		.loc 1 152 0 discriminator 3
 316 0028 0133     		add	r3, r3, #1
 317              	.LVL31:
 318              	.L21:
 152:.\Generated_Source\PSoC4/CapSense_SMS.c ****     {
 319              		.loc 1 152 0 is_stmt 0 discriminator 1
 320 002a 164A     		ldr	r2, .L27
 321 002c 5278     		ldrb	r2, [r2, #1]
 322 002e 9A42     		cmp	r2, r3
 323 0030 F6D8     		bhi	.L22
 324 0032 0023     		mov	r3, #0
 325              	.LVL32:
 326 0034 06E0     		b	.L23
 327              	.LVL33:
 328              	.L24:
 160:.\Generated_Source\PSoC4/CapSense_SMS.c **** 		CapSense_sampleClkDividerVal[curSensor] = CapSense_CALIBRATION_MD;
 329              		.loc 1 160 0 is_stmt 1 discriminator 3
 330 0036 1021     		mov	r1, #16
 331 0038 174A     		ldr	r2, .L27+20
 332 003a D154     		strb	r1, [r2, r3]
 161:.\Generated_Source\PSoC4/CapSense_SMS.c **** 	}
 333              		.loc 1 161 0 discriminator 3
 334 003c 0C39     		sub	r1, r1, #12
 335 003e 174A     		ldr	r2, .L27+24
 336 0040 D154     		strb	r1, [r2, r3]
 158:.\Generated_Source\PSoC4/CapSense_SMS.c ****     {
 337              		.loc 1 158 0 discriminator 3
 338 0042 0133     		add	r3, r3, #1
 339              	.LVL34:
 340              	.L23:
 158:.\Generated_Source\PSoC4/CapSense_SMS.c ****     {
 341              		.loc 1 158 0 is_stmt 0 discriminator 1
 342 0044 012B     		cmp	r3, #1
 343 0046 F6D9     		bls	.L24
 164:.\Generated_Source\PSoC4/CapSense_SMS.c **** 
 344              		.loc 1 164 0 is_stmt 1
 345 0048 FFF7FEFF 		bl	CapSense_DisableBaselineIDAC
 346              	.LVL35:
 166:.\Generated_Source\PSoC4/CapSense_SMS.c **** 
 347              		.loc 1 166 0
 348 004c 0D4C     		ldr	r4, .L27
 349 004e 144D     		ldr	r5, .L27+28
 350 0050 201C     		mov	r0, r4
 351 0052 291C     		mov	r1, r5
 352 0054 FFF7FEFF 		bl	CalibrateSensors_P4_v2_20
 353              	.LVL36:
 172:.\Generated_Source\PSoC4/CapSense_SMS.c **** 	
 354              		.loc 1 172 0
 355 0058 201C     		mov	r0, r4
 356 005a FFF7FEFF 		bl	TunePrescalers_P4_v2_20
ARM GAS  C:\Users\Luci\AppData\Local\Temp\ccHp2dTN.s 			page 14


 357              	.LVL37:
 178:.\Generated_Source\PSoC4/CapSense_SMS.c **** 	#if(0u != CapSense_TOTAL_CENTROIDS_COUNT)
 358              		.loc 1 178 0
 359 005e 201C     		mov	r0, r4
 360 0060 291C     		mov	r1, r5
 361 0062 FFF7FEFF 		bl	CalibrateSensors_P4_v2_20
 362              	.LVL38:
 182:.\Generated_Source\PSoC4/CapSense_SMS.c **** 	
 363              		.loc 1 182 0
 364 0066 201C     		mov	r0, r4
 365 0068 FFF7FEFF 		bl	TuneSensitivity_P4_v2_20
 366              	.LVL39:
 184:.\Generated_Source\PSoC4/CapSense_SMS.c ****     
 367              		.loc 1 184 0
 368 006c 201C     		mov	r0, r4
 369 006e FFF7FEFF 		bl	CapSense_EnableBaselineIDAC
 370              	.LVL40:
 186:.\Generated_Source\PSoC4/CapSense_SMS.c ****     {
 371              		.loc 1 186 0
 372 0072 0024     		mov	r4, #0
 373 0074 03E0     		b	.L25
 374              	.LVL41:
 375              	.L26:
 188:.\Generated_Source\PSoC4/CapSense_SMS.c ****     }
 376              		.loc 1 188 0 discriminator 3
 377 0076 201C     		mov	r0, r4
 378 0078 FFF7FEFF 		bl	CapSense_UpdateThresholds
 379              	.LVL42:
 186:.\Generated_Source\PSoC4/CapSense_SMS.c ****     {
 380              		.loc 1 186 0 discriminator 3
 381 007c 0134     		add	r4, r4, #1
 382              	.LVL43:
 383              	.L25:
 186:.\Generated_Source\PSoC4/CapSense_SMS.c ****     {
 384              		.loc 1 186 0 is_stmt 0 discriminator 1
 385 007e 012C     		cmp	r4, #1
 386 0080 F9D9     		bls	.L26
 190:.\Generated_Source\PSoC4/CapSense_SMS.c **** 
 387              		.loc 1 190 0 is_stmt 1
 388              		@ sp needed
 389              	.LVL44:
 390 0082 38BD     		pop	{r3, r4, r5, pc}
 391              	.L28:
 392              		.align	2
 393              	.L27:
 394 0084 00000000 		.word	CapSense_config
 395 0088 98090000 		.word	2456
 396 008c 00000000 		.word	.LANCHOR0
 397 0090 0000FF0F 		.word	268369920
 398 0094 00000000 		.word	CapSense_widgetResolution
 399 0098 00000000 		.word	CapSense_senseClkDividerVal
 400 009c 00000000 		.word	CapSense_sampleClkDividerVal
 401 00a0 9A0D0000 		.word	3482
 402              		.cfi_endproc
 403              	.LFE35:
 404              		.size	CapSense_AutoTune, .-CapSense_AutoTune
 405              		.section	.text.CapSense_SetSensitivity,"ax",%progbits
ARM GAS  C:\Users\Luci\AppData\Local\Temp\ccHp2dTN.s 			page 15


 406              		.align	2
 407              		.global	CapSense_SetSensitivity
 408              		.code	16
 409              		.thumb_func
 410              		.type	CapSense_SetSensitivity, %function
 411              	CapSense_SetSensitivity:
 412              	.LFB40:
 365:.\Generated_Source\PSoC4/CapSense_SMS.c **** 
 366:.\Generated_Source\PSoC4/CapSense_SMS.c **** 
 367:.\Generated_Source\PSoC4/CapSense_SMS.c **** /*******************************************************************************
 368:.\Generated_Source\PSoC4/CapSense_SMS.c **** * Function Name: CapSense_SetSensitivity
 369:.\Generated_Source\PSoC4/CapSense_SMS.c **** ********************************************************************************
 370:.\Generated_Source\PSoC4/CapSense_SMS.c **** *
 371:.\Generated_Source\PSoC4/CapSense_SMS.c **** * Summary:
 372:.\Generated_Source\PSoC4/CapSense_SMS.c **** *  This API sets the sensitivity value for the sensor. The sensitivity 
 373:.\Generated_Source\PSoC4/CapSense_SMS.c **** *  value is used during the auto-tuning algorithm executed as part of the CapSense_Start API.
 374:.\Generated_Source\PSoC4/CapSense_SMS.c **** *  This API is called by the application layer prior to calling the CapSense_Start API. 
 375:.\Generated_Source\PSoC4/CapSense_SMS.c **** *  Calling this API after execution of CapSense_Start API has no effect. 
 376:.\Generated_Source\PSoC4/CapSense_SMS.c **** *
 377:.\Generated_Source\PSoC4/CapSense_SMS.c **** * Parameters: 
 378:.\Generated_Source\PSoC4/CapSense_SMS.c **** *  sensor  Sensor index 
 379:.\Generated_Source\PSoC4/CapSense_SMS.c **** *  data    Sensitivity of the sensor. Possible values are below
 380:.\Generated_Source\PSoC4/CapSense_SMS.c **** *  1 - 0.1pf sensitivity
 381:.\Generated_Source\PSoC4/CapSense_SMS.c **** *  2 - 0.2pf sensitivity
 382:.\Generated_Source\PSoC4/CapSense_SMS.c **** *  3 - 0.3pf sensitivity
 383:.\Generated_Source\PSoC4/CapSense_SMS.c **** *  4 - 0.4pf sensitivity
 384:.\Generated_Source\PSoC4/CapSense_SMS.c **** *  5 - 0.5pf sensitivity
 385:.\Generated_Source\PSoC4/CapSense_SMS.c **** *  6 - 0.6pf sensitivity
 386:.\Generated_Source\PSoC4/CapSense_SMS.c **** *  7 - 0.7pf sensitivity
 387:.\Generated_Source\PSoC4/CapSense_SMS.c **** *  8 - 0.8pf sensitivity
 388:.\Generated_Source\PSoC4/CapSense_SMS.c **** *  9 - 0.9pf sensitivity
 389:.\Generated_Source\PSoC4/CapSense_SMS.c **** *  10 - 1.0pf sensitivity
 390:.\Generated_Source\PSoC4/CapSense_SMS.c **** *  All other values, set sensitivity to 1.0pf
 391:.\Generated_Source\PSoC4/CapSense_SMS.c **** *
 392:.\Generated_Source\PSoC4/CapSense_SMS.c **** *  Return Value:
 393:.\Generated_Source\PSoC4/CapSense_SMS.c **** *   None
 394:.\Generated_Source\PSoC4/CapSense_SMS.c **** *
 395:.\Generated_Source\PSoC4/CapSense_SMS.c **** * Global Variables:
 396:.\Generated_Source\PSoC4/CapSense_SMS.c **** * SMS_LIB_SensorSensitivity[] - This 8-bits array contains Sensitivity in the LSB nibble
 397:.\Generated_Source\PSoC4/CapSense_SMS.c **** *                                and Noise Reset Counter value in the MSB nibble.      
 398:.\Generated_Source\PSoC4/CapSense_SMS.c **** *
 399:.\Generated_Source\PSoC4/CapSense_SMS.c **** * Side Effects: 
 400:.\Generated_Source\PSoC4/CapSense_SMS.c **** *  None
 401:.\Generated_Source\PSoC4/CapSense_SMS.c **** *
 402:.\Generated_Source\PSoC4/CapSense_SMS.c **** *******************************************************************************/
 403:.\Generated_Source\PSoC4/CapSense_SMS.c **** void CapSense_SetSensitivity(uint32 sensor, uint32 value)
 404:.\Generated_Source\PSoC4/CapSense_SMS.c **** {
 413              		.loc 1 404 0
 414              		.cfi_startproc
 415              	.LVL45:
 416 0000 10B5     		push	{r4, lr}
 417              		.cfi_def_cfa_offset 8
 418              		.cfi_offset 4, -8
 419              		.cfi_offset 14, -4
 405:.\Generated_Source\PSoC4/CapSense_SMS.c **** 	if(value > 10u)
 420              		.loc 1 405 0
 421 0002 0A29     		cmp	r1, #10
ARM GAS  C:\Users\Luci\AppData\Local\Temp\ccHp2dTN.s 			page 16


 422 0004 00D9     		bls	.L30
 406:.\Generated_Source\PSoC4/CapSense_SMS.c **** 	{
 407:.\Generated_Source\PSoC4/CapSense_SMS.c **** 		value = 10u;
 423              		.loc 1 407 0
 424 0006 0A21     		mov	r1, #10
 425              	.LVL46:
 426              	.L30:
 408:.\Generated_Source\PSoC4/CapSense_SMS.c **** 	}
 409:.\Generated_Source\PSoC4/CapSense_SMS.c **** 	
 410:.\Generated_Source\PSoC4/CapSense_SMS.c ****     /* Clear SensorSensitivity value in LSB nibble */
 411:.\Generated_Source\PSoC4/CapSense_SMS.c **** 	SMS_LIB_SensorSensitivity[sensor] &= (uint8)~CapSense_SENSITIVITY_MASK;
 427              		.loc 1 411 0
 428 0008 034A     		ldr	r2, .L32
 429 000a 135C     		ldrb	r3, [r2, r0]
 430 000c 0F24     		mov	r4, #15
 431 000e A343     		bic	r3, r4
 412:.\Generated_Source\PSoC4/CapSense_SMS.c **** 	/* Set SensorSensitivity value in LSB nibble */
 413:.\Generated_Source\PSoC4/CapSense_SMS.c **** 	SMS_LIB_SensorSensitivity[sensor] |= (uint8)value;
 432              		.loc 1 413 0
 433 0010 1943     		orr	r1, r3
 434              	.LVL47:
 435 0012 1154     		strb	r1, [r2, r0]
 414:.\Generated_Source\PSoC4/CapSense_SMS.c **** }
 436              		.loc 1 414 0
 437              		@ sp needed
 438 0014 10BD     		pop	{r4, pc}
 439              	.L33:
 440 0016 C046     		.align	2
 441              	.L32:
 442 0018 00000000 		.word	.LANCHOR1
 443              		.cfi_endproc
 444              	.LFE40:
 445              		.size	CapSense_SetSensitivity, .-CapSense_SetSensitivity
 446              		.section	.text.CapSense_GetSensitivityCoefficient,"ax",%progbits
 447              		.align	2
 448              		.global	CapSense_GetSensitivityCoefficient
 449              		.code	16
 450              		.thumb_func
 451              		.type	CapSense_GetSensitivityCoefficient, %function
 452              	CapSense_GetSensitivityCoefficient:
 453              	.LFB41:
 415:.\Generated_Source\PSoC4/CapSense_SMS.c **** 
 416:.\Generated_Source\PSoC4/CapSense_SMS.c **** 
 417:.\Generated_Source\PSoC4/CapSense_SMS.c **** /*******************************************************************************
 418:.\Generated_Source\PSoC4/CapSense_SMS.c **** * Function Name: CapSense_GetSensitivityCoefficient
 419:.\Generated_Source\PSoC4/CapSense_SMS.c **** ********************************************************************************
 420:.\Generated_Source\PSoC4/CapSense_SMS.c **** *
 421:.\Generated_Source\PSoC4/CapSense_SMS.c **** * Summary:
 422:.\Generated_Source\PSoC4/CapSense_SMS.c **** *  This API returns the K coefficient for the appropriate sensor. 
 423:.\Generated_Source\PSoC4/CapSense_SMS.c **** *
 424:.\Generated_Source\PSoC4/CapSense_SMS.c **** * Parameters: 
 425:.\Generated_Source\PSoC4/CapSense_SMS.c **** *  sensor:  Sensor index 
 426:.\Generated_Source\PSoC4/CapSense_SMS.c **** *
 427:.\Generated_Source\PSoC4/CapSense_SMS.c **** *  Return Value:
 428:.\Generated_Source\PSoC4/CapSense_SMS.c **** *   K - value for the appropriate sensor.
 429:.\Generated_Source\PSoC4/CapSense_SMS.c **** *
 430:.\Generated_Source\PSoC4/CapSense_SMS.c **** * Global Variables:
ARM GAS  C:\Users\Luci\AppData\Local\Temp\ccHp2dTN.s 			page 17


 431:.\Generated_Source\PSoC4/CapSense_SMS.c **** *  kValueTbl[] - This 8-bits array contains the K value for each sensor.
 432:.\Generated_Source\PSoC4/CapSense_SMS.c **** *
 433:.\Generated_Source\PSoC4/CapSense_SMS.c **** * Side Effects: 
 434:.\Generated_Source\PSoC4/CapSense_SMS.c **** *  None
 435:.\Generated_Source\PSoC4/CapSense_SMS.c **** *
 436:.\Generated_Source\PSoC4/CapSense_SMS.c **** *******************************************************************************/
 437:.\Generated_Source\PSoC4/CapSense_SMS.c **** uint8 CapSense_GetSensitivityCoefficient(uint32 sensor)
 438:.\Generated_Source\PSoC4/CapSense_SMS.c **** {
 454              		.loc 1 438 0
 455              		.cfi_startproc
 456              	.LVL48:
 439:.\Generated_Source\PSoC4/CapSense_SMS.c **** 	return (kValueTbl[sensor]);
 457              		.loc 1 439 0
 458 0000 014B     		ldr	r3, .L35
 459 0002 185C     		ldrb	r0, [r3, r0]
 460              	.LVL49:
 440:.\Generated_Source\PSoC4/CapSense_SMS.c **** }
 461              		.loc 1 440 0
 462              		@ sp needed
 463 0004 7047     		bx	lr
 464              	.L36:
 465 0006 C046     		.align	2
 466              	.L35:
 467 0008 00000000 		.word	kValueTbl
 468              		.cfi_endproc
 469              	.LFE41:
 470              		.size	CapSense_GetSensitivityCoefficient, .-CapSense_GetSensitivityCoefficient
 471              		.section	.text.CapSense_GetNoiseEnvelope,"ax",%progbits
 472              		.align	2
 473              		.global	CapSense_GetNoiseEnvelope
 474              		.code	16
 475              		.thumb_func
 476              		.type	CapSense_GetNoiseEnvelope, %function
 477              	CapSense_GetNoiseEnvelope:
 478              	.LFB42:
 441:.\Generated_Source\PSoC4/CapSense_SMS.c **** 
 442:.\Generated_Source\PSoC4/CapSense_SMS.c **** 
 443:.\Generated_Source\PSoC4/CapSense_SMS.c **** /*******************************************************************************
 444:.\Generated_Source\PSoC4/CapSense_SMS.c **** * Function Name: CapSense_GetNoiseEnvelope
 445:.\Generated_Source\PSoC4/CapSense_SMS.c **** ********************************************************************************
 446:.\Generated_Source\PSoC4/CapSense_SMS.c **** *
 447:.\Generated_Source\PSoC4/CapSense_SMS.c **** * Summary:
 448:.\Generated_Source\PSoC4/CapSense_SMS.c **** *  This function returns the noise value of a
 449:.\Generated_Source\PSoC4/CapSense_SMS.c **** *  component.
 450:.\Generated_Source\PSoC4/CapSense_SMS.c **** *
 451:.\Generated_Source\PSoC4/CapSense_SMS.c **** * Parameters:
 452:.\Generated_Source\PSoC4/CapSense_SMS.c **** *  sensor - Sensor number.
 453:.\Generated_Source\PSoC4/CapSense_SMS.c **** *
 454:.\Generated_Source\PSoC4/CapSense_SMS.c **** * Return:
 455:.\Generated_Source\PSoC4/CapSense_SMS.c **** *  The noise envelope value of the sensor
 456:.\Generated_Source\PSoC4/CapSense_SMS.c **** *  indicated by argument.
 457:.\Generated_Source\PSoC4/CapSense_SMS.c **** *
 458:.\Generated_Source\PSoC4/CapSense_SMS.c **** * Global Variables:
 459:.\Generated_Source\PSoC4/CapSense_SMS.c **** *  baNoiseEnvelope[] - array with Noise Envelope.
 460:.\Generated_Source\PSoC4/CapSense_SMS.c **** *
 461:.\Generated_Source\PSoC4/CapSense_SMS.c **** * Side Effects:
 462:.\Generated_Source\PSoC4/CapSense_SMS.c **** *  None
ARM GAS  C:\Users\Luci\AppData\Local\Temp\ccHp2dTN.s 			page 18


 463:.\Generated_Source\PSoC4/CapSense_SMS.c **** *
 464:.\Generated_Source\PSoC4/CapSense_SMS.c **** *******************************************************************************/
 465:.\Generated_Source\PSoC4/CapSense_SMS.c **** uint16 CapSense_GetNoiseEnvelope(uint32 sensor)
 466:.\Generated_Source\PSoC4/CapSense_SMS.c **** {
 479              		.loc 1 466 0
 480              		.cfi_startproc
 481              	.LVL50:
 467:.\Generated_Source\PSoC4/CapSense_SMS.c ****     return((uint16)((uint16)noiseEnvelopeTbl[sensor] << 1u) + 1u);
 482              		.loc 1 467 0
 483 0000 024B     		ldr	r3, .L38
 484 0002 185C     		ldrb	r0, [r3, r0]
 485              	.LVL51:
 486 0004 4000     		lsl	r0, r0, #1
 487 0006 0130     		add	r0, r0, #1
 468:.\Generated_Source\PSoC4/CapSense_SMS.c **** }
 488              		.loc 1 468 0
 489              		@ sp needed
 490 0008 7047     		bx	lr
 491              	.L39:
 492 000a C046     		.align	2
 493              	.L38:
 494 000c 00000000 		.word	noiseEnvelopeTbl
 495              		.cfi_endproc
 496              	.LFE42:
 497              		.size	CapSense_GetNoiseEnvelope, .-CapSense_GetNoiseEnvelope
 498              		.global	__aeabi_uidiv
 499              		.section	.text.CapSense_GetNormalizedDiffCountData,"ax",%progbits
 500              		.align	2
 501              		.global	CapSense_GetNormalizedDiffCountData
 502              		.code	16
 503              		.thumb_func
 504              		.type	CapSense_GetNormalizedDiffCountData, %function
 505              	CapSense_GetNormalizedDiffCountData:
 506              	.LFB43:
 469:.\Generated_Source\PSoC4/CapSense_SMS.c **** 
 470:.\Generated_Source\PSoC4/CapSense_SMS.c **** 
 471:.\Generated_Source\PSoC4/CapSense_SMS.c **** /*******************************************************************************
 472:.\Generated_Source\PSoC4/CapSense_SMS.c **** * Function Name: CapSense_GetNormalizedDiffCountData
 473:.\Generated_Source\PSoC4/CapSense_SMS.c **** ********************************************************************************
 474:.\Generated_Source\PSoC4/CapSense_SMS.c **** *
 475:.\Generated_Source\PSoC4/CapSense_SMS.c **** * Summary:
 476:.\Generated_Source\PSoC4/CapSense_SMS.c **** *  This API returns normalized difference count data.
 477:.\Generated_Source\PSoC4/CapSense_SMS.c **** *
 478:.\Generated_Source\PSoC4/CapSense_SMS.c **** * Parameters:
 479:.\Generated_Source\PSoC4/CapSense_SMS.c **** *  sensor:  Sensor number.
 480:.\Generated_Source\PSoC4/CapSense_SMS.c **** *
 481:.\Generated_Source\PSoC4/CapSense_SMS.c **** * Return:
 482:.\Generated_Source\PSoC4/CapSense_SMS.c **** *  This API returns a normalized count value of the sensor indicated by the 
 483:.\Generated_Source\PSoC4/CapSense_SMS.c **** *  argument. 
 484:.\Generated_Source\PSoC4/CapSense_SMS.c **** *
 485:.\Generated_Source\PSoC4/CapSense_SMS.c **** * Global Variables:
 486:.\Generated_Source\PSoC4/CapSense_SMS.c **** *  CapSense_sensorSignal[] - array with difference counts for sensors
 487:.\Generated_Source\PSoC4/CapSense_SMS.c **** * 
 488:.\Generated_Source\PSoC4/CapSense_SMS.c **** * Side Effects:
 489:.\Generated_Source\PSoC4/CapSense_SMS.c **** *  None
 490:.\Generated_Source\PSoC4/CapSense_SMS.c **** *
 491:.\Generated_Source\PSoC4/CapSense_SMS.c **** *******************************************************************************/
ARM GAS  C:\Users\Luci\AppData\Local\Temp\ccHp2dTN.s 			page 19


 492:.\Generated_Source\PSoC4/CapSense_SMS.c **** uint16 CapSense_GetNormalizedDiffCountData(uint32 sensor)
 493:.\Generated_Source\PSoC4/CapSense_SMS.c **** {
 507              		.loc 1 493 0
 508              		.cfi_startproc
 509              	.LVL52:
 510 0000 08B5     		push	{r3, lr}
 511              		.cfi_def_cfa_offset 8
 512              		.cfi_offset 3, -8
 513              		.cfi_offset 14, -4
 514 0002 021C     		mov	r2, r0
 494:.\Generated_Source\PSoC4/CapSense_SMS.c **** 	return (uint16)(((uint32)CapSense_sensorSignal[sensor] << 7u) / kValueTbl[sensor]);
 515              		.loc 1 494 0
 516 0004 044B     		ldr	r3, .L41
 517 0006 1B5C     		ldrb	r3, [r3, r0]
 518 0008 D801     		lsl	r0, r3, #7
 519              	.LVL53:
 520 000a 044B     		ldr	r3, .L41+4
 521 000c 995C     		ldrb	r1, [r3, r2]
 522 000e FFF7FEFF 		bl	__aeabi_uidiv
 523              	.LVL54:
 524 0012 80B2     		uxth	r0, r0
 495:.\Generated_Source\PSoC4/CapSense_SMS.c **** }
 525              		.loc 1 495 0
 526              		@ sp needed
 527 0014 08BD     		pop	{r3, pc}
 528              	.L42:
 529 0016 C046     		.align	2
 530              	.L41:
 531 0018 00000000 		.word	CapSense_sensorSignal
 532 001c 00000000 		.word	kValueTbl
 533              		.cfi_endproc
 534              	.LFE43:
 535              		.size	CapSense_GetNormalizedDiffCountData, .-CapSense_GetNormalizedDiffCountData
 536              		.global	CapSense_configPointers
 537              		.comm	CapSense_config,12,4
 538              		.global	SMS_LIB_SensorSensitivity
 539              		.comm	kValueTbl,2,4
 540              		.comm	previousSampleTbl,4,4
 541              		.comm	sampleMaxTbl,4,4
 542              		.comm	sampleMinTbl,4,4
 543              		.comm	signRegisterTbl,2,4
 544              		.comm	runningDifferenceTbl,2,4
 545              		.comm	noiseEnvelopeTbl,2,4
 546              		.global	prescalerTable
 547              		.section	.rodata
 548              		.align	2
 549              		.set	.LANCHOR0,. + 0
 550              		.type	CapSense_configPointers, %object
 551              		.size	CapSense_configPointers, 56
 552              	CapSense_configPointers:
 553 0000 00000000 		.word	CapSense_modulationIDAC
 554 0004 00000000 		.word	CapSense_compensationIDAC
 555 0008 00000000 		.word	SMS_LIB_SensorSensitivity
 556 000c 00000000 		.word	CapSense_senseClkDividerVal
 557 0010 00000000 		.word	CapSense_sampleClkDividerVal
 558 0014 00000000 		.word	CapSense_widgetNumber
 559 0018 00000000 		.word	CapSense_widgetResolution
ARM GAS  C:\Users\Luci\AppData\Local\Temp\ccHp2dTN.s 			page 20


 560 001c 00000000 		.word	CapSense_rawDataIndex
 561 0020 00000000 		.word	CapSense_numberOfSensors
 562 0024 00000000 		.word	CapSense_GetSensorRaw
 563 0028 00000000 		.word	CapSense_PreScan
 564 002c 00000000 		.word	CapSense_ReadSensorRaw
 565 0030 00000000 		.word	CapSense_GetBitValue
 566 0034 00000000 		.word	CapSense_SetBitValue
 567              		.type	prescalerTable, %object
 568              		.size	prescalerTable, 16
 569              	prescalerTable:
 570 0038 04       		.byte	4
 571 0039 04       		.byte	4
 572 003a 04       		.byte	4
 573 003b 08       		.byte	8
 574 003c 08       		.byte	8
 575 003d 08       		.byte	8
 576 003e 08       		.byte	8
 577 003f 10       		.byte	16
 578 0040 10       		.byte	16
 579 0041 10       		.byte	16
 580 0042 10       		.byte	16
 581 0043 10       		.byte	16
 582 0044 10       		.byte	16
 583 0045 10       		.byte	16
 584 0046 10       		.byte	16
 585 0047 10       		.byte	16
 586              		.data
 587              		.align	2
 588              		.set	.LANCHOR1,. + 0
 589              		.type	SMS_LIB_SensorSensitivity, %object
 590              		.size	SMS_LIB_SensorSensitivity, 2
 591              	SMS_LIB_SensorSensitivity:
 592 0000 02       		.byte	2
 593 0001 02       		.byte	2
 594 0002 0000     		.text
 595              	.Letext0:
 596              		.file 2 ".\\Generated_Source\\PSoC4\\cytypes.h"
 597              		.file 3 ".\\Generated_Source\\PSoC4\\CapSense_PVT.h"
 598              		.file 4 ".\\Generated_Source\\PSoC4\\CapSense.h"
 599              		.file 5 ".\\Generated_Source\\PSoC4\\CapSense_CSHL.h"
 600              		.file 6 ".\\Generated_Source\\PSoC4\\CyLib.h"