ARM GAS  C:\Users\Luci\AppData\Local\Temp\cckk3xx4.s 			page 1


   1              		.cpu cortex-m0
   2              		.fpu softvfp
   3              		.eabi_attribute 20, 1
   4              		.eabi_attribute 21, 1
   5              		.eabi_attribute 23, 3
   6              		.eabi_attribute 24, 1
   7              		.eabi_attribute 25, 1
   8              		.eabi_attribute 26, 1
   9              		.eabi_attribute 30, 1
  10              		.eabi_attribute 34, 0
  11              		.eabi_attribute 18, 4
  12              		.code	16
  13              		.file	"CapSense.c"
  14              		.text
  15              	.Ltext0:
  16              		.cfi_sections	.debug_frame
  17              		.section	.text.CapSense_CsdHwBlockInit,"ax",%progbits
  18              		.align	2
  19              		.global	CapSense_CsdHwBlockInit
  20              		.code	16
  21              		.thumb_func
  22              		.type	CapSense_CsdHwBlockInit, %function
  23              	CapSense_CsdHwBlockInit:
  24              	.LFB36:
  25              		.file 1 ".\\Generated_Source\\PSoC4\\CapSense.c"
   1:.\Generated_Source\PSoC4/CapSense.c **** /*******************************************************************************
   2:.\Generated_Source\PSoC4/CapSense.c **** * File Name: CapSense.c
   3:.\Generated_Source\PSoC4/CapSense.c **** * Version 2.20
   4:.\Generated_Source\PSoC4/CapSense.c **** *
   5:.\Generated_Source\PSoC4/CapSense.c **** * Description:
   6:.\Generated_Source\PSoC4/CapSense.c **** *  This file provides the source code for scanning APIs for the CapSense CSD 
   7:.\Generated_Source\PSoC4/CapSense.c **** *  component.
   8:.\Generated_Source\PSoC4/CapSense.c **** *
   9:.\Generated_Source\PSoC4/CapSense.c **** * Note:
  10:.\Generated_Source\PSoC4/CapSense.c **** *
  11:.\Generated_Source\PSoC4/CapSense.c **** ********************************************************************************
  12:.\Generated_Source\PSoC4/CapSense.c **** * Copyright 2014, Cypress Semiconductor Corporation.  All rights reserved.
  13:.\Generated_Source\PSoC4/CapSense.c **** * You may use this file only in accordance with the license, terms, conditions,
  14:.\Generated_Source\PSoC4/CapSense.c **** * disclaimers, and limitations in the end user license agreement accompanying
  15:.\Generated_Source\PSoC4/CapSense.c **** * the software package with which this file was provided.
  16:.\Generated_Source\PSoC4/CapSense.c **** *******************************************************************************/
  17:.\Generated_Source\PSoC4/CapSense.c **** 
  18:.\Generated_Source\PSoC4/CapSense.c **** #include "CapSense.h"
  19:.\Generated_Source\PSoC4/CapSense.c **** #include "CapSense_PVT.h"
  20:.\Generated_Source\PSoC4/CapSense.c **** #include "cypins.h"
  21:.\Generated_Source\PSoC4/CapSense.c **** 
  22:.\Generated_Source\PSoC4/CapSense.c **** #if(0u != CapSense_CSHL_API_GENERATE)
  23:.\Generated_Source\PSoC4/CapSense.c **** 	#include "CapSense_CSHL.h"
  24:.\Generated_Source\PSoC4/CapSense.c **** #endif /* (0u != CapSense_CSHL_API_GENERATE) */
  25:.\Generated_Source\PSoC4/CapSense.c **** 
  26:.\Generated_Source\PSoC4/CapSense.c **** /* This definition is intended to prevent unexpected linker error. 
  27:.\Generated_Source\PSoC4/CapSense.c ****    For more details please see the IAR Technical Note 49981 */
  28:.\Generated_Source\PSoC4/CapSense.c **** #if defined(__ICCARM__)
  29:.\Generated_Source\PSoC4/CapSense.c **** 	extern void CapSense_EnableSensor(uint32 sensor);
  30:.\Generated_Source\PSoC4/CapSense.c **** 	extern void CapSense_DisableSensor(uint32 sensor);
  31:.\Generated_Source\PSoC4/CapSense.c **** #endif /* (__ICCARM__) */	
  32:.\Generated_Source\PSoC4/CapSense.c **** 
ARM GAS  C:\Users\Luci\AppData\Local\Temp\cckk3xx4.s 			page 2


  33:.\Generated_Source\PSoC4/CapSense.c **** /* SmartSense functions */
  34:.\Generated_Source\PSoC4/CapSense.c **** #if (CapSense_TUNING_METHOD == CapSense__TUNING_AUTO)
  35:.\Generated_Source\PSoC4/CapSense.c ****     uint8 CapSense_lowLevelTuningDone = 0u;
  36:.\Generated_Source\PSoC4/CapSense.c **** 	uint8 scanSpeedTbl[((CapSense_TOTAL_SENSOR_COUNT - 1u) / 8u) + 1u];
  37:.\Generated_Source\PSoC4/CapSense.c **** #endif /* (CapSense_TUNING_METHOD == CapSense__TUNING_AUTO) */
  38:.\Generated_Source\PSoC4/CapSense.c **** 
  39:.\Generated_Source\PSoC4/CapSense.c **** #if(CapSense_PRS_OPTIONS != CapSense__PRS_NONE)
  40:.\Generated_Source\PSoC4/CapSense.c **** 	uint8 CapSense_prescalersTuningDone = 0u;
  41:.\Generated_Source\PSoC4/CapSense.c **** #endif /* (CapSense_PRS_OPTIONS == CapSense__PRS_NONE) */
  42:.\Generated_Source\PSoC4/CapSense.c ****             
  43:.\Generated_Source\PSoC4/CapSense.c **** /* Global software variables */
  44:.\Generated_Source\PSoC4/CapSense.c **** volatile uint8 CapSense_csdStatusVar = 0u;   /* CapSense CSD status, variable */
  45:.\Generated_Source\PSoC4/CapSense.c **** volatile uint8 CapSense_sensorIndex = 0u;    /* Index of scannig sensor */
  46:.\Generated_Source\PSoC4/CapSense.c **** 
  47:.\Generated_Source\PSoC4/CapSense.c **** /* Global array of Raw Counts */
  48:.\Generated_Source\PSoC4/CapSense.c **** uint16 CapSense_sensorRaw[CapSense_TOTAL_SENSOR_COUNT] = {0u};
  49:.\Generated_Source\PSoC4/CapSense.c **** 
  50:.\Generated_Source\PSoC4/CapSense.c **** /* Backup variables for trim registers*/
  51:.\Generated_Source\PSoC4/CapSense.c **** #if (CapSense_IDAC1_POLARITY == CapSense__IDAC_SINK)
  52:.\Generated_Source\PSoC4/CapSense.c **** 	uint8 CapSense_csdTrim2;   
  53:.\Generated_Source\PSoC4/CapSense.c **** #else
  54:.\Generated_Source\PSoC4/CapSense.c ****     uint8 CapSense_csdTrim1;	
  55:.\Generated_Source\PSoC4/CapSense.c **** #endif /* (CapSense_IDAC1_POLARITY == CapSense__IDAC_SINK) */
  56:.\Generated_Source\PSoC4/CapSense.c **** 
  57:.\Generated_Source\PSoC4/CapSense.c **** /* Global array of un-scanned sensors state */
  58:.\Generated_Source\PSoC4/CapSense.c **** uint8 CapSense_unscannedSnsDriveMode[CapSense_TOTAL_SENSOR_COUNT];
  59:.\Generated_Source\PSoC4/CapSense.c **** 
  60:.\Generated_Source\PSoC4/CapSense.c **** /* Backup array for CapSense_sensorEnableMask */
  61:.\Generated_Source\PSoC4/CapSense.c **** uint8 CapSense_sensorEnableMaskBackup[(((CapSense_TOTAL_SENSOR_COUNT - 1u) / 8u) + 1u)];
  62:.\Generated_Source\PSoC4/CapSense.c **** 
  63:.\Generated_Source\PSoC4/CapSense.c **** /* Configured constants and arrays by Customizer */
  64:.\Generated_Source\PSoC4/CapSense.c **** uint8 CapSense_sensorEnableMask[(((CapSense_TOTAL_SENSOR_COUNT - 1u) / 8u) + 1u)] = {
  65:.\Generated_Source\PSoC4/CapSense.c **** 0x3u, };
  66:.\Generated_Source\PSoC4/CapSense.c **** 
  67:.\Generated_Source\PSoC4/CapSense.c **** reg32 * CapSense_pcTable[] = {
  68:.\Generated_Source\PSoC4/CapSense.c ****     (reg32 *)CapSense_Sns__Button0__BTN__PC, 
  69:.\Generated_Source\PSoC4/CapSense.c ****     (reg32 *)CapSense_Sns__Button1__BTN__PC, 
  70:.\Generated_Source\PSoC4/CapSense.c **** };
  71:.\Generated_Source\PSoC4/CapSense.c **** 
  72:.\Generated_Source\PSoC4/CapSense.c **** const uint8 CapSense_portTable[] = {
  73:.\Generated_Source\PSoC4/CapSense.c ****     CapSense_Sns__Button0__BTN__PORT, 
  74:.\Generated_Source\PSoC4/CapSense.c ****     CapSense_Sns__Button1__BTN__PORT, 
  75:.\Generated_Source\PSoC4/CapSense.c **** };
  76:.\Generated_Source\PSoC4/CapSense.c **** 
  77:.\Generated_Source\PSoC4/CapSense.c **** const uint32 CapSense_maskTable[] = {
  78:.\Generated_Source\PSoC4/CapSense.c ****     CapSense_Sns__Button0__BTN__MASK, 
  79:.\Generated_Source\PSoC4/CapSense.c ****     CapSense_Sns__Button1__BTN__MASK, 
  80:.\Generated_Source\PSoC4/CapSense.c **** };
  81:.\Generated_Source\PSoC4/CapSense.c **** 
  82:.\Generated_Source\PSoC4/CapSense.c **** const uint8 CapSense_pinShiftTbl[] = {
  83:.\Generated_Source\PSoC4/CapSense.c ****     (uint8) CapSense_Sns__Button0__BTN__SHIFT, 
  84:.\Generated_Source\PSoC4/CapSense.c ****     (uint8) CapSense_Sns__Button1__BTN__SHIFT, 
  85:.\Generated_Source\PSoC4/CapSense.c **** };
  86:.\Generated_Source\PSoC4/CapSense.c **** 
  87:.\Generated_Source\PSoC4/CapSense.c **** uint8 CapSense_modulationIDAC[CapSense_TOTAL_SENSOR_COUNT];
  88:.\Generated_Source\PSoC4/CapSense.c **** uint8 CapSense_compensationIDAC[CapSense_TOTAL_SENSOR_COUNT];
  89:.\Generated_Source\PSoC4/CapSense.c **** 
ARM GAS  C:\Users\Luci\AppData\Local\Temp\cckk3xx4.s 			page 3


  90:.\Generated_Source\PSoC4/CapSense.c **** uint32 CapSense_widgetResolution[CapSense_RESOLUTIONS_TBL_SIZE] = {
  91:.\Generated_Source\PSoC4/CapSense.c ****     CapSense_RESOLUTION_12_BITS,
  92:.\Generated_Source\PSoC4/CapSense.c ****     CapSense_RESOLUTION_12_BITS,
  93:.\Generated_Source\PSoC4/CapSense.c **** };
  94:.\Generated_Source\PSoC4/CapSense.c **** 
  95:.\Generated_Source\PSoC4/CapSense.c **** uint8 CapSense_senseClkDividerVal[CapSense_TOTAL_SCANSLOT_COUNT];
  96:.\Generated_Source\PSoC4/CapSense.c **** uint8 CapSense_sampleClkDividerVal[CapSense_TOTAL_SCANSLOT_COUNT];
  97:.\Generated_Source\PSoC4/CapSense.c **** 
  98:.\Generated_Source\PSoC4/CapSense.c **** const uint8 CapSense_widgetNumber[CapSense_TOTAL_SENSOR_COUNT] = {
  99:.\Generated_Source\PSoC4/CapSense.c ****     0u, /* Button0__BTN */
 100:.\Generated_Source\PSoC4/CapSense.c ****     1u, /* Button1__BTN */
 101:.\Generated_Source\PSoC4/CapSense.c **** };
 102:.\Generated_Source\PSoC4/CapSense.c **** 
 103:.\Generated_Source\PSoC4/CapSense.c **** 
 104:.\Generated_Source\PSoC4/CapSense.c **** 
 105:.\Generated_Source\PSoC4/CapSense.c **** reg32* const CapSense_prtSelTbl[] = {
 106:.\Generated_Source\PSoC4/CapSense.c **** /* CY_PSOC4_4000 is default*/
 107:.\Generated_Source\PSoC4/CapSense.c **** 	((reg32 *) CYREG_HSIOM_PORT_SEL0),
 108:.\Generated_Source\PSoC4/CapSense.c **** 	((reg32 *) CYREG_HSIOM_PORT_SEL1),
 109:.\Generated_Source\PSoC4/CapSense.c **** 	((reg32 *) CYREG_HSIOM_PORT_SEL2),
 110:.\Generated_Source\PSoC4/CapSense.c **** 	((reg32 *) CYREG_HSIOM_PORT_SEL3),
 111:.\Generated_Source\PSoC4/CapSense.c **** #if (CapSense_CFG_REG_TBL_SIZE == 5u)
 112:.\Generated_Source\PSoC4/CapSense.c **** 	((reg32 *) CYREG_HSIOM_PORT_SEL4)
 113:.\Generated_Source\PSoC4/CapSense.c **** #elif(CapSense_CFG_REG_TBL_SIZE == 6u)
 114:.\Generated_Source\PSoC4/CapSense.c **** 	((reg32 *) CYREG_HSIOM_PORT_SEL4),
 115:.\Generated_Source\PSoC4/CapSense.c **** 	((reg32 *) CYREG_HSIOM_PORT_SEL5)
 116:.\Generated_Source\PSoC4/CapSense.c **** #elif(CapSense_CFG_REG_TBL_SIZE == 8u)
 117:.\Generated_Source\PSoC4/CapSense.c **** 	((reg32 *) CYREG_HSIOM_PORT_SEL4),
 118:.\Generated_Source\PSoC4/CapSense.c **** 	((reg32 *) CYREG_HSIOM_PORT_SEL5),
 119:.\Generated_Source\PSoC4/CapSense.c **** 	((reg32 *) CYREG_HSIOM_PORT_SEL6),
 120:.\Generated_Source\PSoC4/CapSense.c **** 	((reg32 *) CYREG_HSIOM_PORT_SEL7)
 121:.\Generated_Source\PSoC4/CapSense.c **** #endif /* (CY_PSOC4_4200) */
 122:.\Generated_Source\PSoC4/CapSense.c **** };
 123:.\Generated_Source\PSoC4/CapSense.c **** 
 124:.\Generated_Source\PSoC4/CapSense.c **** reg32* const CapSense_prtCfgTbl[] = {
 125:.\Generated_Source\PSoC4/CapSense.c **** /* CY_PSOC4_4000 is default*/
 126:.\Generated_Source\PSoC4/CapSense.c **** 	((reg32 *) CYREG_GPIO_PRT0_PC),
 127:.\Generated_Source\PSoC4/CapSense.c **** 	((reg32 *) CYREG_GPIO_PRT1_PC),
 128:.\Generated_Source\PSoC4/CapSense.c **** 	((reg32 *) CYREG_GPIO_PRT2_PC),
 129:.\Generated_Source\PSoC4/CapSense.c **** 	((reg32 *) CYREG_GPIO_PRT3_PC),
 130:.\Generated_Source\PSoC4/CapSense.c **** #if (CapSense_CFG_REG_TBL_SIZE == 5u)
 131:.\Generated_Source\PSoC4/CapSense.c **** 	((reg32 *) CYREG_GPIO_PRT4_PC)
 132:.\Generated_Source\PSoC4/CapSense.c **** #elif(CapSense_CFG_REG_TBL_SIZE == 6u)
 133:.\Generated_Source\PSoC4/CapSense.c **** 	((reg32 *) CYREG_GPIO_PRT4_PC),
 134:.\Generated_Source\PSoC4/CapSense.c **** 	((reg32 *) CYREG_GPIO_PRT5_PC)
 135:.\Generated_Source\PSoC4/CapSense.c **** #elif(CapSense_CFG_REG_TBL_SIZE == 8u)
 136:.\Generated_Source\PSoC4/CapSense.c **** 	((reg32 *) CYREG_GPIO_PRT4_PC),
 137:.\Generated_Source\PSoC4/CapSense.c **** 	((reg32 *) CYREG_GPIO_PRT5_PC),
 138:.\Generated_Source\PSoC4/CapSense.c **** 	((reg32 *) CYREG_GPIO_PRT6_PC),
 139:.\Generated_Source\PSoC4/CapSense.c **** 	((reg32 *) CYREG_GPIO_PRT7_PC)
 140:.\Generated_Source\PSoC4/CapSense.c **** #endif /* (CY_PSOC4_4200) */	
 141:.\Generated_Source\PSoC4/CapSense.c **** };
 142:.\Generated_Source\PSoC4/CapSense.c **** 
 143:.\Generated_Source\PSoC4/CapSense.c **** reg32* const CapSense_prtDRTbl[] = {
 144:.\Generated_Source\PSoC4/CapSense.c **** /* CY_PSOC4_4000 is default*/
 145:.\Generated_Source\PSoC4/CapSense.c **** 	((reg32 *) CYREG_GPIO_PRT0_DR),
 146:.\Generated_Source\PSoC4/CapSense.c **** 	((reg32 *) CYREG_GPIO_PRT1_DR),
ARM GAS  C:\Users\Luci\AppData\Local\Temp\cckk3xx4.s 			page 4


 147:.\Generated_Source\PSoC4/CapSense.c **** 	((reg32 *) CYREG_GPIO_PRT2_DR),
 148:.\Generated_Source\PSoC4/CapSense.c **** 	((reg32 *) CYREG_GPIO_PRT3_DR),
 149:.\Generated_Source\PSoC4/CapSense.c **** #if (CapSense_CFG_REG_TBL_SIZE == 5u)
 150:.\Generated_Source\PSoC4/CapSense.c **** 	((reg32 *) CYREG_GPIO_PRT4_DR)
 151:.\Generated_Source\PSoC4/CapSense.c **** #elif(CapSense_CFG_REG_TBL_SIZE == 6u)
 152:.\Generated_Source\PSoC4/CapSense.c **** 	((reg32 *) CYREG_GPIO_PRT4_DR),
 153:.\Generated_Source\PSoC4/CapSense.c **** 	((reg32 *) CYREG_GPIO_PRT5_DR),
 154:.\Generated_Source\PSoC4/CapSense.c **** #elif(CapSense_CFG_REG_TBL_SIZE == 8u)
 155:.\Generated_Source\PSoC4/CapSense.c **** 	((reg32 *) CYREG_GPIO_PRT4_DR),
 156:.\Generated_Source\PSoC4/CapSense.c **** 	((reg32 *) CYREG_GPIO_PRT5_DR),
 157:.\Generated_Source\PSoC4/CapSense.c **** 	((reg32 *) CYREG_GPIO_PRT6_DR),
 158:.\Generated_Source\PSoC4/CapSense.c **** 	((reg32 *) CYREG_GPIO_PRT7_DR),
 159:.\Generated_Source\PSoC4/CapSense.c **** #endif /* (CY_PSOC4_4200) */	
 160:.\Generated_Source\PSoC4/CapSense.c **** };
 161:.\Generated_Source\PSoC4/CapSense.c ****     
 162:.\Generated_Source\PSoC4/CapSense.c **** 
 163:.\Generated_Source\PSoC4/CapSense.c **** /*******************************************************************************
 164:.\Generated_Source\PSoC4/CapSense.c **** * Function Name: CapSense_Init
 165:.\Generated_Source\PSoC4/CapSense.c **** ********************************************************************************
 166:.\Generated_Source\PSoC4/CapSense.c **** *
 167:.\Generated_Source\PSoC4/CapSense.c **** * Summary:
 168:.\Generated_Source\PSoC4/CapSense.c **** *  API initializes default CapSense configuration provided by the customizer that defines 
 169:.\Generated_Source\PSoC4/CapSense.c **** *  the mode of component operations and resets all the sensors to an inactive state.
 170:.\Generated_Source\PSoC4/CapSense.c **** *
 171:.\Generated_Source\PSoC4/CapSense.c **** * Parameters:
 172:.\Generated_Source\PSoC4/CapSense.c **** *  None
 173:.\Generated_Source\PSoC4/CapSense.c **** *
 174:.\Generated_Source\PSoC4/CapSense.c **** * Return:
 175:.\Generated_Source\PSoC4/CapSense.c **** *  None
 176:.\Generated_Source\PSoC4/CapSense.c **** *
 177:.\Generated_Source\PSoC4/CapSense.c **** * Global Variables:
 178:.\Generated_Source\PSoC4/CapSense.c **** *  CapSense_immunityIndex - defines immunity level.
 179:.\Generated_Source\PSoC4/CapSense.c **** *
 180:.\Generated_Source\PSoC4/CapSense.c **** * Side Effects:
 181:.\Generated_Source\PSoC4/CapSense.c **** *  None
 182:.\Generated_Source\PSoC4/CapSense.c **** * 
 183:.\Generated_Source\PSoC4/CapSense.c **** *******************************************************************************/
 184:.\Generated_Source\PSoC4/CapSense.c **** void CapSense_Init(void)
 185:.\Generated_Source\PSoC4/CapSense.c **** {   
 186:.\Generated_Source\PSoC4/CapSense.c **** 	uint32 curSensor;
 187:.\Generated_Source\PSoC4/CapSense.c **** 	
 188:.\Generated_Source\PSoC4/CapSense.c **** 	#if(CapSense_IS_SHIELD_ENABLE)
 189:.\Generated_Source\PSoC4/CapSense.c **** 		
 190:.\Generated_Source\PSoC4/CapSense.c **** 		#if((CapSense_CSH_TANK_PREGARGE_OPTION == CapSense__CAPPRIOBUF) || (0u != CapSense_CSH_TANK_ENABL
 191:.\Generated_Source\PSoC4/CapSense.c **** 			uint32 newRegValue;
 192:.\Generated_Source\PSoC4/CapSense.c **** 			
 193:.\Generated_Source\PSoC4/CapSense.c **** 			newRegValue = CapSense_CTANK_CONNECTION_REG;
 194:.\Generated_Source\PSoC4/CapSense.c **** 	        newRegValue &= ~(CapSense_CSD_CTANK_CONNECTION_MASK);
 195:.\Generated_Source\PSoC4/CapSense.c **** 			newRegValue |= CapSense_CSD_CTANK_TO_AMUXBUS_B;
 196:.\Generated_Source\PSoC4/CapSense.c **** 	        CapSense_CTANK_CONNECTION_REG = newRegValue;
 197:.\Generated_Source\PSoC4/CapSense.c **** 			
 198:.\Generated_Source\PSoC4/CapSense.c **** 			#if(CapSense_CSH_TANK_PREGARGE_OPTION == CapSense__CAPPRIOBUF)
 199:.\Generated_Source\PSoC4/CapSense.c **** 				newRegValue = CapSense_CTANK_PORT_PC_REG;
 200:.\Generated_Source\PSoC4/CapSense.c **** 		        newRegValue &= ~(CapSense_CSD_CTANK_PC_MASK);
 201:.\Generated_Source\PSoC4/CapSense.c **** 				newRegValue |= CapSense_CTANK_PC_STRONG_MODE;
 202:.\Generated_Source\PSoC4/CapSense.c **** 		        CapSense_CTANK_PORT_PC_REG = newRegValue;
 203:.\Generated_Source\PSoC4/CapSense.c **** 				
ARM GAS  C:\Users\Luci\AppData\Local\Temp\cckk3xx4.s 			page 5


 204:.\Generated_Source\PSoC4/CapSense.c **** 				newRegValue = CapSense_CTANK_PORT_DR_REG;
 205:.\Generated_Source\PSoC4/CapSense.c **** 		        newRegValue &= ~(CapSense_CTANK_DR_MASK);
 206:.\Generated_Source\PSoC4/CapSense.c **** 				newRegValue |= CapSense_CTANK_DR_CONFIG;
 207:.\Generated_Source\PSoC4/CapSense.c **** 		        CapSense_CTANK_PORT_DR_REG = newRegValue;
 208:.\Generated_Source\PSoC4/CapSense.c **** 			#endif /* (CapSense_CSH_TANK_PREGARGE_OPTION == CapSense__CAPPRIOBUF) */
 209:.\Generated_Source\PSoC4/CapSense.c **** 	        
 210:.\Generated_Source\PSoC4/CapSense.c **** 		#endif /* ((CapSense_CSH_TANK_PREGARGE_OPTION == CapSense__CAPPRIOBUF) || (CapSense_CSH_TANK_ENAB
 211:.\Generated_Source\PSoC4/CapSense.c **** 		
 212:.\Generated_Source\PSoC4/CapSense.c **** 		CapSense_EnableShieldElectrode((uint32)CapSense_SHIELD_PIN_NUMBER, (uint32)CapSense_SHIELD_PORT_N
 213:.\Generated_Source\PSoC4/CapSense.c **** 		
 214:.\Generated_Source\PSoC4/CapSense.c **** 	#endif /* (CapSense_IS_SHIELD_ENABLE) */
 215:.\Generated_Source\PSoC4/CapSense.c **** 	
 216:.\Generated_Source\PSoC4/CapSense.c **** 	for(curSensor = 0u; curSensor < CapSense_TOTAL_SENSOR_COUNT; curSensor++)
 217:.\Generated_Source\PSoC4/CapSense.c **** 	{
 218:.\Generated_Source\PSoC4/CapSense.c **** 		CapSense_unscannedSnsDriveMode[curSensor] = CapSense_CONNECT_INACTIVE_SNS;
 219:.\Generated_Source\PSoC4/CapSense.c **** 	}
 220:.\Generated_Source\PSoC4/CapSense.c ****     
 221:.\Generated_Source\PSoC4/CapSense.c **** 	CapSense_CsdHwBlockInit();
 222:.\Generated_Source\PSoC4/CapSense.c ****     CapSense_SetShieldDelay(CapSense_SHIELD_DELAY );
 223:.\Generated_Source\PSoC4/CapSense.c **** 	
 224:.\Generated_Source\PSoC4/CapSense.c **** 	/* Clear all sensors */
 225:.\Generated_Source\PSoC4/CapSense.c ****     CapSense_ClearSensors();
 226:.\Generated_Source\PSoC4/CapSense.c **** }
 227:.\Generated_Source\PSoC4/CapSense.c **** 
 228:.\Generated_Source\PSoC4/CapSense.c **** /*******************************************************************************
 229:.\Generated_Source\PSoC4/CapSense.c **** * Function Name: CapSense_CsdHwBlockInit
 230:.\Generated_Source\PSoC4/CapSense.c **** ********************************************************************************
 231:.\Generated_Source\PSoC4/CapSense.c **** *
 232:.\Generated_Source\PSoC4/CapSense.c **** * Summary:
 233:.\Generated_Source\PSoC4/CapSense.c **** *  Initialises the hardware parameters of the CSD block 
 234:.\Generated_Source\PSoC4/CapSense.c **** *
 235:.\Generated_Source\PSoC4/CapSense.c **** * Parameters:
 236:.\Generated_Source\PSoC4/CapSense.c **** *  None
 237:.\Generated_Source\PSoC4/CapSense.c **** *
 238:.\Generated_Source\PSoC4/CapSense.c **** * Return:
 239:.\Generated_Source\PSoC4/CapSense.c **** *  None
 240:.\Generated_Source\PSoC4/CapSense.c **** *
 241:.\Generated_Source\PSoC4/CapSense.c **** * Global Variables:
 242:.\Generated_Source\PSoC4/CapSense.c **** *  CapSense_csdTrim1 - Contains IDAC trim register value for Sourcing Mode.
 243:.\Generated_Source\PSoC4/CapSense.c **** *  CapSense_csdTrim2 - Contains IDAC trim register value for Sinking Mode.
 244:.\Generated_Source\PSoC4/CapSense.c **** *
 245:.\Generated_Source\PSoC4/CapSense.c **** * Side Effects:
 246:.\Generated_Source\PSoC4/CapSense.c **** *  None
 247:.\Generated_Source\PSoC4/CapSense.c **** * 
 248:.\Generated_Source\PSoC4/CapSense.c **** *******************************************************************************/
 249:.\Generated_Source\PSoC4/CapSense.c **** void CapSense_CsdHwBlockInit(void)
 250:.\Generated_Source\PSoC4/CapSense.c **** {
  26              		.loc 1 250 0
  27              		.cfi_startproc
  28 0000 38B5     		push	{r3, r4, r5, lr}
  29              		.cfi_def_cfa_offset 16
  30              		.cfi_offset 3, -16
  31              		.cfi_offset 4, -12
  32              		.cfi_offset 5, -8
  33              		.cfi_offset 14, -4
 251:.\Generated_Source\PSoC4/CapSense.c **** 	uint32 newRegValue;
 252:.\Generated_Source\PSoC4/CapSense.c **** 	
ARM GAS  C:\Users\Luci\AppData\Local\Temp\cckk3xx4.s 			page 6


 253:.\Generated_Source\PSoC4/CapSense.c **** 	    /* Set trim registers for CSD Mode */
 254:.\Generated_Source\PSoC4/CapSense.c ****     #if (CapSense_IDAC1_POLARITY == CapSense__IDAC_SINK)
 255:.\Generated_Source\PSoC4/CapSense.c **** 		/* iDAC1 Sinking Mode */ 
 256:.\Generated_Source\PSoC4/CapSense.c **** 		CapSense_csdTrim2 = (uint8)CapSense_CSD_TRIM2_REG;
 257:.\Generated_Source\PSoC4/CapSense.c **** 		newRegValue = CapSense_csdTrim2;
 258:.\Generated_Source\PSoC4/CapSense.c **** 		newRegValue &= CapSense_CSD_IDAC1_TRIM_MASK;
 259:.\Generated_Source\PSoC4/CapSense.c **** 		newRegValue |= (uint32)((uint32)CapSense_SFLASH_CSD_TRIM2_REG & (uint32)CapSense_CSFLASH_TRIM_IDA
 260:.\Generated_Source\PSoC4/CapSense.c **** 		
 261:.\Generated_Source\PSoC4/CapSense.c **** 		#if (CapSense_IDAC_CNT == 2u)
 262:.\Generated_Source\PSoC4/CapSense.c **** 		    /* iDAC2 Sinking Mode */ 
 263:.\Generated_Source\PSoC4/CapSense.c **** 			newRegValue &= CapSense_CSD_IDAC2_TRIM_MASK;
 264:.\Generated_Source\PSoC4/CapSense.c **** 			newRegValue |= (uint32)((uint32)CapSense_SFLASH_CSD_TRIM2_REG & (uint32)CapSense_CSFLASH_TRIM_ID
 265:.\Generated_Source\PSoC4/CapSense.c **** 		#endif /* (CapSense_IDAC_CNT == 2u) */
 266:.\Generated_Source\PSoC4/CapSense.c **** 		CapSense_CSD_TRIM2_REG = newRegValue;
 267:.\Generated_Source\PSoC4/CapSense.c ****     #else   
 268:.\Generated_Source\PSoC4/CapSense.c **** 		/* iDAC1 Sourcing Mode */ 
 269:.\Generated_Source\PSoC4/CapSense.c **** 		CapSense_csdTrim1 = (uint8)CapSense_CSD_TRIM1_REG;
  34              		.loc 1 269 0
  35 0002 164C     		ldr	r4, .L2
  36 0004 2368     		ldr	r3, [r4]
  37 0006 DBB2     		uxtb	r3, r3
  38 0008 154A     		ldr	r2, .L2+4
  39 000a 1370     		strb	r3, [r2]
  40              	.LVL0:
 270:.\Generated_Source\PSoC4/CapSense.c **** 		newRegValue = CapSense_csdTrim1;
 271:.\Generated_Source\PSoC4/CapSense.c **** 		newRegValue &= CapSense_CSD_IDAC1_TRIM_MASK;
  41              		.loc 1 271 0
  42 000c 0F20     		mov	r0, #15
  43 000e 8343     		bic	r3, r0
  44              	.LVL1:
  45 0010 191C     		mov	r1, r3
  46              	.LVL2:
 272:.\Generated_Source\PSoC4/CapSense.c **** 		newRegValue |= (uint32)((uint32)CapSense_SFLASH_CSD_TRIM1_REG & (uint32)CapSense_CSFLASH_TRIM_IDA
  47              		.loc 1 272 0
  48 0012 144D     		ldr	r5, .L2+8
  49 0014 2A78     		ldrb	r2, [r5]
  50 0016 0F23     		mov	r3, #15
  51 0018 1340     		and	r3, r2
  52 001a 0B43     		orr	r3, r1
  53              	.LVL3:
 273:.\Generated_Source\PSoC4/CapSense.c **** 		#if (CapSense_IDAC_CNT == 2u)
 274:.\Generated_Source\PSoC4/CapSense.c **** 		     /* iDAC2 Sourcing Mode */ 
 275:.\Generated_Source\PSoC4/CapSense.c **** 			newRegValue &= CapSense_CSD_IDAC2_TRIM_MASK;
  54              		.loc 1 275 0
  55 001c F022     		mov	r2, #240
  56 001e 9343     		bic	r3, r2
  57              	.LVL4:
  58 0020 1A1C     		mov	r2, r3
  59              	.LVL5:
 276:.\Generated_Source\PSoC4/CapSense.c **** 			newRegValue |= (uint32)((uint32)CapSense_SFLASH_CSD_TRIM1_REG & (uint32)CapSense_CSFLASH_TRIM_ID
  60              		.loc 1 276 0
  61 0022 2B78     		ldrb	r3, [r5]
  62 0024 8343     		bic	r3, r0
  63 0026 1343     		orr	r3, r2
  64              	.LVL6:
 277:.\Generated_Source\PSoC4/CapSense.c **** 		#endif		
 278:.\Generated_Source\PSoC4/CapSense.c **** 		CapSense_CSD_TRIM1_REG = newRegValue;
ARM GAS  C:\Users\Luci\AppData\Local\Temp\cckk3xx4.s 			page 7


  65              		.loc 1 278 0
  66 0028 2360     		str	r3, [r4]
 279:.\Generated_Source\PSoC4/CapSense.c ****     #endif /* (CapSense_IDAC1_POLARITY == CapSense__IDAC_SINK) */
 280:.\Generated_Source\PSoC4/CapSense.c **** 	
 281:.\Generated_Source\PSoC4/CapSense.c **** 	/* Configure CSD and IDAC */
 282:.\Generated_Source\PSoC4/CapSense.c **** 	#if (CapSense_IDAC_CNT > 1u)
 283:.\Generated_Source\PSoC4/CapSense.c **** 		CapSense_CSD_IDAC_REG = CapSense_DEFAULT_CSD_IDAC_CONFIG;
  67              		.loc 1 283 0
  68 002a 0F4A     		ldr	r2, .L2+12
  69 002c 0F4B     		ldr	r3, .L2+16
  70              	.LVL7:
  71 002e 1A60     		str	r2, [r3]
  72              	.LVL8:
 284:.\Generated_Source\PSoC4/CapSense.c **** 		CapSense_CSD_CFG_REG = CapSense_DEFAULT_CSD_CONFIG;
  73              		.loc 1 284 0
  74 0030 0F4A     		ldr	r2, .L2+20
  75 0032 104B     		ldr	r3, .L2+24
  76 0034 1A60     		str	r2, [r3]
 285:.\Generated_Source\PSoC4/CapSense.c **** 	#else
 286:.\Generated_Source\PSoC4/CapSense.c **** 		CapSense_CSD_IDAC_REG &= ~(CapSense_CSD_IDAC1_MODE_MASK  | CapSense_CSD_IDAC1_DATA_MASK);
 287:.\Generated_Source\PSoC4/CapSense.c **** 		CapSense_CSD_IDAC_REG |= CapSense_DEFAULT_CSD_IDAC_CONFIG;
 288:.\Generated_Source\PSoC4/CapSense.c **** 		
 289:.\Generated_Source\PSoC4/CapSense.c **** 		CapSense_CSD_CFG_REG &= ~(CapSense_CSD_CONFIG_MASK);
 290:.\Generated_Source\PSoC4/CapSense.c **** 		CapSense_CSD_CFG_REG |= (CapSense_DEFAULT_CSD_CONFIG);
 291:.\Generated_Source\PSoC4/CapSense.c **** 	#endif /* (CapSense_IDAC_CNT > 1u) */
 292:.\Generated_Source\PSoC4/CapSense.c **** 	
 293:.\Generated_Source\PSoC4/CapSense.c **** 	
 294:.\Generated_Source\PSoC4/CapSense.c **** 	/* Connect Cmod to AMUX bus */ 
 295:.\Generated_Source\PSoC4/CapSense.c **** 	newRegValue = CapSense_CMOD_CONNECTION_REG; 
  77              		.loc 1 295 0
  78 0036 1049     		ldr	r1, .L2+28
  79 0038 0B68     		ldr	r3, [r1]
  80              	.LVL9:
 296:.\Generated_Source\PSoC4/CapSense.c ****     newRegValue &= ~(CapSense_CSD_CMOD_CONNECTION_MASK);
  81              		.loc 1 296 0
  82 003a 8343     		bic	r3, r0
  83              	.LVL10:
 297:.\Generated_Source\PSoC4/CapSense.c ****     newRegValue |= CapSense_CSD_CMOD_TO_AMUXBUS_A;
  84              		.loc 1 297 0
  85 003c 0622     		mov	r2, #6
  86 003e 1343     		orr	r3, r2
  87              	.LVL11:
 298:.\Generated_Source\PSoC4/CapSense.c ****     CapSense_CMOD_CONNECTION_REG = newRegValue;
  88              		.loc 1 298 0
  89 0040 0B60     		str	r3, [r1]
 299:.\Generated_Source\PSoC4/CapSense.c **** 	
 300:.\Generated_Source\PSoC4/CapSense.c **** 	/* Configure Dead Band PWM if it is enabled */
 301:.\Generated_Source\PSoC4/CapSense.c **** 	#if(CapSense_CSD_4B_PWM_MODE != CapSense__PWM_OFF)
 302:.\Generated_Source\PSoC4/CapSense.c **** 		CapSense_CSD_4B_PWM_REG = CapSense_DEFAULT_CSD_4B_PWM_CONFIG;
 303:.\Generated_Source\PSoC4/CapSense.c **** 	#endif /* (CapSense_CSD_4B_PWM_MODE != CapSense__PWM_OFF) */
 304:.\Generated_Source\PSoC4/CapSense.c **** 
 305:.\Generated_Source\PSoC4/CapSense.c **** 	/* Setup ISR */
 306:.\Generated_Source\PSoC4/CapSense.c **** 	CyIntDisable(CapSense_ISR_NUMBER);
  90              		.loc 1 306 0
  91 0042 0130     		add	r0, r0, #1
  92 0044 FFF7FEFF 		bl	CyIntDisable
  93              	.LVL12:
ARM GAS  C:\Users\Luci\AppData\Local\Temp\cckk3xx4.s 			page 8


 307:.\Generated_Source\PSoC4/CapSense.c **** 	#if !defined(CY_EXTERNAL_INTERRUPT_CONFIG)		
 308:.\Generated_Source\PSoC4/CapSense.c **** 	    (void)CyIntSetVector(CapSense_ISR_NUMBER, &CapSense_ISR);
  94              		.loc 1 308 0
  95 0048 1020     		mov	r0, #16
  96 004a 0C49     		ldr	r1, .L2+32
  97 004c FFF7FEFF 		bl	CyIntSetVector
  98              	.LVL13:
 309:.\Generated_Source\PSoC4/CapSense.c **** 	    CyIntSetPriority(CapSense_ISR_NUMBER, CapSense_ISR_PRIORITY);
  99              		.loc 1 309 0
 100 0050 1020     		mov	r0, #16
 101 0052 0321     		mov	r1, #3
 102 0054 FFF7FEFF 		bl	CyIntSetPriority
 103              	.LVL14:
 310:.\Generated_Source\PSoC4/CapSense.c **** 	#endif /* (CY_EXTERNAL_INTERRUPT_CONFIG) */
 311:.\Generated_Source\PSoC4/CapSense.c **** }
 104              		.loc 1 311 0
 105              		@ sp needed
 106 0058 38BD     		pop	{r3, r4, r5, pc}
 107              	.L3:
 108 005a C046     		.align	2
 109              	.L2:
 110 005c 00FF2840 		.word	1076428544
 111 0060 00000000 		.word	CapSense_csdTrim1
 112 0064 62F2FF0F 		.word	268431970
 113 0068 00020001 		.word	16777728
 114 006c 08002840 		.word	1076363272
 115 0070 0008A001 		.word	27265024
 116 0074 04002840 		.word	1076363268
 117 0078 00040240 		.word	1073873920
 118 007c 00000000 		.word	CapSense_ISR
 119              		.cfi_endproc
 120              	.LFE36:
 121              		.size	CapSense_CsdHwBlockInit, .-CapSense_CsdHwBlockInit
 122              		.section	.text.CapSense_Enable,"ax",%progbits
 123              		.align	2
 124              		.global	CapSense_Enable
 125              		.code	16
 126              		.thumb_func
 127              		.type	CapSense_Enable, %function
 128              	CapSense_Enable:
 129              	.LFB37:
 312:.\Generated_Source\PSoC4/CapSense.c **** 
 313:.\Generated_Source\PSoC4/CapSense.c **** 
 314:.\Generated_Source\PSoC4/CapSense.c **** /*******************************************************************************
 315:.\Generated_Source\PSoC4/CapSense.c **** * Function Name: CapSense_Enable
 316:.\Generated_Source\PSoC4/CapSense.c **** ********************************************************************************
 317:.\Generated_Source\PSoC4/CapSense.c **** *
 318:.\Generated_Source\PSoC4/CapSense.c **** * Summary:
 319:.\Generated_Source\PSoC4/CapSense.c **** *  Enables the CSD block and related resources to an active mode.
 320:.\Generated_Source\PSoC4/CapSense.c **** *
 321:.\Generated_Source\PSoC4/CapSense.c **** * Parameters:
 322:.\Generated_Source\PSoC4/CapSense.c **** *  None
 323:.\Generated_Source\PSoC4/CapSense.c **** *
 324:.\Generated_Source\PSoC4/CapSense.c **** * Return:
 325:.\Generated_Source\PSoC4/CapSense.c **** *  None
 326:.\Generated_Source\PSoC4/CapSense.c **** *
 327:.\Generated_Source\PSoC4/CapSense.c **** * Global Variables:
ARM GAS  C:\Users\Luci\AppData\Local\Temp\cckk3xx4.s 			page 9


 328:.\Generated_Source\PSoC4/CapSense.c **** *  None.
 329:.\Generated_Source\PSoC4/CapSense.c **** *
 330:.\Generated_Source\PSoC4/CapSense.c **** * Side Effects:
 331:.\Generated_Source\PSoC4/CapSense.c **** *  None
 332:.\Generated_Source\PSoC4/CapSense.c **** * 
 333:.\Generated_Source\PSoC4/CapSense.c **** *******************************************************************************/
 334:.\Generated_Source\PSoC4/CapSense.c **** void CapSense_Enable(void)
 335:.\Generated_Source\PSoC4/CapSense.c **** {
 130              		.loc 1 335 0
 131              		.cfi_startproc
 132 0000 08B5     		push	{r3, lr}
 133              		.cfi_def_cfa_offset 8
 134              		.cfi_offset 3, -8
 135              		.cfi_offset 14, -4
 336:.\Generated_Source\PSoC4/CapSense.c ****     uint32 newRegValue;
 337:.\Generated_Source\PSoC4/CapSense.c ****     
 338:.\Generated_Source\PSoC4/CapSense.c ****     /* Enable Clocks */
 339:.\Generated_Source\PSoC4/CapSense.c **** 	CapSense_SenseClk_Stop();
 136              		.loc 1 339 0
 137 0002 FFF7FEFF 		bl	CapSense_SenseClk_Stop
 138              	.LVL15:
 340:.\Generated_Source\PSoC4/CapSense.c **** 	CapSense_SampleClk_Stop();
 139              		.loc 1 340 0
 140 0006 FFF7FEFF 		bl	CapSense_SampleClk_Stop
 141              	.LVL16:
 341:.\Generated_Source\PSoC4/CapSense.c **** 	
 342:.\Generated_Source\PSoC4/CapSense.c **** 	CapSense_SampleClk_SetDividerValue((uint16)CapSense_INITIAL_CLK_DIVIDER);
 142              		.loc 1 342 0
 143 000a 0020     		mov	r0, #0
 144 000c 0021     		mov	r1, #0
 145 000e FFF7FEFF 		bl	CapSense_SampleClk_SetFractionalDividerRegister
 146              	.LVL17:
 343:.\Generated_Source\PSoC4/CapSense.c **** 	CapSense_SenseClk_SetDividerValue((uint16)CapSense_INITIAL_CLK_DIVIDER);
 147              		.loc 1 343 0
 148 0012 0020     		mov	r0, #0
 149 0014 0021     		mov	r1, #0
 150 0016 FFF7FEFF 		bl	CapSense_SenseClk_SetFractionalDividerRegister
 151              	.LVL18:
 344:.\Generated_Source\PSoC4/CapSense.c **** 	
 345:.\Generated_Source\PSoC4/CapSense.c **** 	#if (0u == CapSense_IS_M0S8PERI_BLOCK)
 346:.\Generated_Source\PSoC4/CapSense.c **** 		CapSense_SenseClk_Start();
 347:.\Generated_Source\PSoC4/CapSense.c **** 		CapSense_SampleClk_Start();
 348:.\Generated_Source\PSoC4/CapSense.c **** 	#else
 349:.\Generated_Source\PSoC4/CapSense.c **** 		CapSense_SampleClk_Start();
 152              		.loc 1 349 0
 153 001a FF20     		mov	r0, #255
 154 001c FFF7FEFF 		bl	CapSense_SampleClk_StartEx
 155              	.LVL19:
 350:.\Generated_Source\PSoC4/CapSense.c **** 		CapSense_SenseClk_StartEx(CapSense_SampleClk__DIV_ID);
 156              		.loc 1 350 0
 157 0020 4020     		mov	r0, #64
 158 0022 FFF7FEFF 		bl	CapSense_SenseClk_StartEx
 159              	.LVL20:
 351:.\Generated_Source\PSoC4/CapSense.c **** 	#endif /* (0u == CapSense_IS_M0S8PERI_BLOCK) */
 352:.\Generated_Source\PSoC4/CapSense.c **** 	
 353:.\Generated_Source\PSoC4/CapSense.c **** 	/* Enable the CSD block */
 354:.\Generated_Source\PSoC4/CapSense.c ****     newRegValue = CapSense_CSD_CFG_REG;
ARM GAS  C:\Users\Luci\AppData\Local\Temp\cckk3xx4.s 			page 10


 160              		.loc 1 354 0
 161 0026 044A     		ldr	r2, .L5
 162 0028 1368     		ldr	r3, [r2]
 163              	.LVL21:
 355:.\Generated_Source\PSoC4/CapSense.c ****     newRegValue |= (CapSense_CSD_CFG_ENABLE | CapSense_CSD_CFG_SENSE_COMP_EN 
 164              		.loc 1 355 0
 165 002a 0449     		ldr	r1, .L5+4
 166 002c 0B43     		orr	r3, r1
 167              	.LVL22:
 356:.\Generated_Source\PSoC4/CapSense.c ****                                                    | CapSense_CSD_CFG_SENSE_EN);    
 357:.\Generated_Source\PSoC4/CapSense.c ****     CapSense_CSD_CFG_REG = newRegValue;
 168              		.loc 1 357 0
 169 002e 1360     		str	r3, [r2]
 358:.\Generated_Source\PSoC4/CapSense.c **** 
 359:.\Generated_Source\PSoC4/CapSense.c ****     /* Enable interrupt */
 360:.\Generated_Source\PSoC4/CapSense.c ****     CyIntEnable(CapSense_ISR_NUMBER);
 170              		.loc 1 360 0
 171 0030 1020     		mov	r0, #16
 172 0032 FFF7FEFF 		bl	CyIntEnable
 173              	.LVL23:
 361:.\Generated_Source\PSoC4/CapSense.c **** }
 174              		.loc 1 361 0
 175              		@ sp needed
 176 0036 08BD     		pop	{r3, pc}
 177              	.L6:
 178              		.align	2
 179              	.L5:
 180 0038 04002840 		.word	1076363268
 181 003c 00100880 		.word	-2146955264
 182              		.cfi_endproc
 183              	.LFE37:
 184              		.size	CapSense_Enable, .-CapSense_Enable
 185              		.section	.text.CapSense_Stop,"ax",%progbits
 186              		.align	2
 187              		.global	CapSense_Stop
 188              		.code	16
 189              		.thumb_func
 190              		.type	CapSense_Stop, %function
 191              	CapSense_Stop:
 192              	.LFB39:
 362:.\Generated_Source\PSoC4/CapSense.c **** 
 363:.\Generated_Source\PSoC4/CapSense.c **** 
 364:.\Generated_Source\PSoC4/CapSense.c **** /*******************************************************************************
 365:.\Generated_Source\PSoC4/CapSense.c **** * Function Name: CapSense_Start
 366:.\Generated_Source\PSoC4/CapSense.c **** ********************************************************************************
 367:.\Generated_Source\PSoC4/CapSense.c **** *
 368:.\Generated_Source\PSoC4/CapSense.c **** * Summary:
 369:.\Generated_Source\PSoC4/CapSense.c **** *  This is the preferred method to begin the component operation. CapSense_Start() 
 370:.\Generated_Source\PSoC4/CapSense.c **** *  calls the CapSense_Init() function, and then calls the CapSense_Enable() 
 371:.\Generated_Source\PSoC4/CapSense.c **** *  function. Initializes the registers and starts the CSD method of the CapSense 
 372:.\Generated_Source\PSoC4/CapSense.c **** *  component. Resets all the sensors to an inactive state. Enables interrupts for 
 373:.\Generated_Source\PSoC4/CapSense.c **** *  sensors scanning. When the SmartSense tuning mode is selected, the tuning procedure
 374:.\Generated_Source\PSoC4/CapSense.c **** *  is applied for all the sensors. The CapSense_Start() routine must be called before 
 375:.\Generated_Source\PSoC4/CapSense.c **** *  any other API routines.
 376:.\Generated_Source\PSoC4/CapSense.c **** *
 377:.\Generated_Source\PSoC4/CapSense.c **** * Parameters:
 378:.\Generated_Source\PSoC4/CapSense.c **** *  None
ARM GAS  C:\Users\Luci\AppData\Local\Temp\cckk3xx4.s 			page 11


 379:.\Generated_Source\PSoC4/CapSense.c **** *
 380:.\Generated_Source\PSoC4/CapSense.c **** * Return:
 381:.\Generated_Source\PSoC4/CapSense.c **** *  None
 382:.\Generated_Source\PSoC4/CapSense.c **** *
 383:.\Generated_Source\PSoC4/CapSense.c **** * Global Variables:
 384:.\Generated_Source\PSoC4/CapSense.c **** *   CapSense_initVar - used to check the initial configuration, 
 385:.\Generated_Source\PSoC4/CapSense.c **** *   modified on the first function call.
 386:.\Generated_Source\PSoC4/CapSense.c **** *  CapSense_lowLevelTuningDone - Used to notify the Tuner GUI that 
 387:.\Generated_Source\PSoC4/CapSense.c **** *   tuning of the scanning parameters is done. 
 388:.\Generated_Source\PSoC4/CapSense.c **** *
 389:.\Generated_Source\PSoC4/CapSense.c **** * Side Effects:
 390:.\Generated_Source\PSoC4/CapSense.c **** *  None
 391:.\Generated_Source\PSoC4/CapSense.c **** * 
 392:.\Generated_Source\PSoC4/CapSense.c **** *******************************************************************************/
 393:.\Generated_Source\PSoC4/CapSense.c **** void CapSense_Start(void)
 394:.\Generated_Source\PSoC4/CapSense.c **** {
 395:.\Generated_Source\PSoC4/CapSense.c **** 
 396:.\Generated_Source\PSoC4/CapSense.c **** 	static uint8 CapSense_initVar = 0u;
 397:.\Generated_Source\PSoC4/CapSense.c **** 
 398:.\Generated_Source\PSoC4/CapSense.c **** 	#if((0u != CapSense_AUTOCALIBRATION_ENABLE) && (CapSense_TUNING_METHOD != CapSense__TUNING_AUTO))
 399:.\Generated_Source\PSoC4/CapSense.c **** 		uint32 curSensor;
 400:.\Generated_Source\PSoC4/CapSense.c **** 		uint32 rawLevel;
 401:.\Generated_Source\PSoC4/CapSense.c **** 		uint32 widget;
 402:.\Generated_Source\PSoC4/CapSense.c ****     #endif /* ((0u != CapSense_AUTOCALIBRATION_ENABLE) && (CapSense_TUNING_METHOD != CapSense__TUNI
 403:.\Generated_Source\PSoC4/CapSense.c **** 	
 404:.\Generated_Source\PSoC4/CapSense.c ****     if (CapSense_initVar == 0u)
 405:.\Generated_Source\PSoC4/CapSense.c ****     {
 406:.\Generated_Source\PSoC4/CapSense.c ****         CapSense_Init();
 407:.\Generated_Source\PSoC4/CapSense.c ****         CapSense_initVar = 1u;
 408:.\Generated_Source\PSoC4/CapSense.c ****     }
 409:.\Generated_Source\PSoC4/CapSense.c ****     CapSense_Enable();
 410:.\Generated_Source\PSoC4/CapSense.c **** 	
 411:.\Generated_Source\PSoC4/CapSense.c ****     /* AutoTunning start */
 412:.\Generated_Source\PSoC4/CapSense.c ****     #if(CapSense_TUNING_METHOD == CapSense__TUNING_AUTO)
 413:.\Generated_Source\PSoC4/CapSense.c **** 		#if(0u != CapSense_CSHL_API_GENERATE)
 414:.\Generated_Source\PSoC4/CapSense.c **** 	        CapSense_AutoTune();
 415:.\Generated_Source\PSoC4/CapSense.c **** 	        CapSense_lowLevelTuningDone = 1u;
 416:.\Generated_Source\PSoC4/CapSense.c **** 		#endif /* (0u != CapSense_CSHL_API_GENERATE) */
 417:.\Generated_Source\PSoC4/CapSense.c **** 	#else
 418:.\Generated_Source\PSoC4/CapSense.c **** 		#if(0u != CapSense_AUTOCALIBRATION_ENABLE)
 419:.\Generated_Source\PSoC4/CapSense.c **** 			
 420:.\Generated_Source\PSoC4/CapSense.c **** 			#if(CapSense_IDAC_CNT > 1u)
 421:.\Generated_Source\PSoC4/CapSense.c **** 				CapSense_CSD_IDAC_REG &= ~(CapSense_CSD_IDAC2_MODE_MASK);	
 422:.\Generated_Source\PSoC4/CapSense.c **** 			#endif /* (CapSense_IDAC_CNT > 1u) */
 423:.\Generated_Source\PSoC4/CapSense.c **** 			
 424:.\Generated_Source\PSoC4/CapSense.c **** 			for(curSensor = 0u; curSensor < CapSense_TOTAL_SCANSLOT_COUNT; curSensor++)
 425:.\Generated_Source\PSoC4/CapSense.c **** 			{
 426:.\Generated_Source\PSoC4/CapSense.c **** 				widget = CapSense_widgetNumber[curSensor];
 427:.\Generated_Source\PSoC4/CapSense.c **** 				rawLevel = CapSense_widgetResolution[widget] >> CapSense_RESOLUTION_OFFSET;
 428:.\Generated_Source\PSoC4/CapSense.c **** 				
 429:.\Generated_Source\PSoC4/CapSense.c **** 				/* Calibration level should be equal to 85% from scanning resolution */
 430:.\Generated_Source\PSoC4/CapSense.c **** 				rawLevel = (rawLevel * 85u) / 100u;
 431:.\Generated_Source\PSoC4/CapSense.c **** 				
 432:.\Generated_Source\PSoC4/CapSense.c **** 				CapSense_CalibrateSensor(curSensor, rawLevel, CapSense_modulationIDAC);
 433:.\Generated_Source\PSoC4/CapSense.c **** 			}
 434:.\Generated_Source\PSoC4/CapSense.c **** 
 435:.\Generated_Source\PSoC4/CapSense.c **** 			#if(0u != CapSense_TOTAL_CENTROIDS_COUNT) 
ARM GAS  C:\Users\Luci\AppData\Local\Temp\cckk3xx4.s 			page 12


 436:.\Generated_Source\PSoC4/CapSense.c **** 				CapSense_NormalizeWidgets(CapSense_END_OF_WIDGETS_INDEX, CapSense_modulationIDAC);
 437:.\Generated_Source\PSoC4/CapSense.c **** 			#endif /* (0u != CapSense_TOTAL_CENTROIDS_COUNT)  */
 438:.\Generated_Source\PSoC4/CapSense.c **** 
 439:.\Generated_Source\PSoC4/CapSense.c **** 			#if(CapSense_IDAC_CNT > 1u)
 440:.\Generated_Source\PSoC4/CapSense.c **** 				for(curSensor = 0u; curSensor < CapSense_TOTAL_SCANSLOT_COUNT; curSensor++)
 441:.\Generated_Source\PSoC4/CapSense.c **** 			    {
 442:.\Generated_Source\PSoC4/CapSense.c **** 					CapSense_compensationIDAC[curSensor] = CapSense_modulationIDAC[curSensor] / 2u;
 443:.\Generated_Source\PSoC4/CapSense.c **** 					CapSense_modulationIDAC[curSensor] = (CapSense_modulationIDAC[curSensor] + 1u) / 2u;
 444:.\Generated_Source\PSoC4/CapSense.c **** 			    }
 445:.\Generated_Source\PSoC4/CapSense.c **** 				CapSense_CSD_IDAC_REG |= CapSense_CSD_IDAC2_MODE_FIXED;
 446:.\Generated_Source\PSoC4/CapSense.c **** 			#endif /* (CapSense_IDAC_CNT > 1u) */
 447:.\Generated_Source\PSoC4/CapSense.c **** 			
 448:.\Generated_Source\PSoC4/CapSense.c ****         #endif /* (0u != CapSense_AUTOCALIBRATION_ENABLE) */ 
 449:.\Generated_Source\PSoC4/CapSense.c **** 					
 450:.\Generated_Source\PSoC4/CapSense.c ****     #endif /* ((CapSense_TUNING_METHOD == CapSense__TUNING_AUTO) */	
 451:.\Generated_Source\PSoC4/CapSense.c **** 	
 452:.\Generated_Source\PSoC4/CapSense.c **** 	/* Initialize Advanced Centroid */
 453:.\Generated_Source\PSoC4/CapSense.c **** 	#if(CapSense_TOTAL_TRACKPAD_GESTURES_COUNT > 0u)
 454:.\Generated_Source\PSoC4/CapSense.c **** 		CapSense_AdvancedCentroidInit();
 455:.\Generated_Source\PSoC4/CapSense.c **** 	#endif /* (CapSense_TOTAL_TRACKPAD_GESTURES_COUNT > 0u) */
 456:.\Generated_Source\PSoC4/CapSense.c **** 	
 457:.\Generated_Source\PSoC4/CapSense.c **** 	/* Connect sense comparator input to AMUXA */
 458:.\Generated_Source\PSoC4/CapSense.c **** 	CapSense_CSD_CFG_REG |= CapSense_CSD_CFG_SENSE_INSEL;
 459:.\Generated_Source\PSoC4/CapSense.c **** }
 460:.\Generated_Source\PSoC4/CapSense.c **** 
 461:.\Generated_Source\PSoC4/CapSense.c **** 
 462:.\Generated_Source\PSoC4/CapSense.c **** /*******************************************************************************
 463:.\Generated_Source\PSoC4/CapSense.c **** * Function Name: CapSense_Stop
 464:.\Generated_Source\PSoC4/CapSense.c **** ********************************************************************************
 465:.\Generated_Source\PSoC4/CapSense.c **** *
 466:.\Generated_Source\PSoC4/CapSense.c **** * Summary:
 467:.\Generated_Source\PSoC4/CapSense.c **** *  Stops the sensor scanning, disables component interrupts, and resets all the 
 468:.\Generated_Source\PSoC4/CapSense.c **** *  sensors to an inactive state. Disables the Active mode power template bits for
 469:.\Generated_Source\PSoC4/CapSense.c **** *  the subcomponents used within CapSense.
 470:.\Generated_Source\PSoC4/CapSense.c **** *
 471:.\Generated_Source\PSoC4/CapSense.c **** * Parameters:
 472:.\Generated_Source\PSoC4/CapSense.c **** *  None
 473:.\Generated_Source\PSoC4/CapSense.c **** *
 474:.\Generated_Source\PSoC4/CapSense.c **** * Return:
 475:.\Generated_Source\PSoC4/CapSense.c **** *  None
 476:.\Generated_Source\PSoC4/CapSense.c **** *
 477:.\Generated_Source\PSoC4/CapSense.c **** * Global Variables:
 478:.\Generated_Source\PSoC4/CapSense.c **** *  CapSense_csdTrim1 - Contains the IDAC trim register value for the Sourcing Mode.
 479:.\Generated_Source\PSoC4/CapSense.c **** *  CapSense_csdTrim2 - Contains the IDAC trim register value for vSinking Mode.
 480:.\Generated_Source\PSoC4/CapSense.c **** *
 481:.\Generated_Source\PSoC4/CapSense.c **** * Side Effects:
 482:.\Generated_Source\PSoC4/CapSense.c **** *  This function should be called after scans are completed.
 483:.\Generated_Source\PSoC4/CapSense.c **** *
 484:.\Generated_Source\PSoC4/CapSense.c **** *******************************************************************************/
 485:.\Generated_Source\PSoC4/CapSense.c **** void CapSense_Stop(void)
 486:.\Generated_Source\PSoC4/CapSense.c **** {
 193              		.loc 1 486 0
 194              		.cfi_startproc
 195 0000 08B5     		push	{r3, lr}
 196              		.cfi_def_cfa_offset 8
 197              		.cfi_offset 3, -8
 198              		.cfi_offset 14, -4
ARM GAS  C:\Users\Luci\AppData\Local\Temp\cckk3xx4.s 			page 13


 487:.\Generated_Source\PSoC4/CapSense.c ****     /* Disable interrupt */
 488:.\Generated_Source\PSoC4/CapSense.c ****     CyIntDisable(CapSense_ISR_NUMBER);
 199              		.loc 1 488 0
 200 0002 1020     		mov	r0, #16
 201 0004 FFF7FEFF 		bl	CyIntDisable
 202              	.LVL24:
 489:.\Generated_Source\PSoC4/CapSense.c **** 	
 490:.\Generated_Source\PSoC4/CapSense.c **** 	CapSense_CSD_CFG_REG &= ~(CapSense_CSD_CFG_SENSE_COMP_EN | CapSense_CSD_CFG_SENSE_EN);
 203              		.loc 1 490 0
 204 0008 064A     		ldr	r2, .L8
 205 000a 1168     		ldr	r1, [r2]
 206 000c 064B     		ldr	r3, .L8+4
 207 000e 0B40     		and	r3, r1
 208 0010 1360     		str	r3, [r2]
 491:.\Generated_Source\PSoC4/CapSense.c **** 	
 492:.\Generated_Source\PSoC4/CapSense.c **** 	#if(CapSense_IDAC_CNT == 2u)
 493:.\Generated_Source\PSoC4/CapSense.c **** 		CapSense_CSD_CFG_REG &= ~(CapSense_CSD_CFG_ENABLE);
 209              		.loc 1 493 0
 210 0012 1368     		ldr	r3, [r2]
 211 0014 5B00     		lsl	r3, r3, #1
 212 0016 5B08     		lsr	r3, r3, #1
 213 0018 1360     		str	r3, [r2]
 494:.\Generated_Source\PSoC4/CapSense.c **** 	#endif /* (CapSense_IDAC_CNT == 2u) */
 495:.\Generated_Source\PSoC4/CapSense.c **** 
 496:.\Generated_Source\PSoC4/CapSense.c ****     /* Disable the Clocks */
 497:.\Generated_Source\PSoC4/CapSense.c ****     CapSense_SenseClk_Stop();
 214              		.loc 1 497 0
 215 001a FFF7FEFF 		bl	CapSense_SenseClk_Stop
 216              	.LVL25:
 498:.\Generated_Source\PSoC4/CapSense.c ****     CapSense_SampleClk_Stop();
 217              		.loc 1 498 0
 218 001e FFF7FEFF 		bl	CapSense_SampleClk_Stop
 219              	.LVL26:
 499:.\Generated_Source\PSoC4/CapSense.c **** }
 220              		.loc 1 499 0
 221              		@ sp needed
 222 0022 08BD     		pop	{r3, pc}
 223              	.L9:
 224              		.align	2
 225              	.L8:
 226 0024 04002840 		.word	1076363268
 227 0028 FFEFF7FF 		.word	-528385
 228              		.cfi_endproc
 229              	.LFE39:
 230              		.size	CapSense_Stop, .-CapSense_Stop
 231              		.section	.text.CapSense_IsBusy,"ax",%progbits
 232              		.align	2
 233              		.global	CapSense_IsBusy
 234              		.code	16
 235              		.thumb_func
 236              		.type	CapSense_IsBusy, %function
 237              	CapSense_IsBusy:
 238              	.LFB44:
 500:.\Generated_Source\PSoC4/CapSense.c **** 
 501:.\Generated_Source\PSoC4/CapSense.c **** 
 502:.\Generated_Source\PSoC4/CapSense.c **** /*******************************************************************************
 503:.\Generated_Source\PSoC4/CapSense.c **** * Function Name: CapSense_FindNextSensor
ARM GAS  C:\Users\Luci\AppData\Local\Temp\cckk3xx4.s 			page 14


 504:.\Generated_Source\PSoC4/CapSense.c **** ********************************************************************************
 505:.\Generated_Source\PSoC4/CapSense.c **** *
 506:.\Generated_Source\PSoC4/CapSense.c **** * Summary:
 507:.\Generated_Source\PSoC4/CapSense.c **** *  Finds the next sensor to scan. 
 508:.\Generated_Source\PSoC4/CapSense.c **** *
 509:.\Generated_Source\PSoC4/CapSense.c **** * Parameters:
 510:.\Generated_Source\PSoC4/CapSense.c **** *  snsIndex:  Current index of sensor.
 511:.\Generated_Source\PSoC4/CapSense.c **** *
 512:.\Generated_Source\PSoC4/CapSense.c **** * Return:
 513:.\Generated_Source\PSoC4/CapSense.c **** *  Returns the next sensor index to scan.
 514:.\Generated_Source\PSoC4/CapSense.c **** *
 515:.\Generated_Source\PSoC4/CapSense.c **** * Global Variables:
 516:.\Generated_Source\PSoC4/CapSense.c **** *  CapSense_sensorEnableMask[] - used to store bit masks of the enabled sensors.
 517:.\Generated_Source\PSoC4/CapSense.c **** *
 518:.\Generated_Source\PSoC4/CapSense.c **** * Side Effects:
 519:.\Generated_Source\PSoC4/CapSense.c **** *  This function affects the  current scanning and should not
 520:.\Generated_Source\PSoC4/CapSense.c **** *  be used outside the component.
 521:.\Generated_Source\PSoC4/CapSense.c **** *
 522:.\Generated_Source\PSoC4/CapSense.c **** *******************************************************************************/
 523:.\Generated_Source\PSoC4/CapSense.c **** uint8 CapSense_FindNextSensor(uint8 snsIndex)
 524:.\Generated_Source\PSoC4/CapSense.c **** {
 525:.\Generated_Source\PSoC4/CapSense.c ****     uint32 enableFlag;
 526:.\Generated_Source\PSoC4/CapSense.c ****     
 527:.\Generated_Source\PSoC4/CapSense.c ****     /* Check if sensor enabled */
 528:.\Generated_Source\PSoC4/CapSense.c ****     do
 529:.\Generated_Source\PSoC4/CapSense.c ****     {
 530:.\Generated_Source\PSoC4/CapSense.c ****         /* Proceed with next sensor */
 531:.\Generated_Source\PSoC4/CapSense.c ****         snsIndex++;
 532:.\Generated_Source\PSoC4/CapSense.c ****         if(snsIndex == CapSense_TOTAL_SENSOR_COUNT)
 533:.\Generated_Source\PSoC4/CapSense.c ****         {
 534:.\Generated_Source\PSoC4/CapSense.c ****             break;
 535:.\Generated_Source\PSoC4/CapSense.c ****         }
 536:.\Generated_Source\PSoC4/CapSense.c ****         enableFlag = CapSense_GetBitValue(CapSense_sensorEnableMask, (uint32)snsIndex);
 537:.\Generated_Source\PSoC4/CapSense.c ****     }    
 538:.\Generated_Source\PSoC4/CapSense.c ****     while(enableFlag == 0u);
 539:.\Generated_Source\PSoC4/CapSense.c ****     
 540:.\Generated_Source\PSoC4/CapSense.c ****     return ((uint8)snsIndex);
 541:.\Generated_Source\PSoC4/CapSense.c **** }
 542:.\Generated_Source\PSoC4/CapSense.c **** 
 543:.\Generated_Source\PSoC4/CapSense.c **** 
 544:.\Generated_Source\PSoC4/CapSense.c **** /*******************************************************************************
 545:.\Generated_Source\PSoC4/CapSense.c **** * Function Name: CapSense_ScanSensor
 546:.\Generated_Source\PSoC4/CapSense.c **** ********************************************************************************
 547:.\Generated_Source\PSoC4/CapSense.c **** *
 548:.\Generated_Source\PSoC4/CapSense.c **** * Summary:
 549:.\Generated_Source\PSoC4/CapSense.c **** *  Sets the scan settings and starts scanning a sensor. After scanning is complete,
 550:.\Generated_Source\PSoC4/CapSense.c **** *  the ISR copies the measured sensor raw data to the global raw sensor array. 
 551:.\Generated_Source\PSoC4/CapSense.c **** *  Use of the ISR ensures this function is non-blocking. 
 552:.\Generated_Source\PSoC4/CapSense.c **** *  Each sensor has a unique number within the sensor array. 
 553:.\Generated_Source\PSoC4/CapSense.c **** *  This number is assigned by the CapSense customizer in sequence.
 554:.\Generated_Source\PSoC4/CapSense.c **** *
 555:.\Generated_Source\PSoC4/CapSense.c **** * Parameters:
 556:.\Generated_Source\PSoC4/CapSense.c **** *  sensor:  Sensor number.
 557:.\Generated_Source\PSoC4/CapSense.c **** *
 558:.\Generated_Source\PSoC4/CapSense.c **** * Return:
 559:.\Generated_Source\PSoC4/CapSense.c **** *  None
 560:.\Generated_Source\PSoC4/CapSense.c **** *
ARM GAS  C:\Users\Luci\AppData\Local\Temp\cckk3xx4.s 			page 15


 561:.\Generated_Source\PSoC4/CapSense.c **** * Global Variables:
 562:.\Generated_Source\PSoC4/CapSense.c **** *  CapSense_csdStatusVar - used to provide the status and mode of the scanning process. 
 563:.\Generated_Source\PSoC4/CapSense.c **** *  Sets the busy status(scan in progress) and mode of scan as single scan.
 564:.\Generated_Source\PSoC4/CapSense.c **** *  CapSense_sensorIndex - used to store a sensor scanning sensor number.
 565:.\Generated_Source\PSoC4/CapSense.c **** *  Sets to the provided sensor argument.
 566:.\Generated_Source\PSoC4/CapSense.c **** *
 567:.\Generated_Source\PSoC4/CapSense.c **** * Side Effects:
 568:.\Generated_Source\PSoC4/CapSense.c **** *  None
 569:.\Generated_Source\PSoC4/CapSense.c **** * 
 570:.\Generated_Source\PSoC4/CapSense.c **** *******************************************************************************/
 571:.\Generated_Source\PSoC4/CapSense.c **** void CapSense_ScanSensor(uint32 sensor)
 572:.\Generated_Source\PSoC4/CapSense.c **** {
 573:.\Generated_Source\PSoC4/CapSense.c ****     /* Clears status/control variable and set sensorIndex */
 574:.\Generated_Source\PSoC4/CapSense.c ****     CapSense_csdStatusVar = 0u;
 575:.\Generated_Source\PSoC4/CapSense.c ****     CapSense_sensorIndex = (uint8)sensor;
 576:.\Generated_Source\PSoC4/CapSense.c ****     
 577:.\Generated_Source\PSoC4/CapSense.c ****     /* Start of sensor scan */
 578:.\Generated_Source\PSoC4/CapSense.c ****     CapSense_csdStatusVar = (CapSense_SW_STS_BUSY | CapSense_SW_CTRL_SINGLE_SCAN);
 579:.\Generated_Source\PSoC4/CapSense.c ****     CapSense_PreScan(sensor);
 580:.\Generated_Source\PSoC4/CapSense.c **** }
 581:.\Generated_Source\PSoC4/CapSense.c **** 
 582:.\Generated_Source\PSoC4/CapSense.c **** 
 583:.\Generated_Source\PSoC4/CapSense.c **** #if(0u != CapSense_CSHL_API_GENERATE)
 584:.\Generated_Source\PSoC4/CapSense.c **** /*******************************************************************************
 585:.\Generated_Source\PSoC4/CapSense.c **** * Function Name: CapSense_ScanWidget
 586:.\Generated_Source\PSoC4/CapSense.c **** ********************************************************************************
 587:.\Generated_Source\PSoC4/CapSense.c **** *
 588:.\Generated_Source\PSoC4/CapSense.c **** * Summary:
 589:.\Generated_Source\PSoC4/CapSense.c **** *  Sets the scan settings and starts scanning a widget.
 590:.\Generated_Source\PSoC4/CapSense.c **** *
 591:.\Generated_Source\PSoC4/CapSense.c **** * Parameters:
 592:.\Generated_Source\PSoC4/CapSense.c **** *  uint32 widget: Widget number.
 593:.\Generated_Source\PSoC4/CapSense.c **** *
 594:.\Generated_Source\PSoC4/CapSense.c **** * Return:
 595:.\Generated_Source\PSoC4/CapSense.c **** *  None
 596:.\Generated_Source\PSoC4/CapSense.c **** *
 597:.\Generated_Source\PSoC4/CapSense.c **** * Global Variables:
 598:.\Generated_Source\PSoC4/CapSense.c **** *  CapSense_csdStatusVar - used to provide the status and mode of the scanning process. 
 599:.\Generated_Source\PSoC4/CapSense.c **** *  Sets the busy status(scan in progress) and clears the single scan mode.
 600:.\Generated_Source\PSoC4/CapSense.c **** *  CapSense_sensorIndex - used to store a sensor scanning sensor number.
 601:.\Generated_Source\PSoC4/CapSense.c **** *  Sets to 0xFF and provided to function CapSense_FindNextSensor or
 602:.\Generated_Source\PSoC4/CapSense.c **** *  CapSense_sensorEnableMask[] - used to store bit masks of the enabled sensors.
 603:.\Generated_Source\PSoC4/CapSense.c **** *  CapSense_sensorEnableMaskBackup[] - used to backup bit masks of the enabled
 604:.\Generated_Source\PSoC4/CapSense.c **** *   sensors.
 605:.\Generated_Source\PSoC4/CapSense.c **** *
 606:.\Generated_Source\PSoC4/CapSense.c **** * Side Effects:
 607:.\Generated_Source\PSoC4/CapSense.c **** *  None
 608:.\Generated_Source\PSoC4/CapSense.c **** * 
 609:.\Generated_Source\PSoC4/CapSense.c **** *******************************************************************************/
 610:.\Generated_Source\PSoC4/CapSense.c **** void CapSense_ScanWidget(uint32 widget)
 611:.\Generated_Source\PSoC4/CapSense.c **** {
 612:.\Generated_Source\PSoC4/CapSense.c ****     uint32 sensorsPerWidget;
 613:.\Generated_Source\PSoC4/CapSense.c ****     uint32 lastSensor;
 614:.\Generated_Source\PSoC4/CapSense.c ****     uint32 snsIndex;
 615:.\Generated_Source\PSoC4/CapSense.c **** 
 616:.\Generated_Source\PSoC4/CapSense.c **** 	/* Get first sensor in widget */
 617:.\Generated_Source\PSoC4/CapSense.c **** 	CapSense_sensorIndex = CapSense_rawDataIndex[widget];
ARM GAS  C:\Users\Luci\AppData\Local\Temp\cckk3xx4.s 			page 16


 618:.\Generated_Source\PSoC4/CapSense.c **** 	
 619:.\Generated_Source\PSoC4/CapSense.c **** 	/* Get number of sensors in widget */
 620:.\Generated_Source\PSoC4/CapSense.c **** 	sensorsPerWidget = CapSense_numberOfSensors[widget];
 621:.\Generated_Source\PSoC4/CapSense.c **** 	
 622:.\Generated_Source\PSoC4/CapSense.c **** 	/* Check if generic Sensor */
 623:.\Generated_Source\PSoC4/CapSense.c **** 	if(sensorsPerWidget == 0u)
 624:.\Generated_Source\PSoC4/CapSense.c **** 	{
 625:.\Generated_Source\PSoC4/CapSense.c **** 		sensorsPerWidget = 1u;
 626:.\Generated_Source\PSoC4/CapSense.c **** 	}
 627:.\Generated_Source\PSoC4/CapSense.c **** 	
 628:.\Generated_Source\PSoC4/CapSense.c **** 	/* Get last sensor in widget */
 629:.\Generated_Source\PSoC4/CapSense.c **** 	lastSensor = (CapSense_rawDataIndex[widget] + sensorsPerWidget) - 1u;
 630:.\Generated_Source\PSoC4/CapSense.c **** 
 631:.\Generated_Source\PSoC4/CapSense.c **** 	/* Backup sensorEnableMask array */
 632:.\Generated_Source\PSoC4/CapSense.c **** 	for(snsIndex = 0u; snsIndex < CapSense_TOTAL_SENSOR_MASK; snsIndex++)
 633:.\Generated_Source\PSoC4/CapSense.c **** 	{
 634:.\Generated_Source\PSoC4/CapSense.c **** 		/* Backup sensorEnableMask array */
 635:.\Generated_Source\PSoC4/CapSense.c **** 		CapSense_sensorEnableMaskBackup[snsIndex] = CapSense_sensorEnableMask[snsIndex];
 636:.\Generated_Source\PSoC4/CapSense.c **** 	}
 637:.\Generated_Source\PSoC4/CapSense.c **** 
 638:.\Generated_Source\PSoC4/CapSense.c **** 	/* Update sensorEnableMask to scan the sensors that belong to widget */
 639:.\Generated_Source\PSoC4/CapSense.c **** 	for(snsIndex = 0u; snsIndex < CapSense_TOTAL_SENSOR_COUNT; snsIndex++)
 640:.\Generated_Source\PSoC4/CapSense.c **** 	{
 641:.\Generated_Source\PSoC4/CapSense.c **** 		/* Update sensorEnableMask array bits to scan the widget only */ 
 642:.\Generated_Source\PSoC4/CapSense.c **** 	    if((snsIndex >= CapSense_sensorIndex) && (snsIndex <= lastSensor))
 643:.\Generated_Source\PSoC4/CapSense.c **** 		{
 644:.\Generated_Source\PSoC4/CapSense.c **** 		    /* Set sensor bit to scan */
 645:.\Generated_Source\PSoC4/CapSense.c **** 			CapSense_SetBitValue(CapSense_sensorEnableMask, snsIndex, 1u);
 646:.\Generated_Source\PSoC4/CapSense.c **** 		}
 647:.\Generated_Source\PSoC4/CapSense.c **** 		else
 648:.\Generated_Source\PSoC4/CapSense.c **** 		{
 649:.\Generated_Source\PSoC4/CapSense.c **** 		    /* Reset sensor bit to do not scan */
 650:.\Generated_Source\PSoC4/CapSense.c **** 		    CapSense_SetBitValue(CapSense_sensorEnableMask, snsIndex, 0u);
 651:.\Generated_Source\PSoC4/CapSense.c **** 		}
 652:.\Generated_Source\PSoC4/CapSense.c **** 	}
 653:.\Generated_Source\PSoC4/CapSense.c **** 
 654:.\Generated_Source\PSoC4/CapSense.c ****     /* Check end of scan condition */
 655:.\Generated_Source\PSoC4/CapSense.c ****     if(CapSense_sensorIndex < CapSense_TOTAL_SENSOR_COUNT)
 656:.\Generated_Source\PSoC4/CapSense.c ****     {
 657:.\Generated_Source\PSoC4/CapSense.c **** 		/* Set widget busy bit in status/control variable*/ 
 658:.\Generated_Source\PSoC4/CapSense.c **** 		CapSense_csdStatusVar = (CapSense_SW_STS_BUSY | CapSense_SW_CTRL_WIDGET_SCAN);
 659:.\Generated_Source\PSoC4/CapSense.c **** 		/* Scan first sensor of widget*/ 
 660:.\Generated_Source\PSoC4/CapSense.c ****         CapSense_PreScan((uint32)CapSense_sensorIndex);
 661:.\Generated_Source\PSoC4/CapSense.c ****     }
 662:.\Generated_Source\PSoC4/CapSense.c **** }
 663:.\Generated_Source\PSoC4/CapSense.c **** #endif /* (0u != CapSense_CSHL_API_GENERATE) */
 664:.\Generated_Source\PSoC4/CapSense.c **** 
 665:.\Generated_Source\PSoC4/CapSense.c **** 
 666:.\Generated_Source\PSoC4/CapSense.c **** /*******************************************************************************
 667:.\Generated_Source\PSoC4/CapSense.c **** * Function Name: CapSense_ScanEnableWidgets
 668:.\Generated_Source\PSoC4/CapSense.c **** ********************************************************************************
 669:.\Generated_Source\PSoC4/CapSense.c **** *
 670:.\Generated_Source\PSoC4/CapSense.c **** * Summary:
 671:.\Generated_Source\PSoC4/CapSense.c **** *  This is the preferred method to scan all of the enabled widgets. 
 672:.\Generated_Source\PSoC4/CapSense.c **** *  The API starts scanning a sensor within the enabled widgets. 
 673:.\Generated_Source\PSoC4/CapSense.c **** *  The ISR continues scanning the sensors until all the enabled widgets are scanned. 
 674:.\Generated_Source\PSoC4/CapSense.c **** *  Use of the ISR ensures this function is non-blocking.
ARM GAS  C:\Users\Luci\AppData\Local\Temp\cckk3xx4.s 			page 17


 675:.\Generated_Source\PSoC4/CapSense.c **** *  All the widgets are enabled by default except proximity widgets. 
 676:.\Generated_Source\PSoC4/CapSense.c **** *  The proximity widgets must be manually enabled as their long scan time 
 677:.\Generated_Source\PSoC4/CapSense.c **** *  is incompatible with a fast response required of other widget types.
 678:.\Generated_Source\PSoC4/CapSense.c **** *
 679:.\Generated_Source\PSoC4/CapSense.c **** * Parameters:
 680:.\Generated_Source\PSoC4/CapSense.c **** *  None
 681:.\Generated_Source\PSoC4/CapSense.c **** *
 682:.\Generated_Source\PSoC4/CapSense.c **** * Return:
 683:.\Generated_Source\PSoC4/CapSense.c **** *  None
 684:.\Generated_Source\PSoC4/CapSense.c **** *
 685:.\Generated_Source\PSoC4/CapSense.c **** * Global Variables:
 686:.\Generated_Source\PSoC4/CapSense.c **** *  CapSense_csdStatusVar - used to provide the status and mode of the scanning process. 
 687:.\Generated_Source\PSoC4/CapSense.c **** *  Sets the busy status(scan in progress) and clears the single scan mode.
 688:.\Generated_Source\PSoC4/CapSense.c **** *  CapSense_sensorIndex - used to store a sensor scanning sensor number.
 689:.\Generated_Source\PSoC4/CapSense.c **** *  Sets to 0xFF and provided to function CapSense_FindNextSensor or
 690:.\Generated_Source\PSoC4/CapSense.c **** *
 691:.\Generated_Source\PSoC4/CapSense.c **** * Side Effects:
 692:.\Generated_Source\PSoC4/CapSense.c **** *  None
 693:.\Generated_Source\PSoC4/CapSense.c **** * 
 694:.\Generated_Source\PSoC4/CapSense.c **** *******************************************************************************/
 695:.\Generated_Source\PSoC4/CapSense.c **** void CapSense_ScanEnabledWidgets(void)
 696:.\Generated_Source\PSoC4/CapSense.c **** {
 697:.\Generated_Source\PSoC4/CapSense.c ****     /* Clears status/control variable and set sensorIndex */
 698:.\Generated_Source\PSoC4/CapSense.c ****     CapSense_csdStatusVar = 0u;
 699:.\Generated_Source\PSoC4/CapSense.c ****     CapSense_sensorIndex = 0xFFu;
 700:.\Generated_Source\PSoC4/CapSense.c ****     
 701:.\Generated_Source\PSoC4/CapSense.c ****     /* Find next sensor */
 702:.\Generated_Source\PSoC4/CapSense.c ****     CapSense_sensorIndex = (uint8)CapSense_FindNextSensor(CapSense_sensorIndex);
 703:.\Generated_Source\PSoC4/CapSense.c **** 
 704:.\Generated_Source\PSoC4/CapSense.c ****     /* Check end of scan condition */
 705:.\Generated_Source\PSoC4/CapSense.c ****     if(CapSense_sensorIndex < CapSense_TOTAL_SENSOR_COUNT)
 706:.\Generated_Source\PSoC4/CapSense.c ****     {
 707:.\Generated_Source\PSoC4/CapSense.c ****         CapSense_csdStatusVar |= CapSense_SW_STS_BUSY;
 708:.\Generated_Source\PSoC4/CapSense.c ****         CapSense_PreScan((uint32)CapSense_sensorIndex);
 709:.\Generated_Source\PSoC4/CapSense.c ****     }
 710:.\Generated_Source\PSoC4/CapSense.c **** }
 711:.\Generated_Source\PSoC4/CapSense.c **** 
 712:.\Generated_Source\PSoC4/CapSense.c **** 
 713:.\Generated_Source\PSoC4/CapSense.c **** /*******************************************************************************
 714:.\Generated_Source\PSoC4/CapSense.c **** * Function Name: CapSense_IsBusy
 715:.\Generated_Source\PSoC4/CapSense.c **** ********************************************************************************
 716:.\Generated_Source\PSoC4/CapSense.c **** *
 717:.\Generated_Source\PSoC4/CapSense.c **** * Summary:
 718:.\Generated_Source\PSoC4/CapSense.c **** *  Returns the state of the CapSense component. 1 means that scanning in 
 719:.\Generated_Source\PSoC4/CapSense.c **** *  progress and 0 means that scanning is complete.
 720:.\Generated_Source\PSoC4/CapSense.c **** *
 721:.\Generated_Source\PSoC4/CapSense.c **** * Parameters:
 722:.\Generated_Source\PSoC4/CapSense.c **** *  None
 723:.\Generated_Source\PSoC4/CapSense.c **** *
 724:.\Generated_Source\PSoC4/CapSense.c **** * Return:
 725:.\Generated_Source\PSoC4/CapSense.c **** *  Returns the state of scanning. 1 - scanning in progress, 0 - scanning 
 726:.\Generated_Source\PSoC4/CapSense.c **** *  completed.
 727:.\Generated_Source\PSoC4/CapSense.c **** *
 728:.\Generated_Source\PSoC4/CapSense.c **** * Global Variables:
 729:.\Generated_Source\PSoC4/CapSense.c **** *  CapSense_csdStatusVar - used to provide the status and mode of the scanning process. 
 730:.\Generated_Source\PSoC4/CapSense.c **** *  Checks the busy status.
 731:.\Generated_Source\PSoC4/CapSense.c **** *
ARM GAS  C:\Users\Luci\AppData\Local\Temp\cckk3xx4.s 			page 18


 732:.\Generated_Source\PSoC4/CapSense.c **** * Side Effects:
 733:.\Generated_Source\PSoC4/CapSense.c **** *  None
 734:.\Generated_Source\PSoC4/CapSense.c **** * 
 735:.\Generated_Source\PSoC4/CapSense.c **** *******************************************************************************/
 736:.\Generated_Source\PSoC4/CapSense.c **** uint32 CapSense_IsBusy(void)
 737:.\Generated_Source\PSoC4/CapSense.c **** {
 239              		.loc 1 737 0
 240              		.cfi_startproc
 738:.\Generated_Source\PSoC4/CapSense.c ****     return ((uint32)((0u != (CapSense_csdStatusVar & CapSense_SW_STS_BUSY)) ? 1u : 0u));
 241              		.loc 1 738 0
 242 0000 024B     		ldr	r3, .L11
 243 0002 1878     		ldrb	r0, [r3]
 244 0004 0123     		mov	r3, #1
 245 0006 1840     		and	r0, r3
 739:.\Generated_Source\PSoC4/CapSense.c **** }
 246              		.loc 1 739 0
 247              		@ sp needed
 248 0008 7047     		bx	lr
 249              	.L12:
 250 000a C046     		.align	2
 251              	.L11:
 252 000c 00000000 		.word	.LANCHOR0
 253              		.cfi_endproc
 254              	.LFE44:
 255              		.size	CapSense_IsBusy, .-CapSense_IsBusy
 256              		.section	.text.CapSense_ReadSensorRaw,"ax",%progbits
 257              		.align	2
 258              		.global	CapSense_ReadSensorRaw
 259              		.code	16
 260              		.thumb_func
 261              		.type	CapSense_ReadSensorRaw, %function
 262              	CapSense_ReadSensorRaw:
 263              	.LFB45:
 740:.\Generated_Source\PSoC4/CapSense.c **** 
 741:.\Generated_Source\PSoC4/CapSense.c **** 
 742:.\Generated_Source\PSoC4/CapSense.c **** /*******************************************************************************
 743:.\Generated_Source\PSoC4/CapSense.c **** * Function Name: CapSense_ReadSensorRaw
 744:.\Generated_Source\PSoC4/CapSense.c **** ********************************************************************************
 745:.\Generated_Source\PSoC4/CapSense.c **** *
 746:.\Generated_Source\PSoC4/CapSense.c **** * Summary:
 747:.\Generated_Source\PSoC4/CapSense.c **** *  Returns sensor raw data from the global CapSense_sensorRaw[ ] array. 
 748:.\Generated_Source\PSoC4/CapSense.c **** *  Each scan sensor has a unique number within the sensor array. 
 749:.\Generated_Source\PSoC4/CapSense.c **** *  This number is assigned by the CapSense customizer in sequence. 
 750:.\Generated_Source\PSoC4/CapSense.c **** *  Raw data can be used to perform calculations outside of the CapSense 
 751:.\Generated_Source\PSoC4/CapSense.c **** *  provided framework.
 752:.\Generated_Source\PSoC4/CapSense.c **** *
 753:.\Generated_Source\PSoC4/CapSense.c **** * Parameters:
 754:.\Generated_Source\PSoC4/CapSense.c **** *  sensor:  Sensor number.
 755:.\Generated_Source\PSoC4/CapSense.c **** *
 756:.\Generated_Source\PSoC4/CapSense.c **** * Return:
 757:.\Generated_Source\PSoC4/CapSense.c **** *  Returns the current raw data value for a defined sensor number.
 758:.\Generated_Source\PSoC4/CapSense.c **** *
 759:.\Generated_Source\PSoC4/CapSense.c **** * Global Variables:
 760:.\Generated_Source\PSoC4/CapSense.c **** *  CapSense_sensorRaw[] - used to store sensors raw data.
 761:.\Generated_Source\PSoC4/CapSense.c **** *
 762:.\Generated_Source\PSoC4/CapSense.c **** * Side Effects: 
 763:.\Generated_Source\PSoC4/CapSense.c **** *  None
ARM GAS  C:\Users\Luci\AppData\Local\Temp\cckk3xx4.s 			page 19


 764:.\Generated_Source\PSoC4/CapSense.c **** *
 765:.\Generated_Source\PSoC4/CapSense.c **** *******************************************************************************/
 766:.\Generated_Source\PSoC4/CapSense.c **** uint16 CapSense_ReadSensorRaw(uint32 sensor)
 767:.\Generated_Source\PSoC4/CapSense.c **** {
 264              		.loc 1 767 0
 265              		.cfi_startproc
 266              	.LVL27:
 768:.\Generated_Source\PSoC4/CapSense.c ****     return CapSense_sensorRaw[sensor];
 267              		.loc 1 768 0
 268 0000 4000     		lsl	r0, r0, #1
 269              	.LVL28:
 270 0002 024B     		ldr	r3, .L14
 271 0004 1818     		add	r0, r3, r0
 272 0006 8088     		ldrh	r0, [r0, #4]
 769:.\Generated_Source\PSoC4/CapSense.c **** }
 273              		.loc 1 769 0
 274              		@ sp needed
 275 0008 7047     		bx	lr
 276              	.L15:
 277 000a C046     		.align	2
 278              	.L14:
 279 000c 00000000 		.word	.LANCHOR0
 280              		.cfi_endproc
 281              	.LFE45:
 282              		.size	CapSense_ReadSensorRaw, .-CapSense_ReadSensorRaw
 283              		.section	.text.CapSense_WriteSensorRaw,"ax",%progbits
 284              		.align	2
 285              		.global	CapSense_WriteSensorRaw
 286              		.code	16
 287              		.thumb_func
 288              		.type	CapSense_WriteSensorRaw, %function
 289              	CapSense_WriteSensorRaw:
 290              	.LFB46:
 770:.\Generated_Source\PSoC4/CapSense.c **** 
 771:.\Generated_Source\PSoC4/CapSense.c **** 
 772:.\Generated_Source\PSoC4/CapSense.c **** /*******************************************************************************
 773:.\Generated_Source\PSoC4/CapSense.c **** * Function Name: CapSense_WriteSensorRaw
 774:.\Generated_Source\PSoC4/CapSense.c **** ********************************************************************************
 775:.\Generated_Source\PSoC4/CapSense.c **** *
 776:.\Generated_Source\PSoC4/CapSense.c **** * Summary:
 777:.\Generated_Source\PSoC4/CapSense.c **** *  This API writes the raw count value passed as an argument to the sensor Raw count array.
 778:.\Generated_Source\PSoC4/CapSense.c **** *
 779:.\Generated_Source\PSoC4/CapSense.c **** * Parameters:
 780:.\Generated_Source\PSoC4/CapSense.c **** *  sensor:  Sensor number.
 781:.\Generated_Source\PSoC4/CapSense.c **** *  value: Raw count value.
 782:.\Generated_Source\PSoC4/CapSense.c **** *
 783:.\Generated_Source\PSoC4/CapSense.c **** * Global Variables:
 784:.\Generated_Source\PSoC4/CapSense.c **** *  CapSense_sensorRaw[] - used to store sensors raw data.
 785:.\Generated_Source\PSoC4/CapSense.c **** *
 786:.\Generated_Source\PSoC4/CapSense.c **** * Return:
 787:.\Generated_Source\PSoC4/CapSense.c **** *  None
 788:.\Generated_Source\PSoC4/CapSense.c **** *
 789:.\Generated_Source\PSoC4/CapSense.c **** * Side Effects: 
 790:.\Generated_Source\PSoC4/CapSense.c **** *  None
 791:.\Generated_Source\PSoC4/CapSense.c **** *
 792:.\Generated_Source\PSoC4/CapSense.c **** *******************************************************************************/
 793:.\Generated_Source\PSoC4/CapSense.c **** void CapSense_WriteSensorRaw(uint32 sensor, uint16 value)
ARM GAS  C:\Users\Luci\AppData\Local\Temp\cckk3xx4.s 			page 20


 794:.\Generated_Source\PSoC4/CapSense.c **** {
 291              		.loc 1 794 0
 292              		.cfi_startproc
 293              	.LVL29:
 795:.\Generated_Source\PSoC4/CapSense.c **** 	CapSense_sensorRaw[sensor] = value;
 294              		.loc 1 795 0
 295 0000 4000     		lsl	r0, r0, #1
 296              	.LVL30:
 297 0002 024B     		ldr	r3, .L17
 298 0004 1818     		add	r0, r3, r0
 299 0006 8180     		strh	r1, [r0, #4]
 796:.\Generated_Source\PSoC4/CapSense.c **** }
 300              		.loc 1 796 0
 301              		@ sp needed
 302 0008 7047     		bx	lr
 303              	.L18:
 304 000a C046     		.align	2
 305              	.L17:
 306 000c 00000000 		.word	.LANCHOR0
 307              		.cfi_endproc
 308              	.LFE46:
 309              		.size	CapSense_WriteSensorRaw, .-CapSense_WriteSensorRaw
 310              		.section	.text.CapSense_SetScanResolution,"ax",%progbits
 311              		.align	2
 312              		.global	CapSense_SetScanResolution
 313              		.code	16
 314              		.thumb_func
 315              		.type	CapSense_SetScanResolution, %function
 316              	CapSense_SetScanResolution:
 317              	.LFB47:
 797:.\Generated_Source\PSoC4/CapSense.c **** 
 798:.\Generated_Source\PSoC4/CapSense.c **** 
 799:.\Generated_Source\PSoC4/CapSense.c **** #if (CapSense_TUNING_METHOD != CapSense__TUNING_NONE)
 800:.\Generated_Source\PSoC4/CapSense.c **** 	/*******************************************************************************
 801:.\Generated_Source\PSoC4/CapSense.c **** 	* Function Name: CapSense_SetScanResolution
 802:.\Generated_Source\PSoC4/CapSense.c **** 	********************************************************************************
 803:.\Generated_Source\PSoC4/CapSense.c **** 	*
 804:.\Generated_Source\PSoC4/CapSense.c **** 	* Summary:
 805:.\Generated_Source\PSoC4/CapSense.c **** 	*  Sets a value of the sensor scan resolution for a widget. 
 806:.\Generated_Source\PSoC4/CapSense.c **** 	*  The MIN resolution can be set 8-bit. The MAX Resolution can be set 16 bit.
 807:.\Generated_Source\PSoC4/CapSense.c **** 	*  This function is not available for the tuning mode "None".
 808:.\Generated_Source\PSoC4/CapSense.c **** 	*
 809:.\Generated_Source\PSoC4/CapSense.c **** 	* Parameters:
 810:.\Generated_Source\PSoC4/CapSense.c **** 	*  widget:     Widget index.
 811:.\Generated_Source\PSoC4/CapSense.c **** 	*  resolution: Represents the resolution value. The following defines which are available in the
 812:.\Generated_Source\PSoC4/CapSense.c **** 	*			   CapSense.h file should be used:
 813:.\Generated_Source\PSoC4/CapSense.c **** 	*			   CapSense_RESOLUTION_6_BITS
 814:.\Generated_Source\PSoC4/CapSense.c **** 	*			   CapSense_RESOLUTION_7_BITS
 815:.\Generated_Source\PSoC4/CapSense.c **** 	*			   CapSense_RESOLUTION_8_BITS
 816:.\Generated_Source\PSoC4/CapSense.c **** 	*			   CapSense_RESOLUTION_9_BITS
 817:.\Generated_Source\PSoC4/CapSense.c **** 	*			   CapSense_RESOLUTION_10_BITS
 818:.\Generated_Source\PSoC4/CapSense.c **** 	*			   CapSense_RESOLUTION_11_BITS
 819:.\Generated_Source\PSoC4/CapSense.c **** 	*			   CapSense_RESOLUTION_12_BITS
 820:.\Generated_Source\PSoC4/CapSense.c **** 	*			   CapSense_RESOLUTION_13_BITS
 821:.\Generated_Source\PSoC4/CapSense.c **** 	*			   CapSense_RESOLUTION_14_BITS
 822:.\Generated_Source\PSoC4/CapSense.c **** 	*			   CapSense_RESOLUTION_15_BITS
 823:.\Generated_Source\PSoC4/CapSense.c **** 	*			   CapSense_RESOLUTION_16_BITS
ARM GAS  C:\Users\Luci\AppData\Local\Temp\cckk3xx4.s 			page 21


 824:.\Generated_Source\PSoC4/CapSense.c **** 	*
 825:.\Generated_Source\PSoC4/CapSense.c **** 	* Return:
 826:.\Generated_Source\PSoC4/CapSense.c **** 	*  None
 827:.\Generated_Source\PSoC4/CapSense.c **** 	*
 828:.\Generated_Source\PSoC4/CapSense.c **** 	* Global Variables:
 829:.\Generated_Source\PSoC4/CapSense.c **** 	*  CapSense_widgetResolution[] - used to store scan resolution of each widget.
 830:.\Generated_Source\PSoC4/CapSense.c **** 	*
 831:.\Generated_Source\PSoC4/CapSense.c **** 	* Side Effects: 
 832:.\Generated_Source\PSoC4/CapSense.c **** 	*  None
 833:.\Generated_Source\PSoC4/CapSense.c **** 	*
 834:.\Generated_Source\PSoC4/CapSense.c **** 	*******************************************************************************/
 835:.\Generated_Source\PSoC4/CapSense.c **** 	void CapSense_SetScanResolution(uint32 widget, uint32 resolution)
 836:.\Generated_Source\PSoC4/CapSense.c **** 	{ 
 318              		.loc 1 836 0
 319              		.cfi_startproc
 320              	.LVL31:
 837:.\Generated_Source\PSoC4/CapSense.c ****         CapSense_widgetResolution[widget] = resolution;
 321              		.loc 1 837 0
 322 0000 8000     		lsl	r0, r0, #2
 323              	.LVL32:
 324 0002 014B     		ldr	r3, .L20
 325 0004 C150     		str	r1, [r0, r3]
 838:.\Generated_Source\PSoC4/CapSense.c **** 	}
 326              		.loc 1 838 0
 327              		@ sp needed
 328 0006 7047     		bx	lr
 329              	.L21:
 330              		.align	2
 331              	.L20:
 332 0008 00000000 		.word	.LANCHOR1
 333              		.cfi_endproc
 334              	.LFE47:
 335              		.size	CapSense_SetScanResolution, .-CapSense_SetScanResolution
 336              		.section	.text.CapSense_GetScanResolution,"ax",%progbits
 337              		.align	2
 338              		.global	CapSense_GetScanResolution
 339              		.code	16
 340              		.thumb_func
 341              		.type	CapSense_GetScanResolution, %function
 342              	CapSense_GetScanResolution:
 343              	.LFB48:
 839:.\Generated_Source\PSoC4/CapSense.c **** #endif /* (CapSense_TUNING_METHOD != CapSense__TUNING_NONE) */
 840:.\Generated_Source\PSoC4/CapSense.c **** 
 841:.\Generated_Source\PSoC4/CapSense.c **** 
 842:.\Generated_Source\PSoC4/CapSense.c **** /*******************************************************************************
 843:.\Generated_Source\PSoC4/CapSense.c **** * Function Name: CapSense_GetScanResolution
 844:.\Generated_Source\PSoC4/CapSense.c **** ********************************************************************************
 845:.\Generated_Source\PSoC4/CapSense.c **** *
 846:.\Generated_Source\PSoC4/CapSense.c **** * Summary:
 847:.\Generated_Source\PSoC4/CapSense.c **** *  Returns the resolution value for the appropriate sensor.
 848:.\Generated_Source\PSoC4/CapSense.c **** *  This function is not available for tuning mode "None".
 849:.\Generated_Source\PSoC4/CapSense.c **** *
 850:.\Generated_Source\PSoC4/CapSense.c **** * Parameters:
 851:.\Generated_Source\PSoC4/CapSense.c **** *  widget:     Widget index.
 852:.\Generated_Source\PSoC4/CapSense.c **** *
 853:.\Generated_Source\PSoC4/CapSense.c **** * Return:
 854:.\Generated_Source\PSoC4/CapSense.c **** *  resolution: Returns the resolution value for the appropriate sensor. 
ARM GAS  C:\Users\Luci\AppData\Local\Temp\cckk3xx4.s 			page 22


 855:.\Generated_Source\PSoC4/CapSense.c **** *              The resolution values are defined in the CapSense.h file 
 856:.\Generated_Source\PSoC4/CapSense.c **** *              The defines are encountered below:
 857:.\Generated_Source\PSoC4/CapSense.c **** *			   CapSense_RESOLUTION_6_BITS
 858:.\Generated_Source\PSoC4/CapSense.c **** *			   CapSense_RESOLUTION_7_BITS
 859:.\Generated_Source\PSoC4/CapSense.c **** *			   CapSense_RESOLUTION_8_BITS
 860:.\Generated_Source\PSoC4/CapSense.c **** *			   CapSense_RESOLUTION_9_BITS
 861:.\Generated_Source\PSoC4/CapSense.c **** *			   CapSense_RESOLUTION_10_BITS
 862:.\Generated_Source\PSoC4/CapSense.c **** *			   CapSense_RESOLUTION_11_BITS
 863:.\Generated_Source\PSoC4/CapSense.c **** *			   CapSense_RESOLUTION_12_BITS
 864:.\Generated_Source\PSoC4/CapSense.c **** *			   CapSense_RESOLUTION_13_BITS
 865:.\Generated_Source\PSoC4/CapSense.c **** *			   CapSense_RESOLUTION_14_BITS
 866:.\Generated_Source\PSoC4/CapSense.c **** *			   CapSense_RESOLUTION_15_BITS
 867:.\Generated_Source\PSoC4/CapSense.c **** *			   CapSense_RESOLUTION_16_BITS
 868:.\Generated_Source\PSoC4/CapSense.c **** *
 869:.\Generated_Source\PSoC4/CapSense.c **** * Global Variables:
 870:.\Generated_Source\PSoC4/CapSense.c **** *  CapSense_widgetResolution[] - used to store scan resolution of every widget.
 871:.\Generated_Source\PSoC4/CapSense.c **** *
 872:.\Generated_Source\PSoC4/CapSense.c **** * Side Effects: 
 873:.\Generated_Source\PSoC4/CapSense.c **** *  None
 874:.\Generated_Source\PSoC4/CapSense.c **** *
 875:.\Generated_Source\PSoC4/CapSense.c **** *******************************************************************************/
 876:.\Generated_Source\PSoC4/CapSense.c **** uint32 CapSense_GetScanResolution(uint32 widget)
 877:.\Generated_Source\PSoC4/CapSense.c **** {
 344              		.loc 1 877 0
 345              		.cfi_startproc
 346              	.LVL33:
 878:.\Generated_Source\PSoC4/CapSense.c **** 	return(CapSense_widgetResolution[widget]);
 347              		.loc 1 878 0
 348 0000 8000     		lsl	r0, r0, #2
 349              	.LVL34:
 350 0002 014B     		ldr	r3, .L23
 351 0004 C058     		ldr	r0, [r0, r3]
 879:.\Generated_Source\PSoC4/CapSense.c **** }
 352              		.loc 1 879 0
 353              		@ sp needed
 354 0006 7047     		bx	lr
 355              	.L24:
 356              		.align	2
 357              	.L23:
 358 0008 00000000 		.word	.LANCHOR1
 359              		.cfi_endproc
 360              	.LFE48:
 361              		.size	CapSense_GetScanResolution, .-CapSense_GetScanResolution
 362              		.section	.text.CapSense_EnableSensor,"ax",%progbits
 363              		.align	2
 364              		.global	CapSense_EnableSensor
 365              		.code	16
 366              		.thumb_func
 367              		.type	CapSense_EnableSensor, %function
 368              	CapSense_EnableSensor:
 369              	.LFB50:
 880:.\Generated_Source\PSoC4/CapSense.c **** 
 881:.\Generated_Source\PSoC4/CapSense.c **** 
 882:.\Generated_Source\PSoC4/CapSense.c **** /*******************************************************************************
 883:.\Generated_Source\PSoC4/CapSense.c **** * Function Name: CapSense_ClearSensors
 884:.\Generated_Source\PSoC4/CapSense.c **** ********************************************************************************
 885:.\Generated_Source\PSoC4/CapSense.c **** *
ARM GAS  C:\Users\Luci\AppData\Local\Temp\cckk3xx4.s 			page 23


 886:.\Generated_Source\PSoC4/CapSense.c **** * Summary:
 887:.\Generated_Source\PSoC4/CapSense.c **** *  Resets all the sensors to the non-sampling state by sequentially disconnecting
 888:.\Generated_Source\PSoC4/CapSense.c **** *  all the sensors from Analog MUX Bus and putting them to an inactive state.
 889:.\Generated_Source\PSoC4/CapSense.c **** *
 890:.\Generated_Source\PSoC4/CapSense.c **** * Parameters:
 891:.\Generated_Source\PSoC4/CapSense.c **** *  None
 892:.\Generated_Source\PSoC4/CapSense.c **** *
 893:.\Generated_Source\PSoC4/CapSense.c **** * Return:
 894:.\Generated_Source\PSoC4/CapSense.c **** *  None
 895:.\Generated_Source\PSoC4/CapSense.c **** *
 896:.\Generated_Source\PSoC4/CapSense.c **** * Global Variables:
 897:.\Generated_Source\PSoC4/CapSense.c **** *  None
 898:.\Generated_Source\PSoC4/CapSense.c **** *
 899:.\Generated_Source\PSoC4/CapSense.c **** * Side Effects: 
 900:.\Generated_Source\PSoC4/CapSense.c **** *  None
 901:.\Generated_Source\PSoC4/CapSense.c **** *
 902:.\Generated_Source\PSoC4/CapSense.c **** *******************************************************************************/
 903:.\Generated_Source\PSoC4/CapSense.c **** void CapSense_ClearSensors(void)
 904:.\Generated_Source\PSoC4/CapSense.c **** {
 905:.\Generated_Source\PSoC4/CapSense.c **** 	uint32 snsIndex;
 906:.\Generated_Source\PSoC4/CapSense.c **** 	
 907:.\Generated_Source\PSoC4/CapSense.c ****     for (snsIndex = 0u; snsIndex < CapSense_TOTAL_SENSOR_COUNT; snsIndex++)
 908:.\Generated_Source\PSoC4/CapSense.c ****     {
 909:.\Generated_Source\PSoC4/CapSense.c ****         CapSense_DisableScanSlot(snsIndex);
 910:.\Generated_Source\PSoC4/CapSense.c ****     }
 911:.\Generated_Source\PSoC4/CapSense.c **** }
 912:.\Generated_Source\PSoC4/CapSense.c **** 
 913:.\Generated_Source\PSoC4/CapSense.c **** 
 914:.\Generated_Source\PSoC4/CapSense.c **** #if (CapSense_IS_COMPLEX_SCANSLOTS)
 915:.\Generated_Source\PSoC4/CapSense.c ****     /*******************************************************************************
 916:.\Generated_Source\PSoC4/CapSense.c ****     * Function Name: CapSense_EnableScanSlot
 917:.\Generated_Source\PSoC4/CapSense.c ****     ********************************************************************************
 918:.\Generated_Source\PSoC4/CapSense.c ****     *
 919:.\Generated_Source\PSoC4/CapSense.c ****     * Summary:
 920:.\Generated_Source\PSoC4/CapSense.c ****     *  Configures the selected slot to measure during the next measurement 
 921:.\Generated_Source\PSoC4/CapSense.c ****     *  cycle. The corresponding pin/pins are set to Analog High-Z mode and 
 922:.\Generated_Source\PSoC4/CapSense.c ****     *  connected to the Analog Mux Bus. This also enables the comparator function.
 923:.\Generated_Source\PSoC4/CapSense.c ****     *
 924:.\Generated_Source\PSoC4/CapSense.c ****     * Parameters:
 925:.\Generated_Source\PSoC4/CapSense.c ****     *  slot:  Slot number.
 926:.\Generated_Source\PSoC4/CapSense.c ****     *
 927:.\Generated_Source\PSoC4/CapSense.c ****     * Return:
 928:.\Generated_Source\PSoC4/CapSense.c ****     *  None
 929:.\Generated_Source\PSoC4/CapSense.c ****     *
 930:.\Generated_Source\PSoC4/CapSense.c ****     * Global Constants:
 931:.\Generated_Source\PSoC4/CapSense.c ****     *  CapSense_portTable[]  - used to store the port number that pin 
 932:.\Generated_Source\PSoC4/CapSense.c ****     *  belongs to for each sensor.
 933:.\Generated_Source\PSoC4/CapSense.c ****     *  CapSense_maskTable[]  - used to store the pin within the port for 
 934:.\Generated_Source\PSoC4/CapSense.c ****     *  each sensor.
 935:.\Generated_Source\PSoC4/CapSense.c ****     *  CapSense_indexTable[] - used to store indexes of complex sensors.
 936:.\Generated_Source\PSoC4/CapSense.c ****     *  The offset and position in this array are stored in a port and mask table for 
 937:.\Generated_Source\PSoC4/CapSense.c ****     *  complex sensors.
 938:.\Generated_Source\PSoC4/CapSense.c ****     *  Bit 7 (msb) is used to define the sensor type: single or complex.
 939:.\Generated_Source\PSoC4/CapSense.c ****     *
 940:.\Generated_Source\PSoC4/CapSense.c **** 	* Side Effects: 
 941:.\Generated_Source\PSoC4/CapSense.c **** 	*  None
 942:.\Generated_Source\PSoC4/CapSense.c **** 	*
ARM GAS  C:\Users\Luci\AppData\Local\Temp\cckk3xx4.s 			page 24


 943:.\Generated_Source\PSoC4/CapSense.c ****     *******************************************************************************/
 944:.\Generated_Source\PSoC4/CapSense.c ****     void CapSense_EnableScanSlot(uint32 slot)
 945:.\Generated_Source\PSoC4/CapSense.c ****     {
 946:.\Generated_Source\PSoC4/CapSense.c ****         uint8 j;
 947:.\Generated_Source\PSoC4/CapSense.c ****         uint8 snsNumber;
 948:.\Generated_Source\PSoC4/CapSense.c ****         const uint8 *index;
 949:.\Generated_Source\PSoC4/CapSense.c ****         /* Read sensor type: single or complex */
 950:.\Generated_Source\PSoC4/CapSense.c ****         uint8 snsType = CapSense_portTable[slot];
 951:.\Generated_Source\PSoC4/CapSense.c **** 
 952:.\Generated_Source\PSoC4/CapSense.c ****         /* Check if sensor is complex */
 953:.\Generated_Source\PSoC4/CapSense.c ****         if ((snsType & CapSense_COMPLEX_SS_FLAG) == 0u)
 954:.\Generated_Source\PSoC4/CapSense.c ****         {
 955:.\Generated_Source\PSoC4/CapSense.c ****             /* Enable sensor (single) */
 956:.\Generated_Source\PSoC4/CapSense.c ****             CapSense_EnableSensor(slot);
 957:.\Generated_Source\PSoC4/CapSense.c ****         }
 958:.\Generated_Source\PSoC4/CapSense.c ****         else
 959:.\Generated_Source\PSoC4/CapSense.c ****         {
 960:.\Generated_Source\PSoC4/CapSense.c ****             /* Enable complex sensor */
 961:.\Generated_Source\PSoC4/CapSense.c ****             snsType &= ~CapSense_COMPLEX_SS_FLAG;
 962:.\Generated_Source\PSoC4/CapSense.c ****             index = &CapSense_indexTable[snsType];
 963:.\Generated_Source\PSoC4/CapSense.c ****             snsNumber = CapSense_maskTable[slot];
 964:.\Generated_Source\PSoC4/CapSense.c ****                         
 965:.\Generated_Source\PSoC4/CapSense.c ****             for (j = 0u; j < snsNumber; j++)
 966:.\Generated_Source\PSoC4/CapSense.c ****             {
 967:.\Generated_Source\PSoC4/CapSense.c ****                 CapSense_EnableSensor(index[j]);
 968:.\Generated_Source\PSoC4/CapSense.c ****             }
 969:.\Generated_Source\PSoC4/CapSense.c ****         }
 970:.\Generated_Source\PSoC4/CapSense.c ****     }
 971:.\Generated_Source\PSoC4/CapSense.c ****     
 972:.\Generated_Source\PSoC4/CapSense.c ****     
 973:.\Generated_Source\PSoC4/CapSense.c ****     /*******************************************************************************
 974:.\Generated_Source\PSoC4/CapSense.c ****     * Function Name: CapSense_DisableScanSlot
 975:.\Generated_Source\PSoC4/CapSense.c ****     ********************************************************************************
 976:.\Generated_Source\PSoC4/CapSense.c ****     *
 977:.\Generated_Source\PSoC4/CapSense.c ****     * Summary:
 978:.\Generated_Source\PSoC4/CapSense.c ****     *  Disables the selected slot. The corresponding pin/pins is/are disconnected 
 979:.\Generated_Source\PSoC4/CapSense.c ****     *  from the Analog Mux Bus and connected to GND, High_Z or Shield electrode.
 980:.\Generated_Source\PSoC4/CapSense.c ****     *
 981:.\Generated_Source\PSoC4/CapSense.c ****     * Parameters:
 982:.\Generated_Source\PSoC4/CapSense.c ****     *  slot:  Slot number.
 983:.\Generated_Source\PSoC4/CapSense.c ****     *
 984:.\Generated_Source\PSoC4/CapSense.c ****     * Return:
 985:.\Generated_Source\PSoC4/CapSense.c ****     *  None
 986:.\Generated_Source\PSoC4/CapSense.c ****     *
 987:.\Generated_Source\PSoC4/CapSense.c ****     * Global Variables:
 988:.\Generated_Source\PSoC4/CapSense.c ****     *  CapSense_portTable[]  - used to store the port number that pin 
 989:.\Generated_Source\PSoC4/CapSense.c ****     *  belongs to for each sensor.
 990:.\Generated_Source\PSoC4/CapSense.c ****     *  CapSense_maskTable[]  - used to store the pin within the port for 
 991:.\Generated_Source\PSoC4/CapSense.c ****     *  each sensor.
 992:.\Generated_Source\PSoC4/CapSense.c ****     *  CapSense_indexTable[] - used to store indexes of complex sensors.
 993:.\Generated_Source\PSoC4/CapSense.c ****     *  The offset and position in this array are stored in a port and mask table for 
 994:.\Generated_Source\PSoC4/CapSense.c ****     *  complex sensors.
 995:.\Generated_Source\PSoC4/CapSense.c ****     *  7bit(msb) is used to define the sensor type: single or complex.
 996:.\Generated_Source\PSoC4/CapSense.c ****     *
 997:.\Generated_Source\PSoC4/CapSense.c **** 	* Side Effects: 
 998:.\Generated_Source\PSoC4/CapSense.c **** 	*  None
 999:.\Generated_Source\PSoC4/CapSense.c **** 	*
ARM GAS  C:\Users\Luci\AppData\Local\Temp\cckk3xx4.s 			page 25


1000:.\Generated_Source\PSoC4/CapSense.c ****     *******************************************************************************/
1001:.\Generated_Source\PSoC4/CapSense.c ****     void CapSense_DisableScanSlot(uint32 slot)
1002:.\Generated_Source\PSoC4/CapSense.c ****     {
1003:.\Generated_Source\PSoC4/CapSense.c ****         uint8 j;
1004:.\Generated_Source\PSoC4/CapSense.c ****         uint8 snsNumber;
1005:.\Generated_Source\PSoC4/CapSense.c ****         const uint8 *index;
1006:.\Generated_Source\PSoC4/CapSense.c **** 
1007:.\Generated_Source\PSoC4/CapSense.c ****         /* Read sensor type: single or complex */
1008:.\Generated_Source\PSoC4/CapSense.c ****         uint8 snsType = CapSense_portTable[slot];
1009:.\Generated_Source\PSoC4/CapSense.c ****         
1010:.\Generated_Source\PSoC4/CapSense.c ****         /* Check if sensor is complex */
1011:.\Generated_Source\PSoC4/CapSense.c ****         if ((snsType & CapSense_COMPLEX_SS_FLAG) == 0u)
1012:.\Generated_Source\PSoC4/CapSense.c ****         {
1013:.\Generated_Source\PSoC4/CapSense.c ****             /* Disable sensor (single) */
1014:.\Generated_Source\PSoC4/CapSense.c ****             CapSense_DisableSensor(slot);
1015:.\Generated_Source\PSoC4/CapSense.c ****         }
1016:.\Generated_Source\PSoC4/CapSense.c ****         else
1017:.\Generated_Source\PSoC4/CapSense.c ****         {
1018:.\Generated_Source\PSoC4/CapSense.c ****             /* Disable complex sensor */
1019:.\Generated_Source\PSoC4/CapSense.c ****             snsType &= ~CapSense_COMPLEX_SS_FLAG;
1020:.\Generated_Source\PSoC4/CapSense.c ****             index = &CapSense_indexTable[snsType];
1021:.\Generated_Source\PSoC4/CapSense.c ****             snsNumber = CapSense_maskTable[slot];
1022:.\Generated_Source\PSoC4/CapSense.c ****                         
1023:.\Generated_Source\PSoC4/CapSense.c ****             for (j=0; j < snsNumber; j++)
1024:.\Generated_Source\PSoC4/CapSense.c ****             {
1025:.\Generated_Source\PSoC4/CapSense.c ****                 CapSense_DisableSensor(index[j]);
1026:.\Generated_Source\PSoC4/CapSense.c ****             }
1027:.\Generated_Source\PSoC4/CapSense.c ****         } 
1028:.\Generated_Source\PSoC4/CapSense.c ****     }
1029:.\Generated_Source\PSoC4/CapSense.c **** #endif  /* CapSense_IS_COMPLEX_SCANSLOTS */
1030:.\Generated_Source\PSoC4/CapSense.c **** 
1031:.\Generated_Source\PSoC4/CapSense.c **** 
1032:.\Generated_Source\PSoC4/CapSense.c **** /*******************************************************************************
1033:.\Generated_Source\PSoC4/CapSense.c **** * Function Name: CapSense_EnableSensor
1034:.\Generated_Source\PSoC4/CapSense.c **** ********************************************************************************
1035:.\Generated_Source\PSoC4/CapSense.c **** *
1036:.\Generated_Source\PSoC4/CapSense.c **** * Summary:
1037:.\Generated_Source\PSoC4/CapSense.c **** *  Configures the selected sensor to measure during the next measurement cycle.
1038:.\Generated_Source\PSoC4/CapSense.c **** *  The corresponding pins are set to Analog High-Z mode and connected to the
1039:.\Generated_Source\PSoC4/CapSense.c **** *  Analog Mux Bus. This also enables the comparator function.
1040:.\Generated_Source\PSoC4/CapSense.c **** *
1041:.\Generated_Source\PSoC4/CapSense.c **** * Parameters:
1042:.\Generated_Source\PSoC4/CapSense.c **** *  sensor:  Sensor number.
1043:.\Generated_Source\PSoC4/CapSense.c **** *
1044:.\Generated_Source\PSoC4/CapSense.c **** * Return:
1045:.\Generated_Source\PSoC4/CapSense.c **** *  None
1046:.\Generated_Source\PSoC4/CapSense.c **** *
1047:.\Generated_Source\PSoC4/CapSense.c **** * Global Variables:
1048:.\Generated_Source\PSoC4/CapSense.c **** *  CapSense_portTable[] - used to store the port number that pin 
1049:.\Generated_Source\PSoC4/CapSense.c **** *  belongs to for each sensor.
1050:.\Generated_Source\PSoC4/CapSense.c **** *  CapSense_pinShiftTbl[] - used to store position of pin that 
1051:.\Generated_Source\PSoC4/CapSense.c **** *  configured as sensor in port. 
1052:.\Generated_Source\PSoC4/CapSense.c **** *  CapSense_prtSelTbl[] - Contains pointers to the HSIOM 
1053:.\Generated_Source\PSoC4/CapSense.c **** *  registers for each port. 
1054:.\Generated_Source\PSoC4/CapSense.c **** *  CapSense_PrtCfgTb[] - Contains pointers to the port config 
1055:.\Generated_Source\PSoC4/CapSense.c **** *  registers for each port.
1056:.\Generated_Source\PSoC4/CapSense.c **** *
ARM GAS  C:\Users\Luci\AppData\Local\Temp\cckk3xx4.s 			page 26


1057:.\Generated_Source\PSoC4/CapSense.c **** * Side Effects: 
1058:.\Generated_Source\PSoC4/CapSense.c **** *  None
1059:.\Generated_Source\PSoC4/CapSense.c **** *
1060:.\Generated_Source\PSoC4/CapSense.c **** *******************************************************************************/
1061:.\Generated_Source\PSoC4/CapSense.c **** void CapSense_EnableSensor(uint32 sensor)
1062:.\Generated_Source\PSoC4/CapSense.c **** {
 370              		.loc 1 1062 0
 371              		.cfi_startproc
 372              	.LVL35:
 373 0000 F8B5     		push	{r3, r4, r5, r6, r7, lr}
 374              		.cfi_def_cfa_offset 24
 375              		.cfi_offset 3, -24
 376              		.cfi_offset 4, -20
 377              		.cfi_offset 5, -16
 378              		.cfi_offset 6, -12
 379              		.cfi_offset 7, -8
 380              		.cfi_offset 14, -4
1063:.\Generated_Source\PSoC4/CapSense.c **** 	uint8  pinModeShift;
1064:.\Generated_Source\PSoC4/CapSense.c ****     uint8  pinHSIOMShift;
1065:.\Generated_Source\PSoC4/CapSense.c **** 	uint8 interruptState;
1066:.\Generated_Source\PSoC4/CapSense.c **** 	uint32 newRegisterValue;
1067:.\Generated_Source\PSoC4/CapSense.c ****     uint32 port;
1068:.\Generated_Source\PSoC4/CapSense.c **** 	
1069:.\Generated_Source\PSoC4/CapSense.c **** 	port = (uint32) CapSense_portTable[sensor];
 381              		.loc 1 1069 0
 382 0002 104F     		ldr	r7, .L26
 383 0004 3C5C     		ldrb	r4, [r7, r0]
 384              	.LVL36:
1070:.\Generated_Source\PSoC4/CapSense.c ****     pinModeShift = CapSense_pinShiftTbl[sensor]  * CapSense_PC_PIN_CFG_SIZE;
 385              		.loc 1 1070 0
 386 0006 3818     		add	r0, r7, r0
 387              	.LVL37:
 388 0008 0279     		ldrb	r2, [r0, #4]
 389 000a 5500     		lsl	r5, r2, #1
 390 000c 5519     		add	r5, r2, r5
 391 000e EDB2     		uxtb	r5, r5
 392              	.LVL38:
1071:.\Generated_Source\PSoC4/CapSense.c ****     pinHSIOMShift = CapSense_pinShiftTbl[sensor] * CapSense_HSIOM_PIN_CFG_SIZE;
 393              		.loc 1 1071 0
 394 0010 9200     		lsl	r2, r2, #2
 395 0012 D6B2     		uxtb	r6, r2
 396              	.LVL39:
1072:.\Generated_Source\PSoC4/CapSense.c **** 
1073:.\Generated_Source\PSoC4/CapSense.c **** 	interruptState = CyEnterCriticalSection();
 397              		.loc 1 1073 0
 398 0014 FFF7FEFF 		bl	CyEnterCriticalSection
 399              	.LVL40:
1074:.\Generated_Source\PSoC4/CapSense.c **** 	
1075:.\Generated_Source\PSoC4/CapSense.c **** 	newRegisterValue = *CapSense_prtSelTbl[port];
 400              		.loc 1 1075 0
 401 0018 A400     		lsl	r4, r4, #2
 402              	.LVL41:
 403 001a 3B19     		add	r3, r7, r4
 404 001c 9C68     		ldr	r4, [r3, #8]
 405 001e 2268     		ldr	r2, [r4]
 406              	.LVL42:
1076:.\Generated_Source\PSoC4/CapSense.c **** 	newRegisterValue &= ~(CapSense_CSD_HSIOM_MASK << pinHSIOMShift);
ARM GAS  C:\Users\Luci\AppData\Local\Temp\cckk3xx4.s 			page 27


 407              		.loc 1 1076 0
 408 0020 0F21     		mov	r1, #15
 409 0022 B140     		lsl	r1, r1, r6
 410 0024 8A43     		bic	r2, r1
 411              	.LVL43:
 412 0026 111C     		mov	r1, r2
 413              	.LVL44:
1077:.\Generated_Source\PSoC4/CapSense.c **** 	newRegisterValue |= (uint32)((uint32)CapSense_CSD_SENSE_PORT_MODE << pinHSIOMShift);
 414              		.loc 1 1077 0
 415 0028 0422     		mov	r2, #4
 416 002a B240     		lsl	r2, r2, r6
 417 002c 0A43     		orr	r2, r1
 418              	.LVL45:
1078:.\Generated_Source\PSoC4/CapSense.c ****    
1079:.\Generated_Source\PSoC4/CapSense.c ****     *CapSense_prtCfgTbl[port] &= (uint32)~((uint32)CapSense_CSD_PIN_MODE_MASK << pinModeShift);
 419              		.loc 1 1079 0
 420 002e 1E6A     		ldr	r6, [r3, #32]
 421              	.LVL46:
 422 0030 3368     		ldr	r3, [r6]
 423 0032 0721     		mov	r1, #7
 424 0034 A940     		lsl	r1, r1, r5
 425 0036 8B43     		bic	r3, r1
 426 0038 3360     		str	r3, [r6]
1080:.\Generated_Source\PSoC4/CapSense.c ****     *CapSense_prtSelTbl[port] = newRegisterValue;
 427              		.loc 1 1080 0
 428 003a 2260     		str	r2, [r4]
1081:.\Generated_Source\PSoC4/CapSense.c **** 	
1082:.\Generated_Source\PSoC4/CapSense.c **** 	CyExitCriticalSection(interruptState);
 429              		.loc 1 1082 0
 430 003c FFF7FEFF 		bl	CyExitCriticalSection
 431              	.LVL47:
1083:.\Generated_Source\PSoC4/CapSense.c **** }
 432              		.loc 1 1083 0
 433              		@ sp needed
 434              	.LVL48:
 435              	.LVL49:
 436 0040 F8BD     		pop	{r3, r4, r5, r6, r7, pc}
 437              	.L27:
 438 0042 C046     		.align	2
 439              	.L26:
 440 0044 00000000 		.word	.LANCHOR2
 441              		.cfi_endproc
 442              	.LFE50:
 443              		.size	CapSense_EnableSensor, .-CapSense_EnableSensor
 444              		.section	.text.CapSense_DisableSensor,"ax",%progbits
 445              		.align	2
 446              		.global	CapSense_DisableSensor
 447              		.code	16
 448              		.thumb_func
 449              		.type	CapSense_DisableSensor, %function
 450              	CapSense_DisableSensor:
 451              	.LFB51:
1084:.\Generated_Source\PSoC4/CapSense.c **** 
1085:.\Generated_Source\PSoC4/CapSense.c **** 
1086:.\Generated_Source\PSoC4/CapSense.c **** /*******************************************************************************
1087:.\Generated_Source\PSoC4/CapSense.c **** * Function Name: CapSense_DisableSensor
1088:.\Generated_Source\PSoC4/CapSense.c **** ********************************************************************************
ARM GAS  C:\Users\Luci\AppData\Local\Temp\cckk3xx4.s 			page 28


1089:.\Generated_Source\PSoC4/CapSense.c **** *
1090:.\Generated_Source\PSoC4/CapSense.c **** * Summary:
1091:.\Generated_Source\PSoC4/CapSense.c **** *  Disables the selected sensor. The corresponding pin is disconnected from the
1092:.\Generated_Source\PSoC4/CapSense.c **** *  Analog Mux Bus and connected to GND, High_Z or Shield electrode.
1093:.\Generated_Source\PSoC4/CapSense.c **** *
1094:.\Generated_Source\PSoC4/CapSense.c **** * Parameters:
1095:.\Generated_Source\PSoC4/CapSense.c **** *  sensor:  Sensor number
1096:.\Generated_Source\PSoC4/CapSense.c **** *
1097:.\Generated_Source\PSoC4/CapSense.c **** * Return:
1098:.\Generated_Source\PSoC4/CapSense.c **** *  None
1099:.\Generated_Source\PSoC4/CapSense.c **** *
1100:.\Generated_Source\PSoC4/CapSense.c **** * Global Variables:
1101:.\Generated_Source\PSoC4/CapSense.c **** *  CapSense_portTable[] - used to store the port number that pin 
1102:.\Generated_Source\PSoC4/CapSense.c **** *  belongs to for each sensor.
1103:.\Generated_Source\PSoC4/CapSense.c **** *  CapSense_pinShiftTbl[] - used to store position of pin that 
1104:.\Generated_Source\PSoC4/CapSense.c **** *  configured as a sensor in the port. 
1105:.\Generated_Source\PSoC4/CapSense.c **** *  CapSense_prtSelTbl[] - Contains pointers to the HSIOM 
1106:.\Generated_Source\PSoC4/CapSense.c **** *  registers for each port. 
1107:.\Generated_Source\PSoC4/CapSense.c **** *  CapSense_PrtCfgTb[] - Contains pointers to the port config 
1108:.\Generated_Source\PSoC4/CapSense.c **** *  registers for each port.
1109:.\Generated_Source\PSoC4/CapSense.c **** *
1110:.\Generated_Source\PSoC4/CapSense.c **** * Side Effects: 
1111:.\Generated_Source\PSoC4/CapSense.c **** *  None
1112:.\Generated_Source\PSoC4/CapSense.c **** *
1113:.\Generated_Source\PSoC4/CapSense.c **** *******************************************************************************/
1114:.\Generated_Source\PSoC4/CapSense.c **** void CapSense_DisableSensor(uint32 sensor)
1115:.\Generated_Source\PSoC4/CapSense.c **** {
 452              		.loc 1 1115 0
 453              		.cfi_startproc
 454              	.LVL50:
 455 0000 F8B5     		push	{r3, r4, r5, r6, r7, lr}
 456              		.cfi_def_cfa_offset 24
 457              		.cfi_offset 3, -24
 458              		.cfi_offset 4, -20
 459              		.cfi_offset 5, -16
 460              		.cfi_offset 6, -12
 461              		.cfi_offset 7, -8
 462              		.cfi_offset 14, -4
1116:.\Generated_Source\PSoC4/CapSense.c ****     uint8 interruptState;
1117:.\Generated_Source\PSoC4/CapSense.c **** 	uint32 newRegisterValue;
1118:.\Generated_Source\PSoC4/CapSense.c **** 	
1119:.\Generated_Source\PSoC4/CapSense.c ****     uint32 port = (uint32) CapSense_portTable[sensor];
 463              		.loc 1 1119 0
 464 0002 1949     		ldr	r1, .L33
 465 0004 0C5C     		ldrb	r4, [r1, r0]
 466              	.LVL51:
1120:.\Generated_Source\PSoC4/CapSense.c ****     uint8  pinHSIOMShift = CapSense_pinShiftTbl[sensor] * CapSense_HSIOM_PIN_CFG_SIZE;
 467              		.loc 1 1120 0
 468 0006 0B18     		add	r3, r1, r0
 469 0008 1E79     		ldrb	r6, [r3, #4]
 470 000a B200     		lsl	r2, r6, #2
 471 000c D2B2     		uxtb	r2, r2
 472              	.LVL52:
1121:.\Generated_Source\PSoC4/CapSense.c ****     uint8  pinModeShift = CapSense_pinShiftTbl[sensor]  * CapSense_PC_PIN_CFG_SIZE;
 473              		.loc 1 1121 0
 474 000e 7500     		lsl	r5, r6, #1
 475 0010 7519     		add	r5, r6, r5
ARM GAS  C:\Users\Luci\AppData\Local\Temp\cckk3xx4.s 			page 29


 476 0012 EDB2     		uxtb	r5, r5
 477              	.LVL53:
1122:.\Generated_Source\PSoC4/CapSense.c **** 
1123:.\Generated_Source\PSoC4/CapSense.c **** 	uint32 inactiveConnect = CapSense_SNS_HIZANALOG_CONNECT;
1124:.\Generated_Source\PSoC4/CapSense.c **** 	uint32 sensorState = CapSense_unscannedSnsDriveMode[sensor];
 478              		.loc 1 1124 0
 479 0014 154B     		ldr	r3, .L33+4
 480 0016 185C     		ldrb	r0, [r3, r0]
 481              	.LVL54:
1125:.\Generated_Source\PSoC4/CapSense.c **** 
1126:.\Generated_Source\PSoC4/CapSense.c ****     *CapSense_prtSelTbl[port] &= ~(CapSense_CSD_HSIOM_MASK << pinHSIOMShift);
 482              		.loc 1 1126 0
 483 0018 A300     		lsl	r3, r4, #2
 484 001a CB18     		add	r3, r1, r3
 485 001c 9F68     		ldr	r7, [r3, #8]
 486 001e 3B68     		ldr	r3, [r7]
 487 0020 0F21     		mov	r1, #15
 488 0022 9140     		lsl	r1, r1, r2
 489 0024 8B43     		bic	r3, r1
 490 0026 3B60     		str	r3, [r7]
1127:.\Generated_Source\PSoC4/CapSense.c **** 
1128:.\Generated_Source\PSoC4/CapSense.c **** 	#if(CapSense_IS_SHIELD_ENABLE != 0)
1129:.\Generated_Source\PSoC4/CapSense.c **** 	if(sensorState != (uint32)CapSense__SHIELD)
1130:.\Generated_Source\PSoC4/CapSense.c **** 	{
1131:.\Generated_Source\PSoC4/CapSense.c **** 	#else
1132:.\Generated_Source\PSoC4/CapSense.c **** 	    /* Connected to Ground if shield is disabled */
1133:.\Generated_Source\PSoC4/CapSense.c **** 	    if(sensorState == (uint32)CapSense__SHIELD)
 491              		.loc 1 1133 0
 492 0028 0228     		cmp	r0, #2
 493 002a 00D1     		bne	.L29
1134:.\Generated_Source\PSoC4/CapSense.c **** 		{
1135:.\Generated_Source\PSoC4/CapSense.c **** 			sensorState = (uint32)CapSense__GROUND;
 494              		.loc 1 1135 0
 495 002c 0020     		mov	r0, #0
 496              	.LVL55:
 497              	.L29:
1136:.\Generated_Source\PSoC4/CapSense.c **** 		}
1137:.\Generated_Source\PSoC4/CapSense.c **** 	#endif /* (CapSense_IS_SHIELD_ENABLE) */
1138:.\Generated_Source\PSoC4/CapSense.c **** 	    if(sensorState != (uint32)CapSense__HIZ_ANALOG)
 498              		.loc 1 1138 0
 499 002e 0128     		cmp	r0, #1
 500 0030 01D1     		bne	.L32
1123:.\Generated_Source\PSoC4/CapSense.c **** 	uint32 sensorState = CapSense_unscannedSnsDriveMode[sensor];
 501              		.loc 1 1123 0
 502 0032 0027     		mov	r7, #0
 503 0034 00E0     		b	.L30
 504              	.L32:
1139:.\Generated_Source\PSoC4/CapSense.c **** 		{   
1140:.\Generated_Source\PSoC4/CapSense.c **** 		    /* Connected to Ground */
1141:.\Generated_Source\PSoC4/CapSense.c **** 		    inactiveConnect = (uint32)CapSense_SNS_GROUND_CONNECT;
 505              		.loc 1 1141 0
 506 0036 0627     		mov	r7, #6
 507              	.L30:
 508              	.LVL56:
1142:.\Generated_Source\PSoC4/CapSense.c **** 		}
1143:.\Generated_Source\PSoC4/CapSense.c **** 		
1144:.\Generated_Source\PSoC4/CapSense.c ****         interruptState = CyEnterCriticalSection();
ARM GAS  C:\Users\Luci\AppData\Local\Temp\cckk3xx4.s 			page 30


 509              		.loc 1 1144 0
 510 0038 FFF7FEFF 		bl	CyEnterCriticalSection
 511              	.LVL57:
1145:.\Generated_Source\PSoC4/CapSense.c **** 
1146:.\Generated_Source\PSoC4/CapSense.c ****         /* Set drive mode */
1147:.\Generated_Source\PSoC4/CapSense.c ****     	newRegisterValue = *CapSense_prtCfgTbl[port];
 512              		.loc 1 1147 0
 513 003c A400     		lsl	r4, r4, #2
 514              	.LVL58:
 515 003e 0A4B     		ldr	r3, .L33
 516              	.LVL59:
 517 0040 1C19     		add	r4, r3, r4
 518 0042 216A     		ldr	r1, [r4, #32]
 519 0044 0B68     		ldr	r3, [r1]
 520              	.LVL60:
1148:.\Generated_Source\PSoC4/CapSense.c ****     	newRegisterValue &= ~(CapSense_CSD_PIN_MODE_MASK << pinModeShift);
 521              		.loc 1 1148 0
 522 0046 0722     		mov	r2, #7
 523 0048 AA40     		lsl	r2, r2, r5
 524 004a 9343     		bic	r3, r2
 525              	.LVL61:
 526 004c 1A1C     		mov	r2, r3
 527              	.LVL62:
1149:.\Generated_Source\PSoC4/CapSense.c ****     	newRegisterValue |=  (uint32)(inactiveConnect << pinModeShift);
 528              		.loc 1 1149 0
 529 004e 3B1C     		mov	r3, r7
 530 0050 AB40     		lsl	r3, r3, r5
 531 0052 1343     		orr	r3, r2
 532              	.LVL63:
1150:.\Generated_Source\PSoC4/CapSense.c ****         *CapSense_prtCfgTbl[port] =  newRegisterValue;
 533              		.loc 1 1150 0
 534 0054 0B60     		str	r3, [r1]
1151:.\Generated_Source\PSoC4/CapSense.c ****         
1152:.\Generated_Source\PSoC4/CapSense.c ****         CyExitCriticalSection(interruptState);
 535              		.loc 1 1152 0
 536 0056 FFF7FEFF 		bl	CyExitCriticalSection
 537              	.LVL64:
1153:.\Generated_Source\PSoC4/CapSense.c **** 
1154:.\Generated_Source\PSoC4/CapSense.c ****     	*CapSense_prtDRTbl[port]  &=  (uint32)~(uint32)((uint32)1u << CapSense_pinShiftTbl[sensor]); 
 538              		.loc 1 1154 0
 539 005a A16B     		ldr	r1, [r4, #56]
 540 005c 0B68     		ldr	r3, [r1]
 541 005e 0122     		mov	r2, #1
 542 0060 B240     		lsl	r2, r2, r6
 543 0062 9343     		bic	r3, r2
 544 0064 0B60     		str	r3, [r1]
1155:.\Generated_Source\PSoC4/CapSense.c **** 	#if(CapSense_IS_SHIELD_ENABLE != 0)
1156:.\Generated_Source\PSoC4/CapSense.c **** 	}
1157:.\Generated_Source\PSoC4/CapSense.c **** 	else
1158:.\Generated_Source\PSoC4/CapSense.c **** 	{
1159:.\Generated_Source\PSoC4/CapSense.c **** 		/* Connect to Shield */
1160:.\Generated_Source\PSoC4/CapSense.c **** 		*CapSense_prtSelTbl[port] |= (CapSense_CSD_SHIELD_PORT_MODE << pinHSIOMShift);
1161:.\Generated_Source\PSoC4/CapSense.c **** 	}
1162:.\Generated_Source\PSoC4/CapSense.c **** 	#endif /* (CapSense_IS_SHIELD_ENABLE) */
1163:.\Generated_Source\PSoC4/CapSense.c **** }
 545              		.loc 1 1163 0
 546              		@ sp needed
ARM GAS  C:\Users\Luci\AppData\Local\Temp\cckk3xx4.s 			page 31


 547              	.LVL65:
 548              	.LVL66:
 549              	.LVL67:
 550 0066 F8BD     		pop	{r3, r4, r5, r6, r7, pc}
 551              	.L34:
 552              		.align	2
 553              	.L33:
 554 0068 00000000 		.word	.LANCHOR2
 555 006c 00000000 		.word	CapSense_unscannedSnsDriveMode
 556              		.cfi_endproc
 557              	.LFE51:
 558              		.size	CapSense_DisableSensor, .-CapSense_DisableSensor
 559              		.section	.text.CapSense_ClearSensors,"ax",%progbits
 560              		.align	2
 561              		.global	CapSense_ClearSensors
 562              		.code	16
 563              		.thumb_func
 564              		.type	CapSense_ClearSensors, %function
 565              	CapSense_ClearSensors:
 566              	.LFB49:
 904:.\Generated_Source\PSoC4/CapSense.c **** 	uint32 snsIndex;
 567              		.loc 1 904 0
 568              		.cfi_startproc
 569 0000 10B5     		push	{r4, lr}
 570              		.cfi_def_cfa_offset 8
 571              		.cfi_offset 4, -8
 572              		.cfi_offset 14, -4
 573              	.LVL68:
 907:.\Generated_Source\PSoC4/CapSense.c ****     {
 574              		.loc 1 907 0
 575 0002 0024     		mov	r4, #0
 576 0004 03E0     		b	.L36
 577              	.LVL69:
 578              	.L37:
 909:.\Generated_Source\PSoC4/CapSense.c ****     }
 579              		.loc 1 909 0 discriminator 3
 580 0006 201C     		mov	r0, r4
 581 0008 FFF7FEFF 		bl	CapSense_DisableSensor
 582              	.LVL70:
 907:.\Generated_Source\PSoC4/CapSense.c ****     {
 583              		.loc 1 907 0 discriminator 3
 584 000c 0134     		add	r4, r4, #1
 585              	.LVL71:
 586              	.L36:
 907:.\Generated_Source\PSoC4/CapSense.c ****     {
 587              		.loc 1 907 0 is_stmt 0 discriminator 1
 588 000e 012C     		cmp	r4, #1
 589 0010 F9D9     		bls	.L37
 911:.\Generated_Source\PSoC4/CapSense.c **** 
 590              		.loc 1 911 0 is_stmt 1
 591              		@ sp needed
 592              	.LVL72:
 593 0012 10BD     		pop	{r4, pc}
 594              		.cfi_endproc
 595              	.LFE49:
 596              		.size	CapSense_ClearSensors, .-CapSense_ClearSensors
 597              		.section	.text.CapSense_SetPinDriveMode,"ax",%progbits
ARM GAS  C:\Users\Luci\AppData\Local\Temp\cckk3xx4.s 			page 32


 598              		.align	2
 599              		.global	CapSense_SetPinDriveMode
 600              		.code	16
 601              		.thumb_func
 602              		.type	CapSense_SetPinDriveMode, %function
 603              	CapSense_SetPinDriveMode:
 604              	.LFB54:
1164:.\Generated_Source\PSoC4/CapSense.c **** 
1165:.\Generated_Source\PSoC4/CapSense.c **** 
1166:.\Generated_Source\PSoC4/CapSense.c **** /*******************************************************************************
1167:.\Generated_Source\PSoC4/CapSense.c **** * Function Name: CapSense_SetDriveModeAllPins
1168:.\Generated_Source\PSoC4/CapSense.c **** ********************************************************************************
1169:.\Generated_Source\PSoC4/CapSense.c **** *
1170:.\Generated_Source\PSoC4/CapSense.c **** * Summary:
1171:.\Generated_Source\PSoC4/CapSense.c **** * This API sets the drive mode of port pins used by the CapSense
1172:.\Generated_Source\PSoC4/CapSense.c **** * component (sensors, guard, shield, shield tank and Cmod) to drive the 
1173:.\Generated_Source\PSoC4/CapSense.c **** * mode specified by the argument.
1174:.\Generated_Source\PSoC4/CapSense.c **** *
1175:.\Generated_Source\PSoC4/CapSense.c **** * Parameters:
1176:.\Generated_Source\PSoC4/CapSense.c **** *  driveMode:  Drive mode definition.
1177:.\Generated_Source\PSoC4/CapSense.c **** *
1178:.\Generated_Source\PSoC4/CapSense.c **** * Return:
1179:.\Generated_Source\PSoC4/CapSense.c **** *  None
1180:.\Generated_Source\PSoC4/CapSense.c **** *
1181:.\Generated_Source\PSoC4/CapSense.c **** * Global Variables:
1182:.\Generated_Source\PSoC4/CapSense.c **** *  CapSense_portTable[] - used to store the port number that pin 
1183:.\Generated_Source\PSoC4/CapSense.c **** *  belongs to for each sensor.
1184:.\Generated_Source\PSoC4/CapSense.c **** *  CapSense_pinShiftTbl[] - used to store position of pin that 
1185:.\Generated_Source\PSoC4/CapSense.c **** *  configured as a sensor in the port. 
1186:.\Generated_Source\PSoC4/CapSense.c **** *
1187:.\Generated_Source\PSoC4/CapSense.c **** * Side Effects: 
1188:.\Generated_Source\PSoC4/CapSense.c **** *  This API shall be called only after CapSense component is stopped.
1189:.\Generated_Source\PSoC4/CapSense.c **** *
1190:.\Generated_Source\PSoC4/CapSense.c **** *******************************************************************************/
1191:.\Generated_Source\PSoC4/CapSense.c **** void CapSense_SetDriveModeAllPins(uint32 driveMode)
1192:.\Generated_Source\PSoC4/CapSense.c **** {
1193:.\Generated_Source\PSoC4/CapSense.c **** 	uint8 curSensor;
1194:.\Generated_Source\PSoC4/CapSense.c **** 	#if (CapSense_IS_COMPLEX_SCANSLOTS)
1195:.\Generated_Source\PSoC4/CapSense.c **** 		uint8 snsNumber;
1196:.\Generated_Source\PSoC4/CapSense.c **** 		uint8 snsType;
1197:.\Generated_Source\PSoC4/CapSense.c **** 	#endif  /* CapSense_IS_COMPLEX_SCANSLOTS */
1198:.\Generated_Source\PSoC4/CapSense.c **** 	uint32 prtNumberTmp;
1199:.\Generated_Source\PSoC4/CapSense.c **** 	uint32 pinNumberTmp;
1200:.\Generated_Source\PSoC4/CapSense.c **** 
1201:.\Generated_Source\PSoC4/CapSense.c **** 	for(curSensor = 0u; curSensor < CapSense_TOTAL_SENSOR_COUNT; curSensor++)
1202:.\Generated_Source\PSoC4/CapSense.c **** 	{	
1203:.\Generated_Source\PSoC4/CapSense.c **** 		#if (CapSense_IS_COMPLEX_SCANSLOTS)
1204:.\Generated_Source\PSoC4/CapSense.c **** 			/* Read sensor type: single or complex */
1205:.\Generated_Source\PSoC4/CapSense.c **** 			snsType = CapSense_portTable[curSensor];
1206:.\Generated_Source\PSoC4/CapSense.c **** 		
1207:.\Generated_Source\PSoC4/CapSense.c **** 			/* Check if sensor is complex */
1208:.\Generated_Source\PSoC4/CapSense.c **** 			if ((snsType & CapSense_COMPLEX_SS_FLAG) == 0u)
1209:.\Generated_Source\PSoC4/CapSense.c **** 			{
1210:.\Generated_Source\PSoC4/CapSense.c **** 				/* The sensor is not complex */
1211:.\Generated_Source\PSoC4/CapSense.c **** 				snsNumber = curSensor;
1212:.\Generated_Source\PSoC4/CapSense.c **** 			}
1213:.\Generated_Source\PSoC4/CapSense.c **** 			else
ARM GAS  C:\Users\Luci\AppData\Local\Temp\cckk3xx4.s 			page 33


1214:.\Generated_Source\PSoC4/CapSense.c **** 			{
1215:.\Generated_Source\PSoC4/CapSense.c **** 				/* Get dedicated sensor ID of the complex sensor */
1216:.\Generated_Source\PSoC4/CapSense.c **** 				snsType &= ~CapSense_COMPLEX_SS_FLAG;
1217:.\Generated_Source\PSoC4/CapSense.c **** 				snsNumber = CapSense_indexTable[snsType];
1218:.\Generated_Source\PSoC4/CapSense.c **** 			}
1219:.\Generated_Source\PSoC4/CapSense.c **** 
1220:.\Generated_Source\PSoC4/CapSense.c **** 			prtNumberTmp = CapSense_portTable[snsNumber];
1221:.\Generated_Source\PSoC4/CapSense.c **** 			pinNumberTmp = CapSense_pinShiftTbl[snsNumber];
1222:.\Generated_Source\PSoC4/CapSense.c **** 		#else
1223:.\Generated_Source\PSoC4/CapSense.c **** 			prtNumberTmp = CapSense_portTable[curSensor];
1224:.\Generated_Source\PSoC4/CapSense.c **** 			pinNumberTmp = CapSense_pinShiftTbl[curSensor];
1225:.\Generated_Source\PSoC4/CapSense.c **** 		#endif  /* CapSense_IS_COMPLEX_SCANSLOTS */
1226:.\Generated_Source\PSoC4/CapSense.c **** 	
1227:.\Generated_Source\PSoC4/CapSense.c **** 		CapSense_SetPinDriveMode(driveMode, pinNumberTmp, prtNumberTmp);
1228:.\Generated_Source\PSoC4/CapSense.c **** 	}
1229:.\Generated_Source\PSoC4/CapSense.c **** 	
1230:.\Generated_Source\PSoC4/CapSense.c **** 	CapSense_SetPinDriveMode(driveMode, (uint32)CapSense_CMOD_PIN_NUMBER, (uint32)CapSense_CMOD_PRT_NU
1231:.\Generated_Source\PSoC4/CapSense.c **** 	
1232:.\Generated_Source\PSoC4/CapSense.c **** 	#if(0u != CapSense_CSH_TANK_ENABLE)
1233:.\Generated_Source\PSoC4/CapSense.c **** 		CapSense_SetPinDriveMode(driveMode, (uint32)CapSense_CTANK_PIN_NUMBER, (uint32)CapSense_CTANK_PRT
1234:.\Generated_Source\PSoC4/CapSense.c **** 	#endif /* (0u != CapSense_CSH_TANK_ENABLE) */	
1235:.\Generated_Source\PSoC4/CapSense.c **** 	
1236:.\Generated_Source\PSoC4/CapSense.c **** 	#if(0u != CapSense_IS_SHIELD_ENABLE)
1237:.\Generated_Source\PSoC4/CapSense.c **** 		CapSense_SetPinDriveMode(driveMode, (uint32)CapSense_SHIELD_PIN_NUMBER, (uint32)CapSense_SHIELD_P
1238:.\Generated_Source\PSoC4/CapSense.c **** 	#endif /* (0u != CapSense_IS_SHIELD_ENABLE) */	
1239:.\Generated_Source\PSoC4/CapSense.c **** }
1240:.\Generated_Source\PSoC4/CapSense.c **** 
1241:.\Generated_Source\PSoC4/CapSense.c **** 
1242:.\Generated_Source\PSoC4/CapSense.c **** /*******************************************************************************
1243:.\Generated_Source\PSoC4/CapSense.c **** * Function Name: CapSense_RestoreDriveModeAllPins
1244:.\Generated_Source\PSoC4/CapSense.c **** ********************************************************************************
1245:.\Generated_Source\PSoC4/CapSense.c **** *
1246:.\Generated_Source\PSoC4/CapSense.c **** * Summary:
1247:.\Generated_Source\PSoC4/CapSense.c **** *  This API restores the drive for all the CapSense port pins to the original
1248:.\Generated_Source\PSoC4/CapSense.c **** *  state.
1249:.\Generated_Source\PSoC4/CapSense.c **** *
1250:.\Generated_Source\PSoC4/CapSense.c **** * Parameters:
1251:.\Generated_Source\PSoC4/CapSense.c **** *  None
1252:.\Generated_Source\PSoC4/CapSense.c **** *
1253:.\Generated_Source\PSoC4/CapSense.c **** * Return:
1254:.\Generated_Source\PSoC4/CapSense.c **** *  None
1255:.\Generated_Source\PSoC4/CapSense.c **** *
1256:.\Generated_Source\PSoC4/CapSense.c **** * Global Variables:
1257:.\Generated_Source\PSoC4/CapSense.c **** *  CapSense_prtSelTbl[] - Contains pointers to the HSIOM 
1258:.\Generated_Source\PSoC4/CapSense.c **** *  registers for each port. 
1259:.\Generated_Source\PSoC4/CapSense.c **** *
1260:.\Generated_Source\PSoC4/CapSense.c **** * Side Effects: 
1261:.\Generated_Source\PSoC4/CapSense.c **** *  This API is called only after the CapSense component is stopped.
1262:.\Generated_Source\PSoC4/CapSense.c **** *
1263:.\Generated_Source\PSoC4/CapSense.c **** *******************************************************************************/
1264:.\Generated_Source\PSoC4/CapSense.c **** void CapSense_RestoreDriveModeAllPins(void)
1265:.\Generated_Source\PSoC4/CapSense.c **** {
1266:.\Generated_Source\PSoC4/CapSense.c **** 	uint32 newRegisterValue;
1267:.\Generated_Source\PSoC4/CapSense.c **** 	
1268:.\Generated_Source\PSoC4/CapSense.c **** 	CapSense_SetDriveModeAllPins(CY_SYS_PINS_DM_ALG_HIZ);
1269:.\Generated_Source\PSoC4/CapSense.c **** 	
1270:.\Generated_Source\PSoC4/CapSense.c **** 	newRegisterValue = CapSense_CMOD_CONNECTION_REG; 
ARM GAS  C:\Users\Luci\AppData\Local\Temp\cckk3xx4.s 			page 34


1271:.\Generated_Source\PSoC4/CapSense.c ****     newRegisterValue &= ~(CapSense_CSD_CMOD_CONNECTION_MASK);
1272:.\Generated_Source\PSoC4/CapSense.c ****     newRegisterValue |= CapSense_CSD_CMOD_TO_AMUXBUS_A;
1273:.\Generated_Source\PSoC4/CapSense.c ****     CapSense_CMOD_CONNECTION_REG = newRegisterValue;
1274:.\Generated_Source\PSoC4/CapSense.c **** 	
1275:.\Generated_Source\PSoC4/CapSense.c **** 	#if(0u != CapSense_CSH_TANK_ENABLE)
1276:.\Generated_Source\PSoC4/CapSense.c **** 		newRegisterValue = CapSense_CTANK_CONNECTION_REG;
1277:.\Generated_Source\PSoC4/CapSense.c ****         newRegisterValue &= ~(CapSense_CSD_CTANK_CONNECTION_MASK);
1278:.\Generated_Source\PSoC4/CapSense.c **** 		newRegisterValue |= CapSense_CSD_CTANK_TO_AMUXBUS_B;
1279:.\Generated_Source\PSoC4/CapSense.c ****         CapSense_CTANK_CONNECTION_REG = newRegisterValue;
1280:.\Generated_Source\PSoC4/CapSense.c **** 	#endif/* (0u != CapSense_CSH_TANK_ENABLE) */
1281:.\Generated_Source\PSoC4/CapSense.c **** 	
1282:.\Generated_Source\PSoC4/CapSense.c **** 	#if(0u != CapSense_IS_SHIELD_ENABLE)
1283:.\Generated_Source\PSoC4/CapSense.c **** 		newRegisterValue = *CapSense_prtSelTbl[CapSense_SHIELD_PORT_NUMBER];
1284:.\Generated_Source\PSoC4/CapSense.c ****         newRegisterValue &= ~(CapSense_CSD_HSIOM_MASK << ((uint32)CapSense_SHIELD_PIN_NUMBER * CapS
1285:.\Generated_Source\PSoC4/CapSense.c ****         newRegisterValue |= (CapSense_CSD_SHIELD_PORT_MODE << ((uint32)CapSense_SHIELD_PIN_NUMBER *
1286:.\Generated_Source\PSoC4/CapSense.c ****         *CapSense_prtSelTbl[CapSense_SHIELD_PORT_NUMBER] = newRegisterValue;
1287:.\Generated_Source\PSoC4/CapSense.c **** 	#endif /* (0u != CapSense_IS_SHIELD_ENABLE) */	
1288:.\Generated_Source\PSoC4/CapSense.c **** }
1289:.\Generated_Source\PSoC4/CapSense.c **** 
1290:.\Generated_Source\PSoC4/CapSense.c **** 
1291:.\Generated_Source\PSoC4/CapSense.c **** /*******************************************************************************
1292:.\Generated_Source\PSoC4/CapSense.c **** * Function Name: CapSense_SetPinDriveMode
1293:.\Generated_Source\PSoC4/CapSense.c **** ********************************************************************************
1294:.\Generated_Source\PSoC4/CapSense.c **** *
1295:.\Generated_Source\PSoC4/CapSense.c **** * Summary:
1296:.\Generated_Source\PSoC4/CapSense.c **** * This API sets the drive mode for the appropriate port/pin.
1297:.\Generated_Source\PSoC4/CapSense.c **** *
1298:.\Generated_Source\PSoC4/CapSense.c **** * Parameters:
1299:.\Generated_Source\PSoC4/CapSense.c **** *  driveMode:  Drive mode definition.
1300:.\Generated_Source\PSoC4/CapSense.c **** *  portNumber: contains port number (0, 1, 2).
1301:.\Generated_Source\PSoC4/CapSense.c **** *  pinNumber: contains pin number (0, 1, 2, ... , 7).
1302:.\Generated_Source\PSoC4/CapSense.c **** *
1303:.\Generated_Source\PSoC4/CapSense.c **** * Return:
1304:.\Generated_Source\PSoC4/CapSense.c **** *  None
1305:.\Generated_Source\PSoC4/CapSense.c **** *
1306:.\Generated_Source\PSoC4/CapSense.c **** * Global Variables:
1307:.\Generated_Source\PSoC4/CapSense.c **** *  CapSense_prtSelTbl[] - Contains pointers to the HSIOM 
1308:.\Generated_Source\PSoC4/CapSense.c **** *  registers for each port. 
1309:.\Generated_Source\PSoC4/CapSense.c **** *  CapSense_prtCfgTb[] - Contains pointers to the port config 
1310:.\Generated_Source\PSoC4/CapSense.c **** *  registers for each port.
1311:.\Generated_Source\PSoC4/CapSense.c **** *
1312:.\Generated_Source\PSoC4/CapSense.c **** * Side Effects: 
1313:.\Generated_Source\PSoC4/CapSense.c **** *  This API is called only after CapSense component is stopped.
1314:.\Generated_Source\PSoC4/CapSense.c **** *
1315:.\Generated_Source\PSoC4/CapSense.c **** *******************************************************************************/
1316:.\Generated_Source\PSoC4/CapSense.c **** void CapSense_SetPinDriveMode(uint32 driveMode, uint32 pinNumber, uint32 portNumber)
1317:.\Generated_Source\PSoC4/CapSense.c **** {	
 605              		.loc 1 1317 0
 606              		.cfi_startproc
 607              	.LVL73:
 608 0000 10B5     		push	{r4, lr}
 609              		.cfi_def_cfa_offset 8
 610              		.cfi_offset 4, -8
 611              		.cfi_offset 14, -4
1318:.\Generated_Source\PSoC4/CapSense.c **** 	uint32  pinModeShift;
1319:.\Generated_Source\PSoC4/CapSense.c **** 	uint32 newRegisterValue;
1320:.\Generated_Source\PSoC4/CapSense.c **** 	
ARM GAS  C:\Users\Luci\AppData\Local\Temp\cckk3xx4.s 			page 35


1321:.\Generated_Source\PSoC4/CapSense.c **** 	pinModeShift  = pinNumber * CapSense_PC_PIN_CFG_SIZE;
 612              		.loc 1 1321 0
 613 0002 4B00     		lsl	r3, r1, #1
 614 0004 5918     		add	r1, r3, r1
 615              	.LVL74:
1322:.\Generated_Source\PSoC4/CapSense.c **** 	
1323:.\Generated_Source\PSoC4/CapSense.c **** 	newRegisterValue = *CapSense_prtCfgTbl[portNumber];
 616              		.loc 1 1323 0
 617 0006 9200     		lsl	r2, r2, #2
 618              	.LVL75:
 619 0008 054B     		ldr	r3, .L39
 620 000a 9A18     		add	r2, r3, r2
 621 000c 146A     		ldr	r4, [r2, #32]
 622 000e 2368     		ldr	r3, [r4]
 623              	.LVL76:
1324:.\Generated_Source\PSoC4/CapSense.c **** 	newRegisterValue &= ~(CapSense_CSD_PIN_MODE_MASK << pinModeShift);
 624              		.loc 1 1324 0
 625 0010 0722     		mov	r2, #7
 626 0012 8A40     		lsl	r2, r2, r1
 627 0014 9343     		bic	r3, r2
 628              	.LVL77:
1325:.\Generated_Source\PSoC4/CapSense.c **** 	newRegisterValue |=  (uint32)((uint32)driveMode << pinModeShift);
 629              		.loc 1 1325 0
 630 0016 8840     		lsl	r0, r0, r1
 631              	.LVL78:
 632 0018 1843     		orr	r0, r3
 633              	.LVL79:
1326:.\Generated_Source\PSoC4/CapSense.c ****     *CapSense_prtCfgTbl[portNumber] =  newRegisterValue;
 634              		.loc 1 1326 0
 635 001a 2060     		str	r0, [r4]
1327:.\Generated_Source\PSoC4/CapSense.c **** }
 636              		.loc 1 1327 0
 637              		@ sp needed
 638 001c 10BD     		pop	{r4, pc}
 639              	.L40:
 640 001e C046     		.align	2
 641              	.L39:
 642 0020 00000000 		.word	.LANCHOR2
 643              		.cfi_endproc
 644              	.LFE54:
 645              		.size	CapSense_SetPinDriveMode, .-CapSense_SetPinDriveMode
 646              		.section	.text.CapSense_SetDriveModeAllPins,"ax",%progbits
 647              		.align	2
 648              		.global	CapSense_SetDriveModeAllPins
 649              		.code	16
 650              		.thumb_func
 651              		.type	CapSense_SetDriveModeAllPins, %function
 652              	CapSense_SetDriveModeAllPins:
 653              	.LFB52:
1192:.\Generated_Source\PSoC4/CapSense.c **** 	uint8 curSensor;
 654              		.loc 1 1192 0
 655              		.cfi_startproc
 656              	.LVL80:
 657 0000 38B5     		push	{r3, r4, r5, lr}
 658              		.cfi_def_cfa_offset 16
 659              		.cfi_offset 3, -16
 660              		.cfi_offset 4, -12
ARM GAS  C:\Users\Luci\AppData\Local\Temp\cckk3xx4.s 			page 36


 661              		.cfi_offset 5, -8
 662              		.cfi_offset 14, -4
 663 0002 051C     		mov	r5, r0
 664              	.LVL81:
1201:.\Generated_Source\PSoC4/CapSense.c **** 	{	
 665              		.loc 1 1201 0
 666 0004 0024     		mov	r4, #0
 667 0006 08E0     		b	.L42
 668              	.LVL82:
 669              	.L43:
1223:.\Generated_Source\PSoC4/CapSense.c **** 			pinNumberTmp = CapSense_pinShiftTbl[curSensor];
 670              		.loc 1 1223 0 discriminator 3
 671 0008 084B     		ldr	r3, .L44
 672 000a 1A5D     		ldrb	r2, [r3, r4]
 673              	.LVL83:
1224:.\Generated_Source\PSoC4/CapSense.c **** 		#endif  /* CapSense_IS_COMPLEX_SCANSLOTS */
 674              		.loc 1 1224 0 discriminator 3
 675 000c 1B19     		add	r3, r3, r4
 676 000e 1979     		ldrb	r1, [r3, #4]
 677              	.LVL84:
1227:.\Generated_Source\PSoC4/CapSense.c **** 	}
 678              		.loc 1 1227 0 discriminator 3
 679 0010 281C     		mov	r0, r5
 680 0012 FFF7FEFF 		bl	CapSense_SetPinDriveMode
 681              	.LVL85:
1201:.\Generated_Source\PSoC4/CapSense.c **** 	{	
 682              		.loc 1 1201 0 discriminator 3
 683 0016 0134     		add	r4, r4, #1
 684              	.LVL86:
 685 0018 E4B2     		uxtb	r4, r4
 686              	.LVL87:
 687              	.L42:
1201:.\Generated_Source\PSoC4/CapSense.c **** 	{	
 688              		.loc 1 1201 0 is_stmt 0 discriminator 1
 689 001a 012C     		cmp	r4, #1
 690 001c F4D9     		bls	.L43
1230:.\Generated_Source\PSoC4/CapSense.c **** 	
 691              		.loc 1 1230 0 is_stmt 1
 692 001e 281C     		mov	r0, r5
 693 0020 0021     		mov	r1, #0
 694 0022 0422     		mov	r2, #4
 695 0024 FFF7FEFF 		bl	CapSense_SetPinDriveMode
 696              	.LVL88:
1239:.\Generated_Source\PSoC4/CapSense.c **** 
 697              		.loc 1 1239 0
 698              		@ sp needed
 699              	.LVL89:
 700              	.LVL90:
 701 0028 38BD     		pop	{r3, r4, r5, pc}
 702              	.L45:
 703 002a C046     		.align	2
 704              	.L44:
 705 002c 00000000 		.word	.LANCHOR2
 706              		.cfi_endproc
 707              	.LFE52:
 708              		.size	CapSense_SetDriveModeAllPins, .-CapSense_SetDriveModeAllPins
 709              		.section	.text.CapSense_RestoreDriveModeAllPins,"ax",%progbits
ARM GAS  C:\Users\Luci\AppData\Local\Temp\cckk3xx4.s 			page 37


 710              		.align	2
 711              		.global	CapSense_RestoreDriveModeAllPins
 712              		.code	16
 713              		.thumb_func
 714              		.type	CapSense_RestoreDriveModeAllPins, %function
 715              	CapSense_RestoreDriveModeAllPins:
 716              	.LFB53:
1265:.\Generated_Source\PSoC4/CapSense.c **** 	uint32 newRegisterValue;
 717              		.loc 1 1265 0
 718              		.cfi_startproc
 719 0000 08B5     		push	{r3, lr}
 720              		.cfi_def_cfa_offset 8
 721              		.cfi_offset 3, -8
 722              		.cfi_offset 14, -4
1268:.\Generated_Source\PSoC4/CapSense.c **** 	
 723              		.loc 1 1268 0
 724 0002 0020     		mov	r0, #0
 725 0004 FFF7FEFF 		bl	CapSense_SetDriveModeAllPins
 726              	.LVL91:
1270:.\Generated_Source\PSoC4/CapSense.c ****     newRegisterValue &= ~(CapSense_CSD_CMOD_CONNECTION_MASK);
 727              		.loc 1 1270 0
 728 0008 0349     		ldr	r1, .L47
 729 000a 0B68     		ldr	r3, [r1]
 730              	.LVL92:
1271:.\Generated_Source\PSoC4/CapSense.c ****     newRegisterValue |= CapSense_CSD_CMOD_TO_AMUXBUS_A;
 731              		.loc 1 1271 0
 732 000c 0F22     		mov	r2, #15
 733 000e 9343     		bic	r3, r2
 734              	.LVL93:
1272:.\Generated_Source\PSoC4/CapSense.c ****     CapSense_CMOD_CONNECTION_REG = newRegisterValue;
 735              		.loc 1 1272 0
 736 0010 093A     		sub	r2, r2, #9
 737 0012 1343     		orr	r3, r2
 738              	.LVL94:
1273:.\Generated_Source\PSoC4/CapSense.c **** 	
 739              		.loc 1 1273 0
 740 0014 0B60     		str	r3, [r1]
1288:.\Generated_Source\PSoC4/CapSense.c **** 
 741              		.loc 1 1288 0
 742              		@ sp needed
 743 0016 08BD     		pop	{r3, pc}
 744              	.L48:
 745              		.align	2
 746              	.L47:
 747 0018 00040240 		.word	1073873920
 748              		.cfi_endproc
 749              	.LFE53:
 750              		.size	CapSense_RestoreDriveModeAllPins, .-CapSense_RestoreDriveModeAllPins
 751              		.section	.text.CapSense_EnableShieldElectrode,"ax",%progbits
 752              		.align	2
 753              		.global	CapSense_EnableShieldElectrode
 754              		.code	16
 755              		.thumb_func
 756              		.type	CapSense_EnableShieldElectrode, %function
 757              	CapSense_EnableShieldElectrode:
 758              	.LFB57:
1328:.\Generated_Source\PSoC4/CapSense.c **** 
ARM GAS  C:\Users\Luci\AppData\Local\Temp\cckk3xx4.s 			page 38


1329:.\Generated_Source\PSoC4/CapSense.c **** 
1330:.\Generated_Source\PSoC4/CapSense.c **** /*******************************************************************************
1331:.\Generated_Source\PSoC4/CapSense.c **** * Function Name: CapSense_PreScan
1332:.\Generated_Source\PSoC4/CapSense.c **** ********************************************************************************
1333:.\Generated_Source\PSoC4/CapSense.c **** *
1334:.\Generated_Source\PSoC4/CapSense.c **** * Summary:
1335:.\Generated_Source\PSoC4/CapSense.c **** *  Sets required settings, enables a sensor, removes Vref from AMUX and starts the 
1336:.\Generated_Source\PSoC4/CapSense.c **** *  scanning process of the sensor.
1337:.\Generated_Source\PSoC4/CapSense.c **** *
1338:.\Generated_Source\PSoC4/CapSense.c **** * Parameters:
1339:.\Generated_Source\PSoC4/CapSense.c **** *  sensor:  Sensor number.
1340:.\Generated_Source\PSoC4/CapSense.c **** *
1341:.\Generated_Source\PSoC4/CapSense.c **** * Return:
1342:.\Generated_Source\PSoC4/CapSense.c **** *  None
1343:.\Generated_Source\PSoC4/CapSense.c **** *
1344:.\Generated_Source\PSoC4/CapSense.c **** * Global Variables:
1345:.\Generated_Source\PSoC4/CapSense.c **** * CapSense_widgetNumber[] - This array contains numbers of widgets for each sensor.
1346:.\Generated_Source\PSoC4/CapSense.c **** * CapSense_widgetResolution[] - Contains the widget resolution.
1347:.\Generated_Source\PSoC4/CapSense.c **** *
1348:.\Generated_Source\PSoC4/CapSense.c **** * Side Effects: 
1349:.\Generated_Source\PSoC4/CapSense.c **** *  None
1350:.\Generated_Source\PSoC4/CapSense.c **** *
1351:.\Generated_Source\PSoC4/CapSense.c **** *******************************************************************************/
1352:.\Generated_Source\PSoC4/CapSense.c **** void CapSense_PreScan(uint32 sensor)
1353:.\Generated_Source\PSoC4/CapSense.c **** {
1354:.\Generated_Source\PSoC4/CapSense.c ****     uint8 widget;
1355:.\Generated_Source\PSoC4/CapSense.c ****     uint8 interruptState;
1356:.\Generated_Source\PSoC4/CapSense.c **** 	uint32 newRegValue;
1357:.\Generated_Source\PSoC4/CapSense.c **** 	uint32 counterResolution;
1358:.\Generated_Source\PSoC4/CapSense.c **** 	
1359:.\Generated_Source\PSoC4/CapSense.c **** 	#if(CapSense_PRS_OPTIONS == CapSense__PRS_AUTO)
1360:.\Generated_Source\PSoC4/CapSense.c **** 		uint8 senseClkDivMath;
1361:.\Generated_Source\PSoC4/CapSense.c **** 		uint8 sampleClkDivMath;
1362:.\Generated_Source\PSoC4/CapSense.c **** 	#endif /* (CapSense_PRS_OPTIONS == CapSense__PRS_AUTO) */	
1363:.\Generated_Source\PSoC4/CapSense.c **** 	
1364:.\Generated_Source\PSoC4/CapSense.c **** 	#if ((CapSense_TUNING_METHOD == CapSense__TUNING_AUTO) &&\
1365:.\Generated_Source\PSoC4/CapSense.c **** 		 (0 != CapSense_IS_OVERSAMPLING_EN))
1366:.\Generated_Source\PSoC4/CapSense.c **** 		uint32 oversamplingFactor;
1367:.\Generated_Source\PSoC4/CapSense.c **** 	#endif /* ((CapSense_TUNING_METHOD == CapSense__TUNING_AUTO) &&\
1368:.\Generated_Source\PSoC4/CapSense.c **** 	           (0 != CapSense_IS_OVERSAMPLING_EN)) */
1369:.\Generated_Source\PSoC4/CapSense.c **** 
1370:.\Generated_Source\PSoC4/CapSense.c ****     /* Define widget sensor belongs to */
1371:.\Generated_Source\PSoC4/CapSense.c ****     widget = CapSense_widgetNumber[sensor];
1372:.\Generated_Source\PSoC4/CapSense.c **** 
1373:.\Generated_Source\PSoC4/CapSense.c **** 	/* Recalculate Counter Resolution to MSB 16 bits */
1374:.\Generated_Source\PSoC4/CapSense.c **** 	counterResolution = CapSense_widgetResolution[widget];
1375:.\Generated_Source\PSoC4/CapSense.c **** 	
1376:.\Generated_Source\PSoC4/CapSense.c **** 	#if ((CapSense_TUNING_METHOD == CapSense__TUNING_AUTO) &&\
1377:.\Generated_Source\PSoC4/CapSense.c **** 		 (0 != CapSense_IS_OVERSAMPLING_EN))
1378:.\Generated_Source\PSoC4/CapSense.c **** 	    oversamplingFactor = CapSense_GetBitValue(scanSpeedTbl, sensor);
1379:.\Generated_Source\PSoC4/CapSense.c **** 
1380:.\Generated_Source\PSoC4/CapSense.c **** 		if(counterResolution < CapSense_RESOLUTION_16_BITS)
1381:.\Generated_Source\PSoC4/CapSense.c **** 		{
1382:.\Generated_Source\PSoC4/CapSense.c **** 			counterResolution <<= oversamplingFactor;
1383:.\Generated_Source\PSoC4/CapSense.c **** 			counterResolution |= (uint32)(CapSense_RESOLUTION_8_BITS);
1384:.\Generated_Source\PSoC4/CapSense.c **** 		}
1385:.\Generated_Source\PSoC4/CapSense.c **** 	#endif /* ((CapSense_TUNING_METHOD == CapSense__TUNING_AUTO) &&\
ARM GAS  C:\Users\Luci\AppData\Local\Temp\cckk3xx4.s 			page 39


1386:.\Generated_Source\PSoC4/CapSense.c **** 	           (0 != CapSense_IS_OVERSAMPLING_EN)) */
1387:.\Generated_Source\PSoC4/CapSense.c **** 	
1388:.\Generated_Source\PSoC4/CapSense.c **** 	#if (0u != CapSense_IS_M0S8PERI_BLOCK)
1389:.\Generated_Source\PSoC4/CapSense.c **** 		CapSense_SenseClk_Stop();
1390:.\Generated_Source\PSoC4/CapSense.c **** 		CapSense_SampleClk_Stop();
1391:.\Generated_Source\PSoC4/CapSense.c **** 	#endif /* (0u != CapSense_IS_M0S8PERI_BLOCK) */
1392:.\Generated_Source\PSoC4/CapSense.c **** 
1393:.\Generated_Source\PSoC4/CapSense.c **** 	#if (0u != CapSense_MULTIPLE_FREQUENCY_SET)
1394:.\Generated_Source\PSoC4/CapSense.c **** 		CapSense_SampleClk_SetDividerValue((uint16)CapSense_sampleClkDividerVal[sensor]);
1395:.\Generated_Source\PSoC4/CapSense.c **** 		CapSense_SenseClk_SetDividerValue((uint16)CapSense_senseClkDividerVal[sensor]);
1396:.\Generated_Source\PSoC4/CapSense.c **** 	#else
1397:.\Generated_Source\PSoC4/CapSense.c **** 		CapSense_SampleClk_SetDividerValue((uint16)CapSense_sampleClkDividerVal);
1398:.\Generated_Source\PSoC4/CapSense.c **** 		CapSense_SenseClk_SetDividerValue((uint16)CapSense_senseClkDividerVal);
1399:.\Generated_Source\PSoC4/CapSense.c **** 	#endif /* (0u != CapSense_MULTIPLE_FREQUENCY_SET) */
1400:.\Generated_Source\PSoC4/CapSense.c **** 
1401:.\Generated_Source\PSoC4/CapSense.c **** 	#if (0u != CapSense_IS_M0S8PERI_BLOCK)
1402:.\Generated_Source\PSoC4/CapSense.c **** 		CapSense_SampleClk_Start();
1403:.\Generated_Source\PSoC4/CapSense.c **** 		CapSense_SenseClk_StartEx(CapSense_SampleClk__DIV_ID);
1404:.\Generated_Source\PSoC4/CapSense.c **** 		
1405:.\Generated_Source\PSoC4/CapSense.c **** 		#if(CapSense_PRS_OPTIONS == CapSense__PRS_NONE)
1406:.\Generated_Source\PSoC4/CapSense.c **** 			CyIntDisable(CapSense_ISR_NUMBER);
1407:.\Generated_Source\PSoC4/CapSense.c **** 			CapSense_CSD_CNT_REG = CapSense_ONE_CYCLE;
1408:.\Generated_Source\PSoC4/CapSense.c **** 			while(0u != (CapSense_CSD_CNT_REG & CapSense_RESOLUTION_16_BITS))
1409:.\Generated_Source\PSoC4/CapSense.c **** 			{
1410:.\Generated_Source\PSoC4/CapSense.c **** 			/* Wait until scanning is complete */ 
1411:.\Generated_Source\PSoC4/CapSense.c **** 			}
1412:.\Generated_Source\PSoC4/CapSense.c **** 			CapSense_CSD_INTR_REG = 1u;
1413:.\Generated_Source\PSoC4/CapSense.c **** 			CyIntClearPending(CapSense_ISR_NUMBER);
1414:.\Generated_Source\PSoC4/CapSense.c **** 			CyIntEnable(CapSense_ISR_NUMBER); 
1415:.\Generated_Source\PSoC4/CapSense.c **** 		#endif /* CapSense_PRS_OPTIONS == CapSense__PRS_NONE */
1416:.\Generated_Source\PSoC4/CapSense.c **** 	#endif /* (0u != CapSense_IS_M0S8PERI_BLOCK) */
1417:.\Generated_Source\PSoC4/CapSense.c **** 
1418:.\Generated_Source\PSoC4/CapSense.c **** #if(CapSense_PRS_OPTIONS != CapSense__PRS_NONE)
1419:.\Generated_Source\PSoC4/CapSense.c **** 
1420:.\Generated_Source\PSoC4/CapSense.c **** 	#if(CapSense_TUNING_METHOD == CapSense__TUNING_AUTO)
1421:.\Generated_Source\PSoC4/CapSense.c **** 		if(CapSense_prescalersTuningDone != 0u)
1422:.\Generated_Source\PSoC4/CapSense.c **** 		{
1423:.\Generated_Source\PSoC4/CapSense.c **** 	#endif /* (CapSense_TUNING_METHOD == CapSense__TUNING_AUTO) */
1424:.\Generated_Source\PSoC4/CapSense.c **** 			
1425:.\Generated_Source\PSoC4/CapSense.c **** 			CyIntDisable(CapSense_ISR_NUMBER);
1426:.\Generated_Source\PSoC4/CapSense.c **** 			
1427:.\Generated_Source\PSoC4/CapSense.c **** 			newRegValue = CapSense_CSD_CFG_REG;
1428:.\Generated_Source\PSoC4/CapSense.c **** 			newRegValue |= CapSense_CSD_CFG_PRS_SELECT;
1429:.\Generated_Source\PSoC4/CapSense.c **** 			
1430:.\Generated_Source\PSoC4/CapSense.c **** 			#if(CapSense_PRS_OPTIONS == CapSense__PRS_AUTO)
1431:.\Generated_Source\PSoC4/CapSense.c **** 				
1432:.\Generated_Source\PSoC4/CapSense.c **** 				newRegValue &= ~(CapSense_PRS_MODE_MASK);
1433:.\Generated_Source\PSoC4/CapSense.c **** 				
1434:.\Generated_Source\PSoC4/CapSense.c **** 				#if (0u != CapSense_MULTIPLE_FREQUENCY_SET)
1435:.\Generated_Source\PSoC4/CapSense.c **** 					senseClkDivMath = CapSense_senseClkDividerVal[sensor];
1436:.\Generated_Source\PSoC4/CapSense.c **** 					sampleClkDivMath = CapSense_sampleClkDividerVal[sensor];
1437:.\Generated_Source\PSoC4/CapSense.c **** 				#else
1438:.\Generated_Source\PSoC4/CapSense.c **** 					senseClkDivMath = CapSense_senseClkDividerVal;
1439:.\Generated_Source\PSoC4/CapSense.c **** 					sampleClkDivMath = CapSense_sampleClkDividerVal;
1440:.\Generated_Source\PSoC4/CapSense.c **** 				#endif /* ( CapSense_MULTIPLE_FREQUENCY_SET) */
1441:.\Generated_Source\PSoC4/CapSense.c **** 				
1442:.\Generated_Source\PSoC4/CapSense.c **** 				#if(0u == CapSense_IS_M0S8PERI_BLOCK)
ARM GAS  C:\Users\Luci\AppData\Local\Temp\cckk3xx4.s 			page 40


1443:.\Generated_Source\PSoC4/CapSense.c **** 					senseClkDivMath *= sampleClkDivMath;
1444:.\Generated_Source\PSoC4/CapSense.c **** 				#endif /* (0u == CapSense_IS_M0S8PERI_BLOCK) */	
1445:.\Generated_Source\PSoC4/CapSense.c **** 				
1446:.\Generated_Source\PSoC4/CapSense.c **** 				if((senseClkDivMath * CapSense_RESOLUTION_12_BITS) <
1447:.\Generated_Source\PSoC4/CapSense.c **** 				   (sampleClkDivMath * CapSense_widgetResolution[widget]))
1448:.\Generated_Source\PSoC4/CapSense.c **** 				{
1449:.\Generated_Source\PSoC4/CapSense.c **** 					newRegValue |= CapSense_CSD_PRS_12_BIT;
1450:.\Generated_Source\PSoC4/CapSense.c **** 				}
1451:.\Generated_Source\PSoC4/CapSense.c **** 			#endif /* (CapSense_PRS_OPTIONS == CapSense__PRS_AUTO) */
1452:.\Generated_Source\PSoC4/CapSense.c **** 			
1453:.\Generated_Source\PSoC4/CapSense.c **** 			CapSense_CSD_CFG_REG = newRegValue;
1454:.\Generated_Source\PSoC4/CapSense.c **** 			
1455:.\Generated_Source\PSoC4/CapSense.c **** 			CyIntEnable(CapSense_ISR_NUMBER);
1456:.\Generated_Source\PSoC4/CapSense.c **** 			
1457:.\Generated_Source\PSoC4/CapSense.c **** 	#if(CapSense_TUNING_METHOD == CapSense__TUNING_AUTO)	
1458:.\Generated_Source\PSoC4/CapSense.c **** 		}
1459:.\Generated_Source\PSoC4/CapSense.c **** 	#endif /* (CapSense_PRS_OPTIONS != CapSense__PRS_NONE) */
1460:.\Generated_Source\PSoC4/CapSense.c **** 
1461:.\Generated_Source\PSoC4/CapSense.c **** #endif /* (CapSense_PRS_OPTIONS == CapSense__PRS_NONE) */
1462:.\Generated_Source\PSoC4/CapSense.c **** 	
1463:.\Generated_Source\PSoC4/CapSense.c **** 	/* Set Idac Value */
1464:.\Generated_Source\PSoC4/CapSense.c **** 	CyIntDisable(CapSense_ISR_NUMBER);
1465:.\Generated_Source\PSoC4/CapSense.c ****     newRegValue = CapSense_CSD_IDAC_REG;
1466:.\Generated_Source\PSoC4/CapSense.c ****  
1467:.\Generated_Source\PSoC4/CapSense.c **** #if (CapSense_IDAC_CNT == 1u)    
1468:.\Generated_Source\PSoC4/CapSense.c **** 	newRegValue &= ~(CapSense_CSD_IDAC1_DATA_MASK);
1469:.\Generated_Source\PSoC4/CapSense.c **** 	newRegValue |= CapSense_modulationIDAC[sensor];
1470:.\Generated_Source\PSoC4/CapSense.c **** #else
1471:.\Generated_Source\PSoC4/CapSense.c **** 	newRegValue &= ~(CapSense_CSD_IDAC1_DATA_MASK | CapSense_CSD_IDAC2_DATA_MASK);
1472:.\Generated_Source\PSoC4/CapSense.c **** 	newRegValue |= (CapSense_modulationIDAC[sensor] | 
1473:.\Generated_Source\PSoC4/CapSense.c **** 							(uint32)((uint32)CapSense_compensationIDAC[sensor] <<
1474:.\Generated_Source\PSoC4/CapSense.c **** 							CapSense_CSD_IDAC2_DATA_OFFSET));                               
1475:.\Generated_Source\PSoC4/CapSense.c **** #endif /* (CapSense_IDAC_CNT == 1u) */
1476:.\Generated_Source\PSoC4/CapSense.c **** 	
1477:.\Generated_Source\PSoC4/CapSense.c **** 	CapSense_CSD_IDAC_REG = newRegValue;
1478:.\Generated_Source\PSoC4/CapSense.c **** 
1479:.\Generated_Source\PSoC4/CapSense.c **** #if(CapSense_CMOD_PREGARGE_OPTION == CapSense__CAPPRIOBUF)
1480:.\Generated_Source\PSoC4/CapSense.c **** 	newRegValue = CapSense_CMOD_CONNECTION_REG;
1481:.\Generated_Source\PSoC4/CapSense.c **** 	newRegValue &= ~(CapSense_CSD_CMOD_CONNECTION_MASK);
1482:.\Generated_Source\PSoC4/CapSense.c **** 	newRegValue |= CapSense_CSD_CMOD_TO_AMUXBUS_A;
1483:.\Generated_Source\PSoC4/CapSense.c **** 	CapSense_CMOD_CONNECTION_REG = newRegValue;
1484:.\Generated_Source\PSoC4/CapSense.c **** 	
1485:.\Generated_Source\PSoC4/CapSense.c **** 	newRegValue = CapSense_CMOD_PORT_PC_REG;
1486:.\Generated_Source\PSoC4/CapSense.c **** 	newRegValue &= ~(CapSense_CSD_CMOD_PC_MASK);
1487:.\Generated_Source\PSoC4/CapSense.c **** 	newRegValue |= CapSense_CMOD_PC_HIGH_Z_MODE;
1488:.\Generated_Source\PSoC4/CapSense.c **** 	CapSense_CMOD_PORT_PC_REG = newRegValue;
1489:.\Generated_Source\PSoC4/CapSense.c **** #endif /* (CapSense_CMOD_PREGARGE_OPTION == CapSense__CAPPRIOBUF) */
1490:.\Generated_Source\PSoC4/CapSense.c **** 
1491:.\Generated_Source\PSoC4/CapSense.c ****     /* Disconnect Vref Buffer from AMUX */
1492:.\Generated_Source\PSoC4/CapSense.c **** 	newRegValue = CapSense_CSD_CFG_REG;
1493:.\Generated_Source\PSoC4/CapSense.c **** 	newRegValue &= ~(CapSense_PRECHARGE_CONFIG_MASK);
1494:.\Generated_Source\PSoC4/CapSense.c **** 	newRegValue |= CapSense_CTANK_PRECHARGE_CONFIG;
1495:.\Generated_Source\PSoC4/CapSense.c **** 	
1496:.\Generated_Source\PSoC4/CapSense.c **** 	CyIntEnable(CapSense_ISR_NUMBER);
1497:.\Generated_Source\PSoC4/CapSense.c **** 	
1498:.\Generated_Source\PSoC4/CapSense.c ****     /* Enable Sensor */
1499:.\Generated_Source\PSoC4/CapSense.c ****     CapSense_EnableScanSlot(sensor);
ARM GAS  C:\Users\Luci\AppData\Local\Temp\cckk3xx4.s 			page 41


1500:.\Generated_Source\PSoC4/CapSense.c ****     
1501:.\Generated_Source\PSoC4/CapSense.c **** 	interruptState = CyEnterCriticalSection();
1502:.\Generated_Source\PSoC4/CapSense.c **** 	CapSense_CSD_CFG_REG = newRegValue;
1503:.\Generated_Source\PSoC4/CapSense.c **** 	
1504:.\Generated_Source\PSoC4/CapSense.c **** 	/* `#START CapSense_PreSettlingDelay_Debug` */
1505:.\Generated_Source\PSoC4/CapSense.c **** 
1506:.\Generated_Source\PSoC4/CapSense.c **** 	/* `#END` */
1507:.\Generated_Source\PSoC4/CapSense.c **** 	
1508:.\Generated_Source\PSoC4/CapSense.c **** 	CyDelayCycles(CapSense_GLITCH_ELIMINATION_CYCLES);
1509:.\Generated_Source\PSoC4/CapSense.c **** 	
1510:.\Generated_Source\PSoC4/CapSense.c **** 	/* `#START CapSense_PreScan_Debug` */
1511:.\Generated_Source\PSoC4/CapSense.c **** 
1512:.\Generated_Source\PSoC4/CapSense.c **** 	/* `#END` */
1513:.\Generated_Source\PSoC4/CapSense.c **** 	
1514:.\Generated_Source\PSoC4/CapSense.c ****     CapSense_CSD_CNT_REG = counterResolution;
1515:.\Generated_Source\PSoC4/CapSense.c ****     CyExitCriticalSection(interruptState);
1516:.\Generated_Source\PSoC4/CapSense.c **** }
1517:.\Generated_Source\PSoC4/CapSense.c **** 
1518:.\Generated_Source\PSoC4/CapSense.c **** 
1519:.\Generated_Source\PSoC4/CapSense.c **** /*******************************************************************************
1520:.\Generated_Source\PSoC4/CapSense.c **** * Function Name: CapSense_PostScan
1521:.\Generated_Source\PSoC4/CapSense.c **** ********************************************************************************
1522:.\Generated_Source\PSoC4/CapSense.c **** *
1523:.\Generated_Source\PSoC4/CapSense.c **** * Summary:
1524:.\Generated_Source\PSoC4/CapSense.c **** *  Stores the results of measurement in the CapSense_sensorRaw[] array,
1525:.\Generated_Source\PSoC4/CapSense.c **** *  sets the scanning sensor in the non-sampling state, turns off Idac(Current Source IDAC),
1526:.\Generated_Source\PSoC4/CapSense.c **** *  disconnects the IDAC(Sink mode), and applies Vref on AMUX.
1527:.\Generated_Source\PSoC4/CapSense.c **** *
1528:.\Generated_Source\PSoC4/CapSense.c **** * Parameters:
1529:.\Generated_Source\PSoC4/CapSense.c **** *  sensor:  Sensor number.
1530:.\Generated_Source\PSoC4/CapSense.c **** *
1531:.\Generated_Source\PSoC4/CapSense.c **** * Return:
1532:.\Generated_Source\PSoC4/CapSense.c **** *  None
1533:.\Generated_Source\PSoC4/CapSense.c **** *
1534:.\Generated_Source\PSoC4/CapSense.c **** * Global Variables:
1535:.\Generated_Source\PSoC4/CapSense.c **** *  CapSense_sensorRaw[] - used to store sensors raw data.
1536:.\Generated_Source\PSoC4/CapSense.c **** *
1537:.\Generated_Source\PSoC4/CapSense.c **** * Side Effects: 
1538:.\Generated_Source\PSoC4/CapSense.c **** *  None
1539:.\Generated_Source\PSoC4/CapSense.c **** *
1540:.\Generated_Source\PSoC4/CapSense.c **** *******************************************************************************/
1541:.\Generated_Source\PSoC4/CapSense.c **** void CapSense_PostScan(uint32 sensor)
1542:.\Generated_Source\PSoC4/CapSense.c **** {	
1543:.\Generated_Source\PSoC4/CapSense.c **** 	uint32 newRegValue;
1544:.\Generated_Source\PSoC4/CapSense.c **** #if ((CapSense_TUNING_METHOD == CapSense__TUNING_AUTO) &&\
1545:.\Generated_Source\PSoC4/CapSense.c **** 	 (0 != CapSense_IS_OVERSAMPLING_EN))
1546:.\Generated_Source\PSoC4/CapSense.c ****     uint32 oversamplingFactor;
1547:.\Generated_Source\PSoC4/CapSense.c ****     uint32 widget;
1548:.\Generated_Source\PSoC4/CapSense.c **** #endif /* ((CapSense_TUNING_METHOD == CapSense__TUNING_AUTO) &&\
1549:.\Generated_Source\PSoC4/CapSense.c **** 		   (0 != CapSense_IS_OVERSAMPLING_EN)) */	
1550:.\Generated_Source\PSoC4/CapSense.c **** 
1551:.\Generated_Source\PSoC4/CapSense.c **** 	/* `#START CapSense_PostScan_Debug` */
1552:.\Generated_Source\PSoC4/CapSense.c **** 
1553:.\Generated_Source\PSoC4/CapSense.c **** 	/* `#END` */
1554:.\Generated_Source\PSoC4/CapSense.c **** 
1555:.\Generated_Source\PSoC4/CapSense.c **** 
1556:.\Generated_Source\PSoC4/CapSense.c ****     /* Read SlotResult from Raw Counter */
ARM GAS  C:\Users\Luci\AppData\Local\Temp\cckk3xx4.s 			page 42


1557:.\Generated_Source\PSoC4/CapSense.c ****     CapSense_sensorRaw[sensor]  = (uint16)CapSense_CSD_CNT_REG;
1558:.\Generated_Source\PSoC4/CapSense.c **** 	
1559:.\Generated_Source\PSoC4/CapSense.c **** #if ((CapSense_TUNING_METHOD == CapSense__TUNING_AUTO) &&\
1560:.\Generated_Source\PSoC4/CapSense.c **** 	 (0 != CapSense_IS_OVERSAMPLING_EN))
1561:.\Generated_Source\PSoC4/CapSense.c **** 	widget = CapSense_widgetNumber[sensor];
1562:.\Generated_Source\PSoC4/CapSense.c **** 	if(CapSense_widgetResolution[widget] < CapSense_RESOLUTION_16_BITS)
1563:.\Generated_Source\PSoC4/CapSense.c **** 	{
1564:.\Generated_Source\PSoC4/CapSense.c **** 		oversamplingFactor = CapSense_GetBitValue(scanSpeedTbl, sensor);
1565:.\Generated_Source\PSoC4/CapSense.c **** 		CapSense_sensorRaw[sensor] >>= oversamplingFactor;
1566:.\Generated_Source\PSoC4/CapSense.c **** 	}
1567:.\Generated_Source\PSoC4/CapSense.c **** #endif /* ((CapSense_TUNING_METHOD == CapSense__TUNING_AUTO) &&\
1568:.\Generated_Source\PSoC4/CapSense.c **** 		   (0 != CapSense_IS_OVERSAMPLING_EN)) */
1569:.\Generated_Source\PSoC4/CapSense.c **** 
1570:.\Generated_Source\PSoC4/CapSense.c ****     /* Disable Sensor */
1571:.\Generated_Source\PSoC4/CapSense.c ****     CapSense_DisableScanSlot(sensor);
1572:.\Generated_Source\PSoC4/CapSense.c **** 
1573:.\Generated_Source\PSoC4/CapSense.c **** 	CyIntDisable(CapSense_ISR_NUMBER);
1574:.\Generated_Source\PSoC4/CapSense.c **** 	
1575:.\Generated_Source\PSoC4/CapSense.c **** #if(CapSense_CMOD_PREGARGE_OPTION == CapSense__CAPPRIOBUF)
1576:.\Generated_Source\PSoC4/CapSense.c **** 	newRegValue = CapSense_CMOD_CONNECTION_REG;
1577:.\Generated_Source\PSoC4/CapSense.c **** 	newRegValue &= ~(CapSense_CSD_CMOD_CONNECTION_MASK);
1578:.\Generated_Source\PSoC4/CapSense.c **** 	newRegValue |= CapSense_CSD_CMOD_TO_AMUXBUS_B;
1579:.\Generated_Source\PSoC4/CapSense.c **** 	CapSense_CMOD_CONNECTION_REG = newRegValue;
1580:.\Generated_Source\PSoC4/CapSense.c **** 	
1581:.\Generated_Source\PSoC4/CapSense.c **** 	newRegValue = CapSense_CMOD_PORT_PC_REG;
1582:.\Generated_Source\PSoC4/CapSense.c **** 	newRegValue &= ~(CapSense_CSD_CMOD_PC_MASK);
1583:.\Generated_Source\PSoC4/CapSense.c **** 	newRegValue |= CapSense_CMOD_PC_STRONG_MODE;
1584:.\Generated_Source\PSoC4/CapSense.c **** 	CapSense_CMOD_PORT_PC_REG = newRegValue;
1585:.\Generated_Source\PSoC4/CapSense.c **** 		
1586:.\Generated_Source\PSoC4/CapSense.c **** 	newRegValue = CapSense_CMOD_PORT_DR_REG;
1587:.\Generated_Source\PSoC4/CapSense.c ****     newRegValue &= ~(CapSense_CMOD_DR_MASK);
1588:.\Generated_Source\PSoC4/CapSense.c **** 	newRegValue |= CapSense_CMOD_DR_CONFIG;
1589:.\Generated_Source\PSoC4/CapSense.c ****     CapSense_CMOD_PORT_DR_REG = newRegValue;    
1590:.\Generated_Source\PSoC4/CapSense.c **** #endif /* (CapSense_CMOD_PREGARGE_OPTION == CapSense__CAPPRIOBUF) */
1591:.\Generated_Source\PSoC4/CapSense.c **** 	
1592:.\Generated_Source\PSoC4/CapSense.c **** 	/* Connect Vref Buffer to AMUX bus  */
1593:.\Generated_Source\PSoC4/CapSense.c **** 	newRegValue = CapSense_CSD_CFG_REG;
1594:.\Generated_Source\PSoC4/CapSense.c **** 	newRegValue &= ~(CapSense_PRECHARGE_CONFIG_MASK);
1595:.\Generated_Source\PSoC4/CapSense.c **** 	newRegValue |= CapSense_CMOD_PRECHARGE_CONFIG;
1596:.\Generated_Source\PSoC4/CapSense.c **** 	CapSense_CSD_CFG_REG = newRegValue;
1597:.\Generated_Source\PSoC4/CapSense.c **** 
1598:.\Generated_Source\PSoC4/CapSense.c **** 	/* Set Idac Value = 0 */
1599:.\Generated_Source\PSoC4/CapSense.c **** #if (CapSense_IDAC_CNT == 1u)   
1600:.\Generated_Source\PSoC4/CapSense.c **** 	CapSense_CSD_IDAC_REG &= ~(CapSense_CSD_IDAC1_DATA_MASK);
1601:.\Generated_Source\PSoC4/CapSense.c **** #else
1602:.\Generated_Source\PSoC4/CapSense.c **** 	CapSense_CSD_IDAC_REG &= ~(CapSense_CSD_IDAC1_DATA_MASK | CapSense_CSD_IDAC2_DATA_MASK);          
1603:.\Generated_Source\PSoC4/CapSense.c **** #endif /* (CapSense_IDAC_CNT == 1u) */
1604:.\Generated_Source\PSoC4/CapSense.c **** 
1605:.\Generated_Source\PSoC4/CapSense.c **** 	CyIntEnable(CapSense_ISR_NUMBER);
1606:.\Generated_Source\PSoC4/CapSense.c **** }
1607:.\Generated_Source\PSoC4/CapSense.c **** 
1608:.\Generated_Source\PSoC4/CapSense.c **** 
1609:.\Generated_Source\PSoC4/CapSense.c **** /*******************************************************************************
1610:.\Generated_Source\PSoC4/CapSense.c **** * Function Name: CapSense_EnableShieldElectrode
1611:.\Generated_Source\PSoC4/CapSense.c **** ********************************************************************************
1612:.\Generated_Source\PSoC4/CapSense.c **** *
1613:.\Generated_Source\PSoC4/CapSense.c **** * Summary:
ARM GAS  C:\Users\Luci\AppData\Local\Temp\cckk3xx4.s 			page 43


1614:.\Generated_Source\PSoC4/CapSense.c **** *  This API enables or disables the shield electrode on a specified port pin.
1615:.\Generated_Source\PSoC4/CapSense.c **** *
1616:.\Generated_Source\PSoC4/CapSense.c **** * Parameters:
1617:.\Generated_Source\PSoC4/CapSense.c **** *  portNumber: contains the shield electrode port number (0, 1, 2).
1618:.\Generated_Source\PSoC4/CapSense.c **** *  pinNumber: contains the shield electrode pin number (0, 1, 2, ... , 7).
1619:.\Generated_Source\PSoC4/CapSense.c **** *
1620:.\Generated_Source\PSoC4/CapSense.c **** * Return:
1621:.\Generated_Source\PSoC4/CapSense.c **** *  None
1622:.\Generated_Source\PSoC4/CapSense.c **** *
1623:.\Generated_Source\PSoC4/CapSense.c **** * Global Variables:
1624:.\Generated_Source\PSoC4/CapSense.c **** *  CapSense_prtCfgTbl[] - Contains pointers to the port config registers for each port.
1625:.\Generated_Source\PSoC4/CapSense.c **** *  CapSense_prtSelTbl[] - Contains pointers to the HSIOM registers for each port.
1626:.\Generated_Source\PSoC4/CapSense.c **** *
1627:.\Generated_Source\PSoC4/CapSense.c **** * Side Effects: 
1628:.\Generated_Source\PSoC4/CapSense.c **** *  None
1629:.\Generated_Source\PSoC4/CapSense.c **** *
1630:.\Generated_Source\PSoC4/CapSense.c **** *******************************************************************************/
1631:.\Generated_Source\PSoC4/CapSense.c **** void CapSense_EnableShieldElectrode(uint32 pinNumber, uint32 portNumber)
1632:.\Generated_Source\PSoC4/CapSense.c **** {
 759              		.loc 1 1632 0
 760              		.cfi_startproc
 761              	.LVL95:
 762 0000 30B5     		push	{r4, r5, lr}
 763              		.cfi_def_cfa_offset 12
 764              		.cfi_offset 4, -12
 765              		.cfi_offset 5, -8
 766              		.cfi_offset 14, -4
1633:.\Generated_Source\PSoC4/CapSense.c **** 	uint32 newRegValue;
1634:.\Generated_Source\PSoC4/CapSense.c **** 	
1635:.\Generated_Source\PSoC4/CapSense.c **** 	*CapSense_prtCfgTbl[portNumber] &= ~(CapSense_CSD_PIN_MODE_MASK << (pinNumber * CapSense_PC_PIN_CF
 767              		.loc 1 1635 0
 768 0002 8900     		lsl	r1, r1, #2
 769              	.LVL96:
 770 0004 0A4B     		ldr	r3, .L50
 771 0006 5918     		add	r1, r3, r1
 772 0008 0D6A     		ldr	r5, [r1, #32]
 773 000a 2B68     		ldr	r3, [r5]
 774 000c 4200     		lsl	r2, r0, #1
 775 000e 1218     		add	r2, r2, r0
 776 0010 0724     		mov	r4, #7
 777 0012 9440     		lsl	r4, r4, r2
 778 0014 A343     		bic	r3, r4
 779 0016 2B60     		str	r3, [r5]
1636:.\Generated_Source\PSoC4/CapSense.c **** 	newRegValue = *CapSense_prtSelTbl[portNumber];
 780              		.loc 1 1636 0
 781 0018 8968     		ldr	r1, [r1, #8]
 782 001a 0B68     		ldr	r3, [r1]
 783              	.LVL97:
1637:.\Generated_Source\PSoC4/CapSense.c ****     newRegValue &= ~(CapSense_CSD_HSIOM_MASK << (pinNumber * CapSense_HSIOM_PIN_CFG_SIZE));
 784              		.loc 1 1637 0
 785 001c 8000     		lsl	r0, r0, #2
 786              	.LVL98:
 787 001e 0F22     		mov	r2, #15
 788 0020 8240     		lsl	r2, r2, r0
 789 0022 9343     		bic	r3, r2
 790              	.LVL99:
1638:.\Generated_Source\PSoC4/CapSense.c ****     newRegValue |= (CapSense_CSD_SHIELD_PORT_MODE << (pinNumber * CapSense_HSIOM_PIN_CFG_SIZE));
ARM GAS  C:\Users\Luci\AppData\Local\Temp\cckk3xx4.s 			page 44


 791              		.loc 1 1638 0
 792 0024 0522     		mov	r2, #5
 793 0026 8240     		lsl	r2, r2, r0
 794 0028 101C     		mov	r0, r2
 795 002a 1843     		orr	r0, r3
 796              	.LVL100:
1639:.\Generated_Source\PSoC4/CapSense.c ****     *CapSense_prtSelTbl[portNumber] = newRegValue;
 797              		.loc 1 1639 0
 798 002c 0860     		str	r0, [r1]
1640:.\Generated_Source\PSoC4/CapSense.c **** }
 799              		.loc 1 1640 0
 800              		@ sp needed
 801 002e 30BD     		pop	{r4, r5, pc}
 802              	.L51:
 803              		.align	2
 804              	.L50:
 805 0030 00000000 		.word	.LANCHOR2
 806              		.cfi_endproc
 807              	.LFE57:
 808              		.size	CapSense_EnableShieldElectrode, .-CapSense_EnableShieldElectrode
 809              		.section	.text.CapSense_SetShieldDelay,"ax",%progbits
 810              		.align	2
 811              		.global	CapSense_SetShieldDelay
 812              		.code	16
 813              		.thumb_func
 814              		.type	CapSense_SetShieldDelay, %function
 815              	CapSense_SetShieldDelay:
 816              	.LFB58:
1641:.\Generated_Source\PSoC4/CapSense.c **** 
1642:.\Generated_Source\PSoC4/CapSense.c **** 
1643:.\Generated_Source\PSoC4/CapSense.c **** /*******************************************************************************
1644:.\Generated_Source\PSoC4/CapSense.c **** * Function Name: CapSense_SetShieldDelay
1645:.\Generated_Source\PSoC4/CapSense.c **** ********************************************************************************
1646:.\Generated_Source\PSoC4/CapSense.c **** *
1647:.\Generated_Source\PSoC4/CapSense.c **** * Summary:
1648:.\Generated_Source\PSoC4/CapSense.c **** *  This API sets a shield delay.
1649:.\Generated_Source\PSoC4/CapSense.c **** *
1650:.\Generated_Source\PSoC4/CapSense.c **** * Parameters:
1651:.\Generated_Source\PSoC4/CapSense.c **** *  delay:  shield delay value:
1652:.\Generated_Source\PSoC4/CapSense.c **** *                               0 - no delay
1653:.\Generated_Source\PSoC4/CapSense.c **** *                               1 - 1 cycle delay
1654:.\Generated_Source\PSoC4/CapSense.c **** *                               2 - 2 cycles delay
1655:.\Generated_Source\PSoC4/CapSense.c **** *
1656:.\Generated_Source\PSoC4/CapSense.c **** * Return:
1657:.\Generated_Source\PSoC4/CapSense.c **** *  None
1658:.\Generated_Source\PSoC4/CapSense.c **** *
1659:.\Generated_Source\PSoC4/CapSense.c **** * Global Variables:
1660:.\Generated_Source\PSoC4/CapSense.c **** *  None
1661:.\Generated_Source\PSoC4/CapSense.c **** *
1662:.\Generated_Source\PSoC4/CapSense.c **** * Side Effects: 
1663:.\Generated_Source\PSoC4/CapSense.c **** *  None
1664:.\Generated_Source\PSoC4/CapSense.c **** *
1665:.\Generated_Source\PSoC4/CapSense.c **** *******************************************************************************/
1666:.\Generated_Source\PSoC4/CapSense.c **** void CapSense_SetShieldDelay(uint32 delay)
1667:.\Generated_Source\PSoC4/CapSense.c **** {
 817              		.loc 1 1667 0
 818              		.cfi_startproc
ARM GAS  C:\Users\Luci\AppData\Local\Temp\cckk3xx4.s 			page 45


 819              	.LVL101:
1668:.\Generated_Source\PSoC4/CapSense.c ****     uint32 newRegValue;
1669:.\Generated_Source\PSoC4/CapSense.c ****     
1670:.\Generated_Source\PSoC4/CapSense.c ****     delay &= 0x03u;
 820              		.loc 1 1670 0
 821 0000 0323     		mov	r3, #3
 822 0002 1840     		and	r0, r3
 823              	.LVL102:
1671:.\Generated_Source\PSoC4/CapSense.c ****     
1672:.\Generated_Source\PSoC4/CapSense.c ****     newRegValue = CapSense_CSD_CFG_REG;
 824              		.loc 1 1672 0
 825 0004 024B     		ldr	r3, .L53
 826 0006 1A68     		ldr	r2, [r3]
 827              	.LVL103:
1673:.\Generated_Source\PSoC4/CapSense.c ****     newRegValue &= (uint32)(~(uint32)CapSense_SHIELD_DELAY);    
1674:.\Generated_Source\PSoC4/CapSense.c ****     newRegValue |= (delay << CapSense_CSD_CFG_SHIELD_DELAY_POS);    
 828              		.loc 1 1674 0
 829 0008 4002     		lsl	r0, r0, #9
 830              	.LVL104:
 831 000a 1043     		orr	r0, r2
 832              	.LVL105:
1675:.\Generated_Source\PSoC4/CapSense.c ****     CapSense_CSD_CFG_REG = newRegValue;
 833              		.loc 1 1675 0
 834 000c 1860     		str	r0, [r3]
1676:.\Generated_Source\PSoC4/CapSense.c **** }
 835              		.loc 1 1676 0
 836              		@ sp needed
 837 000e 7047     		bx	lr
 838              	.L54:
 839              		.align	2
 840              	.L53:
 841 0010 04002840 		.word	1076363268
 842              		.cfi_endproc
 843              	.LFE58:
 844              		.size	CapSense_SetShieldDelay, .-CapSense_SetShieldDelay
 845              		.section	.text.CapSense_Init,"ax",%progbits
 846              		.align	2
 847              		.global	CapSense_Init
 848              		.code	16
 849              		.thumb_func
 850              		.type	CapSense_Init, %function
 851              	CapSense_Init:
 852              	.LFB35:
 185:.\Generated_Source\PSoC4/CapSense.c **** 	uint32 curSensor;
 853              		.loc 1 185 0
 854              		.cfi_startproc
 855 0000 08B5     		push	{r3, lr}
 856              		.cfi_def_cfa_offset 8
 857              		.cfi_offset 3, -8
 858              		.cfi_offset 14, -4
 859              	.LVL106:
 216:.\Generated_Source\PSoC4/CapSense.c **** 	{
 860              		.loc 1 216 0
 861 0002 0023     		mov	r3, #0
 862 0004 03E0     		b	.L56
 863              	.LVL107:
 864              	.L57:
ARM GAS  C:\Users\Luci\AppData\Local\Temp\cckk3xx4.s 			page 46


 218:.\Generated_Source\PSoC4/CapSense.c **** 	}
 865              		.loc 1 218 0 discriminator 3
 866 0006 0021     		mov	r1, #0
 867 0008 064A     		ldr	r2, .L58
 868 000a D154     		strb	r1, [r2, r3]
 216:.\Generated_Source\PSoC4/CapSense.c **** 	{
 869              		.loc 1 216 0 discriminator 3
 870 000c 0133     		add	r3, r3, #1
 871              	.LVL108:
 872              	.L56:
 216:.\Generated_Source\PSoC4/CapSense.c **** 	{
 873              		.loc 1 216 0 is_stmt 0 discriminator 1
 874 000e 012B     		cmp	r3, #1
 875 0010 F9D9     		bls	.L57
 221:.\Generated_Source\PSoC4/CapSense.c ****     CapSense_SetShieldDelay(CapSense_SHIELD_DELAY );
 876              		.loc 1 221 0 is_stmt 1
 877 0012 FFF7FEFF 		bl	CapSense_CsdHwBlockInit
 878              	.LVL109:
 222:.\Generated_Source\PSoC4/CapSense.c **** 	
 879              		.loc 1 222 0
 880 0016 0020     		mov	r0, #0
 881 0018 FFF7FEFF 		bl	CapSense_SetShieldDelay
 882              	.LVL110:
 225:.\Generated_Source\PSoC4/CapSense.c **** }
 883              		.loc 1 225 0
 884 001c FFF7FEFF 		bl	CapSense_ClearSensors
 885              	.LVL111:
 226:.\Generated_Source\PSoC4/CapSense.c **** 
 886              		.loc 1 226 0
 887              		@ sp needed
 888 0020 08BD     		pop	{r3, pc}
 889              	.L59:
 890 0022 C046     		.align	2
 891              	.L58:
 892 0024 00000000 		.word	CapSense_unscannedSnsDriveMode
 893              		.cfi_endproc
 894              	.LFE35:
 895              		.size	CapSense_Init, .-CapSense_Init
 896              		.section	.text.CapSense_Start,"ax",%progbits
 897              		.align	2
 898              		.global	CapSense_Start
 899              		.code	16
 900              		.thumb_func
 901              		.type	CapSense_Start, %function
 902              	CapSense_Start:
 903              	.LFB38:
 394:.\Generated_Source\PSoC4/CapSense.c **** 
 904              		.loc 1 394 0
 905              		.cfi_startproc
 906 0000 08B5     		push	{r3, lr}
 907              		.cfi_def_cfa_offset 8
 908              		.cfi_offset 3, -8
 909              		.cfi_offset 14, -4
 404:.\Generated_Source\PSoC4/CapSense.c ****     {
 910              		.loc 1 404 0
 911 0002 0B4B     		ldr	r3, .L62
 912 0004 1B7A     		ldrb	r3, [r3, #8]
ARM GAS  C:\Users\Luci\AppData\Local\Temp\cckk3xx4.s 			page 47


 913 0006 002B     		cmp	r3, #0
 914 0008 04D1     		bne	.L61
 406:.\Generated_Source\PSoC4/CapSense.c ****         CapSense_initVar = 1u;
 915              		.loc 1 406 0
 916 000a FFF7FEFF 		bl	CapSense_Init
 917              	.LVL112:
 407:.\Generated_Source\PSoC4/CapSense.c ****     }
 918              		.loc 1 407 0
 919 000e 0122     		mov	r2, #1
 920 0010 074B     		ldr	r3, .L62
 921 0012 1A72     		strb	r2, [r3, #8]
 922              	.L61:
 409:.\Generated_Source\PSoC4/CapSense.c **** 	
 923              		.loc 1 409 0
 924 0014 FFF7FEFF 		bl	CapSense_Enable
 925              	.LVL113:
 414:.\Generated_Source\PSoC4/CapSense.c **** 	        CapSense_lowLevelTuningDone = 1u;
 926              		.loc 1 414 0
 927 0018 FFF7FEFF 		bl	CapSense_AutoTune
 928              	.LVL114:
 415:.\Generated_Source\PSoC4/CapSense.c **** 		#endif /* (0u != CapSense_CSHL_API_GENERATE) */
 929              		.loc 1 415 0
 930 001c 0122     		mov	r2, #1
 931 001e 044B     		ldr	r3, .L62
 932 0020 5A72     		strb	r2, [r3, #9]
 458:.\Generated_Source\PSoC4/CapSense.c **** }
 933              		.loc 1 458 0
 934 0022 044A     		ldr	r2, .L62+4
 935 0024 1368     		ldr	r3, [r2]
 936 0026 8021     		mov	r1, #128
 937 0028 C903     		lsl	r1, r1, #15
 938 002a 0B43     		orr	r3, r1
 939 002c 1360     		str	r3, [r2]
 459:.\Generated_Source\PSoC4/CapSense.c **** 
 940              		.loc 1 459 0
 941              		@ sp needed
 942 002e 08BD     		pop	{r3, pc}
 943              	.L63:
 944              		.align	2
 945              	.L62:
 946 0030 00000000 		.word	.LANCHOR0
 947 0034 04002840 		.word	1076363268
 948              		.cfi_endproc
 949              	.LFE38:
 950              		.size	CapSense_Start, .-CapSense_Start
 951              		.section	.text.CapSense_ReadCurrentScanningSensor,"ax",%progbits
 952              		.align	2
 953              		.global	CapSense_ReadCurrentScanningSensor
 954              		.code	16
 955              		.thumb_func
 956              		.type	CapSense_ReadCurrentScanningSensor, %function
 957              	CapSense_ReadCurrentScanningSensor:
 958              	.LFB59:
1677:.\Generated_Source\PSoC4/CapSense.c **** 
1678:.\Generated_Source\PSoC4/CapSense.c **** 
1679:.\Generated_Source\PSoC4/CapSense.c **** /*******************************************************************************
1680:.\Generated_Source\PSoC4/CapSense.c **** * Function Name: CapSense_ReadCurrentScanningSensor
ARM GAS  C:\Users\Luci\AppData\Local\Temp\cckk3xx4.s 			page 48


1681:.\Generated_Source\PSoC4/CapSense.c **** ********************************************************************************
1682:.\Generated_Source\PSoC4/CapSense.c **** *
1683:.\Generated_Source\PSoC4/CapSense.c **** * Summary:
1684:.\Generated_Source\PSoC4/CapSense.c **** *  This API returns scanning sensor number when sensor scan is in progress. 
1685:.\Generated_Source\PSoC4/CapSense.c **** *  When sensor scan is completed the API returns 
1686:.\Generated_Source\PSoC4/CapSense.c **** *  $INSTANCE_NAME`_NOT_SENSOR (0xFFFFFFFF) (when no sensor is scanned).
1687:.\Generated_Source\PSoC4/CapSense.c **** *
1688:.\Generated_Source\PSoC4/CapSense.c **** * Parameters:
1689:.\Generated_Source\PSoC4/CapSense.c **** *	None.
1690:.\Generated_Source\PSoC4/CapSense.c **** *
1691:.\Generated_Source\PSoC4/CapSense.c **** * Return:
1692:.\Generated_Source\PSoC4/CapSense.c **** *  Returns Sensor number if sensor is being scanned and 
1693:.\Generated_Source\PSoC4/CapSense.c **** *  $INSTANCE_NAME`_NOT_SENSOR (0xFFFFFFFF) if scanning is complete.
1694:.\Generated_Source\PSoC4/CapSense.c **** *
1695:.\Generated_Source\PSoC4/CapSense.c **** * Global Variables:
1696:.\Generated_Source\PSoC4/CapSense.c **** *  CapSense_sensorIndex - the sensor number is being scanned.
1697:.\Generated_Source\PSoC4/CapSense.c **** *
1698:.\Generated_Source\PSoC4/CapSense.c **** * Side Effects: 
1699:.\Generated_Source\PSoC4/CapSense.c **** *  None
1700:.\Generated_Source\PSoC4/CapSense.c **** *
1701:.\Generated_Source\PSoC4/CapSense.c **** *******************************************************************************/
1702:.\Generated_Source\PSoC4/CapSense.c **** uint32 CapSense_ReadCurrentScanningSensor(void)
1703:.\Generated_Source\PSoC4/CapSense.c **** {
 959              		.loc 1 1703 0
 960              		.cfi_startproc
1704:.\Generated_Source\PSoC4/CapSense.c ****     return ((uint32)(( 0u != (CapSense_csdStatusVar & CapSense_SW_STS_BUSY)) ? 
 961              		.loc 1 1704 0
 962 0000 054B     		ldr	r3, .L67
 963 0002 1B78     		ldrb	r3, [r3]
 964 0004 DB07     		lsl	r3, r3, #31
 965 0006 03D5     		bpl	.L66
 966              		.loc 1 1704 0 is_stmt 0 discriminator 1
 967 0008 034B     		ldr	r3, .L67
 968 000a 987A     		ldrb	r0, [r3, #10]
 969 000c C0B2     		uxtb	r0, r0
 970 000e 01E0     		b	.L65
 971              	.L66:
 972              		.loc 1 1704 0
 973 0010 0120     		mov	r0, #1
 974 0012 4042     		neg	r0, r0
 975              	.L65:
1705:.\Generated_Source\PSoC4/CapSense.c ****                      CapSense_sensorIndex : CapSense_NOT_SENSOR));
1706:.\Generated_Source\PSoC4/CapSense.c **** }
 976              		.loc 1 1706 0 is_stmt 1 discriminator 4
 977              		@ sp needed
 978 0014 7047     		bx	lr
 979              	.L68:
 980 0016 C046     		.align	2
 981              	.L67:
 982 0018 00000000 		.word	.LANCHOR0
 983              		.cfi_endproc
 984              	.LFE59:
 985              		.size	CapSense_ReadCurrentScanningSensor, .-CapSense_ReadCurrentScanningSensor
 986              		.section	.text.CapSense_GetBitValue,"ax",%progbits
 987              		.align	2
 988              		.global	CapSense_GetBitValue
 989              		.code	16
ARM GAS  C:\Users\Luci\AppData\Local\Temp\cckk3xx4.s 			page 49


 990              		.thumb_func
 991              		.type	CapSense_GetBitValue, %function
 992              	CapSense_GetBitValue:
 993              	.LFB60:
1707:.\Generated_Source\PSoC4/CapSense.c **** 
1708:.\Generated_Source\PSoC4/CapSense.c **** 
1709:.\Generated_Source\PSoC4/CapSense.c **** /*******************************************************************************
1710:.\Generated_Source\PSoC4/CapSense.c **** * Function Name: CapSense_GetBitValue
1711:.\Generated_Source\PSoC4/CapSense.c **** ********************************************************************************
1712:.\Generated_Source\PSoC4/CapSense.c **** *
1713:.\Generated_Source\PSoC4/CapSense.c **** * Summary:
1714:.\Generated_Source\PSoC4/CapSense.c **** *  The API returns a bit status of the bit in the table array which contains the masks.
1715:.\Generated_Source\PSoC4/CapSense.c **** * 
1716:.\Generated_Source\PSoC4/CapSense.c **** * Parameters:
1717:.\Generated_Source\PSoC4/CapSense.c **** *  table[] - array with bit masks.
1718:.\Generated_Source\PSoC4/CapSense.c **** *  position - position of bit in the table[] array.
1719:.\Generated_Source\PSoC4/CapSense.c **** *
1720:.\Generated_Source\PSoC4/CapSense.c **** * Return:
1721:.\Generated_Source\PSoC4/CapSense.c **** *  0 - bit is not set; 1 - bit is set.
1722:.\Generated_Source\PSoC4/CapSense.c **** *
1723:.\Generated_Source\PSoC4/CapSense.c **** * Global Variables:
1724:.\Generated_Source\PSoC4/CapSense.c **** *  None
1725:.\Generated_Source\PSoC4/CapSense.c **** *
1726:.\Generated_Source\PSoC4/CapSense.c **** * Side Effects:
1727:.\Generated_Source\PSoC4/CapSense.c **** *  None
1728:.\Generated_Source\PSoC4/CapSense.c **** *
1729:.\Generated_Source\PSoC4/CapSense.c **** *******************************************************************************/
1730:.\Generated_Source\PSoC4/CapSense.c **** uint32 CapSense_GetBitValue(const uint8 table[], uint32 position)
1731:.\Generated_Source\PSoC4/CapSense.c **** {
 994              		.loc 1 1731 0
 995              		.cfi_startproc
 996              	.LVL115:
1732:.\Generated_Source\PSoC4/CapSense.c ****     uint32 offset;
1733:.\Generated_Source\PSoC4/CapSense.c **** 	uint8 enMask;
1734:.\Generated_Source\PSoC4/CapSense.c **** 	
1735:.\Generated_Source\PSoC4/CapSense.c **** 	/* position is divided by 8 to calculate the element of the 
1736:.\Generated_Source\PSoC4/CapSense.c **** 	   table[] array that contains the enable bit 
1737:.\Generated_Source\PSoC4/CapSense.c **** 	   for an appropriate sensor.
1738:.\Generated_Source\PSoC4/CapSense.c **** 	*/
1739:.\Generated_Source\PSoC4/CapSense.c **** 	offset = (position >> 3u);
 997              		.loc 1 1739 0
 998 0000 CA08     		lsr	r2, r1, #3
 999              	.LVL116:
1740:.\Generated_Source\PSoC4/CapSense.c **** 	
1741:.\Generated_Source\PSoC4/CapSense.c **** 	/* The enMask calculation for the appropriate sensor. Operation (position & 0x07u) 
1742:.\Generated_Source\PSoC4/CapSense.c **** 	   intends to calculate the enable bit offset for the 8-bit element of the 
1743:.\Generated_Source\PSoC4/CapSense.c **** 	   table[] array.
1744:.\Generated_Source\PSoC4/CapSense.c **** 	*/
1745:.\Generated_Source\PSoC4/CapSense.c **** 	enMask = 0x01u << (position & 0x07u);
 1000              		.loc 1 1745 0
 1001 0002 0723     		mov	r3, #7
 1002 0004 1940     		and	r1, r3
 1003              	.LVL117:
 1004 0006 063B     		sub	r3, r3, #6
 1005 0008 8B40     		lsl	r3, r3, r1
 1006 000a 191C     		mov	r1, r3
 1007              	.LVL118:
ARM GAS  C:\Users\Luci\AppData\Local\Temp\cckk3xx4.s 			page 50


1746:.\Generated_Source\PSoC4/CapSense.c ****     
1747:.\Generated_Source\PSoC4/CapSense.c ****     return ((0u !=(table[offset] & enMask)) ? 1Lu : 0Lu);
 1008              		.loc 1 1747 0
 1009 000c 835C     		ldrb	r3, [r0, r2]
 1010 000e 1942     		tst	r1, r3
 1011 0010 01D0     		beq	.L71
 1012 0012 0120     		mov	r0, #1
 1013              	.LVL119:
 1014 0014 00E0     		b	.L70
 1015              	.LVL120:
 1016              	.L71:
 1017 0016 0020     		mov	r0, #0
 1018              	.LVL121:
 1019              	.L70:
1748:.\Generated_Source\PSoC4/CapSense.c **** }
 1020              		.loc 1 1748 0 discriminator 4
 1021              		@ sp needed
 1022 0018 7047     		bx	lr
 1023              		.cfi_endproc
 1024              	.LFE60:
 1025              		.size	CapSense_GetBitValue, .-CapSense_GetBitValue
 1026 001a C046     		.section	.text.CapSense_FindNextSensor,"ax",%progbits
 1027              		.align	2
 1028              		.global	CapSense_FindNextSensor
 1029              		.code	16
 1030              		.thumb_func
 1031              		.type	CapSense_FindNextSensor, %function
 1032              	CapSense_FindNextSensor:
 1033              	.LFB40:
 524:.\Generated_Source\PSoC4/CapSense.c ****     uint32 enableFlag;
 1034              		.loc 1 524 0
 1035              		.cfi_startproc
 1036              	.LVL122:
 1037 0000 10B5     		push	{r4, lr}
 1038              		.cfi_def_cfa_offset 8
 1039              		.cfi_offset 4, -8
 1040              		.cfi_offset 14, -4
 1041 0002 041C     		mov	r4, r0
 1042              	.LVL123:
 1043              	.L74:
 531:.\Generated_Source\PSoC4/CapSense.c ****         if(snsIndex == CapSense_TOTAL_SENSOR_COUNT)
 1044              		.loc 1 531 0
 1045 0004 0134     		add	r4, r4, #1
 1046              	.LVL124:
 1047 0006 E4B2     		uxtb	r4, r4
 1048              	.LVL125:
 532:.\Generated_Source\PSoC4/CapSense.c ****         {
 1049              		.loc 1 532 0
 1050 0008 022C     		cmp	r4, #2
 1051 000a 06D0     		beq	.L73
 536:.\Generated_Source\PSoC4/CapSense.c ****     }    
 1052              		.loc 1 536 0
 1053 000c 0448     		ldr	r0, .L75
 1054 000e 0830     		add	r0, r0, #8
 1055 0010 211C     		mov	r1, r4
 1056 0012 FFF7FEFF 		bl	CapSense_GetBitValue
 1057              	.LVL126:
ARM GAS  C:\Users\Luci\AppData\Local\Temp\cckk3xx4.s 			page 51


 538:.\Generated_Source\PSoC4/CapSense.c ****     
 1058              		.loc 1 538 0
 1059 0016 0028     		cmp	r0, #0
 1060 0018 F4D0     		beq	.L74
 1061              	.LVL127:
 1062              	.L73:
 541:.\Generated_Source\PSoC4/CapSense.c **** 
 1063              		.loc 1 541 0
 1064 001a 201C     		mov	r0, r4
 1065              		@ sp needed
 1066              	.LVL128:
 1067 001c 10BD     		pop	{r4, pc}
 1068              	.L76:
 1069 001e C046     		.align	2
 1070              	.L75:
 1071 0020 00000000 		.word	.LANCHOR1
 1072              		.cfi_endproc
 1073              	.LFE40:
 1074              		.size	CapSense_FindNextSensor, .-CapSense_FindNextSensor
 1075              		.section	.text.CapSense_PreScan,"ax",%progbits
 1076              		.align	2
 1077              		.global	CapSense_PreScan
 1078              		.code	16
 1079              		.thumb_func
 1080              		.type	CapSense_PreScan, %function
 1081              	CapSense_PreScan:
 1082              	.LFB55:
1353:.\Generated_Source\PSoC4/CapSense.c ****     uint8 widget;
 1083              		.loc 1 1353 0
 1084              		.cfi_startproc
 1085              	.LVL129:
 1086 0000 F8B5     		push	{r3, r4, r5, r6, r7, lr}
 1087              		.cfi_def_cfa_offset 24
 1088              		.cfi_offset 3, -24
 1089              		.cfi_offset 4, -20
 1090              		.cfi_offset 5, -16
 1091              		.cfi_offset 6, -12
 1092              		.cfi_offset 7, -8
 1093              		.cfi_offset 14, -4
 1094 0002 041C     		mov	r4, r0
1371:.\Generated_Source\PSoC4/CapSense.c **** 
 1095              		.loc 1 1371 0
 1096 0004 324B     		ldr	r3, .L80
 1097 0006 5033     		add	r3, r3, #80
 1098 0008 1B5C     		ldrb	r3, [r3, r0]
 1099              	.LVL130:
1374:.\Generated_Source\PSoC4/CapSense.c **** 	
 1100              		.loc 1 1374 0
 1101 000a 9B00     		lsl	r3, r3, #2
 1102              	.LVL131:
 1103 000c 314A     		ldr	r2, .L80+4
 1104 000e 9E58     		ldr	r6, [r3, r2]
 1105              	.LVL132:
1378:.\Generated_Source\PSoC4/CapSense.c **** 
 1106              		.loc 1 1378 0
 1107 0010 3148     		ldr	r0, .L80+8
 1108              	.LVL133:
ARM GAS  C:\Users\Luci\AppData\Local\Temp\cckk3xx4.s 			page 52


 1109 0012 211C     		mov	r1, r4
 1110 0014 FFF7FEFF 		bl	CapSense_GetBitValue
 1111              	.LVL134:
1380:.\Generated_Source\PSoC4/CapSense.c **** 		{
 1112              		.loc 1 1380 0
 1113 0018 304B     		ldr	r3, .L80+12
 1114 001a 9E42     		cmp	r6, r3
 1115 001c 03D8     		bhi	.L78
1382:.\Generated_Source\PSoC4/CapSense.c **** 			counterResolution |= (uint32)(CapSense_RESOLUTION_8_BITS);
 1116              		.loc 1 1382 0
 1117 001e 8640     		lsl	r6, r6, r0
 1118              	.LVL135:
1383:.\Generated_Source\PSoC4/CapSense.c **** 		}
 1119              		.loc 1 1383 0
 1120 0020 FF20     		mov	r0, #255
 1121              	.LVL136:
 1122 0022 0004     		lsl	r0, r0, #16
 1123 0024 0643     		orr	r6, r0
 1124              	.LVL137:
 1125              	.L78:
1389:.\Generated_Source\PSoC4/CapSense.c **** 		CapSense_SampleClk_Stop();
 1126              		.loc 1 1389 0
 1127 0026 FFF7FEFF 		bl	CapSense_SenseClk_Stop
 1128              	.LVL138:
1390:.\Generated_Source\PSoC4/CapSense.c **** 	#endif /* (0u != CapSense_IS_M0S8PERI_BLOCK) */
 1129              		.loc 1 1390 0
 1130 002a FFF7FEFF 		bl	CapSense_SampleClk_Stop
 1131              	.LVL139:
1394:.\Generated_Source\PSoC4/CapSense.c **** 		CapSense_SenseClk_SetDividerValue((uint16)CapSense_senseClkDividerVal[sensor]);
 1132              		.loc 1 1394 0
 1133 002e 2C4B     		ldr	r3, .L80+16
 1134 0030 185D     		ldrb	r0, [r3, r4]
 1135 0032 0138     		sub	r0, r0, #1
 1136 0034 80B2     		uxth	r0, r0
 1137 0036 0021     		mov	r1, #0
 1138 0038 FFF7FEFF 		bl	CapSense_SampleClk_SetFractionalDividerRegister
 1139              	.LVL140:
1395:.\Generated_Source\PSoC4/CapSense.c **** 	#else
 1140              		.loc 1 1395 0
 1141 003c 294B     		ldr	r3, .L80+20
 1142 003e 185D     		ldrb	r0, [r3, r4]
 1143 0040 0138     		sub	r0, r0, #1
 1144 0042 80B2     		uxth	r0, r0
 1145 0044 0021     		mov	r1, #0
 1146 0046 FFF7FEFF 		bl	CapSense_SenseClk_SetFractionalDividerRegister
 1147              	.LVL141:
1402:.\Generated_Source\PSoC4/CapSense.c **** 		CapSense_SenseClk_StartEx(CapSense_SampleClk__DIV_ID);
 1148              		.loc 1 1402 0
 1149 004a FF20     		mov	r0, #255
 1150 004c FFF7FEFF 		bl	CapSense_SampleClk_StartEx
 1151              	.LVL142:
1403:.\Generated_Source\PSoC4/CapSense.c **** 		
 1152              		.loc 1 1403 0
 1153 0050 4020     		mov	r0, #64
 1154 0052 FFF7FEFF 		bl	CapSense_SenseClk_StartEx
 1155              	.LVL143:
1406:.\Generated_Source\PSoC4/CapSense.c **** 			CapSense_CSD_CNT_REG = CapSense_ONE_CYCLE;
ARM GAS  C:\Users\Luci\AppData\Local\Temp\cckk3xx4.s 			page 53


 1156              		.loc 1 1406 0
 1157 0056 1020     		mov	r0, #16
 1158 0058 FFF7FEFF 		bl	CyIntDisable
 1159              	.LVL144:
1407:.\Generated_Source\PSoC4/CapSense.c **** 			while(0u != (CapSense_CSD_CNT_REG & CapSense_RESOLUTION_16_BITS))
 1160              		.loc 1 1407 0
 1161 005c 8022     		mov	r2, #128
 1162 005e 5202     		lsl	r2, r2, #9
 1163 0060 214B     		ldr	r3, .L80+24
 1164 0062 1A60     		str	r2, [r3]
 1165              	.L79:
1408:.\Generated_Source\PSoC4/CapSense.c **** 			{
 1166              		.loc 1 1408 0 discriminator 1
 1167 0064 204B     		ldr	r3, .L80+24
 1168 0066 1B68     		ldr	r3, [r3]
 1169 0068 1B0C     		lsr	r3, r3, #16
 1170 006a FBD1     		bne	.L79
1412:.\Generated_Source\PSoC4/CapSense.c **** 			CyIntClearPending(CapSense_ISR_NUMBER);
 1171              		.loc 1 1412 0
 1172 006c 0122     		mov	r2, #1
 1173 006e 1F4B     		ldr	r3, .L80+28
 1174 0070 1A60     		str	r2, [r3]
1413:.\Generated_Source\PSoC4/CapSense.c **** 			CyIntEnable(CapSense_ISR_NUMBER); 
 1175              		.loc 1 1413 0
 1176 0072 1020     		mov	r0, #16
 1177 0074 FFF7FEFF 		bl	CyIntClearPending
 1178              	.LVL145:
1414:.\Generated_Source\PSoC4/CapSense.c **** 		#endif /* CapSense_PRS_OPTIONS == CapSense__PRS_NONE */
 1179              		.loc 1 1414 0
 1180 0078 1020     		mov	r0, #16
 1181 007a FFF7FEFF 		bl	CyIntEnable
 1182              	.LVL146:
1464:.\Generated_Source\PSoC4/CapSense.c ****     newRegValue = CapSense_CSD_IDAC_REG;
 1183              		.loc 1 1464 0
 1184 007e 1020     		mov	r0, #16
 1185 0080 FFF7FEFF 		bl	CyIntDisable
 1186              	.LVL147:
1465:.\Generated_Source\PSoC4/CapSense.c ****  
 1187              		.loc 1 1465 0
 1188 0084 1A49     		ldr	r1, .L80+32
 1189 0086 0A68     		ldr	r2, [r1]
 1190              	.LVL148:
1471:.\Generated_Source\PSoC4/CapSense.c **** 	newRegValue |= (CapSense_modulationIDAC[sensor] | 
 1191              		.loc 1 1471 0
 1192 0088 1A4B     		ldr	r3, .L80+36
 1193 008a 1A40     		and	r2, r3
 1194              	.LVL149:
1472:.\Generated_Source\PSoC4/CapSense.c **** 							(uint32)((uint32)CapSense_compensationIDAC[sensor] <<
 1195              		.loc 1 1472 0
 1196 008c 1A4B     		ldr	r3, .L80+40
 1197 008e 185D     		ldrb	r0, [r3, r4]
1473:.\Generated_Source\PSoC4/CapSense.c **** 							CapSense_CSD_IDAC2_DATA_OFFSET));                               
 1198              		.loc 1 1473 0
 1199 0090 1A4B     		ldr	r3, .L80+44
 1200 0092 1B5D     		ldrb	r3, [r3, r4]
 1201 0094 1B04     		lsl	r3, r3, #16
1472:.\Generated_Source\PSoC4/CapSense.c **** 							(uint32)((uint32)CapSense_compensationIDAC[sensor] <<
ARM GAS  C:\Users\Luci\AppData\Local\Temp\cckk3xx4.s 			page 54


 1202              		.loc 1 1472 0
 1203 0096 0343     		orr	r3, r0
 1204 0098 1343     		orr	r3, r2
 1205              	.LVL150:
1477:.\Generated_Source\PSoC4/CapSense.c **** 
 1206              		.loc 1 1477 0
 1207 009a 0B60     		str	r3, [r1]
1492:.\Generated_Source\PSoC4/CapSense.c **** 	newRegValue &= ~(CapSense_PRECHARGE_CONFIG_MASK);
 1208              		.loc 1 1492 0
 1209 009c 184F     		ldr	r7, .L80+48
 1210 009e 3D68     		ldr	r5, [r7]
 1211              	.LVL151:
1493:.\Generated_Source\PSoC4/CapSense.c **** 	newRegValue |= CapSense_CTANK_PRECHARGE_CONFIG;
 1212              		.loc 1 1493 0
 1213 00a0 184B     		ldr	r3, .L80+52
 1214 00a2 1D40     		and	r5, r3
 1215              	.LVL152:
1494:.\Generated_Source\PSoC4/CapSense.c **** 	
 1216              		.loc 1 1494 0
 1217 00a4 184B     		ldr	r3, .L80+56
 1218 00a6 1D43     		orr	r5, r3
 1219              	.LVL153:
1496:.\Generated_Source\PSoC4/CapSense.c **** 	
 1220              		.loc 1 1496 0
 1221 00a8 1020     		mov	r0, #16
 1222 00aa FFF7FEFF 		bl	CyIntEnable
 1223              	.LVL154:
1499:.\Generated_Source\PSoC4/CapSense.c ****     
 1224              		.loc 1 1499 0
 1225 00ae 201C     		mov	r0, r4
 1226 00b0 FFF7FEFF 		bl	CapSense_EnableSensor
 1227              	.LVL155:
1501:.\Generated_Source\PSoC4/CapSense.c **** 	CapSense_CSD_CFG_REG = newRegValue;
 1228              		.loc 1 1501 0
 1229 00b4 FFF7FEFF 		bl	CyEnterCriticalSection
 1230              	.LVL156:
 1231 00b8 041C     		mov	r4, r0
 1232              	.LVL157:
1502:.\Generated_Source\PSoC4/CapSense.c **** 	
 1233              		.loc 1 1502 0
 1234 00ba 3D60     		str	r5, [r7]
1508:.\Generated_Source\PSoC4/CapSense.c **** 	
 1235              		.loc 1 1508 0
 1236 00bc 0020     		mov	r0, #0
 1237 00be FFF7FEFF 		bl	CyDelayCycles
 1238              	.LVL158:
1514:.\Generated_Source\PSoC4/CapSense.c ****     CyExitCriticalSection(interruptState);
 1239              		.loc 1 1514 0
 1240 00c2 094B     		ldr	r3, .L80+24
 1241 00c4 1E60     		str	r6, [r3]
1515:.\Generated_Source\PSoC4/CapSense.c **** }
 1242              		.loc 1 1515 0
 1243 00c6 201C     		mov	r0, r4
 1244 00c8 FFF7FEFF 		bl	CyExitCriticalSection
 1245              	.LVL159:
1516:.\Generated_Source\PSoC4/CapSense.c **** 
 1246              		.loc 1 1516 0
ARM GAS  C:\Users\Luci\AppData\Local\Temp\cckk3xx4.s 			page 55


 1247              		@ sp needed
 1248              	.LVL160:
 1249              	.LVL161:
 1250              	.LVL162:
 1251 00cc F8BD     		pop	{r3, r4, r5, r6, r7, pc}
 1252              	.L81:
 1253 00ce C046     		.align	2
 1254              	.L80:
 1255 00d0 00000000 		.word	.LANCHOR2
 1256 00d4 00000000 		.word	.LANCHOR1
 1257 00d8 00000000 		.word	scanSpeedTbl
 1258 00dc FFFFFEFF 		.word	-65537
 1259 00e0 00000000 		.word	CapSense_sampleClkDividerVal
 1260 00e4 00000000 		.word	CapSense_senseClkDividerVal
 1261 00e8 0C002840 		.word	1076363276
 1262 00ec 14002840 		.word	1076363284
 1263 00f0 08002840 		.word	1076363272
 1264 00f4 00FF80FF 		.word	-8323328
 1265 00f8 00000000 		.word	CapSense_modulationIDAC
 1266 00fc 00000000 		.word	CapSense_compensationIDAC
 1267 0100 04002840 		.word	1076363268
 1268 0104 FF1FDFFF 		.word	-2154497
 1269 0108 20E02000 		.word	2154528
 1270              		.cfi_endproc
 1271              	.LFE55:
 1272              		.size	CapSense_PreScan, .-CapSense_PreScan
 1273              		.section	.text.CapSense_ScanSensor,"ax",%progbits
 1274              		.align	2
 1275              		.global	CapSense_ScanSensor
 1276              		.code	16
 1277              		.thumb_func
 1278              		.type	CapSense_ScanSensor, %function
 1279              	CapSense_ScanSensor:
 1280              	.LFB41:
 572:.\Generated_Source\PSoC4/CapSense.c ****     /* Clears status/control variable and set sensorIndex */
 1281              		.loc 1 572 0
 1282              		.cfi_startproc
 1283              	.LVL163:
 1284 0000 08B5     		push	{r3, lr}
 1285              		.cfi_def_cfa_offset 8
 1286              		.cfi_offset 3, -8
 1287              		.cfi_offset 14, -4
 574:.\Generated_Source\PSoC4/CapSense.c ****     CapSense_sensorIndex = (uint8)sensor;
 1288              		.loc 1 574 0
 1289 0002 054B     		ldr	r3, .L83
 1290 0004 0022     		mov	r2, #0
 1291 0006 1A70     		strb	r2, [r3]
 575:.\Generated_Source\PSoC4/CapSense.c ****     
 1292              		.loc 1 575 0
 1293 0008 C2B2     		uxtb	r2, r0
 1294 000a 9A72     		strb	r2, [r3, #10]
 578:.\Generated_Source\PSoC4/CapSense.c ****     CapSense_PreScan(sensor);
 1295              		.loc 1 578 0
 1296 000c 8122     		mov	r2, #129
 1297 000e 1A70     		strb	r2, [r3]
 579:.\Generated_Source\PSoC4/CapSense.c **** }
 1298              		.loc 1 579 0
ARM GAS  C:\Users\Luci\AppData\Local\Temp\cckk3xx4.s 			page 56


 1299 0010 FFF7FEFF 		bl	CapSense_PreScan
 1300              	.LVL164:
 580:.\Generated_Source\PSoC4/CapSense.c **** 
 1301              		.loc 1 580 0
 1302              		@ sp needed
 1303 0014 08BD     		pop	{r3, pc}
 1304              	.L84:
 1305 0016 C046     		.align	2
 1306              	.L83:
 1307 0018 00000000 		.word	.LANCHOR0
 1308              		.cfi_endproc
 1309              	.LFE41:
 1310              		.size	CapSense_ScanSensor, .-CapSense_ScanSensor
 1311              		.section	.text.CapSense_ScanEnabledWidgets,"ax",%progbits
 1312              		.align	2
 1313              		.global	CapSense_ScanEnabledWidgets
 1314              		.code	16
 1315              		.thumb_func
 1316              		.type	CapSense_ScanEnabledWidgets, %function
 1317              	CapSense_ScanEnabledWidgets:
 1318              	.LFB43:
 696:.\Generated_Source\PSoC4/CapSense.c ****     /* Clears status/control variable and set sensorIndex */
 1319              		.loc 1 696 0
 1320              		.cfi_startproc
 1321 0000 10B5     		push	{r4, lr}
 1322              		.cfi_def_cfa_offset 8
 1323              		.cfi_offset 4, -8
 1324              		.cfi_offset 14, -4
 698:.\Generated_Source\PSoC4/CapSense.c ****     CapSense_sensorIndex = 0xFFu;
 1325              		.loc 1 698 0
 1326 0002 0B4C     		ldr	r4, .L87
 1327 0004 0023     		mov	r3, #0
 1328 0006 2370     		strb	r3, [r4]
 699:.\Generated_Source\PSoC4/CapSense.c ****     
 1329              		.loc 1 699 0
 1330 0008 FF33     		add	r3, r3, #255
 1331 000a A372     		strb	r3, [r4, #10]
 702:.\Generated_Source\PSoC4/CapSense.c **** 
 1332              		.loc 1 702 0
 1333 000c A07A     		ldrb	r0, [r4, #10]
 1334 000e C0B2     		uxtb	r0, r0
 1335 0010 FFF7FEFF 		bl	CapSense_FindNextSensor
 1336              	.LVL165:
 1337 0014 A072     		strb	r0, [r4, #10]
 705:.\Generated_Source\PSoC4/CapSense.c ****     {
 1338              		.loc 1 705 0
 1339 0016 A37A     		ldrb	r3, [r4, #10]
 1340 0018 DBB2     		uxtb	r3, r3
 1341 001a 012B     		cmp	r3, #1
 1342 001c 07D8     		bhi	.L85
 707:.\Generated_Source\PSoC4/CapSense.c ****         CapSense_PreScan((uint32)CapSense_sensorIndex);
 1343              		.loc 1 707 0
 1344 001e 2178     		ldrb	r1, [r4]
 1345 0020 0122     		mov	r2, #1
 1346 0022 0A43     		orr	r2, r1
 1347 0024 2270     		strb	r2, [r4]
 708:.\Generated_Source\PSoC4/CapSense.c ****     }
ARM GAS  C:\Users\Luci\AppData\Local\Temp\cckk3xx4.s 			page 57


 1348              		.loc 1 708 0
 1349 0026 A07A     		ldrb	r0, [r4, #10]
 1350 0028 C0B2     		uxtb	r0, r0
 1351 002a FFF7FEFF 		bl	CapSense_PreScan
 1352              	.LVL166:
 1353              	.L85:
 710:.\Generated_Source\PSoC4/CapSense.c **** 
 1354              		.loc 1 710 0
 1355              		@ sp needed
 1356 002e 10BD     		pop	{r4, pc}
 1357              	.L88:
 1358              		.align	2
 1359              	.L87:
 1360 0030 00000000 		.word	.LANCHOR0
 1361              		.cfi_endproc
 1362              	.LFE43:
 1363              		.size	CapSense_ScanEnabledWidgets, .-CapSense_ScanEnabledWidgets
 1364              		.section	.text.CapSense_PostScan,"ax",%progbits
 1365              		.align	2
 1366              		.global	CapSense_PostScan
 1367              		.code	16
 1368              		.thumb_func
 1369              		.type	CapSense_PostScan, %function
 1370              	CapSense_PostScan:
 1371              	.LFB56:
1542:.\Generated_Source\PSoC4/CapSense.c **** 	uint32 newRegValue;
 1372              		.loc 1 1542 0
 1373              		.cfi_startproc
 1374              	.LVL167:
 1375 0000 38B5     		push	{r3, r4, r5, lr}
 1376              		.cfi_def_cfa_offset 16
 1377              		.cfi_offset 3, -16
 1378              		.cfi_offset 4, -12
 1379              		.cfi_offset 5, -8
 1380              		.cfi_offset 14, -4
 1381 0002 051C     		mov	r5, r0
1557:.\Generated_Source\PSoC4/CapSense.c **** 	
 1382              		.loc 1 1557 0
 1383 0004 174B     		ldr	r3, .L91
 1384 0006 1C68     		ldr	r4, [r3]
 1385 0008 A4B2     		uxth	r4, r4
 1386 000a 4300     		lsl	r3, r0, #1
 1387 000c 164A     		ldr	r2, .L91+4
 1388 000e D318     		add	r3, r2, r3
 1389 0010 9C80     		strh	r4, [r3, #4]
1561:.\Generated_Source\PSoC4/CapSense.c **** 	if(CapSense_widgetResolution[widget] < CapSense_RESOLUTION_16_BITS)
 1390              		.loc 1 1561 0
 1391 0012 164B     		ldr	r3, .L91+8
 1392 0014 5033     		add	r3, r3, #80
 1393 0016 1B5C     		ldrb	r3, [r3, r0]
 1394              	.LVL168:
1562:.\Generated_Source\PSoC4/CapSense.c **** 	{
 1395              		.loc 1 1562 0
 1396 0018 9B00     		lsl	r3, r3, #2
 1397              	.LVL169:
 1398 001a 154A     		ldr	r2, .L91+12
 1399 001c 9A58     		ldr	r2, [r3, r2]
ARM GAS  C:\Users\Luci\AppData\Local\Temp\cckk3xx4.s 			page 58


 1400 001e 154B     		ldr	r3, .L91+16
 1401 0020 9A42     		cmp	r2, r3
 1402 0022 08D8     		bhi	.L90
1564:.\Generated_Source\PSoC4/CapSense.c **** 		CapSense_sensorRaw[sensor] >>= oversamplingFactor;
 1403              		.loc 1 1564 0
 1404 0024 1448     		ldr	r0, .L91+20
 1405              	.LVL170:
 1406 0026 291C     		mov	r1, r5
 1407 0028 FFF7FEFF 		bl	CapSense_GetBitValue
 1408              	.LVL171:
1565:.\Generated_Source\PSoC4/CapSense.c **** 	}
 1409              		.loc 1 1565 0
 1410 002c 6B00     		lsl	r3, r5, #1
 1411 002e 0E4A     		ldr	r2, .L91+4
 1412 0030 D318     		add	r3, r2, r3
 1413 0032 0441     		asr	r4, r4, r0
 1414 0034 9C80     		strh	r4, [r3, #4]
 1415              	.LVL172:
 1416              	.L90:
1571:.\Generated_Source\PSoC4/CapSense.c **** 
 1417              		.loc 1 1571 0
 1418 0036 281C     		mov	r0, r5
 1419 0038 FFF7FEFF 		bl	CapSense_DisableSensor
 1420              	.LVL173:
1573:.\Generated_Source\PSoC4/CapSense.c **** 	
 1421              		.loc 1 1573 0
 1422 003c 1020     		mov	r0, #16
 1423 003e FFF7FEFF 		bl	CyIntDisable
 1424              	.LVL174:
1593:.\Generated_Source\PSoC4/CapSense.c **** 	newRegValue &= ~(CapSense_PRECHARGE_CONFIG_MASK);
 1425              		.loc 1 1593 0
 1426 0042 0E4A     		ldr	r2, .L91+24
 1427 0044 1168     		ldr	r1, [r2]
 1428              	.LVL175:
1594:.\Generated_Source\PSoC4/CapSense.c **** 	newRegValue |= CapSense_CMOD_PRECHARGE_CONFIG;
 1429              		.loc 1 1594 0
 1430 0046 0E4B     		ldr	r3, .L91+28
 1431 0048 0B40     		and	r3, r1
 1432              	.LVL176:
1595:.\Generated_Source\PSoC4/CapSense.c **** 	CapSense_CSD_CFG_REG = newRegValue;
 1433              		.loc 1 1595 0
 1434 004a A021     		mov	r1, #160
 1435 004c 0902     		lsl	r1, r1, #8
 1436 004e 0B43     		orr	r3, r1
 1437              	.LVL177:
1596:.\Generated_Source\PSoC4/CapSense.c **** 
 1438              		.loc 1 1596 0
 1439 0050 1360     		str	r3, [r2]
1602:.\Generated_Source\PSoC4/CapSense.c **** #endif /* (CapSense_IDAC_CNT == 1u) */
 1440              		.loc 1 1602 0
 1441 0052 0C4A     		ldr	r2, .L91+32
 1442 0054 1168     		ldr	r1, [r2]
 1443 0056 0C4B     		ldr	r3, .L91+36
 1444              	.LVL178:
 1445 0058 0B40     		and	r3, r1
 1446 005a 1360     		str	r3, [r2]
 1447              	.LVL179:
ARM GAS  C:\Users\Luci\AppData\Local\Temp\cckk3xx4.s 			page 59


1605:.\Generated_Source\PSoC4/CapSense.c **** }
 1448              		.loc 1 1605 0
 1449 005c 1020     		mov	r0, #16
 1450 005e FFF7FEFF 		bl	CyIntEnable
 1451              	.LVL180:
1606:.\Generated_Source\PSoC4/CapSense.c **** 
 1452              		.loc 1 1606 0
 1453              		@ sp needed
 1454              	.LVL181:
 1455 0062 38BD     		pop	{r3, r4, r5, pc}
 1456              	.L92:
 1457              		.align	2
 1458              	.L91:
 1459 0064 0C002840 		.word	1076363276
 1460 0068 00000000 		.word	.LANCHOR0
 1461 006c 00000000 		.word	.LANCHOR2
 1462 0070 00000000 		.word	.LANCHOR1
 1463 0074 FFFFFEFF 		.word	-65537
 1464 0078 00000000 		.word	scanSpeedTbl
 1465 007c 04002840 		.word	1076363268
 1466 0080 FF1FDFFF 		.word	-2154497
 1467 0084 08002840 		.word	1076363272
 1468 0088 00FF80FF 		.word	-8323328
 1469              		.cfi_endproc
 1470              	.LFE56:
 1471              		.size	CapSense_PostScan, .-CapSense_PostScan
 1472              		.section	.text.CapSense_SetBitValue,"ax",%progbits
 1473              		.align	2
 1474              		.global	CapSense_SetBitValue
 1475              		.code	16
 1476              		.thumb_func
 1477              		.type	CapSense_SetBitValue, %function
 1478              	CapSense_SetBitValue:
 1479              	.LFB61:
1749:.\Generated_Source\PSoC4/CapSense.c **** 
1750:.\Generated_Source\PSoC4/CapSense.c **** 
1751:.\Generated_Source\PSoC4/CapSense.c **** /*******************************************************************************
1752:.\Generated_Source\PSoC4/CapSense.c **** * Function Name: CapSense_SetBitValue
1753:.\Generated_Source\PSoC4/CapSense.c **** ********************************************************************************
1754:.\Generated_Source\PSoC4/CapSense.c **** *
1755:.\Generated_Source\PSoC4/CapSense.c **** * Summary:
1756:.\Generated_Source\PSoC4/CapSense.c **** *  The API sets a bit status of the bit in the table array which contains masks.
1757:.\Generated_Source\PSoC4/CapSense.c **** * 
1758:.\Generated_Source\PSoC4/CapSense.c **** * Parameters:
1759:.\Generated_Source\PSoC4/CapSense.c **** *  table[] - array with bit masks.
1760:.\Generated_Source\PSoC4/CapSense.c **** *  position - position of bit in the table[] array.
1761:.\Generated_Source\PSoC4/CapSense.c **** *  value: 0 - bit is not set; 1 - bit is set.
1762:.\Generated_Source\PSoC4/CapSense.c **** *
1763:.\Generated_Source\PSoC4/CapSense.c **** * Return:
1764:.\Generated_Source\PSoC4/CapSense.c **** *  None
1765:.\Generated_Source\PSoC4/CapSense.c **** *
1766:.\Generated_Source\PSoC4/CapSense.c **** * Global Variables:
1767:.\Generated_Source\PSoC4/CapSense.c **** *  None
1768:.\Generated_Source\PSoC4/CapSense.c **** *
1769:.\Generated_Source\PSoC4/CapSense.c **** * Side Effects:
1770:.\Generated_Source\PSoC4/CapSense.c **** *  None
1771:.\Generated_Source\PSoC4/CapSense.c **** *
ARM GAS  C:\Users\Luci\AppData\Local\Temp\cckk3xx4.s 			page 60


1772:.\Generated_Source\PSoC4/CapSense.c **** *******************************************************************************/
1773:.\Generated_Source\PSoC4/CapSense.c **** void CapSense_SetBitValue(uint8 table[], uint32 position, uint32 value)
1774:.\Generated_Source\PSoC4/CapSense.c **** {
 1480              		.loc 1 1774 0
 1481              		.cfi_startproc
 1482              	.LVL182:
 1483 0000 10B5     		push	{r4, lr}
 1484              		.cfi_def_cfa_offset 8
 1485              		.cfi_offset 4, -8
 1486              		.cfi_offset 14, -4
1775:.\Generated_Source\PSoC4/CapSense.c ****     uint32 offset;
1776:.\Generated_Source\PSoC4/CapSense.c **** 	uint8 enMask;
1777:.\Generated_Source\PSoC4/CapSense.c **** 	
1778:.\Generated_Source\PSoC4/CapSense.c **** 	/* position is divided by 8 to calculate the element of the 
1779:.\Generated_Source\PSoC4/CapSense.c **** 	   table[] array that contains the enable bit 
1780:.\Generated_Source\PSoC4/CapSense.c **** 	   for an appropriate sensor.
1781:.\Generated_Source\PSoC4/CapSense.c **** 	*/
1782:.\Generated_Source\PSoC4/CapSense.c **** 	offset = (position >> 3u);
 1487              		.loc 1 1782 0
 1488 0002 CC08     		lsr	r4, r1, #3
 1489              	.LVL183:
1783:.\Generated_Source\PSoC4/CapSense.c **** 	
1784:.\Generated_Source\PSoC4/CapSense.c **** 	/* The enMask calculation for the appropriate sensor. Operation (position & 0x07u) 
1785:.\Generated_Source\PSoC4/CapSense.c **** 	   intends to calculate the enable bit offset for the 8-bit element of the 
1786:.\Generated_Source\PSoC4/CapSense.c **** 	   table[] array.
1787:.\Generated_Source\PSoC4/CapSense.c **** 	*/
1788:.\Generated_Source\PSoC4/CapSense.c **** 	enMask = 0x01u << (position & 0x07u);
 1490              		.loc 1 1788 0
 1491 0004 0723     		mov	r3, #7
 1492 0006 1940     		and	r1, r3
 1493              	.LVL184:
 1494 0008 063B     		sub	r3, r3, #6
 1495 000a 8B40     		lsl	r3, r3, r1
 1496 000c D9B2     		uxtb	r1, r3
 1497              	.LVL185:
1789:.\Generated_Source\PSoC4/CapSense.c **** 	
1790:.\Generated_Source\PSoC4/CapSense.c **** 	if(0u != value)
 1498              		.loc 1 1790 0
 1499 000e 002A     		cmp	r2, #0
 1500 0010 04D0     		beq	.L94
1791:.\Generated_Source\PSoC4/CapSense.c **** 	{
1792:.\Generated_Source\PSoC4/CapSense.c **** 		table[offset] |= enMask;
 1501              		.loc 1 1792 0
 1502 0012 0419     		add	r4, r0, r4
 1503              	.LVL186:
 1504 0014 2378     		ldrb	r3, [r4]
 1505 0016 1943     		orr	r1, r3
 1506              	.LVL187:
 1507 0018 2170     		strb	r1, [r4]
 1508 001a 03E0     		b	.L93
 1509              	.LVL188:
 1510              	.L94:
1793:.\Generated_Source\PSoC4/CapSense.c **** 	}
1794:.\Generated_Source\PSoC4/CapSense.c **** 	else
1795:.\Generated_Source\PSoC4/CapSense.c **** 	{
1796:.\Generated_Source\PSoC4/CapSense.c **** 		table[offset] &= (uint8)~(enMask);
 1511              		.loc 1 1796 0
ARM GAS  C:\Users\Luci\AppData\Local\Temp\cckk3xx4.s 			page 61


 1512 001c 0419     		add	r4, r0, r4
 1513              	.LVL189:
 1514 001e 2378     		ldrb	r3, [r4]
 1515 0020 8B43     		bic	r3, r1
 1516 0022 2370     		strb	r3, [r4]
 1517              	.LVL190:
 1518              	.L93:
1797:.\Generated_Source\PSoC4/CapSense.c **** 	}
1798:.\Generated_Source\PSoC4/CapSense.c **** }
 1519              		.loc 1 1798 0
 1520              		@ sp needed
 1521 0024 10BD     		pop	{r4, pc}
 1522              		.cfi_endproc
 1523              	.LFE61:
 1524              		.size	CapSense_SetBitValue, .-CapSense_SetBitValue
 1525 0026 C046     		.section	.text.CapSense_ScanWidget,"ax",%progbits
 1526              		.align	2
 1527              		.global	CapSense_ScanWidget
 1528              		.code	16
 1529              		.thumb_func
 1530              		.type	CapSense_ScanWidget, %function
 1531              	CapSense_ScanWidget:
 1532              	.LFB42:
 611:.\Generated_Source\PSoC4/CapSense.c ****     uint32 sensorsPerWidget;
 1533              		.loc 1 611 0
 1534              		.cfi_startproc
 1535              	.LVL191:
 1536 0000 38B5     		push	{r3, r4, r5, lr}
 1537              		.cfi_def_cfa_offset 16
 1538              		.cfi_offset 3, -16
 1539              		.cfi_offset 4, -12
 1540              		.cfi_offset 5, -8
 1541              		.cfi_offset 14, -4
 617:.\Generated_Source\PSoC4/CapSense.c **** 	
 1542              		.loc 1 617 0
 1543 0002 1D4B     		ldr	r3, .L106
 1544 0004 1D5C     		ldrb	r5, [r3, r0]
 1545 0006 1D4B     		ldr	r3, .L106+4
 1546 0008 9D72     		strb	r5, [r3, #10]
 620:.\Generated_Source\PSoC4/CapSense.c **** 	
 1547              		.loc 1 620 0
 1548 000a 1D4B     		ldr	r3, .L106+8
 1549 000c 1B5C     		ldrb	r3, [r3, r0]
 1550              	.LVL192:
 623:.\Generated_Source\PSoC4/CapSense.c **** 	{
 1551              		.loc 1 623 0
 1552 000e 002B     		cmp	r3, #0
 1553 0010 00D1     		bne	.L97
 625:.\Generated_Source\PSoC4/CapSense.c **** 	}
 1554              		.loc 1 625 0
 1555 0012 0133     		add	r3, r3, #1
 1556              	.LVL193:
 1557              	.L97:
 629:.\Generated_Source\PSoC4/CapSense.c **** 
 1558              		.loc 1 629 0
 1559 0014 EB18     		add	r3, r5, r3
 1560              	.LVL194:
ARM GAS  C:\Users\Luci\AppData\Local\Temp\cckk3xx4.s 			page 62


 1561 0016 5D1E     		sub	r5, r3, #1
 1562              	.LVL195:
 632:.\Generated_Source\PSoC4/CapSense.c **** 	{
 1563              		.loc 1 632 0
 1564 0018 0023     		mov	r3, #0
 1565 001a 05E0     		b	.L98
 1566              	.LVL196:
 1567              	.L99:
 635:.\Generated_Source\PSoC4/CapSense.c **** 	}
 1568              		.loc 1 635 0 discriminator 3
 1569 001c 194A     		ldr	r2, .L106+12
 1570 001e D218     		add	r2, r2, r3
 1571 0020 117A     		ldrb	r1, [r2, #8]
 1572 0022 194A     		ldr	r2, .L106+16
 1573 0024 D154     		strb	r1, [r2, r3]
 632:.\Generated_Source\PSoC4/CapSense.c **** 	{
 1574              		.loc 1 632 0 discriminator 3
 1575 0026 0133     		add	r3, r3, #1
 1576              	.LVL197:
 1577              	.L98:
 632:.\Generated_Source\PSoC4/CapSense.c **** 	{
 1578              		.loc 1 632 0 is_stmt 0 discriminator 1
 1579 0028 002B     		cmp	r3, #0
 1580 002a F7D0     		beq	.L99
 1581 002c 0024     		mov	r4, #0
 1582 002e 14E0     		b	.L100
 1583              	.LVL198:
 1584              	.L103:
 642:.\Generated_Source\PSoC4/CapSense.c **** 		{
 1585              		.loc 1 642 0 is_stmt 1
 1586 0030 124B     		ldr	r3, .L106+4
 1587 0032 9B7A     		ldrb	r3, [r3, #10]
 1588 0034 DBB2     		uxtb	r3, r3
 1589 0036 A342     		cmp	r3, r4
 1590 0038 08D8     		bhi	.L101
 642:.\Generated_Source\PSoC4/CapSense.c **** 		{
 1591              		.loc 1 642 0 is_stmt 0 discriminator 1
 1592 003a AC42     		cmp	r4, r5
 1593 003c 06D8     		bhi	.L101
 645:.\Generated_Source\PSoC4/CapSense.c **** 		}
 1594              		.loc 1 645 0 is_stmt 1
 1595 003e 1148     		ldr	r0, .L106+12
 1596 0040 0830     		add	r0, r0, #8
 1597 0042 211C     		mov	r1, r4
 1598 0044 0122     		mov	r2, #1
 1599 0046 FFF7FEFF 		bl	CapSense_SetBitValue
 1600              	.LVL199:
 1601 004a 05E0     		b	.L102
 1602              	.L101:
 650:.\Generated_Source\PSoC4/CapSense.c **** 		}
 1603              		.loc 1 650 0
 1604 004c 0D48     		ldr	r0, .L106+12
 1605 004e 0830     		add	r0, r0, #8
 1606 0050 211C     		mov	r1, r4
 1607 0052 0022     		mov	r2, #0
 1608 0054 FFF7FEFF 		bl	CapSense_SetBitValue
 1609              	.LVL200:
ARM GAS  C:\Users\Luci\AppData\Local\Temp\cckk3xx4.s 			page 63


 1610              	.L102:
 639:.\Generated_Source\PSoC4/CapSense.c **** 	{
 1611              		.loc 1 639 0 discriminator 2
 1612 0058 0134     		add	r4, r4, #1
 1613              	.LVL201:
 1614              	.L100:
 639:.\Generated_Source\PSoC4/CapSense.c **** 	{
 1615              		.loc 1 639 0 is_stmt 0 discriminator 1
 1616 005a 012C     		cmp	r4, #1
 1617 005c E8D9     		bls	.L103
 655:.\Generated_Source\PSoC4/CapSense.c ****     {
 1618              		.loc 1 655 0 is_stmt 1
 1619 005e 074B     		ldr	r3, .L106+4
 1620 0060 9B7A     		ldrb	r3, [r3, #10]
 1621 0062 DBB2     		uxtb	r3, r3
 1622 0064 012B     		cmp	r3, #1
 1623 0066 06D8     		bhi	.L96
 658:.\Generated_Source\PSoC4/CapSense.c **** 		/* Scan first sensor of widget*/ 
 1624              		.loc 1 658 0
 1625 0068 044B     		ldr	r3, .L106+4
 1626 006a 4122     		mov	r2, #65
 1627 006c 1A70     		strb	r2, [r3]
 660:.\Generated_Source\PSoC4/CapSense.c ****     }
 1628              		.loc 1 660 0
 1629 006e 987A     		ldrb	r0, [r3, #10]
 1630 0070 C0B2     		uxtb	r0, r0
 1631 0072 FFF7FEFF 		bl	CapSense_PreScan
 1632              	.LVL202:
 1633              	.L96:
 662:.\Generated_Source\PSoC4/CapSense.c **** #endif /* (0u != CapSense_CSHL_API_GENERATE) */
 1634              		.loc 1 662 0
 1635              		@ sp needed
 1636              	.LVL203:
 1637              	.LVL204:
 1638 0076 38BD     		pop	{r3, r4, r5, pc}
 1639              	.L107:
 1640              		.align	2
 1641              	.L106:
 1642 0078 00000000 		.word	CapSense_rawDataIndex
 1643 007c 00000000 		.word	.LANCHOR0
 1644 0080 00000000 		.word	CapSense_numberOfSensors
 1645 0084 00000000 		.word	.LANCHOR1
 1646 0088 00000000 		.word	CapSense_sensorEnableMaskBackup
 1647              		.cfi_endproc
 1648              	.LFE42:
 1649              		.size	CapSense_ScanWidget, .-CapSense_ScanWidget
 1650              		.section	.text.CapSense_GetSenseClkDivider,"ax",%progbits
 1651              		.align	2
 1652              		.global	CapSense_GetSenseClkDivider
 1653              		.code	16
 1654              		.thumb_func
 1655              		.type	CapSense_GetSenseClkDivider, %function
 1656              	CapSense_GetSenseClkDivider:
 1657              	.LFB62:
1799:.\Generated_Source\PSoC4/CapSense.c **** 
1800:.\Generated_Source\PSoC4/CapSense.c **** 
1801:.\Generated_Source\PSoC4/CapSense.c **** 
ARM GAS  C:\Users\Luci\AppData\Local\Temp\cckk3xx4.s 			page 64


1802:.\Generated_Source\PSoC4/CapSense.c **** /*******************************************************************************
1803:.\Generated_Source\PSoC4/CapSense.c **** * Function Name: CapSense_GetSenseClkDivider
1804:.\Generated_Source\PSoC4/CapSense.c **** ********************************************************************************
1805:.\Generated_Source\PSoC4/CapSense.c **** *
1806:.\Generated_Source\PSoC4/CapSense.c **** * Summary:
1807:.\Generated_Source\PSoC4/CapSense.c **** *  This API returns a value of the sense clock divider for the  sensor.
1808:.\Generated_Source\PSoC4/CapSense.c **** *
1809:.\Generated_Source\PSoC4/CapSense.c **** * Parameters:
1810:.\Generated_Source\PSoC4/CapSense.c **** *  sensor: sensor index. The index value can be 
1811:.\Generated_Source\PSoC4/CapSense.c **** *  from 0 to (CapSense_TOTAL_SENSOR_COUNT-1).
1812:.\Generated_Source\PSoC4/CapSense.c **** *
1813:.\Generated_Source\PSoC4/CapSense.c **** * Return:
1814:.\Generated_Source\PSoC4/CapSense.c **** *  This API returns the sense clock divider of the sensor. 
1815:.\Generated_Source\PSoC4/CapSense.c **** *
1816:.\Generated_Source\PSoC4/CapSense.c **** * Global Variables:
1817:.\Generated_Source\PSoC4/CapSense.c **** *  CapSense_senseClkDividerVal[] - stores the sense clock divider values.
1818:.\Generated_Source\PSoC4/CapSense.c **** * 
1819:.\Generated_Source\PSoC4/CapSense.c **** * Side Effects:
1820:.\Generated_Source\PSoC4/CapSense.c **** *  None
1821:.\Generated_Source\PSoC4/CapSense.c **** *
1822:.\Generated_Source\PSoC4/CapSense.c **** *******************************************************************************/
1823:.\Generated_Source\PSoC4/CapSense.c **** uint32 CapSense_GetSenseClkDivider(uint32 sensor)
1824:.\Generated_Source\PSoC4/CapSense.c **** {
 1658              		.loc 1 1824 0
 1659              		.cfi_startproc
 1660              	.LVL205:
1825:.\Generated_Source\PSoC4/CapSense.c **** 	#if(0u != CapSense_MULTIPLE_FREQUENCY_SET)
1826:.\Generated_Source\PSoC4/CapSense.c **** 		return((uint32)CapSense_senseClkDividerVal[sensor]);
 1661              		.loc 1 1826 0
 1662 0000 014B     		ldr	r3, .L109
 1663 0002 185C     		ldrb	r0, [r3, r0]
 1664              	.LVL206:
1827:.\Generated_Source\PSoC4/CapSense.c **** 	#else
1828:.\Generated_Source\PSoC4/CapSense.c **** 		return((uint32)CapSense_senseClkDividerVal);
1829:.\Generated_Source\PSoC4/CapSense.c **** 	#endif /* (0u != CapSense_MULTIPLE_FREQUENCY_SET) */
1830:.\Generated_Source\PSoC4/CapSense.c **** }
 1665              		.loc 1 1830 0
 1666              		@ sp needed
 1667 0004 7047     		bx	lr
 1668              	.L110:
 1669 0006 C046     		.align	2
 1670              	.L109:
 1671 0008 00000000 		.word	CapSense_senseClkDividerVal
 1672              		.cfi_endproc
 1673              	.LFE62:
 1674              		.size	CapSense_GetSenseClkDivider, .-CapSense_GetSenseClkDivider
 1675              		.section	.text.CapSense_SetSenseClkDivider,"ax",%progbits
 1676              		.align	2
 1677              		.global	CapSense_SetSenseClkDivider
 1678              		.code	16
 1679              		.thumb_func
 1680              		.type	CapSense_SetSenseClkDivider, %function
 1681              	CapSense_SetSenseClkDivider:
 1682              	.LFB63:
1831:.\Generated_Source\PSoC4/CapSense.c **** 
1832:.\Generated_Source\PSoC4/CapSense.c **** #if (CapSense_TUNING_METHOD != CapSense__TUNING_NONE)
1833:.\Generated_Source\PSoC4/CapSense.c **** 	/*******************************************************************************
ARM GAS  C:\Users\Luci\AppData\Local\Temp\cckk3xx4.s 			page 65


1834:.\Generated_Source\PSoC4/CapSense.c **** 	* Function Name: CapSense_SetSenseClkDivider
1835:.\Generated_Source\PSoC4/CapSense.c **** 	********************************************************************************
1836:.\Generated_Source\PSoC4/CapSense.c **** 	*
1837:.\Generated_Source\PSoC4/CapSense.c **** 	* Summary:
1838:.\Generated_Source\PSoC4/CapSense.c **** 	*  This API sets a value of the sense clock divider for the  sensor. 
1839:.\Generated_Source\PSoC4/CapSense.c **** 	*
1840:.\Generated_Source\PSoC4/CapSense.c **** 	* Parameters:
1841:.\Generated_Source\PSoC4/CapSense.c **** 	*  sensor:  Sensor index.
1842:.\Generated_Source\PSoC4/CapSense.c **** 	*  senseClk: represents the sense clock value.
1843:.\Generated_Source\PSoC4/CapSense.c **** 	*
1844:.\Generated_Source\PSoC4/CapSense.c **** 	* Return:
1845:.\Generated_Source\PSoC4/CapSense.c **** 	*  None.
1846:.\Generated_Source\PSoC4/CapSense.c **** 	*
1847:.\Generated_Source\PSoC4/CapSense.c **** 	* Global Variables:
1848:.\Generated_Source\PSoC4/CapSense.c **** 	*  CapSense_senseClkDividerVal[] - stores the sense clock divider values.
1849:.\Generated_Source\PSoC4/CapSense.c **** 	* 
1850:.\Generated_Source\PSoC4/CapSense.c **** 	* Side Effects:
1851:.\Generated_Source\PSoC4/CapSense.c **** 	*  None
1852:.\Generated_Source\PSoC4/CapSense.c **** 	*
1853:.\Generated_Source\PSoC4/CapSense.c **** 	*******************************************************************************/
1854:.\Generated_Source\PSoC4/CapSense.c **** 	void CapSense_SetSenseClkDivider(uint32 sensor, uint32 senseClk)
1855:.\Generated_Source\PSoC4/CapSense.c **** 	{
 1683              		.loc 1 1855 0
 1684              		.cfi_startproc
 1685              	.LVL207:
1856:.\Generated_Source\PSoC4/CapSense.c **** 		#if(0u != CapSense_MULTIPLE_FREQUENCY_SET)
1857:.\Generated_Source\PSoC4/CapSense.c **** 			CapSense_senseClkDividerVal[sensor] = (uint8)senseClk;
 1686              		.loc 1 1857 0
 1687 0000 014B     		ldr	r3, .L112
 1688 0002 1954     		strb	r1, [r3, r0]
1858:.\Generated_Source\PSoC4/CapSense.c **** 		#else
1859:.\Generated_Source\PSoC4/CapSense.c **** 			CapSense_senseClkDividerVal = (uint8)senseClk;
1860:.\Generated_Source\PSoC4/CapSense.c **** 		#endif /* (0u != CapSense_MULTIPLE_FREQUENCY_SET) */
1861:.\Generated_Source\PSoC4/CapSense.c **** 	}
 1689              		.loc 1 1861 0
 1690              		@ sp needed
 1691 0004 7047     		bx	lr
 1692              	.L113:
 1693 0006 C046     		.align	2
 1694              	.L112:
 1695 0008 00000000 		.word	CapSense_senseClkDividerVal
 1696              		.cfi_endproc
 1697              	.LFE63:
 1698              		.size	CapSense_SetSenseClkDivider, .-CapSense_SetSenseClkDivider
 1699              		.section	.text.CapSense_GetModulatorClkDivider,"ax",%progbits
 1700              		.align	2
 1701              		.global	CapSense_GetModulatorClkDivider
 1702              		.code	16
 1703              		.thumb_func
 1704              		.type	CapSense_GetModulatorClkDivider, %function
 1705              	CapSense_GetModulatorClkDivider:
 1706              	.LFB64:
1862:.\Generated_Source\PSoC4/CapSense.c **** #endif /* (CapSense_TUNING_METHOD != CapSense__TUNING_NONE) */
1863:.\Generated_Source\PSoC4/CapSense.c **** 
1864:.\Generated_Source\PSoC4/CapSense.c **** 
1865:.\Generated_Source\PSoC4/CapSense.c **** /*******************************************************************************
1866:.\Generated_Source\PSoC4/CapSense.c **** * Function Name: CapSense_GetModulatorClkDivider
ARM GAS  C:\Users\Luci\AppData\Local\Temp\cckk3xx4.s 			page 66


1867:.\Generated_Source\PSoC4/CapSense.c **** ********************************************************************************
1868:.\Generated_Source\PSoC4/CapSense.c **** *
1869:.\Generated_Source\PSoC4/CapSense.c **** * Summary:
1870:.\Generated_Source\PSoC4/CapSense.c **** *  This API returns a value of the modulator sample clock divider for the  sensor.
1871:.\Generated_Source\PSoC4/CapSense.c **** *
1872:.\Generated_Source\PSoC4/CapSense.c **** * Parameters:
1873:.\Generated_Source\PSoC4/CapSense.c **** *  sensor: sensor index. The value of index can be 
1874:.\Generated_Source\PSoC4/CapSense.c **** *  from 0 to (CapSense_TOTAL_SENSOR_COUNT-1).
1875:.\Generated_Source\PSoC4/CapSense.c **** *
1876:.\Generated_Source\PSoC4/CapSense.c **** * Return:
1877:.\Generated_Source\PSoC4/CapSense.c **** *  This API returns the modulator sample clock divider for the  sensor.
1878:.\Generated_Source\PSoC4/CapSense.c **** *
1879:.\Generated_Source\PSoC4/CapSense.c **** * Global Variables:
1880:.\Generated_Source\PSoC4/CapSense.c **** *  CapSense_sampleClkDividerVal[] - stores the modulator sample divider values.
1881:.\Generated_Source\PSoC4/CapSense.c **** * 
1882:.\Generated_Source\PSoC4/CapSense.c **** * Side Effects:
1883:.\Generated_Source\PSoC4/CapSense.c **** *  None
1884:.\Generated_Source\PSoC4/CapSense.c **** *
1885:.\Generated_Source\PSoC4/CapSense.c **** *******************************************************************************/
1886:.\Generated_Source\PSoC4/CapSense.c **** uint32 CapSense_GetModulatorClkDivider(uint32 sensor)
1887:.\Generated_Source\PSoC4/CapSense.c **** {
 1707              		.loc 1 1887 0
 1708              		.cfi_startproc
 1709              	.LVL208:
1888:.\Generated_Source\PSoC4/CapSense.c **** 	#if(0u != CapSense_MULTIPLE_FREQUENCY_SET)
1889:.\Generated_Source\PSoC4/CapSense.c **** 		return((uint32)CapSense_sampleClkDividerVal[sensor]);
 1710              		.loc 1 1889 0
 1711 0000 014B     		ldr	r3, .L115
 1712 0002 185C     		ldrb	r0, [r3, r0]
 1713              	.LVL209:
1890:.\Generated_Source\PSoC4/CapSense.c **** 	#else
1891:.\Generated_Source\PSoC4/CapSense.c **** 		return((uint32)CapSense_sampleClkDividerVal);
1892:.\Generated_Source\PSoC4/CapSense.c **** 	#endif /* (0u != CapSense_MULTIPLE_FREQUENCY_SET) */
1893:.\Generated_Source\PSoC4/CapSense.c **** }
 1714              		.loc 1 1893 0
 1715              		@ sp needed
 1716 0004 7047     		bx	lr
 1717              	.L116:
 1718 0006 C046     		.align	2
 1719              	.L115:
 1720 0008 00000000 		.word	CapSense_sampleClkDividerVal
 1721              		.cfi_endproc
 1722              	.LFE64:
 1723              		.size	CapSense_GetModulatorClkDivider, .-CapSense_GetModulatorClkDivider
 1724              		.section	.text.CapSense_SetModulatorClkDivider,"ax",%progbits
 1725              		.align	2
 1726              		.global	CapSense_SetModulatorClkDivider
 1727              		.code	16
 1728              		.thumb_func
 1729              		.type	CapSense_SetModulatorClkDivider, %function
 1730              	CapSense_SetModulatorClkDivider:
 1731              	.LFB65:
1894:.\Generated_Source\PSoC4/CapSense.c **** 
1895:.\Generated_Source\PSoC4/CapSense.c **** #if (CapSense_TUNING_METHOD != CapSense__TUNING_NONE)
1896:.\Generated_Source\PSoC4/CapSense.c **** 	/*******************************************************************************
1897:.\Generated_Source\PSoC4/CapSense.c **** 	* Function Name: CapSense_SetModulatorClkDivider
1898:.\Generated_Source\PSoC4/CapSense.c **** 	********************************************************************************
ARM GAS  C:\Users\Luci\AppData\Local\Temp\cckk3xx4.s 			page 67


1899:.\Generated_Source\PSoC4/CapSense.c **** 	*
1900:.\Generated_Source\PSoC4/CapSense.c **** 	* Summary:
1901:.\Generated_Source\PSoC4/CapSense.c **** 	*  This API sets a value of the modulator sample clock divider for the  sensor.
1902:.\Generated_Source\PSoC4/CapSense.c **** 	*
1903:.\Generated_Source\PSoC4/CapSense.c **** 	* Parameters:
1904:.\Generated_Source\PSoC4/CapSense.c **** 	*  sensor:  Sensor index.
1905:.\Generated_Source\PSoC4/CapSense.c **** 	*  modulatorClk: represents the modulator sample clock value.
1906:.\Generated_Source\PSoC4/CapSense.c **** 	*
1907:.\Generated_Source\PSoC4/CapSense.c **** 	* Return:
1908:.\Generated_Source\PSoC4/CapSense.c **** 	*  None.
1909:.\Generated_Source\PSoC4/CapSense.c **** 	*
1910:.\Generated_Source\PSoC4/CapSense.c **** 	* Global Variables:
1911:.\Generated_Source\PSoC4/CapSense.c **** 	*  CapSense_sampleClkDividerVal[] - stores the modulator sample divider values.
1912:.\Generated_Source\PSoC4/CapSense.c **** 	* 
1913:.\Generated_Source\PSoC4/CapSense.c **** 	* Side Effects:
1914:.\Generated_Source\PSoC4/CapSense.c **** 	*  None
1915:.\Generated_Source\PSoC4/CapSense.c **** 	*
1916:.\Generated_Source\PSoC4/CapSense.c **** 	*******************************************************************************/
1917:.\Generated_Source\PSoC4/CapSense.c **** 	void CapSense_SetModulatorClkDivider(uint32 sensor, uint32 modulatorClk)
1918:.\Generated_Source\PSoC4/CapSense.c **** 	{
 1732              		.loc 1 1918 0
 1733              		.cfi_startproc
 1734              	.LVL210:
1919:.\Generated_Source\PSoC4/CapSense.c **** 		#if(0u != CapSense_MULTIPLE_FREQUENCY_SET)
1920:.\Generated_Source\PSoC4/CapSense.c **** 			CapSense_sampleClkDividerVal[sensor] = (uint8)modulatorClk;
 1735              		.loc 1 1920 0
 1736 0000 014B     		ldr	r3, .L118
 1737 0002 1954     		strb	r1, [r3, r0]
1921:.\Generated_Source\PSoC4/CapSense.c **** 		#else
1922:.\Generated_Source\PSoC4/CapSense.c **** 			CapSense_sampleClkDividerVal = (uint8)modulatorClk;
1923:.\Generated_Source\PSoC4/CapSense.c **** 		#endif /* (0u != CapSense_MULTIPLE_FREQUENCY_SET) */
1924:.\Generated_Source\PSoC4/CapSense.c **** 	}
 1738              		.loc 1 1924 0
 1739              		@ sp needed
 1740 0004 7047     		bx	lr
 1741              	.L119:
 1742 0006 C046     		.align	2
 1743              	.L118:
 1744 0008 00000000 		.word	CapSense_sampleClkDividerVal
 1745              		.cfi_endproc
 1746              	.LFE65:
 1747              		.size	CapSense_SetModulatorClkDivider, .-CapSense_SetModulatorClkDivider
 1748              		.section	.text.CapSense_GetModulationIDAC,"ax",%progbits
 1749              		.align	2
 1750              		.global	CapSense_GetModulationIDAC
 1751              		.code	16
 1752              		.thumb_func
 1753              		.type	CapSense_GetModulationIDAC, %function
 1754              	CapSense_GetModulationIDAC:
 1755              	.LFB66:
1925:.\Generated_Source\PSoC4/CapSense.c **** #endif /* (CapSense_TUNING_METHOD != CapSense__TUNING_NONE) */
1926:.\Generated_Source\PSoC4/CapSense.c **** 
1927:.\Generated_Source\PSoC4/CapSense.c **** /*******************************************************************************
1928:.\Generated_Source\PSoC4/CapSense.c **** * Function Name: CapSense_GetModulationIDAC
1929:.\Generated_Source\PSoC4/CapSense.c **** ********************************************************************************
1930:.\Generated_Source\PSoC4/CapSense.c **** *
1931:.\Generated_Source\PSoC4/CapSense.c **** * Summary:
ARM GAS  C:\Users\Luci\AppData\Local\Temp\cckk3xx4.s 			page 68


1932:.\Generated_Source\PSoC4/CapSense.c **** *  This API returns a value of the modulation IDAC for the  sensor.
1933:.\Generated_Source\PSoC4/CapSense.c **** *
1934:.\Generated_Source\PSoC4/CapSense.c **** * Parameters:
1935:.\Generated_Source\PSoC4/CapSense.c **** *  sensor: sensor index. The index value can be 
1936:.\Generated_Source\PSoC4/CapSense.c **** *  from 0 to (CapSense_TOTAL_SENSOR_COUNT-1).
1937:.\Generated_Source\PSoC4/CapSense.c **** *
1938:.\Generated_Source\PSoC4/CapSense.c **** * Return:
1939:.\Generated_Source\PSoC4/CapSense.c **** *  This API returns the modulation IDAC of the sensor. 
1940:.\Generated_Source\PSoC4/CapSense.c **** *
1941:.\Generated_Source\PSoC4/CapSense.c **** * Global Variables:
1942:.\Generated_Source\PSoC4/CapSense.c **** *  CapSense_modulationIDAC[] - stores modulation IDAC values.
1943:.\Generated_Source\PSoC4/CapSense.c **** * 
1944:.\Generated_Source\PSoC4/CapSense.c **** * Side Effects:
1945:.\Generated_Source\PSoC4/CapSense.c **** *  None
1946:.\Generated_Source\PSoC4/CapSense.c **** *
1947:.\Generated_Source\PSoC4/CapSense.c **** *******************************************************************************/
1948:.\Generated_Source\PSoC4/CapSense.c **** uint32 CapSense_GetModulationIDAC(uint32 sensor)
1949:.\Generated_Source\PSoC4/CapSense.c **** {
 1756              		.loc 1 1949 0
 1757              		.cfi_startproc
 1758              	.LVL211:
1950:.\Generated_Source\PSoC4/CapSense.c **** 		return((uint32)CapSense_modulationIDAC[sensor]);
 1759              		.loc 1 1950 0
 1760 0000 014B     		ldr	r3, .L121
 1761 0002 185C     		ldrb	r0, [r3, r0]
 1762              	.LVL212:
1951:.\Generated_Source\PSoC4/CapSense.c **** }
 1763              		.loc 1 1951 0
 1764              		@ sp needed
 1765 0004 7047     		bx	lr
 1766              	.L122:
 1767 0006 C046     		.align	2
 1768              	.L121:
 1769 0008 00000000 		.word	CapSense_modulationIDAC
 1770              		.cfi_endproc
 1771              	.LFE66:
 1772              		.size	CapSense_GetModulationIDAC, .-CapSense_GetModulationIDAC
 1773              		.section	.text.CapSense_SetModulationIDAC,"ax",%progbits
 1774              		.align	2
 1775              		.global	CapSense_SetModulationIDAC
 1776              		.code	16
 1777              		.thumb_func
 1778              		.type	CapSense_SetModulationIDAC, %function
 1779              	CapSense_SetModulationIDAC:
 1780              	.LFB67:
1952:.\Generated_Source\PSoC4/CapSense.c **** 
1953:.\Generated_Source\PSoC4/CapSense.c **** #if (CapSense_TUNING_METHOD != CapSense__TUNING_NONE)
1954:.\Generated_Source\PSoC4/CapSense.c **** 	/*******************************************************************************
1955:.\Generated_Source\PSoC4/CapSense.c **** 	* Function Name: CapSense_SetModulationIDAC
1956:.\Generated_Source\PSoC4/CapSense.c **** 	********************************************************************************
1957:.\Generated_Source\PSoC4/CapSense.c **** 	*
1958:.\Generated_Source\PSoC4/CapSense.c **** 	* Summary:
1959:.\Generated_Source\PSoC4/CapSense.c **** 	*  This API sets a value of the modulation IDAC for the  sensor.
1960:.\Generated_Source\PSoC4/CapSense.c **** 	*
1961:.\Generated_Source\PSoC4/CapSense.c **** 	* Parameters:
1962:.\Generated_Source\PSoC4/CapSense.c **** 	*  sensor:  Sensor index.
1963:.\Generated_Source\PSoC4/CapSense.c **** 	*  compIdacValue: represents the modulation IDAC data register value.
ARM GAS  C:\Users\Luci\AppData\Local\Temp\cckk3xx4.s 			page 69


1964:.\Generated_Source\PSoC4/CapSense.c **** 	*
1965:.\Generated_Source\PSoC4/CapSense.c **** 	* Return:
1966:.\Generated_Source\PSoC4/CapSense.c **** 	*  None.
1967:.\Generated_Source\PSoC4/CapSense.c **** 	*
1968:.\Generated_Source\PSoC4/CapSense.c **** 	* Global Variables:
1969:.\Generated_Source\PSoC4/CapSense.c **** 	*  CapSense_modulationIDAC[] - array with modulation IDAC values
1970:.\Generated_Source\PSoC4/CapSense.c **** 	* 
1971:.\Generated_Source\PSoC4/CapSense.c **** 	* Side Effects:
1972:.\Generated_Source\PSoC4/CapSense.c **** 	*  None
1973:.\Generated_Source\PSoC4/CapSense.c **** 	*
1974:.\Generated_Source\PSoC4/CapSense.c **** 	*******************************************************************************/
1975:.\Generated_Source\PSoC4/CapSense.c **** 	void CapSense_SetModulationIDAC(uint32 sensor, uint32 modIdacValue)
1976:.\Generated_Source\PSoC4/CapSense.c **** 	{
 1781              		.loc 1 1976 0
 1782              		.cfi_startproc
 1783              	.LVL213:
1977:.\Generated_Source\PSoC4/CapSense.c **** 		CapSense_modulationIDAC[sensor] = (uint8)modIdacValue;
 1784              		.loc 1 1977 0
 1785 0000 014B     		ldr	r3, .L124
 1786 0002 1954     		strb	r1, [r3, r0]
1978:.\Generated_Source\PSoC4/CapSense.c **** 	}
 1787              		.loc 1 1978 0
 1788              		@ sp needed
 1789 0004 7047     		bx	lr
 1790              	.L125:
 1791 0006 C046     		.align	2
 1792              	.L124:
 1793 0008 00000000 		.word	CapSense_modulationIDAC
 1794              		.cfi_endproc
 1795              	.LFE67:
 1796              		.size	CapSense_SetModulationIDAC, .-CapSense_SetModulationIDAC
 1797              		.section	.text.CapSense_GetCompensationIDAC,"ax",%progbits
 1798              		.align	2
 1799              		.global	CapSense_GetCompensationIDAC
 1800              		.code	16
 1801              		.thumb_func
 1802              		.type	CapSense_GetCompensationIDAC, %function
 1803              	CapSense_GetCompensationIDAC:
 1804              	.LFB68:
1979:.\Generated_Source\PSoC4/CapSense.c **** #endif /* (CapSense_TUNING_METHOD != CapSense__TUNING_NONE) */
1980:.\Generated_Source\PSoC4/CapSense.c **** 
1981:.\Generated_Source\PSoC4/CapSense.c **** 
1982:.\Generated_Source\PSoC4/CapSense.c **** #if(CapSense_IDAC_CNT > 1u)
1983:.\Generated_Source\PSoC4/CapSense.c **** 	/*******************************************************************************
1984:.\Generated_Source\PSoC4/CapSense.c **** 	* Function Name: CapSense_GetCompensationIDAC
1985:.\Generated_Source\PSoC4/CapSense.c **** 	********************************************************************************
1986:.\Generated_Source\PSoC4/CapSense.c **** 	*
1987:.\Generated_Source\PSoC4/CapSense.c **** 	* Summary:
1988:.\Generated_Source\PSoC4/CapSense.c **** 	*  This API returns a value of the compensation IDAC for the  sensor.
1989:.\Generated_Source\PSoC4/CapSense.c **** 	*
1990:.\Generated_Source\PSoC4/CapSense.c **** 	* Parameters:
1991:.\Generated_Source\PSoC4/CapSense.c **** 	*  sensor: sensor index. The index value can be 
1992:.\Generated_Source\PSoC4/CapSense.c **** 	*  from 0 to (CapSense_TOTAL_SENSOR_COUNT-1).
1993:.\Generated_Source\PSoC4/CapSense.c **** 	*
1994:.\Generated_Source\PSoC4/CapSense.c **** 	* Return:
1995:.\Generated_Source\PSoC4/CapSense.c **** 	*  This API returns the compensation IDAC of the sensor. 
1996:.\Generated_Source\PSoC4/CapSense.c **** 	*
ARM GAS  C:\Users\Luci\AppData\Local\Temp\cckk3xx4.s 			page 70


1997:.\Generated_Source\PSoC4/CapSense.c **** 	* Global Variables:
1998:.\Generated_Source\PSoC4/CapSense.c **** 	*  CapSense_compensationIDAC[] - stores the compensation IDAC values.
1999:.\Generated_Source\PSoC4/CapSense.c **** 	* 
2000:.\Generated_Source\PSoC4/CapSense.c **** 	* Side Effects:
2001:.\Generated_Source\PSoC4/CapSense.c **** 	*  None
2002:.\Generated_Source\PSoC4/CapSense.c **** 	*
2003:.\Generated_Source\PSoC4/CapSense.c **** 	*******************************************************************************/
2004:.\Generated_Source\PSoC4/CapSense.c **** 	uint32 CapSense_GetCompensationIDAC(uint32 sensor)
2005:.\Generated_Source\PSoC4/CapSense.c **** 	{
 1805              		.loc 1 2005 0
 1806              		.cfi_startproc
 1807              	.LVL214:
2006:.\Generated_Source\PSoC4/CapSense.c **** 		return((uint32)CapSense_compensationIDAC[sensor]);
 1808              		.loc 1 2006 0
 1809 0000 014B     		ldr	r3, .L127
 1810 0002 185C     		ldrb	r0, [r3, r0]
 1811              	.LVL215:
2007:.\Generated_Source\PSoC4/CapSense.c **** 	}
 1812              		.loc 1 2007 0
 1813              		@ sp needed
 1814 0004 7047     		bx	lr
 1815              	.L128:
 1816 0006 C046     		.align	2
 1817              	.L127:
 1818 0008 00000000 		.word	CapSense_compensationIDAC
 1819              		.cfi_endproc
 1820              	.LFE68:
 1821              		.size	CapSense_GetCompensationIDAC, .-CapSense_GetCompensationIDAC
 1822              		.section	.text.CapSense_SetCompensationIDAC,"ax",%progbits
 1823              		.align	2
 1824              		.global	CapSense_SetCompensationIDAC
 1825              		.code	16
 1826              		.thumb_func
 1827              		.type	CapSense_SetCompensationIDAC, %function
 1828              	CapSense_SetCompensationIDAC:
 1829              	.LFB69:
2008:.\Generated_Source\PSoC4/CapSense.c **** #endif /* (CapSense_IDAC_CNT > 1u) */
2009:.\Generated_Source\PSoC4/CapSense.c **** 
2010:.\Generated_Source\PSoC4/CapSense.c **** 
2011:.\Generated_Source\PSoC4/CapSense.c **** #if((CapSense_TUNING_METHOD != CapSense__TUNING_NONE) && (CapSense_IDAC_CNT > 1u))
2012:.\Generated_Source\PSoC4/CapSense.c **** 	/*******************************************************************************
2013:.\Generated_Source\PSoC4/CapSense.c **** 	* Function Name: CapSense_SetCompensationIDAC
2014:.\Generated_Source\PSoC4/CapSense.c **** 	********************************************************************************
2015:.\Generated_Source\PSoC4/CapSense.c **** 	*
2016:.\Generated_Source\PSoC4/CapSense.c **** 	* Summary:
2017:.\Generated_Source\PSoC4/CapSense.c **** 	*  This API sets a value of compensation IDAC for the  sensor.
2018:.\Generated_Source\PSoC4/CapSense.c **** 	*
2019:.\Generated_Source\PSoC4/CapSense.c **** 	* Parameters:
2020:.\Generated_Source\PSoC4/CapSense.c **** 	*  sensor:  Sensor index.
2021:.\Generated_Source\PSoC4/CapSense.c **** 	*  compIdacValue: represents the compensation IDAC data register value.
2022:.\Generated_Source\PSoC4/CapSense.c **** 	*
2023:.\Generated_Source\PSoC4/CapSense.c **** 	* Return:
2024:.\Generated_Source\PSoC4/CapSense.c **** 	*  None.
2025:.\Generated_Source\PSoC4/CapSense.c **** 	*
2026:.\Generated_Source\PSoC4/CapSense.c **** 	* Global Variables:
2027:.\Generated_Source\PSoC4/CapSense.c **** 	*  CapSense_compensationIDAC[] - an array with compensation IDAC values
2028:.\Generated_Source\PSoC4/CapSense.c **** 	* 
ARM GAS  C:\Users\Luci\AppData\Local\Temp\cckk3xx4.s 			page 71


2029:.\Generated_Source\PSoC4/CapSense.c **** 	* Side Effects:
2030:.\Generated_Source\PSoC4/CapSense.c **** 	*  None
2031:.\Generated_Source\PSoC4/CapSense.c **** 	*
2032:.\Generated_Source\PSoC4/CapSense.c **** 	*******************************************************************************/
2033:.\Generated_Source\PSoC4/CapSense.c **** 	void CapSense_SetCompensationIDAC(uint32 sensor, uint32 compIdacValue)
2034:.\Generated_Source\PSoC4/CapSense.c **** 	{
 1830              		.loc 1 2034 0
 1831              		.cfi_startproc
 1832              	.LVL216:
2035:.\Generated_Source\PSoC4/CapSense.c **** 		CapSense_compensationIDAC[sensor] = (uint8)compIdacValue;
 1833              		.loc 1 2035 0
 1834 0000 014B     		ldr	r3, .L130
 1835 0002 1954     		strb	r1, [r3, r0]
2036:.\Generated_Source\PSoC4/CapSense.c **** 	}
 1836              		.loc 1 2036 0
 1837              		@ sp needed
 1838 0004 7047     		bx	lr
 1839              	.L131:
 1840 0006 C046     		.align	2
 1841              	.L130:
 1842 0008 00000000 		.word	CapSense_compensationIDAC
 1843              		.cfi_endproc
 1844              	.LFE69:
 1845              		.size	CapSense_SetCompensationIDAC, .-CapSense_SetCompensationIDAC
 1846              		.section	.text.CapSense_GetIDACRange,"ax",%progbits
 1847              		.align	2
 1848              		.global	CapSense_GetIDACRange
 1849              		.code	16
 1850              		.thumb_func
 1851              		.type	CapSense_GetIDACRange, %function
 1852              	CapSense_GetIDACRange:
 1853              	.LFB70:
2037:.\Generated_Source\PSoC4/CapSense.c **** #endif /* ((CapSense_TUNING_METHOD != CapSense__TUNING_NONE) && (CapSense_IDAC_CNT > 1u)) */
2038:.\Generated_Source\PSoC4/CapSense.c **** 
2039:.\Generated_Source\PSoC4/CapSense.c **** /*******************************************************************************
2040:.\Generated_Source\PSoC4/CapSense.c **** * Function Name: CapSense_GetIDACRange
2041:.\Generated_Source\PSoC4/CapSense.c **** ********************************************************************************
2042:.\Generated_Source\PSoC4/CapSense.c **** *
2043:.\Generated_Source\PSoC4/CapSense.c **** * Summary:
2044:.\Generated_Source\PSoC4/CapSense.c **** *  This API returns a value that indicates the IDAC range used by the 
2045:.\Generated_Source\PSoC4/CapSense.c **** *  component to scan sensors. The IDAC range is common for all the sensors.
2046:.\Generated_Source\PSoC4/CapSense.c **** *
2047:.\Generated_Source\PSoC4/CapSense.c **** * Parameters:
2048:.\Generated_Source\PSoC4/CapSense.c **** *  None
2049:.\Generated_Source\PSoC4/CapSense.c **** *
2050:.\Generated_Source\PSoC4/CapSense.c **** * Return:
2051:.\Generated_Source\PSoC4/CapSense.c **** *  This API Returns a value that indicates the IDAC range:
2052:.\Generated_Source\PSoC4/CapSense.c **** *      0 - IDAC range set to 4x
2053:.\Generated_Source\PSoC4/CapSense.c **** *      1 - IDAC range set to 8x
2054:.\Generated_Source\PSoC4/CapSense.c **** *
2055:.\Generated_Source\PSoC4/CapSense.c **** * Global Variables:
2056:.\Generated_Source\PSoC4/CapSense.c **** *  None
2057:.\Generated_Source\PSoC4/CapSense.c **** * 
2058:.\Generated_Source\PSoC4/CapSense.c **** * Side Effects:
2059:.\Generated_Source\PSoC4/CapSense.c **** *  None
2060:.\Generated_Source\PSoC4/CapSense.c **** *
2061:.\Generated_Source\PSoC4/CapSense.c **** *******************************************************************************/
ARM GAS  C:\Users\Luci\AppData\Local\Temp\cckk3xx4.s 			page 72


2062:.\Generated_Source\PSoC4/CapSense.c **** uint32 CapSense_GetIDACRange(void)
2063:.\Generated_Source\PSoC4/CapSense.c **** {
 1854              		.loc 1 2063 0
 1855              		.cfi_startproc
2064:.\Generated_Source\PSoC4/CapSense.c **** 	return((0u != (CapSense_CSD_IDAC_REG & CapSense_CSD_IDAC1_RANGE_8X)) ? 1uL : 0uL);
 1856              		.loc 1 2064 0
 1857 0000 034B     		ldr	r3, .L134
 1858 0002 1868     		ldr	r0, [r3]
 1859 0004 8023     		mov	r3, #128
 1860 0006 DB00     		lsl	r3, r3, #3
 1861 0008 1840     		and	r0, r3
 1862 000a 00D0     		beq	.L133
 1863 000c 0120     		mov	r0, #1
 1864              	.L133:
2065:.\Generated_Source\PSoC4/CapSense.c **** }
 1865              		.loc 1 2065 0 discriminator 4
 1866              		@ sp needed
 1867 000e 7047     		bx	lr
 1868              	.L135:
 1869              		.align	2
 1870              	.L134:
 1871 0010 08002840 		.word	1076363272
 1872              		.cfi_endproc
 1873              	.LFE70:
 1874              		.size	CapSense_GetIDACRange, .-CapSense_GetIDACRange
 1875              		.section	.text.CapSense_SetIDACRange,"ax",%progbits
 1876              		.align	2
 1877              		.global	CapSense_SetIDACRange
 1878              		.code	16
 1879              		.thumb_func
 1880              		.type	CapSense_SetIDACRange, %function
 1881              	CapSense_SetIDACRange:
 1882              	.LFB71:
2066:.\Generated_Source\PSoC4/CapSense.c **** 
2067:.\Generated_Source\PSoC4/CapSense.c **** #if (CapSense_TUNING_METHOD != CapSense__TUNING_NONE)
2068:.\Generated_Source\PSoC4/CapSense.c **** 	/*******************************************************************************
2069:.\Generated_Source\PSoC4/CapSense.c **** 	* Function Name: CapSense_SetIDACRange
2070:.\Generated_Source\PSoC4/CapSense.c **** 	********************************************************************************
2071:.\Generated_Source\PSoC4/CapSense.c **** 	*
2072:.\Generated_Source\PSoC4/CapSense.c **** 	* Summary:
2073:.\Generated_Source\PSoC4/CapSense.c **** 	*  This API sets the IDAC range to the 4x (1.2uA/bit) or 8x (2.4uA/bit) mode.
2074:.\Generated_Source\PSoC4/CapSense.c ****     *  The IDAC range is common for all the sensors and common for the modulation and 
2075:.\Generated_Source\PSoC4/CapSense.c **** 	*  compensation IDACs.
2076:.\Generated_Source\PSoC4/CapSense.c **** 	*
2077:.\Generated_Source\PSoC4/CapSense.c **** 	* Parameters:
2078:.\Generated_Source\PSoC4/CapSense.c **** 	*  iDacRange:  represents value for IDAC range 
2079:.\Generated_Source\PSoC4/CapSense.c **** 	*  0 -  IDAC range set to 4x (1.2uA/bit)
2080:.\Generated_Source\PSoC4/CapSense.c **** 	*  1 or >1 - IDAC range set to 8x (2.4uA/bit)
2081:.\Generated_Source\PSoC4/CapSense.c **** 	*
2082:.\Generated_Source\PSoC4/CapSense.c **** 	* Return:
2083:.\Generated_Source\PSoC4/CapSense.c **** 	*  None.
2084:.\Generated_Source\PSoC4/CapSense.c **** 	*
2085:.\Generated_Source\PSoC4/CapSense.c **** 	* Global Variables:
2086:.\Generated_Source\PSoC4/CapSense.c **** 	*  None
2087:.\Generated_Source\PSoC4/CapSense.c **** 	* 
2088:.\Generated_Source\PSoC4/CapSense.c **** 	* Side Effects:
2089:.\Generated_Source\PSoC4/CapSense.c **** 	*  None
ARM GAS  C:\Users\Luci\AppData\Local\Temp\cckk3xx4.s 			page 73


2090:.\Generated_Source\PSoC4/CapSense.c **** 	*
2091:.\Generated_Source\PSoC4/CapSense.c **** 	*******************************************************************************/
2092:.\Generated_Source\PSoC4/CapSense.c **** 	void CapSense_SetIDACRange(uint32 iDacRange)
2093:.\Generated_Source\PSoC4/CapSense.c **** 	{
 1883              		.loc 1 2093 0
 1884              		.cfi_startproc
 1885              	.LVL217:
2094:.\Generated_Source\PSoC4/CapSense.c **** 	    if(iDacRange != 0u)
 1886              		.loc 1 2094 0
 1887 0000 0028     		cmp	r0, #0
 1888 0002 05D0     		beq	.L137
2095:.\Generated_Source\PSoC4/CapSense.c **** 		{
2096:.\Generated_Source\PSoC4/CapSense.c **** 		    /*  IDAC range = 8x (2.4uA/bit) */ 
2097:.\Generated_Source\PSoC4/CapSense.c **** 		    CapSense_CSD_IDAC_REG |= (CapSense_CSD_IDAC1_RANGE_8X |\
 1889              		.loc 1 2097 0
 1890 0004 054A     		ldr	r2, .L139
 1891 0006 1368     		ldr	r3, [r2]
 1892 0008 0549     		ldr	r1, .L139+4
 1893 000a 0B43     		orr	r3, r1
 1894 000c 1360     		str	r3, [r2]
 1895 000e 04E0     		b	.L136
 1896              	.L137:
2098:.\Generated_Source\PSoC4/CapSense.c **** 											  CapSense_CSD_IDAC2_RANGE_8X);
2099:.\Generated_Source\PSoC4/CapSense.c **** 		}
2100:.\Generated_Source\PSoC4/CapSense.c **** 		else
2101:.\Generated_Source\PSoC4/CapSense.c **** 		{
2102:.\Generated_Source\PSoC4/CapSense.c **** 		    /*  IDAC range = 4x (1.2uA/bit) */ 
2103:.\Generated_Source\PSoC4/CapSense.c **** 		    /*  IDAC range = 8x (2.4uA/bit) */ 
2104:.\Generated_Source\PSoC4/CapSense.c **** 		    CapSense_CSD_IDAC_REG &= ~(CapSense_CSD_IDAC1_RANGE_8X |\
 1897              		.loc 1 2104 0
 1898 0010 024A     		ldr	r2, .L139
 1899 0012 1168     		ldr	r1, [r2]
 1900 0014 034B     		ldr	r3, .L139+8
 1901 0016 0B40     		and	r3, r1
 1902 0018 1360     		str	r3, [r2]
 1903              	.L136:
2105:.\Generated_Source\PSoC4/CapSense.c **** 											   CapSense_CSD_IDAC2_RANGE_8X);
2106:.\Generated_Source\PSoC4/CapSense.c **** 		}
2107:.\Generated_Source\PSoC4/CapSense.c **** 	}
 1904              		.loc 1 2107 0
 1905              		@ sp needed
 1906 001a 7047     		bx	lr
 1907              	.L140:
 1908              		.align	2
 1909              	.L139:
 1910 001c 08002840 		.word	1076363272
 1911 0020 00040004 		.word	67109888
 1912 0024 FFFBFFFB 		.word	-67109889
 1913              		.cfi_endproc
 1914              	.LFE71:
 1915              		.size	CapSense_SetIDACRange, .-CapSense_SetIDACRange
 1916              		.section	.text.CapSense_GetSensorRaw,"ax",%progbits
 1917              		.align	2
 1918              		.global	CapSense_GetSensorRaw
 1919              		.code	16
 1920              		.thumb_func
 1921              		.type	CapSense_GetSensorRaw, %function
ARM GAS  C:\Users\Luci\AppData\Local\Temp\cckk3xx4.s 			page 74


 1922              	CapSense_GetSensorRaw:
 1923              	.LFB72:
2108:.\Generated_Source\PSoC4/CapSense.c **** #endif /* (CapSense_TUNING_METHOD != CapSense__TUNING_NONE) */
2109:.\Generated_Source\PSoC4/CapSense.c **** 
2110:.\Generated_Source\PSoC4/CapSense.c **** 
2111:.\Generated_Source\PSoC4/CapSense.c **** #if((0u != CapSense_AUTOCALIBRATION_ENABLE) || (CapSense_TUNING_METHOD == CapSense__TUNING_AUTO))
2112:.\Generated_Source\PSoC4/CapSense.c **** 	/*******************************************************************************
2113:.\Generated_Source\PSoC4/CapSense.c **** 	* Function Name: CapSense_GetSensorRaw
2114:.\Generated_Source\PSoC4/CapSense.c **** 	********************************************************************************
2115:.\Generated_Source\PSoC4/CapSense.c **** 	*
2116:.\Generated_Source\PSoC4/CapSense.c **** 	* Summary:
2117:.\Generated_Source\PSoC4/CapSense.c **** 	*  The API updates and gets uprated raw data from the sensor.
2118:.\Generated_Source\PSoC4/CapSense.c **** 	*
2119:.\Generated_Source\PSoC4/CapSense.c **** 	* Parameters:
2120:.\Generated_Source\PSoC4/CapSense.c **** 	*  sensor - Sensor number.
2121:.\Generated_Source\PSoC4/CapSense.c **** 	*
2122:.\Generated_Source\PSoC4/CapSense.c **** 	* Return:
2123:.\Generated_Source\PSoC4/CapSense.c **** 	*  Returns the current raw data value for a defined sensor number.
2124:.\Generated_Source\PSoC4/CapSense.c **** 	*
2125:.\Generated_Source\PSoC4/CapSense.c **** 	* Global Variables:
2126:.\Generated_Source\PSoC4/CapSense.c **** 	*  None
2127:.\Generated_Source\PSoC4/CapSense.c **** 	*
2128:.\Generated_Source\PSoC4/CapSense.c **** 	* Side Effects:
