ARM GAS  C:\Users\Luci\AppData\Local\Temp\ccJzKsTh.s 			page 1


   1              		.cpu cortex-m0
   2              		.fpu softvfp
   3              		.eabi_attribute 20, 1
   4              		.eabi_attribute 21, 1
   5              		.eabi_attribute 23, 3
   6              		.eabi_attribute 24, 1
   7              		.eabi_attribute 25, 1
   8              		.eabi_attribute 26, 1
   9              		.eabi_attribute 30, 1
  10              		.eabi_attribute 34, 0
  11              		.eabi_attribute 18, 4
  12              		.code	16
  13              		.file	"CyFlash.c"
  14              		.text
  15              	.Ltext0:
  16              		.cfi_sections	.debug_frame
  17              		.section	.text.CySysFlashClockBackup,"ax",%progbits
  18              		.align	2
  19              		.code	16
  20              		.thumb_func
  21              		.type	CySysFlashClockBackup, %function
  22              	CySysFlashClockBackup:
  23              	.LFB4:
  24              		.file 1 ".\\Generated_Source\\PSoC4\\CyFlash.c"
   1:.\Generated_Source\PSoC4/CyFlash.c **** /*******************************************************************************
   2:.\Generated_Source\PSoC4/CyFlash.c **** * File Name: CyFlash.c
   3:.\Generated_Source\PSoC4/CyFlash.c **** * Version 5.0
   4:.\Generated_Source\PSoC4/CyFlash.c **** *
   5:.\Generated_Source\PSoC4/CyFlash.c **** *  Description:
   6:.\Generated_Source\PSoC4/CyFlash.c **** *   Provides an API for the FLASH.
   7:.\Generated_Source\PSoC4/CyFlash.c **** *
   8:.\Generated_Source\PSoC4/CyFlash.c **** *  Note:
   9:.\Generated_Source\PSoC4/CyFlash.c **** *   This code is endian agnostic.
  10:.\Generated_Source\PSoC4/CyFlash.c **** *
  11:.\Generated_Source\PSoC4/CyFlash.c **** *  Note:
  12:.\Generated_Source\PSoC4/CyFlash.c **** *   Documentation of the API's in this file is located in the
  13:.\Generated_Source\PSoC4/CyFlash.c **** *   System Reference Guide provided with PSoC Creator.
  14:.\Generated_Source\PSoC4/CyFlash.c **** *
  15:.\Generated_Source\PSoC4/CyFlash.c **** ********************************************************************************
  16:.\Generated_Source\PSoC4/CyFlash.c **** * Copyright 2010-2015, Cypress Semiconductor Corporation.  All rights reserved.
  17:.\Generated_Source\PSoC4/CyFlash.c **** * You may use this file only in accordance with the license, terms, conditions,
  18:.\Generated_Source\PSoC4/CyFlash.c **** * disclaimers, and limitations in the end user license agreement accompanying
  19:.\Generated_Source\PSoC4/CyFlash.c **** * the software package with which this file was provided.
  20:.\Generated_Source\PSoC4/CyFlash.c **** *******************************************************************************/
  21:.\Generated_Source\PSoC4/CyFlash.c **** 
  22:.\Generated_Source\PSoC4/CyFlash.c **** #include "CyFlash.h"
  23:.\Generated_Source\PSoC4/CyFlash.c **** 
  24:.\Generated_Source\PSoC4/CyFlash.c **** 
  25:.\Generated_Source\PSoC4/CyFlash.c **** /*******************************************************************************
  26:.\Generated_Source\PSoC4/CyFlash.c **** * Cypress identified a defect with the Flash write functionality of the
  27:.\Generated_Source\PSoC4/CyFlash.c **** * PSoC 4000, PSoC 4100, and PSoC 4200 devices. The CySysFlashWriteRow() function
  28:.\Generated_Source\PSoC4/CyFlash.c **** * now checks the data to be written and, if necessary, modifies it to have a
  29:.\Generated_Source\PSoC4/CyFlash.c **** * non-zero checksum. After writing to Flash, the modified data is replaced
  30:.\Generated_Source\PSoC4/CyFlash.c **** * (Flash program) with the correct (original) data.
  31:.\Generated_Source\PSoC4/CyFlash.c **** *******************************************************************************/
  32:.\Generated_Source\PSoC4/CyFlash.c **** #define CY_FLASH_CHECKSUM_WORKAROUND    (CY_PSOC4_4000 || CY_PSOC4_4100 || CY_PSOC4_4200)
  33:.\Generated_Source\PSoC4/CyFlash.c **** 
ARM GAS  C:\Users\Luci\AppData\Local\Temp\ccJzKsTh.s 			page 2


  34:.\Generated_Source\PSoC4/CyFlash.c **** #if (CY_IP_FM || (CY_IP_FMLT && CY_IP_SPCIF_SYNCHRONOUS))
  35:.\Generated_Source\PSoC4/CyFlash.c ****     static CY_SYS_FLASH_CLOCK_BACKUP_STRUCT cySysFlashBackup;
  36:.\Generated_Source\PSoC4/CyFlash.c **** #endif /* (CY_IP_FM || (CY_IP_FMLT && CY_IP_SPCIF_SYNCHRONOUS)) */
  37:.\Generated_Source\PSoC4/CyFlash.c **** 
  38:.\Generated_Source\PSoC4/CyFlash.c **** static cystatus CySysFlashClockBackup(void);
  39:.\Generated_Source\PSoC4/CyFlash.c **** static cystatus CySysFlashClockRestore(void);
  40:.\Generated_Source\PSoC4/CyFlash.c **** #if(CY_IP_FMLT)
  41:.\Generated_Source\PSoC4/CyFlash.c ****     static cystatus CySysFlashClockConfig(void);
  42:.\Generated_Source\PSoC4/CyFlash.c **** #endif  /* (CY_IP_FMLT) */
  43:.\Generated_Source\PSoC4/CyFlash.c **** 
  44:.\Generated_Source\PSoC4/CyFlash.c **** 
  45:.\Generated_Source\PSoC4/CyFlash.c **** /*******************************************************************************
  46:.\Generated_Source\PSoC4/CyFlash.c **** * Function Name: CySysFlashWriteRow
  47:.\Generated_Source\PSoC4/CyFlash.c **** ********************************************************************************
  48:.\Generated_Source\PSoC4/CyFlash.c **** *
  49:.\Generated_Source\PSoC4/CyFlash.c **** * Summary:
  50:.\Generated_Source\PSoC4/CyFlash.c **** *  Erases a row of Flash and programs it with the new data.
  51:.\Generated_Source\PSoC4/CyFlash.c **** *
  52:.\Generated_Source\PSoC4/CyFlash.c **** * Parameters:
  53:.\Generated_Source\PSoC4/CyFlash.c **** *  uint16 rowNum:
  54:.\Generated_Source\PSoC4/CyFlash.c **** *   The flash row number. The number of the flash rows is defined by the
  55:.\Generated_Source\PSoC4/CyFlash.c **** *   CY_FLASH_NUMBER_ROWS macro for the selected device. Refer to the device
  56:.\Generated_Source\PSoC4/CyFlash.c **** *   datasheet for the details.
  57:.\Generated_Source\PSoC4/CyFlash.c **** *
  58:.\Generated_Source\PSoC4/CyFlash.c **** *  uint8* rowData:
  59:.\Generated_Source\PSoC4/CyFlash.c **** *   Array of bytes to write. The size of the array must be equal to the flash
  60:.\Generated_Source\PSoC4/CyFlash.c **** *   row size. The flash row size for the selected device is defined by
  61:.\Generated_Source\PSoC4/CyFlash.c **** *   the CY_FLASH_SIZEOF_ROW macro. Refer to the device datasheet for the
  62:.\Generated_Source\PSoC4/CyFlash.c **** *   details.
  63:.\Generated_Source\PSoC4/CyFlash.c **** *
  64:.\Generated_Source\PSoC4/CyFlash.c **** * Return:
  65:.\Generated_Source\PSoC4/CyFlash.c **** *  Status
  66:.\Generated_Source\PSoC4/CyFlash.c **** *     Value                     Description
  67:.\Generated_Source\PSoC4/CyFlash.c **** *    CY_SYS_FLASH_SUCCESS           Successful
  68:.\Generated_Source\PSoC4/CyFlash.c **** *    CY_SYS_FLASH_INVALID_ADDR      Specified flash row address is invalid
  69:.\Generated_Source\PSoC4/CyFlash.c **** *    CY_SYS_FLASH_PROTECTED         Specified flash row is protected
  70:.\Generated_Source\PSoC4/CyFlash.c **** *    Other non-zero                 Failure
  71:.\Generated_Source\PSoC4/CyFlash.c **** *
  72:.\Generated_Source\PSoC4/CyFlash.c **** * Side Effects:
  73:.\Generated_Source\PSoC4/CyFlash.c **** *   The IMO must be enabled before calling this function. The operation of the
  74:.\Generated_Source\PSoC4/CyFlash.c **** *   flash writing hardware is dependent on the IMO.
  75:.\Generated_Source\PSoC4/CyFlash.c **** *
  76:.\Generated_Source\PSoC4/CyFlash.c **** *   For PSoC 4000, PSoC 4100 BLE and PSoC 4200 BLE devices (PSoC 4100 BLE and
  77:.\Generated_Source\PSoC4/CyFlash.c **** *   PSoC 4200 BLE devices with 256K of Flash memory are not affected), this API
  78:.\Generated_Source\PSoC4/CyFlash.c **** *   will automatically modify the clock settings for the device. Writing to
  79:.\Generated_Source\PSoC4/CyFlash.c **** *   flash requires that changes be made to the IMO and HFCLK settings. The
  80:.\Generated_Source\PSoC4/CyFlash.c **** *   configuration is restored before returning. This will impact the operation
  81:.\Generated_Source\PSoC4/CyFlash.c **** *   of most of the hardware in the device.
  82:.\Generated_Source\PSoC4/CyFlash.c **** *
  83:.\Generated_Source\PSoC4/CyFlash.c **** *   For PSoC 4000 devices this API will automatically modify the clock settings
  84:.\Generated_Source\PSoC4/CyFlash.c **** *   for the device. Writing to flash requires that changes be made to the IMO
  85:.\Generated_Source\PSoC4/CyFlash.c **** *   and HFCLK settings. The configuration is restored before returning. HFCLK
  86:.\Generated_Source\PSoC4/CyFlash.c **** *   will have several frequency changes during the operation of this API between
  87:.\Generated_Source\PSoC4/CyFlash.c **** *   a minimum frequency of the current IMO frequency divided by 8 and a maximum
  88:.\Generated_Source\PSoC4/CyFlash.c **** *   frequency of 12 MHz. This will impact the operation of most of the hardware
  89:.\Generated_Source\PSoC4/CyFlash.c **** *   in the device.
  90:.\Generated_Source\PSoC4/CyFlash.c **** *
ARM GAS  C:\Users\Luci\AppData\Local\Temp\ccJzKsTh.s 			page 3


  91:.\Generated_Source\PSoC4/CyFlash.c **** *******************************************************************************/
  92:.\Generated_Source\PSoC4/CyFlash.c **** uint32 CySysFlashWriteRow(uint32 rowNum, const uint8 rowData[])
  93:.\Generated_Source\PSoC4/CyFlash.c **** {
  94:.\Generated_Source\PSoC4/CyFlash.c ****     volatile uint32 retValue = CY_SYS_FLASH_SUCCESS;
  95:.\Generated_Source\PSoC4/CyFlash.c ****     volatile uint32 clkCnfRetValue = CY_SYS_FLASH_SUCCESS;
  96:.\Generated_Source\PSoC4/CyFlash.c ****     volatile uint32 parameters[(CY_FLASH_SIZEOF_ROW + CY_FLASH_SRAM_ROM_DATA) / sizeof(uint32)];
  97:.\Generated_Source\PSoC4/CyFlash.c ****     uint8  interruptState;
  98:.\Generated_Source\PSoC4/CyFlash.c **** 
  99:.\Generated_Source\PSoC4/CyFlash.c ****     #if (CY_FLASH_CHECKSUM_WORKAROUND)
 100:.\Generated_Source\PSoC4/CyFlash.c ****         uint32 needChecksumWorkaround = 0u;
 101:.\Generated_Source\PSoC4/CyFlash.c ****         uint32 savedIndex = 0u;
 102:.\Generated_Source\PSoC4/CyFlash.c ****         uint32 savedValue = 0u;
 103:.\Generated_Source\PSoC4/CyFlash.c ****         uint32 checksum = 0u;
 104:.\Generated_Source\PSoC4/CyFlash.c ****         uint32 bits = 0u;
 105:.\Generated_Source\PSoC4/CyFlash.c ****         uint32 i;
 106:.\Generated_Source\PSoC4/CyFlash.c ****     #endif  /* (CY_FLASH_CHECKSUM_WORKAROUND) */
 107:.\Generated_Source\PSoC4/CyFlash.c **** 
 108:.\Generated_Source\PSoC4/CyFlash.c ****     if ((rowNum < CY_FLASH_NUMBER_ROWS) && (rowData != 0u))
 109:.\Generated_Source\PSoC4/CyFlash.c ****     {
 110:.\Generated_Source\PSoC4/CyFlash.c ****         /* Copy data to be written into internal variable */
 111:.\Generated_Source\PSoC4/CyFlash.c ****         (void)memcpy((void *)&parameters[2u], rowData, CY_FLASH_SIZEOF_ROW);
 112:.\Generated_Source\PSoC4/CyFlash.c **** 
 113:.\Generated_Source\PSoC4/CyFlash.c ****         #if (CY_FLASH_CHECKSUM_WORKAROUND)
 114:.\Generated_Source\PSoC4/CyFlash.c **** 
 115:.\Generated_Source\PSoC4/CyFlash.c ****             for (i = 2u; i < ((CY_FLASH_SIZEOF_ROW / sizeof(uint32)) + 2u); i++)
 116:.\Generated_Source\PSoC4/CyFlash.c ****             {
 117:.\Generated_Source\PSoC4/CyFlash.c ****                 uint32 tmp = parameters[i];
 118:.\Generated_Source\PSoC4/CyFlash.c ****                 if (tmp != 0u)
 119:.\Generated_Source\PSoC4/CyFlash.c ****                 {
 120:.\Generated_Source\PSoC4/CyFlash.c ****                     checksum += tmp;
 121:.\Generated_Source\PSoC4/CyFlash.c ****                     bits |= tmp;
 122:.\Generated_Source\PSoC4/CyFlash.c ****                     savedIndex = i;
 123:.\Generated_Source\PSoC4/CyFlash.c ****                 }
 124:.\Generated_Source\PSoC4/CyFlash.c ****             }
 125:.\Generated_Source\PSoC4/CyFlash.c **** 
 126:.\Generated_Source\PSoC4/CyFlash.c ****             needChecksumWorkaround = ((checksum == 0u) && (bits != 0u)) ? 1u : 0u;
 127:.\Generated_Source\PSoC4/CyFlash.c ****             if (needChecksumWorkaround != 0u)
 128:.\Generated_Source\PSoC4/CyFlash.c ****             {
 129:.\Generated_Source\PSoC4/CyFlash.c ****                 savedValue = parameters[savedIndex];
 130:.\Generated_Source\PSoC4/CyFlash.c ****                 parameters[savedIndex] = 0u;
 131:.\Generated_Source\PSoC4/CyFlash.c ****             }
 132:.\Generated_Source\PSoC4/CyFlash.c ****         #endif  /* (CY_FLASH_CHECKSUM_WORKAROUND) */
 133:.\Generated_Source\PSoC4/CyFlash.c **** 
 134:.\Generated_Source\PSoC4/CyFlash.c ****         /* Load Flash Bytes */
 135:.\Generated_Source\PSoC4/CyFlash.c ****         parameters[0u] = (uint32) (CY_FLASH_GET_MACRO_FROM_ROW(rowNum)        << CY_FLASH_PARAM_MAC
 136:.\Generated_Source\PSoC4/CyFlash.c ****                          (uint32) (CY_FLASH_PAGE_LATCH_START_ADDR             << CY_FLASH_PARAM_ADD
 137:.\Generated_Source\PSoC4/CyFlash.c ****                          (uint32) (CY_FLASH_KEY_TWO(CY_FLASH_API_OPCODE_LOAD) << CY_FLASH_PARAM_KEY
 138:.\Generated_Source\PSoC4/CyFlash.c ****                          CY_FLASH_KEY_ONE;
 139:.\Generated_Source\PSoC4/CyFlash.c ****         parameters[1u] = CY_FLASH_SIZEOF_ROW - 1u;
 140:.\Generated_Source\PSoC4/CyFlash.c **** 
 141:.\Generated_Source\PSoC4/CyFlash.c ****         CY_FLASH_CPUSS_SYSARG_REG = (uint32) &parameters[0u];
 142:.\Generated_Source\PSoC4/CyFlash.c ****         CY_FLASH_CPUSS_SYSREQ_REG = CY_FLASH_CPUSS_REQ_START | CY_FLASH_API_OPCODE_LOAD;
 143:.\Generated_Source\PSoC4/CyFlash.c ****         retValue = CY_FLASH_API_RETURN;
 144:.\Generated_Source\PSoC4/CyFlash.c **** 
 145:.\Generated_Source\PSoC4/CyFlash.c ****         if(retValue == CY_SYS_FLASH_SUCCESS)
 146:.\Generated_Source\PSoC4/CyFlash.c ****         {
 147:.\Generated_Source\PSoC4/CyFlash.c ****             /***************************************************************
ARM GAS  C:\Users\Luci\AppData\Local\Temp\ccJzKsTh.s 			page 4


 148:.\Generated_Source\PSoC4/CyFlash.c ****             * Mask all the exceptions to guarantee that Flash write will
 149:.\Generated_Source\PSoC4/CyFlash.c ****             * occur in the atomic way. It will not affect system call
 150:.\Generated_Source\PSoC4/CyFlash.c ****             * execution (flash row write) since it is executed in the NMI
 151:.\Generated_Source\PSoC4/CyFlash.c ****             * context.
 152:.\Generated_Source\PSoC4/CyFlash.c ****             ***************************************************************/
 153:.\Generated_Source\PSoC4/CyFlash.c ****             interruptState = CyEnterCriticalSection();
 154:.\Generated_Source\PSoC4/CyFlash.c **** 
 155:.\Generated_Source\PSoC4/CyFlash.c ****             clkCnfRetValue = CySysFlashClockBackup();
 156:.\Generated_Source\PSoC4/CyFlash.c **** 
 157:.\Generated_Source\PSoC4/CyFlash.c ****         #if(CY_IP_FMLT)
 158:.\Generated_Source\PSoC4/CyFlash.c ****             if(clkCnfRetValue == CY_SYS_FLASH_SUCCESS)
 159:.\Generated_Source\PSoC4/CyFlash.c ****             {
 160:.\Generated_Source\PSoC4/CyFlash.c ****                 retValue = CySysFlashClockConfig();
 161:.\Generated_Source\PSoC4/CyFlash.c ****             }
 162:.\Generated_Source\PSoC4/CyFlash.c ****         #endif  /* (CY_IP_FMLT) */
 163:.\Generated_Source\PSoC4/CyFlash.c **** 
 164:.\Generated_Source\PSoC4/CyFlash.c ****             if(retValue == CY_SYS_FLASH_SUCCESS)
 165:.\Generated_Source\PSoC4/CyFlash.c ****             {
 166:.\Generated_Source\PSoC4/CyFlash.c ****                 /* Write Row */
 167:.\Generated_Source\PSoC4/CyFlash.c ****                 parameters[0u]  = (uint32) (((uint32) CY_FLASH_KEY_TWO(CY_FLASH_API_OPCODE_WRITE_RO
 168:.\Generated_Source\PSoC4/CyFlash.c ****                 parameters[0u] |= (uint32)(rowNum << 16u);
 169:.\Generated_Source\PSoC4/CyFlash.c **** 
 170:.\Generated_Source\PSoC4/CyFlash.c ****                 CY_FLASH_CPUSS_SYSARG_REG = (uint32) &parameters[0u];
 171:.\Generated_Source\PSoC4/CyFlash.c ****                 CY_FLASH_CPUSS_SYSREQ_REG = CY_FLASH_CPUSS_REQ_START | CY_FLASH_API_OPCODE_WRITE_RO
 172:.\Generated_Source\PSoC4/CyFlash.c ****                 retValue = CY_FLASH_API_RETURN;
 173:.\Generated_Source\PSoC4/CyFlash.c ****             }
 174:.\Generated_Source\PSoC4/CyFlash.c **** 
 175:.\Generated_Source\PSoC4/CyFlash.c ****             #if (CY_FLASH_CHECKSUM_WORKAROUND)
 176:.\Generated_Source\PSoC4/CyFlash.c **** 
 177:.\Generated_Source\PSoC4/CyFlash.c ****                 if ((retValue == CYRET_SUCCESS) && (needChecksumWorkaround != 0u))
 178:.\Generated_Source\PSoC4/CyFlash.c ****                 {
 179:.\Generated_Source\PSoC4/CyFlash.c ****                     (void)memset((void *)&parameters[2u], 0, CY_FLASH_SIZEOF_ROW);
 180:.\Generated_Source\PSoC4/CyFlash.c ****                     parameters[savedIndex] = savedValue;
 181:.\Generated_Source\PSoC4/CyFlash.c **** 
 182:.\Generated_Source\PSoC4/CyFlash.c ****                     /* Load Flash Bytes */
 183:.\Generated_Source\PSoC4/CyFlash.c ****                     parameters[0u] = (uint32) (CY_FLASH_GET_MACRO_FROM_ROW(rowNum)        << CY_FLA
 184:.\Generated_Source\PSoC4/CyFlash.c ****                                      (uint32) (CY_FLASH_PAGE_LATCH_START_ADDR             << CY_FLA
 185:.\Generated_Source\PSoC4/CyFlash.c ****                                      (uint32) (CY_FLASH_KEY_TWO(CY_FLASH_API_OPCODE_LOAD) << CY_FLA
 186:.\Generated_Source\PSoC4/CyFlash.c ****                                      CY_FLASH_KEY_ONE;
 187:.\Generated_Source\PSoC4/CyFlash.c ****                     parameters[1u] = CY_FLASH_SIZEOF_ROW - 1u;
 188:.\Generated_Source\PSoC4/CyFlash.c **** 
 189:.\Generated_Source\PSoC4/CyFlash.c ****                     CY_FLASH_CPUSS_SYSARG_REG = (uint32) &parameters[0u];
 190:.\Generated_Source\PSoC4/CyFlash.c ****                     CY_FLASH_CPUSS_SYSREQ_REG = CY_FLASH_CPUSS_REQ_START | CY_FLASH_API_OPCODE_LOAD
 191:.\Generated_Source\PSoC4/CyFlash.c ****                     retValue = CY_FLASH_API_RETURN;
 192:.\Generated_Source\PSoC4/CyFlash.c **** 
 193:.\Generated_Source\PSoC4/CyFlash.c **** 
 194:.\Generated_Source\PSoC4/CyFlash.c ****                     if(retValue == CY_SYS_FLASH_SUCCESS)
 195:.\Generated_Source\PSoC4/CyFlash.c ****                     {
 196:.\Generated_Source\PSoC4/CyFlash.c ****                         /* Program Row */
 197:.\Generated_Source\PSoC4/CyFlash.c ****                         parameters[0u]  =
 198:.\Generated_Source\PSoC4/CyFlash.c ****                             (uint32) (((uint32) CY_FLASH_KEY_TWO(CY_FLASH_API_OPCODE_PROGRAM_ROW) <
 199:.\Generated_Source\PSoC4/CyFlash.c ****                                                     CY_FLASH_PARAM_KEY_TWO_OFFSET) | CY_FLASH_KEY_O
 200:.\Generated_Source\PSoC4/CyFlash.c ****                         parameters[0u] |= (uint32)(rowNum << 16u);
 201:.\Generated_Source\PSoC4/CyFlash.c **** 
 202:.\Generated_Source\PSoC4/CyFlash.c ****                         CY_FLASH_CPUSS_SYSARG_REG = (uint32) &parameters[0u];
 203:.\Generated_Source\PSoC4/CyFlash.c ****                         CY_FLASH_CPUSS_SYSREQ_REG = CY_FLASH_CPUSS_REQ_START | CY_FLASH_API_OPCODE_
 204:.\Generated_Source\PSoC4/CyFlash.c ****                         retValue = CY_FLASH_API_RETURN;
ARM GAS  C:\Users\Luci\AppData\Local\Temp\ccJzKsTh.s 			page 5


 205:.\Generated_Source\PSoC4/CyFlash.c ****                     }
 206:.\Generated_Source\PSoC4/CyFlash.c ****                 }
 207:.\Generated_Source\PSoC4/CyFlash.c ****             #endif  /* (CY_FLASH_CHECKSUM_WORKAROUND) */
 208:.\Generated_Source\PSoC4/CyFlash.c **** 
 209:.\Generated_Source\PSoC4/CyFlash.c ****             if(clkCnfRetValue == CY_SYS_FLASH_SUCCESS)
 210:.\Generated_Source\PSoC4/CyFlash.c ****             {
 211:.\Generated_Source\PSoC4/CyFlash.c ****                 clkCnfRetValue = CySysFlashClockRestore();
 212:.\Generated_Source\PSoC4/CyFlash.c ****             }
 213:.\Generated_Source\PSoC4/CyFlash.c **** 
 214:.\Generated_Source\PSoC4/CyFlash.c ****             CyExitCriticalSection(interruptState);
 215:.\Generated_Source\PSoC4/CyFlash.c ****         }
 216:.\Generated_Source\PSoC4/CyFlash.c ****     }
 217:.\Generated_Source\PSoC4/CyFlash.c ****     else
 218:.\Generated_Source\PSoC4/CyFlash.c ****     {
 219:.\Generated_Source\PSoC4/CyFlash.c ****         retValue = CY_SYS_FLASH_INVALID_ADDR;
 220:.\Generated_Source\PSoC4/CyFlash.c ****     }
 221:.\Generated_Source\PSoC4/CyFlash.c **** 
 222:.\Generated_Source\PSoC4/CyFlash.c ****     return (retValue);
 223:.\Generated_Source\PSoC4/CyFlash.c **** }
 224:.\Generated_Source\PSoC4/CyFlash.c **** 
 225:.\Generated_Source\PSoC4/CyFlash.c **** 
 226:.\Generated_Source\PSoC4/CyFlash.c **** /*******************************************************************************
 227:.\Generated_Source\PSoC4/CyFlash.c **** * Function Name: CySysFlashSetWaitCycles
 228:.\Generated_Source\PSoC4/CyFlash.c **** ********************************************************************************
 229:.\Generated_Source\PSoC4/CyFlash.c **** *
 230:.\Generated_Source\PSoC4/CyFlash.c **** * Summary:
 231:.\Generated_Source\PSoC4/CyFlash.c **** *  Sets the number of clock cycles the cache will wait before it samples data
 232:.\Generated_Source\PSoC4/CyFlash.c **** *  coming back from Flash. This function must be called before increasing the
 233:.\Generated_Source\PSoC4/CyFlash.c **** *  SYSCLK clock frequency. It can optionally be called after lowering SYSCLK
 234:.\Generated_Source\PSoC4/CyFlash.c **** *  clock frequency in order to improve the CPU performance.
 235:.\Generated_Source\PSoC4/CyFlash.c **** *
 236:.\Generated_Source\PSoC4/CyFlash.c **** * Parameters:
 237:.\Generated_Source\PSoC4/CyFlash.c **** *  freq: The System clock frequency in MHz. Note: Invalid frequency will be
 238:.\Generated_Source\PSoC4/CyFlash.c **** *  ignored in Release mode and the CPU will be halted if project is compiled in
 239:.\Generated_Source\PSoC4/CyFlash.c **** *  Debug mode.
 240:.\Generated_Source\PSoC4/CyFlash.c **** *
 241:.\Generated_Source\PSoC4/CyFlash.c **** * Return:
 242:.\Generated_Source\PSoC4/CyFlash.c **** *  None
 243:.\Generated_Source\PSoC4/CyFlash.c **** *
 244:.\Generated_Source\PSoC4/CyFlash.c **** *******************************************************************************/
 245:.\Generated_Source\PSoC4/CyFlash.c **** void CySysFlashSetWaitCycles(uint32 freq)
 246:.\Generated_Source\PSoC4/CyFlash.c **** {
 247:.\Generated_Source\PSoC4/CyFlash.c ****     uint8  interruptState;
 248:.\Generated_Source\PSoC4/CyFlash.c **** 
 249:.\Generated_Source\PSoC4/CyFlash.c ****     interruptState = CyEnterCriticalSection();
 250:.\Generated_Source\PSoC4/CyFlash.c **** 
 251:.\Generated_Source\PSoC4/CyFlash.c ****     #if (CY_IP_CPUSS)
 252:.\Generated_Source\PSoC4/CyFlash.c **** 
 253:.\Generated_Source\PSoC4/CyFlash.c ****         if ( freq <= CY_FLASH_SYSCLK_BOUNDARY_MHZ )
 254:.\Generated_Source\PSoC4/CyFlash.c ****         {
 255:.\Generated_Source\PSoC4/CyFlash.c ****             CY_SYS_CLK_SELECT_REG &= (uint32)(~CY_FLASH_WAIT_STATE_EN);
 256:.\Generated_Source\PSoC4/CyFlash.c ****         }
 257:.\Generated_Source\PSoC4/CyFlash.c ****         else
 258:.\Generated_Source\PSoC4/CyFlash.c ****         {
 259:.\Generated_Source\PSoC4/CyFlash.c ****             CY_SYS_CLK_SELECT_REG |= CY_FLASH_WAIT_STATE_EN;
 260:.\Generated_Source\PSoC4/CyFlash.c ****         }
 261:.\Generated_Source\PSoC4/CyFlash.c ****     #else
ARM GAS  C:\Users\Luci\AppData\Local\Temp\ccJzKsTh.s 			page 6


 262:.\Generated_Source\PSoC4/CyFlash.c ****         if (freq <= CY_FLASH_CTL_WS_0_FREQ_MAX)
 263:.\Generated_Source\PSoC4/CyFlash.c ****         {
 264:.\Generated_Source\PSoC4/CyFlash.c ****             CY_FLASH_CTL_REG = (CY_FLASH_CTL_REG & ~CY_FLASH_CTL_WS_MASK) | CY_FLASH_CTL_WS_0_VALUE
 265:.\Generated_Source\PSoC4/CyFlash.c ****         } else
 266:.\Generated_Source\PSoC4/CyFlash.c ****         if (freq <= CY_FLASH_CTL_WS_1_FREQ_MAX)
 267:.\Generated_Source\PSoC4/CyFlash.c ****         {
 268:.\Generated_Source\PSoC4/CyFlash.c ****             CY_FLASH_CTL_REG = (CY_FLASH_CTL_REG & ~CY_FLASH_CTL_WS_MASK) | CY_FLASH_CTL_WS_1_VALUE
 269:.\Generated_Source\PSoC4/CyFlash.c ****         } else
 270:.\Generated_Source\PSoC4/CyFlash.c ****     #if (CY_IP_FMLT || CY_IP_S8FS)
 271:.\Generated_Source\PSoC4/CyFlash.c ****         if (freq <= CY_FLASH_CTL_WS_2_FREQ_MAX)
 272:.\Generated_Source\PSoC4/CyFlash.c ****         {
 273:.\Generated_Source\PSoC4/CyFlash.c ****             CY_FLASH_CTL_REG = (CY_FLASH_CTL_REG & ~CY_FLASH_CTL_WS_MASK) | CY_FLASH_CTL_WS_2_VALUE
 274:.\Generated_Source\PSoC4/CyFlash.c ****         }
 275:.\Generated_Source\PSoC4/CyFlash.c ****         else
 276:.\Generated_Source\PSoC4/CyFlash.c ****     #endif  /* (CY_IP_FMLT || CY_IP_S8FS) */
 277:.\Generated_Source\PSoC4/CyFlash.c ****         {
 278:.\Generated_Source\PSoC4/CyFlash.c ****             /* Halt CPU in debug mode if frequency is invalid */
 279:.\Generated_Source\PSoC4/CyFlash.c ****             CYASSERT(0u != 0u);
 280:.\Generated_Source\PSoC4/CyFlash.c ****         }
 281:.\Generated_Source\PSoC4/CyFlash.c **** 
 282:.\Generated_Source\PSoC4/CyFlash.c ****     #endif  /* (CY_IP_CPUSS) */
 283:.\Generated_Source\PSoC4/CyFlash.c **** 
 284:.\Generated_Source\PSoC4/CyFlash.c ****     CyExitCriticalSection(interruptState);
 285:.\Generated_Source\PSoC4/CyFlash.c **** }
 286:.\Generated_Source\PSoC4/CyFlash.c **** 
 287:.\Generated_Source\PSoC4/CyFlash.c **** 
 288:.\Generated_Source\PSoC4/CyFlash.c **** /*******************************************************************************
 289:.\Generated_Source\PSoC4/CyFlash.c **** * Function Name: CySysFlashClockBackup
 290:.\Generated_Source\PSoC4/CyFlash.c **** ********************************************************************************
 291:.\Generated_Source\PSoC4/CyFlash.c **** *
 292:.\Generated_Source\PSoC4/CyFlash.c **** * Summary:
 293:.\Generated_Source\PSoC4/CyFlash.c **** *  Backups the device clock configuration.
 294:.\Generated_Source\PSoC4/CyFlash.c **** *
 295:.\Generated_Source\PSoC4/CyFlash.c **** * Parameters:
 296:.\Generated_Source\PSoC4/CyFlash.c **** *  None
 297:.\Generated_Source\PSoC4/CyFlash.c **** *
 298:.\Generated_Source\PSoC4/CyFlash.c **** * Return:
 299:.\Generated_Source\PSoC4/CyFlash.c **** *  The same as CySysFlashWriteRow().
 300:.\Generated_Source\PSoC4/CyFlash.c **** *
 301:.\Generated_Source\PSoC4/CyFlash.c **** *******************************************************************************/
 302:.\Generated_Source\PSoC4/CyFlash.c **** static cystatus CySysFlashClockBackup(void)
 303:.\Generated_Source\PSoC4/CyFlash.c **** {
  25              		.loc 1 303 0
  26              		.cfi_startproc
  27              	.LVL0:
 304:.\Generated_Source\PSoC4/CyFlash.c ****     cystatus retValue = CY_SYS_FLASH_SUCCESS;
 305:.\Generated_Source\PSoC4/CyFlash.c **** #if(!CY_IP_FM)
 306:.\Generated_Source\PSoC4/CyFlash.c ****     #if !(CY_PSOC4_4000)
 307:.\Generated_Source\PSoC4/CyFlash.c ****         #if (CY_IP_SPCIF_SYNCHRONOUS)
 308:.\Generated_Source\PSoC4/CyFlash.c ****             volatile uint32   parameters[2u];
 309:.\Generated_Source\PSoC4/CyFlash.c ****         #endif /* (CY_IP_SPCIF_SYNCHRONOUS) */
 310:.\Generated_Source\PSoC4/CyFlash.c ****     #endif  /* !(CY_PSOC4_4000) */
 311:.\Generated_Source\PSoC4/CyFlash.c **** #endif  /* (!CY_IP_FM) */
 312:.\Generated_Source\PSoC4/CyFlash.c **** 
 313:.\Generated_Source\PSoC4/CyFlash.c **** #if(CY_IP_FM)
 314:.\Generated_Source\PSoC4/CyFlash.c **** 
 315:.\Generated_Source\PSoC4/CyFlash.c ****     /***************************************************************
ARM GAS  C:\Users\Luci\AppData\Local\Temp\ccJzKsTh.s 			page 7


 316:.\Generated_Source\PSoC4/CyFlash.c ****     * Preserve IMO configuration that could be changed during
 317:.\Generated_Source\PSoC4/CyFlash.c ****     * system call execution (Cypress ID #150448).
 318:.\Generated_Source\PSoC4/CyFlash.c ****     ***************************************************************/
 319:.\Generated_Source\PSoC4/CyFlash.c ****     cySysFlashBackup.imoConfigReg = CY_SYS_CLK_IMO_CONFIG_REG;
 320:.\Generated_Source\PSoC4/CyFlash.c **** 
 321:.\Generated_Source\PSoC4/CyFlash.c **** #else   /* (CY_IP_FMLT) */
 322:.\Generated_Source\PSoC4/CyFlash.c **** 
 323:.\Generated_Source\PSoC4/CyFlash.c ****     #if (CY_PSOC4_4000)
 324:.\Generated_Source\PSoC4/CyFlash.c **** 
 325:.\Generated_Source\PSoC4/CyFlash.c ****         /***************************************************************************
 326:.\Generated_Source\PSoC4/CyFlash.c ****         * Perform firmware clock settings backup for the PSOC4 4000 devices (the
 327:.\Generated_Source\PSoC4/CyFlash.c ****         * corresponding system call is not available).
 328:.\Generated_Source\PSoC4/CyFlash.c ****         ***************************************************************************/
 329:.\Generated_Source\PSoC4/CyFlash.c **** 
 330:.\Generated_Source\PSoC4/CyFlash.c ****         /***************************************************************************
 331:.\Generated_Source\PSoC4/CyFlash.c ****         * The registers listed below are modified by CySysFlashClockConfig().
 332:.\Generated_Source\PSoC4/CyFlash.c ****         *
 333:.\Generated_Source\PSoC4/CyFlash.c ****         * The registers to be saved:
 334:.\Generated_Source\PSoC4/CyFlash.c ****         * - CY_SYS_CLK_IMO_CONFIG_REG - IMO enable state.
 335:.\Generated_Source\PSoC4/CyFlash.c ****         * - CY_SYS_CLK_SELECT_REG     - HFCLK source, divider, pump source. Save
 336:.\Generated_Source\PSoC4/CyFlash.c ****         *                               entire register as it can be directly
 337:.\Generated_Source\PSoC4/CyFlash.c ****         *                               written on restore (no special
 338:.\Generated_Source\PSoC4/CyFlash.c ****         *                               requirements).
 339:.\Generated_Source\PSoC4/CyFlash.c ****         * - CY_SYS_CLK_IMO_SELECT_REG - Save IMO frequency.
 340:.\Generated_Source\PSoC4/CyFlash.c ****         *
 341:.\Generated_Source\PSoC4/CyFlash.c ****         * The registers not to be saved:
 342:.\Generated_Source\PSoC4/CyFlash.c ****         * - CY_SYS_CLK_IMO_TRIM1_REG  - No need to save. Function of frequency.
 343:.\Generated_Source\PSoC4/CyFlash.c ****         *                               Restored by CySysClkWriteImoFreq().
 344:.\Generated_Source\PSoC4/CyFlash.c ****         * - CY_SYS_CLK_IMO_TRIM3_REG  - No need to save. Function of frequency.
 345:.\Generated_Source\PSoC4/CyFlash.c ****         *                               Restored by CySysClkWriteImoFreq().
 346:.\Generated_Source\PSoC4/CyFlash.c ****         * - REG_CPUSS_FLASH_CTL       - Flash wait cycles. Unmodified due to system
 347:.\Generated_Source\PSoC4/CyFlash.c ****         *                               clock 16 MHz limit.
 348:.\Generated_Source\PSoC4/CyFlash.c ****         ***************************************************************************/
 349:.\Generated_Source\PSoC4/CyFlash.c **** 
 350:.\Generated_Source\PSoC4/CyFlash.c ****         cySysFlashBackup.clkSelectReg = CY_SYS_CLK_SELECT_REG;
 351:.\Generated_Source\PSoC4/CyFlash.c ****         cySysFlashBackup.clkImoEna    = CY_SYS_CLK_IMO_CONFIG_REG & CY_SYS_CLK_IMO_CONFIG_ENABLE;
 352:.\Generated_Source\PSoC4/CyFlash.c ****         cySysFlashBackup.clkImoFreq   = CY_SYS_CLK_IMO_MIN_FREQ_MHZ + (CY_SYS_CLK_IMO_SELECT_REG <<
 353:.\Generated_Source\PSoC4/CyFlash.c **** 
 354:.\Generated_Source\PSoC4/CyFlash.c ****     #else
 355:.\Generated_Source\PSoC4/CyFlash.c **** 
 356:.\Generated_Source\PSoC4/CyFlash.c ****         #if (CY_IP_SPCIF_SYNCHRONOUS)
 357:.\Generated_Source\PSoC4/CyFlash.c ****             /* FM-Lite Clock Backup System Call */
 358:.\Generated_Source\PSoC4/CyFlash.c ****             parameters[0u] =
 359:.\Generated_Source\PSoC4/CyFlash.c ****                 (uint32) ((CY_FLASH_KEY_TWO(CY_FLASH_API_OPCODE_CLK_BACKUP) <<  CY_FLASH_PARAM_KEY_
 360:.\Generated_Source\PSoC4/CyFlash.c ****                             CY_FLASH_KEY_ONE);
 361:.\Generated_Source\PSoC4/CyFlash.c ****             parameters[1u] = (uint32) &cySysFlashBackup.clockSettings[0u];
 362:.\Generated_Source\PSoC4/CyFlash.c ****             CY_FLASH_CPUSS_SYSARG_REG = (uint32) &parameters[0u];
 363:.\Generated_Source\PSoC4/CyFlash.c ****             CY_FLASH_CPUSS_SYSREQ_REG = CY_FLASH_CPUSS_REQ_START | CY_FLASH_API_OPCODE_CLK_BACKUP;
 364:.\Generated_Source\PSoC4/CyFlash.c ****             retValue = CY_FLASH_API_RETURN;
 365:.\Generated_Source\PSoC4/CyFlash.c ****         #endif /* (CY_IP_SPCIF_SYNCHRONOUS) */
 366:.\Generated_Source\PSoC4/CyFlash.c **** 
 367:.\Generated_Source\PSoC4/CyFlash.c ****     #endif  /* (CY_PSOC4_4000) */
 368:.\Generated_Source\PSoC4/CyFlash.c **** 
 369:.\Generated_Source\PSoC4/CyFlash.c **** #endif  /* (CY_IP_FM) */
 370:.\Generated_Source\PSoC4/CyFlash.c **** 
 371:.\Generated_Source\PSoC4/CyFlash.c ****     return (retValue);
 372:.\Generated_Source\PSoC4/CyFlash.c **** }
ARM GAS  C:\Users\Luci\AppData\Local\Temp\ccJzKsTh.s 			page 8


  28              		.loc 1 372 0
  29 0000 0020     		mov	r0, #0
  30              		@ sp needed
  31 0002 7047     		bx	lr
  32              		.cfi_endproc
  33              	.LFE4:
  34              		.size	CySysFlashClockBackup, .-CySysFlashClockBackup
  35              		.section	.text.CySysFlashClockRestore,"ax",%progbits
  36              		.align	2
  37              		.code	16
  38              		.thumb_func
  39              		.type	CySysFlashClockRestore, %function
  40              	CySysFlashClockRestore:
  41              	.LFB5:
 373:.\Generated_Source\PSoC4/CyFlash.c **** 
 374:.\Generated_Source\PSoC4/CyFlash.c **** 
 375:.\Generated_Source\PSoC4/CyFlash.c **** #if(CY_IP_FMLT)
 376:.\Generated_Source\PSoC4/CyFlash.c **** /*******************************************************************************
 377:.\Generated_Source\PSoC4/CyFlash.c **** * Function Name: CySysFlashClockConfig
 378:.\Generated_Source\PSoC4/CyFlash.c **** ********************************************************************************
 379:.\Generated_Source\PSoC4/CyFlash.c **** *
 380:.\Generated_Source\PSoC4/CyFlash.c **** * Summary:
 381:.\Generated_Source\PSoC4/CyFlash.c **** *  Configures the device clocks for the flash writing.
 382:.\Generated_Source\PSoC4/CyFlash.c **** *
 383:.\Generated_Source\PSoC4/CyFlash.c **** * Parameters:
 384:.\Generated_Source\PSoC4/CyFlash.c **** *  None
 385:.\Generated_Source\PSoC4/CyFlash.c **** *
 386:.\Generated_Source\PSoC4/CyFlash.c **** * Return:
 387:.\Generated_Source\PSoC4/CyFlash.c **** *  The same as CySysFlashWriteRow().
 388:.\Generated_Source\PSoC4/CyFlash.c **** *
 389:.\Generated_Source\PSoC4/CyFlash.c **** *******************************************************************************/
 390:.\Generated_Source\PSoC4/CyFlash.c **** static cystatus CySysFlashClockConfig(void)
 391:.\Generated_Source\PSoC4/CyFlash.c **** {
 392:.\Generated_Source\PSoC4/CyFlash.c ****     cystatus retValue = CY_SYS_FLASH_SUCCESS;
 393:.\Generated_Source\PSoC4/CyFlash.c **** 
 394:.\Generated_Source\PSoC4/CyFlash.c ****     /***************************************************************************
 395:.\Generated_Source\PSoC4/CyFlash.c ****     * The FM-Lite IP uses the IMO at 48MHz for the pump clock and SPC timer
 396:.\Generated_Source\PSoC4/CyFlash.c ****     * clock. The PUMP_SEL and HF clock must be set to IMO before calling Flash
 397:.\Generated_Source\PSoC4/CyFlash.c ****     * write or erase operation.
 398:.\Generated_Source\PSoC4/CyFlash.c ****     ***************************************************************************/
 399:.\Generated_Source\PSoC4/CyFlash.c **** #if (CY_PSOC4_4000)
 400:.\Generated_Source\PSoC4/CyFlash.c **** 
 401:.\Generated_Source\PSoC4/CyFlash.c ****     /***************************************************************************
 402:.\Generated_Source\PSoC4/CyFlash.c ****     * Perform firmware clock settings setup for the PSOC4 4000 devices (the
 403:.\Generated_Source\PSoC4/CyFlash.c ****     * corresponding system call is not reliable):
 404:.\Generated_Source\PSoC4/CyFlash.c ****     * - The IMO frequency should be 48 MHz
 405:.\Generated_Source\PSoC4/CyFlash.c ****     * - The IMO should be source for the HFCLK
 406:.\Generated_Source\PSoC4/CyFlash.c ****     * - The IMO should be the source for the charge pump clock
 407:.\Generated_Source\PSoC4/CyFlash.c ****     *
 408:.\Generated_Source\PSoC4/CyFlash.c ****     * Note The structure members used below are initialized by
 409:.\Generated_Source\PSoC4/CyFlash.c ****     * the CySysFlashClockBackup() function.
 410:.\Generated_Source\PSoC4/CyFlash.c ****     ***************************************************************************/
 411:.\Generated_Source\PSoC4/CyFlash.c ****     if ((cySysFlashBackup.clkImoFreq != 48u) ||
 412:.\Generated_Source\PSoC4/CyFlash.c ****         ((cySysFlashBackup.clkSelectReg & CY_SYS_CLK_SELECT_DIRECT_SEL_MASK) != CY_SYS_CLK_HFCLK_IM
 413:.\Generated_Source\PSoC4/CyFlash.c ****         (((cySysFlashBackup.clkSelectReg >> CY_SYS_CLK_SELECT_PUMP_SEL_SHIFT) & CY_SYS_CLK_SELECT_P
 414:.\Generated_Source\PSoC4/CyFlash.c ****             CY_SYS_CLK_SELECT_PUMP_SEL_IMO))
 415:.\Generated_Source\PSoC4/CyFlash.c ****     {
ARM GAS  C:\Users\Luci\AppData\Local\Temp\ccJzKsTh.s 			page 9


 416:.\Generated_Source\PSoC4/CyFlash.c ****         /***********************************************************************
 417:.\Generated_Source\PSoC4/CyFlash.c ****          Set HFCLK divider to divide-by-4 to ensure that System clock frequency
 418:.\Generated_Source\PSoC4/CyFlash.c ****         * is within the valid limit (16 MHz for the PSoC4 4000).
 419:.\Generated_Source\PSoC4/CyFlash.c ****         ***********************************************************************/
 420:.\Generated_Source\PSoC4/CyFlash.c ****         CySysClkWriteHfclkDiv(CY_SYS_CLK_HFCLK_DIV_4);
 421:.\Generated_Source\PSoC4/CyFlash.c **** 
 422:.\Generated_Source\PSoC4/CyFlash.c ****         /* The IMO frequency should be 48 MHz */
 423:.\Generated_Source\PSoC4/CyFlash.c ****         if (cySysFlashBackup.clkImoFreq != 48u)
 424:.\Generated_Source\PSoC4/CyFlash.c ****         {
 425:.\Generated_Source\PSoC4/CyFlash.c ****             CySysClkWriteImoFreq(48u);
 426:.\Generated_Source\PSoC4/CyFlash.c ****         }
 427:.\Generated_Source\PSoC4/CyFlash.c ****         CySysClkImoStart();
 428:.\Generated_Source\PSoC4/CyFlash.c **** 
 429:.\Generated_Source\PSoC4/CyFlash.c ****         /* The IMO should be source for the HFCLK */
 430:.\Generated_Source\PSoC4/CyFlash.c ****         CySysClkWriteHfclkDirect(CY_SYS_CLK_HFCLK_IMO);
 431:.\Generated_Source\PSoC4/CyFlash.c **** 
 432:.\Generated_Source\PSoC4/CyFlash.c ****         /* The IMO should be the source for the charge pump clock */
 433:.\Generated_Source\PSoC4/CyFlash.c ****         CY_SYS_CLK_SELECT_REG =  (CY_SYS_CLK_SELECT_REG &
 434:.\Generated_Source\PSoC4/CyFlash.c ****             ((uint32)~(uint32)(CY_SYS_CLK_SELECT_PUMP_SEL_MASK << CY_SYS_CLK_SELECT_PUMP_SEL_SHIFT)
 435:.\Generated_Source\PSoC4/CyFlash.c ****             ((uint32)((uint32)1u << CY_SYS_CLK_SELECT_PUMP_SEL_SHIFT));
 436:.\Generated_Source\PSoC4/CyFlash.c ****     }
 437:.\Generated_Source\PSoC4/CyFlash.c **** 
 438:.\Generated_Source\PSoC4/CyFlash.c **** #else
 439:.\Generated_Source\PSoC4/CyFlash.c **** 
 440:.\Generated_Source\PSoC4/CyFlash.c ****     #if (CY_IP_SPCIF_SYNCHRONOUS)
 441:.\Generated_Source\PSoC4/CyFlash.c ****         /* FM-Lite Clock Configuration */
 442:.\Generated_Source\PSoC4/CyFlash.c ****         CY_FLASH_CPUSS_SYSARG_REG =
 443:.\Generated_Source\PSoC4/CyFlash.c ****             (uint32) ((CY_FLASH_KEY_TWO(CY_FLASH_API_OPCODE_CLK_CONFIG) <<  CY_FLASH_PARAM_KEY_TWO_
 444:.\Generated_Source\PSoC4/CyFlash.c ****                         CY_FLASH_KEY_ONE);
 445:.\Generated_Source\PSoC4/CyFlash.c ****         CY_FLASH_CPUSS_SYSREQ_REG = CY_FLASH_CPUSS_REQ_START | CY_FLASH_API_OPCODE_CLK_CONFIG;
 446:.\Generated_Source\PSoC4/CyFlash.c ****         retValue = CY_FLASH_API_RETURN;
 447:.\Generated_Source\PSoC4/CyFlash.c ****     #endif /* (CY_IP_SPCIF_SYNCHRONOUS) */
 448:.\Generated_Source\PSoC4/CyFlash.c **** 
 449:.\Generated_Source\PSoC4/CyFlash.c **** #endif  /* (CY_PSOC4_4000) */
 450:.\Generated_Source\PSoC4/CyFlash.c **** 
 451:.\Generated_Source\PSoC4/CyFlash.c ****     return (retValue);
 452:.\Generated_Source\PSoC4/CyFlash.c **** }
 453:.\Generated_Source\PSoC4/CyFlash.c **** #endif  /* (CY_IP_FMLT) */
 454:.\Generated_Source\PSoC4/CyFlash.c **** 
 455:.\Generated_Source\PSoC4/CyFlash.c **** 
 456:.\Generated_Source\PSoC4/CyFlash.c **** /*******************************************************************************
 457:.\Generated_Source\PSoC4/CyFlash.c **** * Function Name: CySysFlashClockRestore
 458:.\Generated_Source\PSoC4/CyFlash.c **** ********************************************************************************
 459:.\Generated_Source\PSoC4/CyFlash.c **** *
 460:.\Generated_Source\PSoC4/CyFlash.c **** * Summary:
 461:.\Generated_Source\PSoC4/CyFlash.c **** *  Restores the device clock configuration.
 462:.\Generated_Source\PSoC4/CyFlash.c **** *
 463:.\Generated_Source\PSoC4/CyFlash.c **** * Parameters:
 464:.\Generated_Source\PSoC4/CyFlash.c **** *  None
 465:.\Generated_Source\PSoC4/CyFlash.c **** *
 466:.\Generated_Source\PSoC4/CyFlash.c **** * Return:
 467:.\Generated_Source\PSoC4/CyFlash.c **** *  The same as CySysFlashWriteRow().
 468:.\Generated_Source\PSoC4/CyFlash.c **** *
 469:.\Generated_Source\PSoC4/CyFlash.c **** *******************************************************************************/
 470:.\Generated_Source\PSoC4/CyFlash.c **** static cystatus CySysFlashClockRestore(void)
 471:.\Generated_Source\PSoC4/CyFlash.c **** {
  42              		.loc 1 471 0
ARM GAS  C:\Users\Luci\AppData\Local\Temp\ccJzKsTh.s 			page 10


  43              		.cfi_startproc
  44              	.LVL1:
 472:.\Generated_Source\PSoC4/CyFlash.c ****     cystatus retValue = CY_SYS_FLASH_SUCCESS;
 473:.\Generated_Source\PSoC4/CyFlash.c **** #if(!CY_IP_FM)
 474:.\Generated_Source\PSoC4/CyFlash.c ****     #if !(CY_PSOC4_4000)
 475:.\Generated_Source\PSoC4/CyFlash.c ****         #if (CY_IP_SPCIF_SYNCHRONOUS)
 476:.\Generated_Source\PSoC4/CyFlash.c ****             volatile uint32   parameters[2u];
 477:.\Generated_Source\PSoC4/CyFlash.c ****         #endif /* (CY_IP_SPCIF_SYNCHRONOUS) */
 478:.\Generated_Source\PSoC4/CyFlash.c ****     #endif  /* !(CY_PSOC4_4000) */
 479:.\Generated_Source\PSoC4/CyFlash.c **** #endif  /* (!CY_IP_FM) */
 480:.\Generated_Source\PSoC4/CyFlash.c **** 
 481:.\Generated_Source\PSoC4/CyFlash.c **** #if(CY_IP_FM)
 482:.\Generated_Source\PSoC4/CyFlash.c **** 
 483:.\Generated_Source\PSoC4/CyFlash.c ****     /***************************************************************
 484:.\Generated_Source\PSoC4/CyFlash.c ****     * Restore IMO configuration that could be changed during
 485:.\Generated_Source\PSoC4/CyFlash.c ****     * system call execution (Cypress ID #150448).
 486:.\Generated_Source\PSoC4/CyFlash.c ****     ***************************************************************/
 487:.\Generated_Source\PSoC4/CyFlash.c ****     CY_SYS_CLK_IMO_CONFIG_REG = cySysFlashBackup.imoConfigReg;
 488:.\Generated_Source\PSoC4/CyFlash.c **** 
 489:.\Generated_Source\PSoC4/CyFlash.c **** #else
 490:.\Generated_Source\PSoC4/CyFlash.c **** 
 491:.\Generated_Source\PSoC4/CyFlash.c ****     #if (CY_PSOC4_4000)
 492:.\Generated_Source\PSoC4/CyFlash.c **** 
 493:.\Generated_Source\PSoC4/CyFlash.c ****         /***************************************************************************
 494:.\Generated_Source\PSoC4/CyFlash.c ****         * Perform firmware clock settings restore for the PSOC4 4000 devices (the
 495:.\Generated_Source\PSoC4/CyFlash.c ****         * corresponding system call is not available).
 496:.\Generated_Source\PSoC4/CyFlash.c ****         ***************************************************************************/
 497:.\Generated_Source\PSoC4/CyFlash.c **** 
 498:.\Generated_Source\PSoC4/CyFlash.c ****         /* Restore clock settings */
 499:.\Generated_Source\PSoC4/CyFlash.c ****         if ((cySysFlashBackup.clkImoFreq != 48u) ||
 500:.\Generated_Source\PSoC4/CyFlash.c ****             ((cySysFlashBackup.clkSelectReg & CY_SYS_CLK_SELECT_DIRECT_SEL_MASK) != CY_SYS_CLK_HFCL
 501:.\Generated_Source\PSoC4/CyFlash.c ****             (((cySysFlashBackup.clkSelectReg >> CY_SYS_CLK_SELECT_PUMP_SEL_SHIFT) & CY_SYS_CLK_SELE
 502:.\Generated_Source\PSoC4/CyFlash.c ****                 CY_SYS_CLK_SELECT_PUMP_SEL_IMO))
 503:.\Generated_Source\PSoC4/CyFlash.c ****         {
 504:.\Generated_Source\PSoC4/CyFlash.c ****             /* Restore IMO frequency if needed */
 505:.\Generated_Source\PSoC4/CyFlash.c ****             if (cySysFlashBackup.clkImoFreq != 48u)
 506:.\Generated_Source\PSoC4/CyFlash.c ****             {
 507:.\Generated_Source\PSoC4/CyFlash.c ****                 CySysClkWriteImoFreq(cySysFlashBackup.clkImoFreq);
 508:.\Generated_Source\PSoC4/CyFlash.c ****             }
 509:.\Generated_Source\PSoC4/CyFlash.c **** 
 510:.\Generated_Source\PSoC4/CyFlash.c ****             /* Restore HFCLK clock source */
 511:.\Generated_Source\PSoC4/CyFlash.c ****             CySysClkWriteHfclkDirect(cySysFlashBackup.clkSelectReg & CY_SYS_CLK_SELECT_DIRECT_SEL_M
 512:.\Generated_Source\PSoC4/CyFlash.c **** 
 513:.\Generated_Source\PSoC4/CyFlash.c ****             /* Restore HFCLK divider and source for pump  */
 514:.\Generated_Source\PSoC4/CyFlash.c ****             CY_SYS_CLK_SELECT_REG = cySysFlashBackup.clkSelectReg;
 515:.\Generated_Source\PSoC4/CyFlash.c **** 
 516:.\Generated_Source\PSoC4/CyFlash.c ****             /* Stop IMO if needed */
 517:.\Generated_Source\PSoC4/CyFlash.c ****             if (0u == cySysFlashBackup.clkImoEna)
 518:.\Generated_Source\PSoC4/CyFlash.c ****             {
 519:.\Generated_Source\PSoC4/CyFlash.c ****                 CySysClkImoStop();
 520:.\Generated_Source\PSoC4/CyFlash.c ****             }
 521:.\Generated_Source\PSoC4/CyFlash.c ****         }
 522:.\Generated_Source\PSoC4/CyFlash.c **** 
 523:.\Generated_Source\PSoC4/CyFlash.c ****     #else
 524:.\Generated_Source\PSoC4/CyFlash.c **** 
 525:.\Generated_Source\PSoC4/CyFlash.c ****         #if (CY_IP_SPCIF_SYNCHRONOUS)
 526:.\Generated_Source\PSoC4/CyFlash.c ****             /* FM-Lite Clock Restore */
ARM GAS  C:\Users\Luci\AppData\Local\Temp\ccJzKsTh.s 			page 11


 527:.\Generated_Source\PSoC4/CyFlash.c ****             parameters[0u] =
 528:.\Generated_Source\PSoC4/CyFlash.c ****                 (uint32) ((CY_FLASH_KEY_TWO(CY_FLASH_API_OPCODE_CLK_RESTORE) <<  CY_FLASH_PARAM_KEY
 529:.\Generated_Source\PSoC4/CyFlash.c ****                             CY_FLASH_KEY_ONE);
 530:.\Generated_Source\PSoC4/CyFlash.c ****             parameters[1u] = (uint32) &cySysFlashBackup.clockSettings[0u];
 531:.\Generated_Source\PSoC4/CyFlash.c ****             CY_FLASH_CPUSS_SYSARG_REG = (uint32) &parameters[0u];
 532:.\Generated_Source\PSoC4/CyFlash.c ****             CY_FLASH_CPUSS_SYSREQ_REG = CY_FLASH_CPUSS_REQ_START | CY_FLASH_API_OPCODE_CLK_RESTORE;
 533:.\Generated_Source\PSoC4/CyFlash.c ****             retValue = CY_FLASH_API_RETURN;
 534:.\Generated_Source\PSoC4/CyFlash.c ****         #endif /* (CY_IP_SPCIF_SYNCHRONOUS) */
 535:.\Generated_Source\PSoC4/CyFlash.c **** 
 536:.\Generated_Source\PSoC4/CyFlash.c ****     #endif  /* (CY_PSOC4_4000) */
 537:.\Generated_Source\PSoC4/CyFlash.c **** 
 538:.\Generated_Source\PSoC4/CyFlash.c **** #endif  /* (CY_IP_FM) */
 539:.\Generated_Source\PSoC4/CyFlash.c **** 
 540:.\Generated_Source\PSoC4/CyFlash.c ****     return (retValue);
 541:.\Generated_Source\PSoC4/CyFlash.c **** }
  45              		.loc 1 541 0
  46 0000 0020     		mov	r0, #0
  47              		@ sp needed
  48 0002 7047     		bx	lr
  49              		.cfi_endproc
  50              	.LFE5:
  51              		.size	CySysFlashClockRestore, .-CySysFlashClockRestore
  52              		.section	.text.CySysFlashWriteRow,"ax",%progbits
  53              		.align	2
  54              		.global	CySysFlashWriteRow
  55              		.code	16
  56              		.thumb_func
  57              		.type	CySysFlashWriteRow, %function
  58              	CySysFlashWriteRow:
  59              	.LFB2:
  93:.\Generated_Source\PSoC4/CyFlash.c ****     volatile uint32 retValue = CY_SYS_FLASH_SUCCESS;
  60              		.loc 1 93 0
  61              		.cfi_startproc
  62              	.LVL2:
  63 0000 30B5     		push	{r4, r5, lr}
  64              		.cfi_def_cfa_offset 12
  65              		.cfi_offset 4, -12
  66              		.cfi_offset 5, -8
  67              		.cfi_offset 14, -4
  68 0002 C5B0     		sub	sp, sp, #276
  69              		.cfi_def_cfa_offset 288
  94:.\Generated_Source\PSoC4/CyFlash.c ****     volatile uint32 clkCnfRetValue = CY_SYS_FLASH_SUCCESS;
  70              		.loc 1 94 0
  71 0004 0023     		mov	r3, #0
  72 0006 4393     		str	r3, [sp, #268]
  95:.\Generated_Source\PSoC4/CyFlash.c ****     volatile uint32 parameters[(CY_FLASH_SIZEOF_ROW + CY_FLASH_SRAM_ROM_DATA) / sizeof(uint32)];
  73              		.loc 1 95 0
  74 0008 4293     		str	r3, [sp, #264]
 108:.\Generated_Source\PSoC4/CyFlash.c ****     {
  75              		.loc 1 108 0
  76 000a 2A4B     		ldr	r3, .L13
  77 000c 9842     		cmp	r0, r3
  78 000e 4CD8     		bhi	.L4
 108:.\Generated_Source\PSoC4/CyFlash.c ****     {
  79              		.loc 1 108 0 is_stmt 0 discriminator 1
  80 0010 0029     		cmp	r1, #0
  81 0012 4AD0     		beq	.L4
ARM GAS  C:\Users\Luci\AppData\Local\Temp\ccJzKsTh.s 			page 12


  82 0014 041C     		mov	r4, r0
 111:.\Generated_Source\PSoC4/CyFlash.c **** 
  83              		.loc 1 111 0 is_stmt 1
  84 0016 02A8     		add	r0, sp, #8
  85              	.LVL3:
  86 0018 8022     		mov	r2, #128
  87 001a 5200     		lsl	r2, r2, #1
  88 001c FFF7FEFF 		bl	memcpy
  89              	.LVL4:
 137:.\Generated_Source\PSoC4/CyFlash.c ****                          CY_FLASH_KEY_ONE;
  90              		.loc 1 137 0
  91 0020 254B     		ldr	r3, .L13+4
  92 0022 9C42     		cmp	r4, r3
  93 0024 01D9     		bls	.L11
  94 0026 254B     		ldr	r3, .L13+8
  95 0028 00E0     		b	.L5
  96              	.L11:
  97 002a 254B     		ldr	r3, .L13+12
  98              	.L5:
 135:.\Generated_Source\PSoC4/CyFlash.c ****                          (uint32) (CY_FLASH_PAGE_LATCH_START_ADDR             << CY_FLASH_PARAM_ADD
  99              		.loc 1 135 0
 100 002c 0093     		str	r3, [sp]
 139:.\Generated_Source\PSoC4/CyFlash.c **** 
 101              		.loc 1 139 0
 102 002e FF23     		mov	r3, #255
 103 0030 0193     		str	r3, [sp, #4]
 141:.\Generated_Source\PSoC4/CyFlash.c ****         CY_FLASH_CPUSS_SYSREQ_REG = CY_FLASH_CPUSS_REQ_START | CY_FLASH_API_OPCODE_LOAD;
 104              		.loc 1 141 0
 105 0032 244B     		ldr	r3, .L13+16
 106 0034 6A46     		mov	r2, sp
 107 0036 1A60     		str	r2, [r3]
 142:.\Generated_Source\PSoC4/CyFlash.c ****         retValue = CY_FLASH_API_RETURN;
 108              		.loc 1 142 0
 109 0038 2349     		ldr	r1, .L13+20
 110 003a 244A     		ldr	r2, .L13+24
 111 003c 1160     		str	r1, [r2]
 143:.\Generated_Source\PSoC4/CyFlash.c **** 
 112              		.loc 1 143 0
 113 003e 1B68     		ldr	r3, [r3]
 114 0040 1B0F     		lsr	r3, r3, #28
 115 0042 0A2B     		cmp	r3, #10
 116 0044 04D0     		beq	.L12
 143:.\Generated_Source\PSoC4/CyFlash.c **** 
 117              		.loc 1 143 0 is_stmt 0 discriminator 1
 118 0046 1F4B     		ldr	r3, .L13+16
 119 0048 1B68     		ldr	r3, [r3]
 120 004a 0F22     		mov	r2, #15
 121 004c 1340     		and	r3, r2
 122 004e 00E0     		b	.L6
 123              	.L12:
 143:.\Generated_Source\PSoC4/CyFlash.c **** 
 124              		.loc 1 143 0
 125 0050 0023     		mov	r3, #0
 126              	.L6:
 143:.\Generated_Source\PSoC4/CyFlash.c **** 
 127              		.loc 1 143 0 discriminator 4
 128 0052 4393     		str	r3, [sp, #268]
ARM GAS  C:\Users\Luci\AppData\Local\Temp\ccJzKsTh.s 			page 13


 145:.\Generated_Source\PSoC4/CyFlash.c ****         {
 129              		.loc 1 145 0 is_stmt 1 discriminator 4
 130 0054 439B     		ldr	r3, [sp, #268]
 131 0056 002B     		cmp	r3, #0
 132 0058 29D1     		bne	.L7
 153:.\Generated_Source\PSoC4/CyFlash.c **** 
 133              		.loc 1 153 0
 134 005a FFF7FEFF 		bl	CyEnterCriticalSection
 135              	.LVL5:
 136 005e 051C     		mov	r5, r0
 137              	.LVL6:
 155:.\Generated_Source\PSoC4/CyFlash.c **** 
 138              		.loc 1 155 0
 139 0060 FFF7FEFF 		bl	CySysFlashClockBackup
 140              	.LVL7:
 141 0064 4290     		str	r0, [sp, #264]
 164:.\Generated_Source\PSoC4/CyFlash.c ****             {
 142              		.loc 1 164 0
 143 0066 439B     		ldr	r3, [sp, #268]
 144 0068 002B     		cmp	r3, #0
 145 006a 14D1     		bne	.L8
 167:.\Generated_Source\PSoC4/CyFlash.c ****                 parameters[0u] |= (uint32)(rowNum << 16u);
 146              		.loc 1 167 0
 147 006c 184A     		ldr	r2, .L13+28
 148 006e 0092     		str	r2, [sp]
 168:.\Generated_Source\PSoC4/CyFlash.c **** 
 149              		.loc 1 168 0
 150 0070 009A     		ldr	r2, [sp]
 151 0072 2004     		lsl	r0, r4, #16
 152 0074 1043     		orr	r0, r2
 153 0076 0090     		str	r0, [sp]
 170:.\Generated_Source\PSoC4/CyFlash.c ****                 CY_FLASH_CPUSS_SYSREQ_REG = CY_FLASH_CPUSS_REQ_START | CY_FLASH_API_OPCODE_WRITE_RO
 154              		.loc 1 170 0
 155 0078 124A     		ldr	r2, .L13+16
 156 007a 6946     		mov	r1, sp
 157 007c 1160     		str	r1, [r2]
 171:.\Generated_Source\PSoC4/CyFlash.c ****                 retValue = CY_FLASH_API_RETURN;
 158              		.loc 1 171 0
 159 007e 1548     		ldr	r0, .L13+32
 160 0080 1249     		ldr	r1, .L13+24
 161 0082 0860     		str	r0, [r1]
 172:.\Generated_Source\PSoC4/CyFlash.c ****             }
 162              		.loc 1 172 0
 163 0084 1268     		ldr	r2, [r2]
 164 0086 120F     		lsr	r2, r2, #28
 165 0088 0A2A     		cmp	r2, #10
 166 008a 03D0     		beq	.L9
 172:.\Generated_Source\PSoC4/CyFlash.c ****             }
 167              		.loc 1 172 0 is_stmt 0 discriminator 1
 168 008c 0D4B     		ldr	r3, .L13+16
 169 008e 1B68     		ldr	r3, [r3]
 170 0090 0F22     		mov	r2, #15
 171 0092 1340     		and	r3, r2
 172              	.L9:
 172:.\Generated_Source\PSoC4/CyFlash.c ****             }
 173              		.loc 1 172 0 discriminator 4
 174 0094 4393     		str	r3, [sp, #268]
ARM GAS  C:\Users\Luci\AppData\Local\Temp\ccJzKsTh.s 			page 14


 175              	.L8:
 209:.\Generated_Source\PSoC4/CyFlash.c ****             {
 176              		.loc 1 209 0 is_stmt 1
 177 0096 429B     		ldr	r3, [sp, #264]
 178 0098 002B     		cmp	r3, #0
 179 009a 02D1     		bne	.L10
 211:.\Generated_Source\PSoC4/CyFlash.c ****             }
 180              		.loc 1 211 0
 181 009c FFF7FEFF 		bl	CySysFlashClockRestore
 182              	.LVL8:
 183 00a0 4290     		str	r0, [sp, #264]
 184              	.L10:
 214:.\Generated_Source\PSoC4/CyFlash.c ****         }
 185              		.loc 1 214 0
 186 00a2 281C     		mov	r0, r5
 187 00a4 FFF7FEFF 		bl	CyExitCriticalSection
 188              	.LVL9:
 189 00a8 01E0     		b	.L7
 190              	.LVL10:
 191              	.L4:
 219:.\Generated_Source\PSoC4/CyFlash.c ****     }
 192              		.loc 1 219 0
 193 00aa 0423     		mov	r3, #4
 194 00ac 4393     		str	r3, [sp, #268]
 195              	.LVL11:
 196              	.L7:
 222:.\Generated_Source\PSoC4/CyFlash.c **** }
 197              		.loc 1 222 0
 198 00ae 4398     		ldr	r0, [sp, #268]
 223:.\Generated_Source\PSoC4/CyFlash.c **** 
 199              		.loc 1 223 0
 200 00b0 45B0     		add	sp, sp, #276
 201              		@ sp needed
 202 00b2 30BD     		pop	{r4, r5, pc}
 203              	.L14:
 204              		.align	2
 205              	.L13:
 206 00b4 FF030000 		.word	1023
 207 00b8 FF010000 		.word	511
 208 00bc B6D70001 		.word	16832438
 209 00c0 B6D70000 		.word	55222
 210 00c4 08001040 		.word	1074790408
 211 00c8 04000080 		.word	-2147483644
 212 00cc 04001040 		.word	1074790404
 213 00d0 B6D80000 		.word	55478
 214 00d4 05000080 		.word	-2147483643
 215              		.cfi_endproc
 216              	.LFE2:
 217              		.size	CySysFlashWriteRow, .-CySysFlashWriteRow
 218              		.section	.text.CySysFlashSetWaitCycles,"ax",%progbits
 219              		.align	2
 220              		.global	CySysFlashSetWaitCycles
 221              		.code	16
 222              		.thumb_func
 223              		.type	CySysFlashSetWaitCycles, %function
 224              	CySysFlashSetWaitCycles:
 225              	.LFB3:
ARM GAS  C:\Users\Luci\AppData\Local\Temp\ccJzKsTh.s 			page 15


 246:.\Generated_Source\PSoC4/CyFlash.c ****     uint8  interruptState;
 226              		.loc 1 246 0
 227              		.cfi_startproc
 228              	.LVL12:
 229 0000 38B5     		push	{r3, r4, r5, lr}
 230              		.cfi_def_cfa_offset 16
 231              		.cfi_offset 3, -16
 232              		.cfi_offset 4, -12
 233              		.cfi_offset 5, -8
 234              		.cfi_offset 14, -4
 235 0002 041C     		mov	r4, r0
 249:.\Generated_Source\PSoC4/CyFlash.c **** 
 236              		.loc 1 249 0
 237 0004 FFF7FEFF 		bl	CyEnterCriticalSection
 238              	.LVL13:
 239 0008 051C     		mov	r5, r0
 240              	.LVL14:
 262:.\Generated_Source\PSoC4/CyFlash.c ****         {
 241              		.loc 1 262 0
 242 000a 102C     		cmp	r4, #16
 243 000c 05D8     		bhi	.L16
 264:.\Generated_Source\PSoC4/CyFlash.c ****         } else
 244              		.loc 1 264 0
 245 000e 104A     		ldr	r2, .L20
 246 0010 1368     		ldr	r3, [r2]
 247 0012 0321     		mov	r1, #3
 248 0014 8B43     		bic	r3, r1
 249 0016 1360     		str	r3, [r2]
 250 0018 16E0     		b	.L17
 251              	.L16:
 266:.\Generated_Source\PSoC4/CyFlash.c ****         {
 252              		.loc 1 266 0
 253 001a 202C     		cmp	r4, #32
 254 001c 07D8     		bhi	.L18
 268:.\Generated_Source\PSoC4/CyFlash.c ****         } else
 255              		.loc 1 268 0
 256 001e 0C49     		ldr	r1, .L20
 257 0020 0B68     		ldr	r3, [r1]
 258 0022 0322     		mov	r2, #3
 259 0024 9343     		bic	r3, r2
 260 0026 023A     		sub	r2, r2, #2
 261 0028 1343     		orr	r3, r2
 262 002a 0B60     		str	r3, [r1]
 263 002c 0CE0     		b	.L17
 264              	.L18:
 271:.\Generated_Source\PSoC4/CyFlash.c ****         {
 265              		.loc 1 271 0
 266 002e 302C     		cmp	r4, #48
 267 0030 07D8     		bhi	.L19
 273:.\Generated_Source\PSoC4/CyFlash.c ****         }
 268              		.loc 1 273 0
 269 0032 0749     		ldr	r1, .L20
 270 0034 0B68     		ldr	r3, [r1]
 271 0036 0322     		mov	r2, #3
 272 0038 9343     		bic	r3, r2
 273 003a 013A     		sub	r2, r2, #1
 274 003c 1343     		orr	r3, r2
ARM GAS  C:\Users\Luci\AppData\Local\Temp\ccJzKsTh.s 			page 16


 275 003e 0B60     		str	r3, [r1]
 276 0040 02E0     		b	.L17
 277              	.L19:
 279:.\Generated_Source\PSoC4/CyFlash.c ****         }
 278              		.loc 1 279 0 discriminator 1
 279 0042 0020     		mov	r0, #0
 280 0044 FFF7FEFF 		bl	CyHalt
 281              	.LVL15:
 282              	.L17:
 284:.\Generated_Source\PSoC4/CyFlash.c **** }
 283              		.loc 1 284 0
 284 0048 281C     		mov	r0, r5
 285 004a FFF7FEFF 		bl	CyExitCriticalSection
 286              	.LVL16:
 285:.\Generated_Source\PSoC4/CyFlash.c **** 
 287              		.loc 1 285 0
 288              		@ sp needed
 289              	.LVL17:
 290              	.LVL18:
 291 004e 38BD     		pop	{r3, r4, r5, pc}
 292              	.L21:
 293              		.align	2
 294              	.L20:
 295 0050 30001040 		.word	1074790448
 296              		.cfi_endproc
 297              	.LFE3:
 298              		.size	CySysFlashSetWaitCycles, .-CySysFlashSetWaitCycles
 299              		.text
 300              	.Letext0:
 301              		.file 2 ".\\Generated_Source\\PSoC4\\cytypes.h"
 302              		.file 3 ".\\Generated_Source\\PSoC4\\CyLib.h"