ARM GAS  C:\Users\Luci\AppData\Local\Temp\cc2LetiO.s 			page 1


   1              		.cpu cortex-m0
   2              		.fpu softvfp
   3              		.eabi_attribute 20, 1
   4              		.eabi_attribute 21, 1
   5              		.eabi_attribute 23, 3
   6              		.eabi_attribute 24, 1
   7              		.eabi_attribute 25, 1
   8              		.eabi_attribute 26, 1
   9              		.eabi_attribute 30, 1
  10              		.eabi_attribute 34, 0
  11              		.eabi_attribute 18, 4
  12              		.code	16
  13              		.file	"CapSense.c"
  14              		.text
  15              	.Ltext0:
  16              		.cfi_sections	.debug_frame
  17              		.section	.text.CapSense_CsdHwBlockInit,"ax",%progbits
  18              		.align	2
  19              		.global	CapSense_CsdHwBlockInit
  20              		.code	16
  21              		.thumb_func
  22              		.type	CapSense_CsdHwBlockInit, %function
  23              	CapSense_CsdHwBlockInit:
  24              	.LFB36:
  25              		.file 1 ".\\Generated_Source\\PSoC4\\CapSense.c"
   1:.\Generated_Source\PSoC4/CapSense.c **** /*******************************************************************************
   2:.\Generated_Source\PSoC4/CapSense.c **** * File Name: CapSense.c
   3:.\Generated_Source\PSoC4/CapSense.c **** * Version 2.20
   4:.\Generated_Source\PSoC4/CapSense.c **** *
   5:.\Generated_Source\PSoC4/CapSense.c **** * Description:
   6:.\Generated_Source\PSoC4/CapSense.c **** *  This file provides the source code for scanning APIs for the CapSense CSD 
   7:.\Generated_Source\PSoC4/CapSense.c **** *  component.
   8:.\Generated_Source\PSoC4/CapSense.c **** *
   9:.\Generated_Source\PSoC4/CapSense.c **** * Note:
  10:.\Generated_Source\PSoC4/CapSense.c **** *
  11:.\Generated_Source\PSoC4/CapSense.c **** ********************************************************************************
  12:.\Generated_Source\PSoC4/CapSense.c **** * Copyright 2014, Cypress Semiconductor Corporation.  All rights reserved.
  13:.\Generated_Source\PSoC4/CapSense.c **** * You may use this file only in accordance with the license, terms, conditions,
  14:.\Generated_Source\PSoC4/CapSense.c **** * disclaimers, and limitations in the end user license agreement accompanying
  15:.\Generated_Source\PSoC4/CapSense.c **** * the software package with which this file was provided.
  16:.\Generated_Source\PSoC4/CapSense.c **** *******************************************************************************/
  17:.\Generated_Source\PSoC4/CapSense.c **** 
  18:.\Generated_Source\PSoC4/CapSense.c **** #include "CapSense.h"
  19:.\Generated_Source\PSoC4/CapSense.c **** #include "CapSense_PVT.h"
  20:.\Generated_Source\PSoC4/CapSense.c **** #include "cypins.h"
  21:.\Generated_Source\PSoC4/CapSense.c **** 
  22:.\Generated_Source\PSoC4/CapSense.c **** #if(0u != CapSense_CSHL_API_GENERATE)
  23:.\Generated_Source\PSoC4/CapSense.c **** 	#include "CapSense_CSHL.h"
  24:.\Generated_Source\PSoC4/CapSense.c **** #endif /* (0u != CapSense_CSHL_API_GENERATE) */
  25:.\Generated_Source\PSoC4/CapSense.c **** 
  26:.\Generated_Source\PSoC4/CapSense.c **** /* This definition is intended to prevent unexpected linker error. 
  27:.\Generated_Source\PSoC4/CapSense.c ****    For more details please see the IAR Technical Note 49981 */
  28:.\Generated_Source\PSoC4/CapSense.c **** #if defined(__ICCARM__)
  29:.\Generated_Source\PSoC4/CapSense.c **** 	extern void CapSense_EnableSensor(uint32 sensor);
  30:.\Generated_Source\PSoC4/CapSense.c **** 	extern void CapSense_DisableSensor(uint32 sensor);
  31:.\Generated_Source\PSoC4/CapSense.c **** #endif /* (__ICCARM__) */	
  32:.\Generated_Source\PSoC4/CapSense.c **** 
ARM GAS  C:\Users\Luci\AppData\Local\Temp\cc2LetiO.s 			page 2


  33:.\Generated_Source\PSoC4/CapSense.c **** /* SmartSense functions */
  34:.\Generated_Source\PSoC4/CapSense.c **** #if (CapSense_TUNING_METHOD == CapSense__TUNING_AUTO)
  35:.\Generated_Source\PSoC4/CapSense.c ****     uint8 CapSense_lowLevelTuningDone = 0u;
  36:.\Generated_Source\PSoC4/CapSense.c **** 	uint8 scanSpeedTbl[((CapSense_TOTAL_SENSOR_COUNT - 1u) / 8u) + 1u];
  37:.\Generated_Source\PSoC4/CapSense.c **** #endif /* (CapSense_TUNING_METHOD == CapSense__TUNING_AUTO) */
  38:.\Generated_Source\PSoC4/CapSense.c **** 
  39:.\Generated_Source\PSoC4/CapSense.c **** #if(CapSense_PRS_OPTIONS != CapSense__PRS_NONE)
  40:.\Generated_Source\PSoC4/CapSense.c **** 	uint8 CapSense_prescalersTuningDone = 0u;
  41:.\Generated_Source\PSoC4/CapSense.c **** #endif /* (CapSense_PRS_OPTIONS == CapSense__PRS_NONE) */
  42:.\Generated_Source\PSoC4/CapSense.c ****             
  43:.\Generated_Source\PSoC4/CapSense.c **** /* Global software variables */
  44:.\Generated_Source\PSoC4/CapSense.c **** volatile uint8 CapSense_csdStatusVar = 0u;   /* CapSense CSD status, variable */
  45:.\Generated_Source\PSoC4/CapSense.c **** volatile uint8 CapSense_sensorIndex = 0u;    /* Index of scannig sensor */
  46:.\Generated_Source\PSoC4/CapSense.c **** 
  47:.\Generated_Source\PSoC4/CapSense.c **** /* Global array of Raw Counts */
  48:.\Generated_Source\PSoC4/CapSense.c **** uint16 CapSense_sensorRaw[CapSense_TOTAL_SENSOR_COUNT] = {0u};
  49:.\Generated_Source\PSoC4/CapSense.c **** 
  50:.\Generated_Source\PSoC4/CapSense.c **** /* Backup variables for trim registers*/
  51:.\Generated_Source\PSoC4/CapSense.c **** #if (CapSense_IDAC1_POLARITY == CapSense__IDAC_SINK)
  52:.\Generated_Source\PSoC4/CapSense.c **** 	uint8 CapSense_csdTrim2;   
  53:.\Generated_Source\PSoC4/CapSense.c **** #else
  54:.\Generated_Source\PSoC4/CapSense.c ****     uint8 CapSense_csdTrim1;	
  55:.\Generated_Source\PSoC4/CapSense.c **** #endif /* (CapSense_IDAC1_POLARITY == CapSense__IDAC_SINK) */
  56:.\Generated_Source\PSoC4/CapSense.c **** 
  57:.\Generated_Source\PSoC4/CapSense.c **** /* Global array of un-scanned sensors state */
  58:.\Generated_Source\PSoC4/CapSense.c **** uint8 CapSense_unscannedSnsDriveMode[CapSense_TOTAL_SENSOR_COUNT];
  59:.\Generated_Source\PSoC4/CapSense.c **** 
  60:.\Generated_Source\PSoC4/CapSense.c **** /* Backup array for CapSense_sensorEnableMask */
  61:.\Generated_Source\PSoC4/CapSense.c **** uint8 CapSense_sensorEnableMaskBackup[(((CapSense_TOTAL_SENSOR_COUNT - 1u) / 8u) + 1u)];
  62:.\Generated_Source\PSoC4/CapSense.c **** 
  63:.\Generated_Source\PSoC4/CapSense.c **** /* Configured constants and arrays by Customizer */
  64:.\Generated_Source\PSoC4/CapSense.c **** uint8 CapSense_sensorEnableMask[(((CapSense_TOTAL_SENSOR_COUNT - 1u) / 8u) + 1u)] = {
  65:.\Generated_Source\PSoC4/CapSense.c **** 0x3u, };
  66:.\Generated_Source\PSoC4/CapSense.c **** 
  67:.\Generated_Source\PSoC4/CapSense.c **** reg32 * CapSense_pcTable[] = {
  68:.\Generated_Source\PSoC4/CapSense.c ****     (reg32 *)CapSense_Sns__Button0__BTN__PC, 
  69:.\Generated_Source\PSoC4/CapSense.c ****     (reg32 *)CapSense_Sns__Button1__BTN__PC, 
  70:.\Generated_Source\PSoC4/CapSense.c **** };
  71:.\Generated_Source\PSoC4/CapSense.c **** 
  72:.\Generated_Source\PSoC4/CapSense.c **** const uint8 CapSense_portTable[] = {
  73:.\Generated_Source\PSoC4/CapSense.c ****     CapSense_Sns__Button0__BTN__PORT, 
  74:.\Generated_Source\PSoC4/CapSense.c ****     CapSense_Sns__Button1__BTN__PORT, 
  75:.\Generated_Source\PSoC4/CapSense.c **** };
  76:.\Generated_Source\PSoC4/CapSense.c **** 
  77:.\Generated_Source\PSoC4/CapSense.c **** const uint32 CapSense_maskTable[] = {
  78:.\Generated_Source\PSoC4/CapSense.c ****     CapSense_Sns__Button0__BTN__MASK, 
  79:.\Generated_Source\PSoC4/CapSense.c ****     CapSense_Sns__Button1__BTN__MASK, 
  80:.\Generated_Source\PSoC4/CapSense.c **** };
  81:.\Generated_Source\PSoC4/CapSense.c **** 
  82:.\Generated_Source\PSoC4/CapSense.c **** const uint8 CapSense_pinShiftTbl[] = {
  83:.\Generated_Source\PSoC4/CapSense.c ****     (uint8) CapSense_Sns__Button0__BTN__SHIFT, 
  84:.\Generated_Source\PSoC4/CapSense.c ****     (uint8) CapSense_Sns__Button1__BTN__SHIFT, 
  85:.\Generated_Source\PSoC4/CapSense.c **** };
  86:.\Generated_Source\PSoC4/CapSense.c **** 
  87:.\Generated_Source\PSoC4/CapSense.c **** uint8 CapSense_modulationIDAC[CapSense_TOTAL_SENSOR_COUNT];
  88:.\Generated_Source\PSoC4/CapSense.c **** uint8 CapSense_compensationIDAC[CapSense_TOTAL_SENSOR_COUNT];
  89:.\Generated_Source\PSoC4/CapSense.c **** 
ARM GAS  C:\Users\Luci\AppData\Local\Temp\cc2LetiO.s 			page 3


  90:.\Generated_Source\PSoC4/CapSense.c **** uint32 CapSense_widgetResolution[CapSense_RESOLUTIONS_TBL_SIZE] = {
  91:.\Generated_Source\PSoC4/CapSense.c ****     CapSense_RESOLUTION_12_BITS,
  92:.\Generated_Source\PSoC4/CapSense.c ****     CapSense_RESOLUTION_12_BITS,
  93:.\Generated_Source\PSoC4/CapSense.c **** };
  94:.\Generated_Source\PSoC4/CapSense.c **** 
  95:.\Generated_Source\PSoC4/CapSense.c **** uint8 CapSense_senseClkDividerVal[CapSense_TOTAL_SCANSLOT_COUNT];
  96:.\Generated_Source\PSoC4/CapSense.c **** uint8 CapSense_sampleClkDividerVal[CapSense_TOTAL_SCANSLOT_COUNT];
  97:.\Generated_Source\PSoC4/CapSense.c **** 
  98:.\Generated_Source\PSoC4/CapSense.c **** const uint8 CapSense_widgetNumber[CapSense_TOTAL_SENSOR_COUNT] = {
  99:.\Generated_Source\PSoC4/CapSense.c ****     0u, /* Button0__BTN */
 100:.\Generated_Source\PSoC4/CapSense.c ****     1u, /* Button1__BTN */
 101:.\Generated_Source\PSoC4/CapSense.c **** };
 102:.\Generated_Source\PSoC4/CapSense.c **** 
 103:.\Generated_Source\PSoC4/CapSense.c **** 
 104:.\Generated_Source\PSoC4/CapSense.c **** 
 105:.\Generated_Source\PSoC4/CapSense.c **** reg32* const CapSense_prtSelTbl[] = {
 106:.\Generated_Source\PSoC4/CapSense.c **** /* CY_PSOC4_4000 is default*/
 107:.\Generated_Source\PSoC4/CapSense.c **** 	((reg32 *) CYREG_HSIOM_PORT_SEL0),
 108:.\Generated_Source\PSoC4/CapSense.c **** 	((reg32 *) CYREG_HSIOM_PORT_SEL1),
 109:.\Generated_Source\PSoC4/CapSense.c **** 	((reg32 *) CYREG_HSIOM_PORT_SEL2),
 110:.\Generated_Source\PSoC4/CapSense.c **** 	((reg32 *) CYREG_HSIOM_PORT_SEL3),
 111:.\Generated_Source\PSoC4/CapSense.c **** #if (CapSense_CFG_REG_TBL_SIZE == 5u)
 112:.\Generated_Source\PSoC4/CapSense.c **** 	((reg32 *) CYREG_HSIOM_PORT_SEL4)
 113:.\Generated_Source\PSoC4/CapSense.c **** #elif(CapSense_CFG_REG_TBL_SIZE == 6u)
 114:.\Generated_Source\PSoC4/CapSense.c **** 	((reg32 *) CYREG_HSIOM_PORT_SEL4),
 115:.\Generated_Source\PSoC4/CapSense.c **** 	((reg32 *) CYREG_HSIOM_PORT_SEL5)
 116:.\Generated_Source\PSoC4/CapSense.c **** #elif(CapSense_CFG_REG_TBL_SIZE == 8u)
 117:.\Generated_Source\PSoC4/CapSense.c **** 	((reg32 *) CYREG_HSIOM_PORT_SEL4),
 118:.\Generated_Source\PSoC4/CapSense.c **** 	((reg32 *) CYREG_HSIOM_PORT_SEL5),
 119:.\Generated_Source\PSoC4/CapSense.c **** 	((reg32 *) CYREG_HSIOM_PORT_SEL6),
 120:.\Generated_Source\PSoC4/CapSense.c **** 	((reg32 *) CYREG_HSIOM_PORT_SEL7)
 121:.\Generated_Source\PSoC4/CapSense.c **** #endif /* (CY_PSOC4_4200) */
 122:.\Generated_Source\PSoC4/CapSense.c **** };
 123:.\Generated_Source\PSoC4/CapSense.c **** 
 124:.\Generated_Source\PSoC4/CapSense.c **** reg32* const CapSense_prtCfgTbl[] = {
 125:.\Generated_Source\PSoC4/CapSense.c **** /* CY_PSOC4_4000 is default*/
 126:.\Generated_Source\PSoC4/CapSense.c **** 	((reg32 *) CYREG_GPIO_PRT0_PC),
 127:.\Generated_Source\PSoC4/CapSense.c **** 	((reg32 *) CYREG_GPIO_PRT1_PC),
 128:.\Generated_Source\PSoC4/CapSense.c **** 	((reg32 *) CYREG_GPIO_PRT2_PC),
 129:.\Generated_Source\PSoC4/CapSense.c **** 	((reg32 *) CYREG_GPIO_PRT3_PC),
 130:.\Generated_Source\PSoC4/CapSense.c **** #if (CapSense_CFG_REG_TBL_SIZE == 5u)
 131:.\Generated_Source\PSoC4/CapSense.c **** 	((reg32 *) CYREG_GPIO_PRT4_PC)
 132:.\Generated_Source\PSoC4/CapSense.c **** #elif(CapSense_CFG_REG_TBL_SIZE == 6u)
 133:.\Generated_Source\PSoC4/CapSense.c **** 	((reg32 *) CYREG_GPIO_PRT4_PC),
 134:.\Generated_Source\PSoC4/CapSense.c **** 	((reg32 *) CYREG_GPIO_PRT5_PC)
 135:.\Generated_Source\PSoC4/CapSense.c **** #elif(CapSense_CFG_REG_TBL_SIZE == 8u)
 136:.\Generated_Source\PSoC4/CapSense.c **** 	((reg32 *) CYREG_GPIO_PRT4_PC),
 137:.\Generated_Source\PSoC4/CapSense.c **** 	((reg32 *) CYREG_GPIO_PRT5_PC),
 138:.\Generated_Source\PSoC4/CapSense.c **** 	((reg32 *) CYREG_GPIO_PRT6_PC),
 139:.\Generated_Source\PSoC4/CapSense.c **** 	((reg32 *) CYREG_GPIO_PRT7_PC)
 140:.\Generated_Source\PSoC4/CapSense.c **** #endif /* (CY_PSOC4_4200) */	
 141:.\Generated_Source\PSoC4/CapSense.c **** };
 142:.\Generated_Source\PSoC4/CapSense.c **** 
 143:.\Generated_Source\PSoC4/CapSense.c **** reg32* const CapSense_prtDRTbl[] = {
 144:.\Generated_Source\PSoC4/CapSense.c **** /* CY_PSOC4_4000 is default*/
 145:.\Generated_Source\PSoC4/CapSense.c **** 	((reg32 *) CYREG_GPIO_PRT0_DR),
 146:.\Generated_Source\PSoC4/CapSense.c **** 	((reg32 *) CYREG_GPIO_PRT1_DR),
ARM GAS  C:\Users\Luci\AppData\Local\Temp\cc2LetiO.s 			page 4


 147:.\Generated_Source\PSoC4/CapSense.c **** 	((reg32 *) CYREG_GPIO_PRT2_DR),
 148:.\Generated_Source\PSoC4/CapSense.c **** 	((reg32 *) CYREG_GPIO_PRT3_DR),
 149:.\Generated_Source\PSoC4/CapSense.c **** #if (CapSense_CFG_REG_TBL_SIZE == 5u)
 150:.\Generated_Source\PSoC4/CapSense.c **** 	((reg32 *) CYREG_GPIO_PRT4_DR)
 151:.\Generated_Source\PSoC4/CapSense.c **** #elif(CapSense_CFG_REG_TBL_SIZE == 6u)
 152:.\Generated_Source\PSoC4/CapSense.c **** 	((reg32 *) CYREG_GPIO_PRT4_DR),
 153:.\Generated_Source\PSoC4/CapSense.c **** 	((reg32 *) CYREG_GPIO_PRT5_DR),
 154:.\Generated_Source\PSoC4/CapSense.c **** #elif(CapSense_CFG_REG_TBL_SIZE == 8u)
 155:.\Generated_Source\PSoC4/CapSense.c **** 	((reg32 *) CYREG_GPIO_PRT4_DR),
 156:.\Generated_Source\PSoC4/CapSense.c **** 	((reg32 *) CYREG_GPIO_PRT5_DR),
 157:.\Generated_Source\PSoC4/CapSense.c **** 	((reg32 *) CYREG_GPIO_PRT6_DR),
 158:.\Generated_Source\PSoC4/CapSense.c **** 	((reg32 *) CYREG_GPIO_PRT7_DR),
 159:.\Generated_Source\PSoC4/CapSense.c **** #endif /* (CY_PSOC4_4200) */	
 160:.\Generated_Source\PSoC4/CapSense.c **** };
 161:.\Generated_Source\PSoC4/CapSense.c ****     
 162:.\Generated_Source\PSoC4/CapSense.c **** 
 163:.\Generated_Source\PSoC4/CapSense.c **** /*******************************************************************************
 164:.\Generated_Source\PSoC4/CapSense.c **** * Function Name: CapSense_Init
 165:.\Generated_Source\PSoC4/CapSense.c **** ********************************************************************************
 166:.\Generated_Source\PSoC4/CapSense.c **** *
 167:.\Generated_Source\PSoC4/CapSense.c **** * Summary:
 168:.\Generated_Source\PSoC4/CapSense.c **** *  API initializes default CapSense configuration provided by the customizer that defines 
 169:.\Generated_Source\PSoC4/CapSense.c **** *  the mode of component operations and resets all the sensors to an inactive state.
 170:.\Generated_Source\PSoC4/CapSense.c **** *
 171:.\Generated_Source\PSoC4/CapSense.c **** * Parameters:
 172:.\Generated_Source\PSoC4/CapSense.c **** *  None
 173:.\Generated_Source\PSoC4/CapSense.c **** *
 174:.\Generated_Source\PSoC4/CapSense.c **** * Return:
 175:.\Generated_Source\PSoC4/CapSense.c **** *  None
 176:.\Generated_Source\PSoC4/CapSense.c **** *
 177:.\Generated_Source\PSoC4/CapSense.c **** * Global Variables:
 178:.\Generated_Source\PSoC4/CapSense.c **** *  CapSense_immunityIndex - defines immunity level.
 179:.\Generated_Source\PSoC4/CapSense.c **** *
 180:.\Generated_Source\PSoC4/CapSense.c **** * Side Effects:
 181:.\Generated_Source\PSoC4/CapSense.c **** *  None
 182:.\Generated_Source\PSoC4/CapSense.c **** * 
 183:.\Generated_Source\PSoC4/CapSense.c **** *******************************************************************************/
 184:.\Generated_Source\PSoC4/CapSense.c **** void CapSense_Init(void)
 185:.\Generated_Source\PSoC4/CapSense.c **** {   
 186:.\Generated_Source\PSoC4/CapSense.c **** 	uint32 curSensor;
 187:.\Generated_Source\PSoC4/CapSense.c **** 	
 188:.\Generated_Source\PSoC4/CapSense.c **** 	#if(CapSense_IS_SHIELD_ENABLE)
 189:.\Generated_Source\PSoC4/CapSense.c **** 		
 190:.\Generated_Source\PSoC4/CapSense.c **** 		#if((CapSense_CSH_TANK_PREGARGE_OPTION == CapSense__CAPPRIOBUF) || (0u != CapSense_CSH_TANK_ENABL
 191:.\Generated_Source\PSoC4/CapSense.c **** 			uint32 newRegValue;
 192:.\Generated_Source\PSoC4/CapSense.c **** 			
 193:.\Generated_Source\PSoC4/CapSense.c **** 			newRegValue = CapSense_CTANK_CONNECTION_REG;
 194:.\Generated_Source\PSoC4/CapSense.c **** 	        newRegValue &= ~(CapSense_CSD_CTANK_CONNECTION_MASK);
 195:.\Generated_Source\PSoC4/CapSense.c **** 			newRegValue |= CapSense_CSD_CTANK_TO_AMUXBUS_B;
 196:.\Generated_Source\PSoC4/CapSense.c **** 	        CapSense_CTANK_CONNECTION_REG = newRegValue;
 197:.\Generated_Source\PSoC4/CapSense.c **** 			
 198:.\Generated_Source\PSoC4/CapSense.c **** 			#if(CapSense_CSH_TANK_PREGARGE_OPTION == CapSense__CAPPRIOBUF)
 199:.\Generated_Source\PSoC4/CapSense.c **** 				newRegValue = CapSense_CTANK_PORT_PC_REG;
 200:.\Generated_Source\PSoC4/CapSense.c **** 		        newRegValue &= ~(CapSense_CSD_CTANK_PC_MASK);
 201:.\Generated_Source\PSoC4/CapSense.c **** 				newRegValue |= CapSense_CTANK_PC_STRONG_MODE;
 202:.\Generated_Source\PSoC4/CapSense.c **** 		        CapSense_CTANK_PORT_PC_REG = newRegValue;
 203:.\Generated_Source\PSoC4/CapSense.c **** 				
ARM GAS  C:\Users\Luci\AppData\Local\Temp\cc2LetiO.s 			page 5


 204:.\Generated_Source\PSoC4/CapSense.c **** 				newRegValue = CapSense_CTANK_PORT_DR_REG;
 205:.\Generated_Source\PSoC4/CapSense.c **** 		        newRegValue &= ~(CapSense_CTANK_DR_MASK);
 206:.\Generated_Source\PSoC4/CapSense.c **** 				newRegValue |= CapSense_CTANK_DR_CONFIG;
 207:.\Generated_Source\PSoC4/CapSense.c **** 		        CapSense_CTANK_PORT_DR_REG = newRegValue;
 208:.\Generated_Source\PSoC4/CapSense.c **** 			#endif /* (CapSense_CSH_TANK_PREGARGE_OPTION == CapSense__CAPPRIOBUF) */
 209:.\Generated_Source\PSoC4/CapSense.c **** 	        
 210:.\Generated_Source\PSoC4/CapSense.c **** 		#endif /* ((CapSense_CSH_TANK_PREGARGE_OPTION == CapSense__CAPPRIOBUF) || (CapSense_CSH_TANK_ENAB
 211:.\Generated_Source\PSoC4/CapSense.c **** 		
 212:.\Generated_Source\PSoC4/CapSense.c **** 		CapSense_EnableShieldElectrode((uint32)CapSense_SHIELD_PIN_NUMBER, (uint32)CapSense_SHIELD_PORT_N
 213:.\Generated_Source\PSoC4/CapSense.c **** 		
 214:.\Generated_Source\PSoC4/CapSense.c **** 	#endif /* (CapSense_IS_SHIELD_ENABLE) */
 215:.\Generated_Source\PSoC4/CapSense.c **** 	
 216:.\Generated_Source\PSoC4/CapSense.c **** 	for(curSensor = 0u; curSensor < CapSense_TOTAL_SENSOR_COUNT; curSensor++)
 217:.\Generated_Source\PSoC4/CapSense.c **** 	{
 218:.\Generated_Source\PSoC4/CapSense.c **** 		CapSense_unscannedSnsDriveMode[curSensor] = CapSense_CONNECT_INACTIVE_SNS;
 219:.\Generated_Source\PSoC4/CapSense.c **** 	}
 220:.\Generated_Source\PSoC4/CapSense.c ****     
 221:.\Generated_Source\PSoC4/CapSense.c **** 	CapSense_CsdHwBlockInit();
 222:.\Generated_Source\PSoC4/CapSense.c ****     CapSense_SetShieldDelay(CapSense_SHIELD_DELAY );
 223:.\Generated_Source\PSoC4/CapSense.c **** 	
 224:.\Generated_Source\PSoC4/CapSense.c **** 	/* Clear all sensors */
 225:.\Generated_Source\PSoC4/CapSense.c ****     CapSense_ClearSensors();
 226:.\Generated_Source\PSoC4/CapSense.c **** }
 227:.\Generated_Source\PSoC4/CapSense.c **** 
 228:.\Generated_Source\PSoC4/CapSense.c **** /*******************************************************************************
 229:.\Generated_Source\PSoC4/CapSense.c **** * Function Name: CapSense_CsdHwBlockInit
 230:.\Generated_Source\PSoC4/CapSense.c **** ********************************************************************************
 231:.\Generated_Source\PSoC4/CapSense.c **** *
 232:.\Generated_Source\PSoC4/CapSense.c **** * Summary:
 233:.\Generated_Source\PSoC4/CapSense.c **** *  Initialises the hardware parameters of the CSD block 
 234:.\Generated_Source\PSoC4/CapSense.c **** *
 235:.\Generated_Source\PSoC4/CapSense.c **** * Parameters:
 236:.\Generated_Source\PSoC4/CapSense.c **** *  None
 237:.\Generated_Source\PSoC4/CapSense.c **** *
 238:.\Generated_Source\PSoC4/CapSense.c **** * Return:
 239:.\Generated_Source\PSoC4/CapSense.c **** *  None
 240:.\Generated_Source\PSoC4/CapSense.c **** *
 241:.\Generated_Source\PSoC4/CapSense.c **** * Global Variables:
 242:.\Generated_Source\PSoC4/CapSense.c **** *  CapSense_csdTrim1 - Contains IDAC trim register value for Sourcing Mode.
 243:.\Generated_Source\PSoC4/CapSense.c **** *  CapSense_csdTrim2 - Contains IDAC trim register value for Sinking Mode.
 244:.\Generated_Source\PSoC4/CapSense.c **** *
 245:.\Generated_Source\PSoC4/CapSense.c **** * Side Effects:
 246:.\Generated_Source\PSoC4/CapSense.c **** *  None
 247:.\Generated_Source\PSoC4/CapSense.c **** * 
 248:.\Generated_Source\PSoC4/CapSense.c **** *******************************************************************************/
 249:.\Generated_Source\PSoC4/CapSense.c **** void CapSense_CsdHwBlockInit(void)
 250:.\Generated_Source\PSoC4/CapSense.c **** {
  26              		.loc 1 250 0
  27              		.cfi_startproc
  28 0000 38B5     		push	{r3, r4, r5, lr}
  29              		.cfi_def_cfa_offset 16
  30              		.cfi_offset 3, -16
  31              		.cfi_offset 4, -12
  32              		.cfi_offset 5, -8
  33              		.cfi_offset 14, -4
 251:.\Generated_Source\PSoC4/CapSense.c **** 	uint32 newRegValue;
 252:.\Generated_Source\PSoC4/CapSense.c **** 	
ARM GAS  C:\Users\Luci\AppData\Local\Temp\cc2LetiO.s 			page 6


 253:.\Generated_Source\PSoC4/CapSense.c **** 	    /* Set trim registers for CSD Mode */
 254:.\Generated_Source\PSoC4/CapSense.c ****     #if (CapSense_IDAC1_POLARITY == CapSense__IDAC_SINK)
 255:.\Generated_Source\PSoC4/CapSense.c **** 		/* iDAC1 Sinking Mode */ 
 256:.\Generated_Source\PSoC4/CapSense.c **** 		CapSense_csdTrim2 = (uint8)CapSense_CSD_TRIM2_REG;
 257:.\Generated_Source\PSoC4/CapSense.c **** 		newRegValue = CapSense_csdTrim2;
 258:.\Generated_Source\PSoC4/CapSense.c **** 		newRegValue &= CapSense_CSD_IDAC1_TRIM_MASK;
 259:.\Generated_Source\PSoC4/CapSense.c **** 		newRegValue |= (uint32)((uint32)CapSense_SFLASH_CSD_TRIM2_REG & (uint32)CapSense_CSFLASH_TRIM_IDA
 260:.\Generated_Source\PSoC4/CapSense.c **** 		
 261:.\Generated_Source\PSoC4/CapSense.c **** 		#if (CapSense_IDAC_CNT == 2u)
 262:.\Generated_Source\PSoC4/CapSense.c **** 		    /* iDAC2 Sinking Mode */ 
 263:.\Generated_Source\PSoC4/CapSense.c **** 			newRegValue &= CapSense_CSD_IDAC2_TRIM_MASK;
 264:.\Generated_Source\PSoC4/CapSense.c **** 			newRegValue |= (uint32)((uint32)CapSense_SFLASH_CSD_TRIM2_REG & (uint32)CapSense_CSFLASH_TRIM_ID
 265:.\Generated_Source\PSoC4/CapSense.c **** 		#endif /* (CapSense_IDAC_CNT == 2u) */
 266:.\Generated_Source\PSoC4/CapSense.c **** 		CapSense_CSD_TRIM2_REG = newRegValue;
 267:.\Generated_Source\PSoC4/CapSense.c ****     #else   
 268:.\Generated_Source\PSoC4/CapSense.c **** 		/* iDAC1 Sourcing Mode */ 
 269:.\Generated_Source\PSoC4/CapSense.c **** 		CapSense_csdTrim1 = (uint8)CapSense_CSD_TRIM1_REG;
  34              		.loc 1 269 0
  35 0002 164A     		ldr	r2, .L2
  36 0004 1168     		ldr	r1, [r2]
  37 0006 C9B2     		uxtb	r1, r1
  38 0008 154B     		ldr	r3, .L2+4
  39 000a 1970     		strb	r1, [r3]
  40              	.LVL0:
 270:.\Generated_Source\PSoC4/CapSense.c **** 		newRegValue = CapSense_csdTrim1;
 271:.\Generated_Source\PSoC4/CapSense.c **** 		newRegValue &= CapSense_CSD_IDAC1_TRIM_MASK;
  41              		.loc 1 271 0
  42 000c 0F23     		mov	r3, #15
  43 000e 0C1C     		mov	r4, r1
  44 0010 9C43     		bic	r4, r3
  45              	.LVL1:
 272:.\Generated_Source\PSoC4/CapSense.c **** 		newRegValue |= (uint32)((uint32)CapSense_SFLASH_CSD_TRIM1_REG & (uint32)CapSense_CSFLASH_TRIM_IDA
  46              		.loc 1 272 0
  47 0012 1449     		ldr	r1, .L2+8
  48 0014 0D78     		ldrb	r5, [r1]
  49 0016 0F20     		mov	r0, #15
  50 0018 2840     		and	r0, r5
  51 001a 2043     		orr	r0, r4
  52              	.LVL2:
 273:.\Generated_Source\PSoC4/CapSense.c **** 		#if (CapSense_IDAC_CNT == 2u)
 274:.\Generated_Source\PSoC4/CapSense.c **** 		     /* iDAC2 Sourcing Mode */ 
 275:.\Generated_Source\PSoC4/CapSense.c **** 			newRegValue &= CapSense_CSD_IDAC2_TRIM_MASK;
  53              		.loc 1 275 0
  54 001c F024     		mov	r4, #240
  55 001e A043     		bic	r0, r4
  56              	.LVL3:
 276:.\Generated_Source\PSoC4/CapSense.c **** 			newRegValue |= (uint32)((uint32)CapSense_SFLASH_CSD_TRIM1_REG & (uint32)CapSense_CSFLASH_TRIM_ID
  57              		.loc 1 276 0
  58 0020 0978     		ldrb	r1, [r1]
  59 0022 9943     		bic	r1, r3
  60 0024 0143     		orr	r1, r0
  61              	.LVL4:
 277:.\Generated_Source\PSoC4/CapSense.c **** 		#endif		
 278:.\Generated_Source\PSoC4/CapSense.c **** 		CapSense_CSD_TRIM1_REG = newRegValue;
  62              		.loc 1 278 0
  63 0026 1160     		str	r1, [r2]
 279:.\Generated_Source\PSoC4/CapSense.c ****     #endif /* (CapSense_IDAC1_POLARITY == CapSense__IDAC_SINK) */
ARM GAS  C:\Users\Luci\AppData\Local\Temp\cc2LetiO.s 			page 7


 280:.\Generated_Source\PSoC4/CapSense.c **** 	
 281:.\Generated_Source\PSoC4/CapSense.c **** 	/* Configure CSD and IDAC */
 282:.\Generated_Source\PSoC4/CapSense.c **** 	#if (CapSense_IDAC_CNT > 1u)
 283:.\Generated_Source\PSoC4/CapSense.c **** 		CapSense_CSD_IDAC_REG = CapSense_DEFAULT_CSD_IDAC_CONFIG;
  64              		.loc 1 283 0
  65 0028 0F49     		ldr	r1, .L2+12
  66              	.LVL5:
  67 002a 104A     		ldr	r2, .L2+16
  68              	.LVL6:
  69 002c 1160     		str	r1, [r2]
  70              	.LVL7:
 284:.\Generated_Source\PSoC4/CapSense.c **** 		CapSense_CSD_CFG_REG = CapSense_DEFAULT_CSD_CONFIG;
  71              		.loc 1 284 0
  72 002e 1049     		ldr	r1, .L2+20
  73 0030 104A     		ldr	r2, .L2+24
  74 0032 1160     		str	r1, [r2]
 285:.\Generated_Source\PSoC4/CapSense.c **** 	#else
 286:.\Generated_Source\PSoC4/CapSense.c **** 		CapSense_CSD_IDAC_REG &= ~(CapSense_CSD_IDAC1_MODE_MASK  | CapSense_CSD_IDAC1_DATA_MASK);
 287:.\Generated_Source\PSoC4/CapSense.c **** 		CapSense_CSD_IDAC_REG |= CapSense_DEFAULT_CSD_IDAC_CONFIG;
 288:.\Generated_Source\PSoC4/CapSense.c **** 		
 289:.\Generated_Source\PSoC4/CapSense.c **** 		CapSense_CSD_CFG_REG &= ~(CapSense_CSD_CONFIG_MASK);
 290:.\Generated_Source\PSoC4/CapSense.c **** 		CapSense_CSD_CFG_REG |= (CapSense_DEFAULT_CSD_CONFIG);
 291:.\Generated_Source\PSoC4/CapSense.c **** 	#endif /* (CapSense_IDAC_CNT > 1u) */
 292:.\Generated_Source\PSoC4/CapSense.c **** 	
 293:.\Generated_Source\PSoC4/CapSense.c **** 	
 294:.\Generated_Source\PSoC4/CapSense.c **** 	/* Connect Cmod to AMUX bus */ 
 295:.\Generated_Source\PSoC4/CapSense.c **** 	newRegValue = CapSense_CMOD_CONNECTION_REG; 
  75              		.loc 1 295 0
  76 0034 104A     		ldr	r2, .L2+28
  77 0036 1168     		ldr	r1, [r2]
  78              	.LVL8:
 296:.\Generated_Source\PSoC4/CapSense.c ****     newRegValue &= ~(CapSense_CSD_CMOD_CONNECTION_MASK);
  79              		.loc 1 296 0
  80 0038 9943     		bic	r1, r3
  81              	.LVL9:
  82 003a 0B1C     		mov	r3, r1
  83              	.LVL10:
 297:.\Generated_Source\PSoC4/CapSense.c ****     newRegValue |= CapSense_CSD_CMOD_TO_AMUXBUS_A;
  84              		.loc 1 297 0
  85 003c 0621     		mov	r1, #6
  86              	.LVL11:
  87 003e 0B43     		orr	r3, r1
  88              	.LVL12:
 298:.\Generated_Source\PSoC4/CapSense.c ****     CapSense_CMOD_CONNECTION_REG = newRegValue;
  89              		.loc 1 298 0
  90 0040 1360     		str	r3, [r2]
 299:.\Generated_Source\PSoC4/CapSense.c **** 	
 300:.\Generated_Source\PSoC4/CapSense.c **** 	/* Configure Dead Band PWM if it is enabled */
 301:.\Generated_Source\PSoC4/CapSense.c **** 	#if(CapSense_CSD_4B_PWM_MODE != CapSense__PWM_OFF)
 302:.\Generated_Source\PSoC4/CapSense.c **** 		CapSense_CSD_4B_PWM_REG = CapSense_DEFAULT_CSD_4B_PWM_CONFIG;
 303:.\Generated_Source\PSoC4/CapSense.c **** 	#endif /* (CapSense_CSD_4B_PWM_MODE != CapSense__PWM_OFF) */
 304:.\Generated_Source\PSoC4/CapSense.c **** 
 305:.\Generated_Source\PSoC4/CapSense.c **** 	/* Setup ISR */
 306:.\Generated_Source\PSoC4/CapSense.c **** 	CyIntDisable(CapSense_ISR_NUMBER);
  91              		.loc 1 306 0
  92 0042 1020     		mov	r0, #16
  93 0044 FFF7FEFF 		bl	CyIntDisable
ARM GAS  C:\Users\Luci\AppData\Local\Temp\cc2LetiO.s 			page 8


  94              	.LVL13:
 307:.\Generated_Source\PSoC4/CapSense.c **** 	#if !defined(CY_EXTERNAL_INTERRUPT_CONFIG)		
 308:.\Generated_Source\PSoC4/CapSense.c **** 	    (void)CyIntSetVector(CapSense_ISR_NUMBER, &CapSense_ISR);
  95              		.loc 1 308 0
  96 0048 1020     		mov	r0, #16
  97 004a 0C49     		ldr	r1, .L2+32
  98 004c FFF7FEFF 		bl	CyIntSetVector
  99              	.LVL14:
 309:.\Generated_Source\PSoC4/CapSense.c **** 	    CyIntSetPriority(CapSense_ISR_NUMBER, CapSense_ISR_PRIORITY);
 100              		.loc 1 309 0
 101 0050 1020     		mov	r0, #16
 102 0052 0321     		mov	r1, #3
 103 0054 FFF7FEFF 		bl	CyIntSetPriority
 104              	.LVL15:
 310:.\Generated_Source\PSoC4/CapSense.c **** 	#endif /* (CY_EXTERNAL_INTERRUPT_CONFIG) */
 311:.\Generated_Source\PSoC4/CapSense.c **** }
 105              		.loc 1 311 0
 106              		@ sp needed
 107 0058 38BD     		pop	{r3, r4, r5, pc}
 108              	.L3:
 109 005a C046     		.align	2
 110              	.L2:
 111 005c 00FF2840 		.word	1076428544
 112 0060 00000000 		.word	CapSense_csdTrim1
 113 0064 62F1FF0F 		.word	268431714
 114 0068 00020001 		.word	16777728
 115 006c 08002840 		.word	1076363272
 116 0070 0008A001 		.word	27265024
 117 0074 04002840 		.word	1076363268
 118 0078 00040240 		.word	1073873920
 119 007c 00000000 		.word	CapSense_ISR
 120              		.cfi_endproc
 121              	.LFE36:
 122              		.size	CapSense_CsdHwBlockInit, .-CapSense_CsdHwBlockInit
 123              		.section	.text.CapSense_Enable,"ax",%progbits
 124              		.align	2
 125              		.global	CapSense_Enable
 126              		.code	16
 127              		.thumb_func
 128              		.type	CapSense_Enable, %function
 129              	CapSense_Enable:
 130              	.LFB37:
 312:.\Generated_Source\PSoC4/CapSense.c **** 
 313:.\Generated_Source\PSoC4/CapSense.c **** 
 314:.\Generated_Source\PSoC4/CapSense.c **** /*******************************************************************************
 315:.\Generated_Source\PSoC4/CapSense.c **** * Function Name: CapSense_Enable
 316:.\Generated_Source\PSoC4/CapSense.c **** ********************************************************************************
 317:.\Generated_Source\PSoC4/CapSense.c **** *
 318:.\Generated_Source\PSoC4/CapSense.c **** * Summary:
 319:.\Generated_Source\PSoC4/CapSense.c **** *  Enables the CSD block and related resources to an active mode.
 320:.\Generated_Source\PSoC4/CapSense.c **** *
 321:.\Generated_Source\PSoC4/CapSense.c **** * Parameters:
 322:.\Generated_Source\PSoC4/CapSense.c **** *  None
 323:.\Generated_Source\PSoC4/CapSense.c **** *
 324:.\Generated_Source\PSoC4/CapSense.c **** * Return:
 325:.\Generated_Source\PSoC4/CapSense.c **** *  None
 326:.\Generated_Source\PSoC4/CapSense.c **** *
ARM GAS  C:\Users\Luci\AppData\Local\Temp\cc2LetiO.s 			page 9


 327:.\Generated_Source\PSoC4/CapSense.c **** * Global Variables:
 328:.\Generated_Source\PSoC4/CapSense.c **** *  None.
 329:.\Generated_Source\PSoC4/CapSense.c **** *
 330:.\Generated_Source\PSoC4/CapSense.c **** * Side Effects:
 331:.\Generated_Source\PSoC4/CapSense.c **** *  None
 332:.\Generated_Source\PSoC4/CapSense.c **** * 
 333:.\Generated_Source\PSoC4/CapSense.c **** *******************************************************************************/
 334:.\Generated_Source\PSoC4/CapSense.c **** void CapSense_Enable(void)
 335:.\Generated_Source\PSoC4/CapSense.c **** {
 131              		.loc 1 335 0
 132              		.cfi_startproc
 133 0000 08B5     		push	{r3, lr}
 134              		.cfi_def_cfa_offset 8
 135              		.cfi_offset 3, -8
 136              		.cfi_offset 14, -4
 336:.\Generated_Source\PSoC4/CapSense.c ****     uint32 newRegValue;
 337:.\Generated_Source\PSoC4/CapSense.c ****     
 338:.\Generated_Source\PSoC4/CapSense.c ****     /* Enable Clocks */
 339:.\Generated_Source\PSoC4/CapSense.c **** 	CapSense_SenseClk_Stop();
 137              		.loc 1 339 0
 138 0002 FFF7FEFF 		bl	CapSense_SenseClk_Stop
 139              	.LVL16:
 340:.\Generated_Source\PSoC4/CapSense.c **** 	CapSense_SampleClk_Stop();
 140              		.loc 1 340 0
 141 0006 FFF7FEFF 		bl	CapSense_SampleClk_Stop
 142              	.LVL17:
 341:.\Generated_Source\PSoC4/CapSense.c **** 	
 342:.\Generated_Source\PSoC4/CapSense.c **** 	CapSense_SampleClk_SetDividerValue((uint16)CapSense_INITIAL_CLK_DIVIDER);
 143              		.loc 1 342 0
 144 000a 0020     		mov	r0, #0
 145 000c 0021     		mov	r1, #0
 146 000e FFF7FEFF 		bl	CapSense_SampleClk_SetFractionalDividerRegister
 147              	.LVL18:
 343:.\Generated_Source\PSoC4/CapSense.c **** 	CapSense_SenseClk_SetDividerValue((uint16)CapSense_INITIAL_CLK_DIVIDER);
 148              		.loc 1 343 0
 149 0012 0020     		mov	r0, #0
 150 0014 0021     		mov	r1, #0
 151 0016 FFF7FEFF 		bl	CapSense_SenseClk_SetFractionalDividerRegister
 152              	.LVL19:
 344:.\Generated_Source\PSoC4/CapSense.c **** 	
 345:.\Generated_Source\PSoC4/CapSense.c **** 	#if (0u == CapSense_IS_M0S8PERI_BLOCK)
 346:.\Generated_Source\PSoC4/CapSense.c **** 		CapSense_SenseClk_Start();
 347:.\Generated_Source\PSoC4/CapSense.c **** 		CapSense_SampleClk_Start();
 348:.\Generated_Source\PSoC4/CapSense.c **** 	#else
 349:.\Generated_Source\PSoC4/CapSense.c **** 		CapSense_SampleClk_Start();
 153              		.loc 1 349 0
 154 001a FF20     		mov	r0, #255
 155 001c FFF7FEFF 		bl	CapSense_SampleClk_StartEx
 156              	.LVL20:
 350:.\Generated_Source\PSoC4/CapSense.c **** 		CapSense_SenseClk_StartEx(CapSense_SampleClk__DIV_ID);
 157              		.loc 1 350 0
 158 0020 4020     		mov	r0, #64
 159 0022 FFF7FEFF 		bl	CapSense_SenseClk_StartEx
 160              	.LVL21:
 351:.\Generated_Source\PSoC4/CapSense.c **** 	#endif /* (0u == CapSense_IS_M0S8PERI_BLOCK) */
 352:.\Generated_Source\PSoC4/CapSense.c **** 	
 353:.\Generated_Source\PSoC4/CapSense.c **** 	/* Enable the CSD block */
ARM GAS  C:\Users\Luci\AppData\Local\Temp\cc2LetiO.s 			page 10


 354:.\Generated_Source\PSoC4/CapSense.c ****     newRegValue = CapSense_CSD_CFG_REG;
 161              		.loc 1 354 0
 162 0026 044B     		ldr	r3, .L5
 163 0028 1A68     		ldr	r2, [r3]
 164              	.LVL22:
 355:.\Generated_Source\PSoC4/CapSense.c ****     newRegValue |= (CapSense_CSD_CFG_ENABLE | CapSense_CSD_CFG_SENSE_COMP_EN 
 165              		.loc 1 355 0
 166 002a 0449     		ldr	r1, .L5+4
 167 002c 0A43     		orr	r2, r1
 168              	.LVL23:
 356:.\Generated_Source\PSoC4/CapSense.c ****                                                    | CapSense_CSD_CFG_SENSE_EN);    
 357:.\Generated_Source\PSoC4/CapSense.c ****     CapSense_CSD_CFG_REG = newRegValue;
 169              		.loc 1 357 0
 170 002e 1A60     		str	r2, [r3]
 358:.\Generated_Source\PSoC4/CapSense.c **** 
 359:.\Generated_Source\PSoC4/CapSense.c ****     /* Enable interrupt */
 360:.\Generated_Source\PSoC4/CapSense.c ****     CyIntEnable(CapSense_ISR_NUMBER);
 171              		.loc 1 360 0
 172 0030 1020     		mov	r0, #16
 173 0032 FFF7FEFF 		bl	CyIntEnable
 174              	.LVL24:
 361:.\Generated_Source\PSoC4/CapSense.c **** }
 175              		.loc 1 361 0
 176              		@ sp needed
 177 0036 08BD     		pop	{r3, pc}
 178              	.L6:
 179              		.align	2
 180              	.L5:
 181 0038 04002840 		.word	1076363268
 182 003c 00100880 		.word	-2146955264
 183              		.cfi_endproc
 184              	.LFE37:
 185              		.size	CapSense_Enable, .-CapSense_Enable
 186              		.section	.text.CapSense_Stop,"ax",%progbits
 187              		.align	2
 188              		.global	CapSense_Stop
 189              		.code	16
 190              		.thumb_func
 191              		.type	CapSense_Stop, %function
 192              	CapSense_Stop:
 193              	.LFB39:
 362:.\Generated_Source\PSoC4/CapSense.c **** 
 363:.\Generated_Source\PSoC4/CapSense.c **** 
 364:.\Generated_Source\PSoC4/CapSense.c **** /*******************************************************************************
 365:.\Generated_Source\PSoC4/CapSense.c **** * Function Name: CapSense_Start
 366:.\Generated_Source\PSoC4/CapSense.c **** ********************************************************************************
 367:.\Generated_Source\PSoC4/CapSense.c **** *
 368:.\Generated_Source\PSoC4/CapSense.c **** * Summary:
 369:.\Generated_Source\PSoC4/CapSense.c **** *  This is the preferred method to begin the component operation. CapSense_Start() 
 370:.\Generated_Source\PSoC4/CapSense.c **** *  calls the CapSense_Init() function, and then calls the CapSense_Enable() 
 371:.\Generated_Source\PSoC4/CapSense.c **** *  function. Initializes the registers and starts the CSD method of the CapSense 
 372:.\Generated_Source\PSoC4/CapSense.c **** *  component. Resets all the sensors to an inactive state. Enables interrupts for 
 373:.\Generated_Source\PSoC4/CapSense.c **** *  sensors scanning. When the SmartSense tuning mode is selected, the tuning procedure
 374:.\Generated_Source\PSoC4/CapSense.c **** *  is applied for all the sensors. The CapSense_Start() routine must be called before 
 375:.\Generated_Source\PSoC4/CapSense.c **** *  any other API routines.
 376:.\Generated_Source\PSoC4/CapSense.c **** *
 377:.\Generated_Source\PSoC4/CapSense.c **** * Parameters:
ARM GAS  C:\Users\Luci\AppData\Local\Temp\cc2LetiO.s 			page 11


 378:.\Generated_Source\PSoC4/CapSense.c **** *  None
 379:.\Generated_Source\PSoC4/CapSense.c **** *
 380:.\Generated_Source\PSoC4/CapSense.c **** * Return:
 381:.\Generated_Source\PSoC4/CapSense.c **** *  None
 382:.\Generated_Source\PSoC4/CapSense.c **** *
 383:.\Generated_Source\PSoC4/CapSense.c **** * Global Variables:
 384:.\Generated_Source\PSoC4/CapSense.c **** *   CapSense_initVar - used to check the initial configuration, 
 385:.\Generated_Source\PSoC4/CapSense.c **** *   modified on the first function call.
 386:.\Generated_Source\PSoC4/CapSense.c **** *  CapSense_lowLevelTuningDone - Used to notify the Tuner GUI that 
 387:.\Generated_Source\PSoC4/CapSense.c **** *   tuning of the scanning parameters is done. 
 388:.\Generated_Source\PSoC4/CapSense.c **** *
 389:.\Generated_Source\PSoC4/CapSense.c **** * Side Effects:
 390:.\Generated_Source\PSoC4/CapSense.c **** *  None
 391:.\Generated_Source\PSoC4/CapSense.c **** * 
 392:.\Generated_Source\PSoC4/CapSense.c **** *******************************************************************************/
 393:.\Generated_Source\PSoC4/CapSense.c **** void CapSense_Start(void)
 394:.\Generated_Source\PSoC4/CapSense.c **** {
 395:.\Generated_Source\PSoC4/CapSense.c **** 
 396:.\Generated_Source\PSoC4/CapSense.c **** 	static uint8 CapSense_initVar = 0u;
 397:.\Generated_Source\PSoC4/CapSense.c **** 
 398:.\Generated_Source\PSoC4/CapSense.c **** 	#if((0u != CapSense_AUTOCALIBRATION_ENABLE) && (CapSense_TUNING_METHOD != CapSense__TUNING_AUTO))
 399:.\Generated_Source\PSoC4/CapSense.c **** 		uint32 curSensor;
 400:.\Generated_Source\PSoC4/CapSense.c **** 		uint32 rawLevel;
 401:.\Generated_Source\PSoC4/CapSense.c **** 		uint32 widget;
 402:.\Generated_Source\PSoC4/CapSense.c ****     #endif /* ((0u != CapSense_AUTOCALIBRATION_ENABLE) && (CapSense_TUNING_METHOD != CapSense__TUNI
 403:.\Generated_Source\PSoC4/CapSense.c **** 	
 404:.\Generated_Source\PSoC4/CapSense.c ****     if (CapSense_initVar == 0u)
 405:.\Generated_Source\PSoC4/CapSense.c ****     {
 406:.\Generated_Source\PSoC4/CapSense.c ****         CapSense_Init();
 407:.\Generated_Source\PSoC4/CapSense.c ****         CapSense_initVar = 1u;
 408:.\Generated_Source\PSoC4/CapSense.c ****     }
 409:.\Generated_Source\PSoC4/CapSense.c ****     CapSense_Enable();
 410:.\Generated_Source\PSoC4/CapSense.c **** 	
 411:.\Generated_Source\PSoC4/CapSense.c ****     /* AutoTunning start */
 412:.\Generated_Source\PSoC4/CapSense.c ****     #if(CapSense_TUNING_METHOD == CapSense__TUNING_AUTO)
 413:.\Generated_Source\PSoC4/CapSense.c **** 		#if(0u != CapSense_CSHL_API_GENERATE)
 414:.\Generated_Source\PSoC4/CapSense.c **** 	        CapSense_AutoTune();
 415:.\Generated_Source\PSoC4/CapSense.c **** 	        CapSense_lowLevelTuningDone = 1u;
 416:.\Generated_Source\PSoC4/CapSense.c **** 		#endif /* (0u != CapSense_CSHL_API_GENERATE) */
 417:.\Generated_Source\PSoC4/CapSense.c **** 	#else
 418:.\Generated_Source\PSoC4/CapSense.c **** 		#if(0u != CapSense_AUTOCALIBRATION_ENABLE)
 419:.\Generated_Source\PSoC4/CapSense.c **** 			
 420:.\Generated_Source\PSoC4/CapSense.c **** 			#if(CapSense_IDAC_CNT > 1u)
 421:.\Generated_Source\PSoC4/CapSense.c **** 				CapSense_CSD_IDAC_REG &= ~(CapSense_CSD_IDAC2_MODE_MASK);	
 422:.\Generated_Source\PSoC4/CapSense.c **** 			#endif /* (CapSense_IDAC_CNT > 1u) */
 423:.\Generated_Source\PSoC4/CapSense.c **** 			
 424:.\Generated_Source\PSoC4/CapSense.c **** 			for(curSensor = 0u; curSensor < CapSense_TOTAL_SCANSLOT_COUNT; curSensor++)
 425:.\Generated_Source\PSoC4/CapSense.c **** 			{
 426:.\Generated_Source\PSoC4/CapSense.c **** 				widget = CapSense_widgetNumber[curSensor];
 427:.\Generated_Source\PSoC4/CapSense.c **** 				rawLevel = CapSense_widgetResolution[widget] >> CapSense_RESOLUTION_OFFSET;
 428:.\Generated_Source\PSoC4/CapSense.c **** 				
 429:.\Generated_Source\PSoC4/CapSense.c **** 				/* Calibration level should be equal to 85% from scanning resolution */
 430:.\Generated_Source\PSoC4/CapSense.c **** 				rawLevel = (rawLevel * 85u) / 100u;
 431:.\Generated_Source\PSoC4/CapSense.c **** 				
 432:.\Generated_Source\PSoC4/CapSense.c **** 				CapSense_CalibrateSensor(curSensor, rawLevel, CapSense_modulationIDAC);
 433:.\Generated_Source\PSoC4/CapSense.c **** 			}
 434:.\Generated_Source\PSoC4/CapSense.c **** 
ARM GAS  C:\Users\Luci\AppData\Local\Temp\cc2LetiO.s 			page 12


 435:.\Generated_Source\PSoC4/CapSense.c **** 			#if(0u != CapSense_TOTAL_CENTROIDS_COUNT) 
 436:.\Generated_Source\PSoC4/CapSense.c **** 				CapSense_NormalizeWidgets(CapSense_END_OF_WIDGETS_INDEX, CapSense_modulationIDAC);
 437:.\Generated_Source\PSoC4/CapSense.c **** 			#endif /* (0u != CapSense_TOTAL_CENTROIDS_COUNT)  */
 438:.\Generated_Source\PSoC4/CapSense.c **** 
 439:.\Generated_Source\PSoC4/CapSense.c **** 			#if(CapSense_IDAC_CNT > 1u)
 440:.\Generated_Source\PSoC4/CapSense.c **** 				for(curSensor = 0u; curSensor < CapSense_TOTAL_SCANSLOT_COUNT; curSensor++)
 441:.\Generated_Source\PSoC4/CapSense.c **** 			    {
 442:.\Generated_Source\PSoC4/CapSense.c **** 					CapSense_compensationIDAC[curSensor] = CapSense_modulationIDAC[curSensor] / 2u;
 443:.\Generated_Source\PSoC4/CapSense.c **** 					CapSense_modulationIDAC[curSensor] = (CapSense_modulationIDAC[curSensor] + 1u) / 2u;
 444:.\Generated_Source\PSoC4/CapSense.c **** 			    }
 445:.\Generated_Source\PSoC4/CapSense.c **** 				CapSense_CSD_IDAC_REG |= CapSense_CSD_IDAC2_MODE_FIXED;
 446:.\Generated_Source\PSoC4/CapSense.c **** 			#endif /* (CapSense_IDAC_CNT > 1u) */
 447:.\Generated_Source\PSoC4/CapSense.c **** 			
 448:.\Generated_Source\PSoC4/CapSense.c ****         #endif /* (0u != CapSense_AUTOCALIBRATION_ENABLE) */ 
 449:.\Generated_Source\PSoC4/CapSense.c **** 					
 450:.\Generated_Source\PSoC4/CapSense.c ****     #endif /* ((CapSense_TUNING_METHOD == CapSense__TUNING_AUTO) */	
 451:.\Generated_Source\PSoC4/CapSense.c **** 	
 452:.\Generated_Source\PSoC4/CapSense.c **** 	/* Initialize Advanced Centroid */
 453:.\Generated_Source\PSoC4/CapSense.c **** 	#if(CapSense_TOTAL_TRACKPAD_GESTURES_COUNT > 0u)
 454:.\Generated_Source\PSoC4/CapSense.c **** 		CapSense_AdvancedCentroidInit();
 455:.\Generated_Source\PSoC4/CapSense.c **** 	#endif /* (CapSense_TOTAL_TRACKPAD_GESTURES_COUNT > 0u) */
 456:.\Generated_Source\PSoC4/CapSense.c **** 	
 457:.\Generated_Source\PSoC4/CapSense.c **** 	/* Connect sense comparator input to AMUXA */
 458:.\Generated_Source\PSoC4/CapSense.c **** 	CapSense_CSD_CFG_REG |= CapSense_CSD_CFG_SENSE_INSEL;
 459:.\Generated_Source\PSoC4/CapSense.c **** }
 460:.\Generated_Source\PSoC4/CapSense.c **** 
 461:.\Generated_Source\PSoC4/CapSense.c **** 
 462:.\Generated_Source\PSoC4/CapSense.c **** /*******************************************************************************
 463:.\Generated_Source\PSoC4/CapSense.c **** * Function Name: CapSense_Stop
 464:.\Generated_Source\PSoC4/CapSense.c **** ********************************************************************************
 465:.\Generated_Source\PSoC4/CapSense.c **** *
 466:.\Generated_Source\PSoC4/CapSense.c **** * Summary:
 467:.\Generated_Source\PSoC4/CapSense.c **** *  Stops the sensor scanning, disables component interrupts, and resets all the 
 468:.\Generated_Source\PSoC4/CapSense.c **** *  sensors to an inactive state. Disables the Active mode power template bits for
 469:.\Generated_Source\PSoC4/CapSense.c **** *  the subcomponents used within CapSense.
 470:.\Generated_Source\PSoC4/CapSense.c **** *
 471:.\Generated_Source\PSoC4/CapSense.c **** * Parameters:
 472:.\Generated_Source\PSoC4/CapSense.c **** *  None
 473:.\Generated_Source\PSoC4/CapSense.c **** *
 474:.\Generated_Source\PSoC4/CapSense.c **** * Return:
 475:.\Generated_Source\PSoC4/CapSense.c **** *  None
 476:.\Generated_Source\PSoC4/CapSense.c **** *
 477:.\Generated_Source\PSoC4/CapSense.c **** * Global Variables:
 478:.\Generated_Source\PSoC4/CapSense.c **** *  CapSense_csdTrim1 - Contains the IDAC trim register value for the Sourcing Mode.
 479:.\Generated_Source\PSoC4/CapSense.c **** *  CapSense_csdTrim2 - Contains the IDAC trim register value for vSinking Mode.
 480:.\Generated_Source\PSoC4/CapSense.c **** *
 481:.\Generated_Source\PSoC4/CapSense.c **** * Side Effects:
 482:.\Generated_Source\PSoC4/CapSense.c **** *  This function should be called after scans are completed.
 483:.\Generated_Source\PSoC4/CapSense.c **** *
 484:.\Generated_Source\PSoC4/CapSense.c **** *******************************************************************************/
 485:.\Generated_Source\PSoC4/CapSense.c **** void CapSense_Stop(void)
 486:.\Generated_Source\PSoC4/CapSense.c **** {
 194              		.loc 1 486 0
 195              		.cfi_startproc
 196 0000 08B5     		push	{r3, lr}
 197              		.cfi_def_cfa_offset 8
 198              		.cfi_offset 3, -8
ARM GAS  C:\Users\Luci\AppData\Local\Temp\cc2LetiO.s 			page 13


 199              		.cfi_offset 14, -4
 487:.\Generated_Source\PSoC4/CapSense.c ****     /* Disable interrupt */
 488:.\Generated_Source\PSoC4/CapSense.c ****     CyIntDisable(CapSense_ISR_NUMBER);
 200              		.loc 1 488 0
 201 0002 1020     		mov	r0, #16
 202 0004 FFF7FEFF 		bl	CyIntDisable
 203              	.LVL25:
 489:.\Generated_Source\PSoC4/CapSense.c **** 	
 490:.\Generated_Source\PSoC4/CapSense.c **** 	CapSense_CSD_CFG_REG &= ~(CapSense_CSD_CFG_SENSE_COMP_EN | CapSense_CSD_CFG_SENSE_EN);
 204              		.loc 1 490 0
 205 0008 064B     		ldr	r3, .L8
 206 000a 1968     		ldr	r1, [r3]
 207 000c 064A     		ldr	r2, .L8+4
 208 000e 0A40     		and	r2, r1
 209 0010 1A60     		str	r2, [r3]
 491:.\Generated_Source\PSoC4/CapSense.c **** 	
 492:.\Generated_Source\PSoC4/CapSense.c **** 	#if(CapSense_IDAC_CNT == 2u)
 493:.\Generated_Source\PSoC4/CapSense.c **** 		CapSense_CSD_CFG_REG &= ~(CapSense_CSD_CFG_ENABLE);
 210              		.loc 1 493 0
 211 0012 1A68     		ldr	r2, [r3]
 212 0014 5200     		lsl	r2, r2, #1
 213 0016 5208     		lsr	r2, r2, #1
 214 0018 1A60     		str	r2, [r3]
 494:.\Generated_Source\PSoC4/CapSense.c **** 	#endif /* (CapSense_IDAC_CNT == 2u) */
 495:.\Generated_Source\PSoC4/CapSense.c **** 
 496:.\Generated_Source\PSoC4/CapSense.c ****     /* Disable the Clocks */
 497:.\Generated_Source\PSoC4/CapSense.c ****     CapSense_SenseClk_Stop();
 215              		.loc 1 497 0
 216 001a FFF7FEFF 		bl	CapSense_SenseClk_Stop
 217              	.LVL26:
 498:.\Generated_Source\PSoC4/CapSense.c ****     CapSense_SampleClk_Stop();
 218              		.loc 1 498 0
 219 001e FFF7FEFF 		bl	CapSense_SampleClk_Stop
 220              	.LVL27:
 499:.\Generated_Source\PSoC4/CapSense.c **** }
 221              		.loc 1 499 0
 222              		@ sp needed
 223 0022 08BD     		pop	{r3, pc}
 224              	.L9:
 225              		.align	2
 226              	.L8:
 227 0024 04002840 		.word	1076363268
 228 0028 FFEFF7FF 		.word	-528385
 229              		.cfi_endproc
 230              	.LFE39:
 231              		.size	CapSense_Stop, .-CapSense_Stop
 232              		.section	.text.CapSense_IsBusy,"ax",%progbits
 233              		.align	2
 234              		.global	CapSense_IsBusy
 235              		.code	16
 236              		.thumb_func
 237              		.type	CapSense_IsBusy, %function
 238              	CapSense_IsBusy:
 239              	.LFB44:
 500:.\Generated_Source\PSoC4/CapSense.c **** 
 501:.\Generated_Source\PSoC4/CapSense.c **** 
 502:.\Generated_Source\PSoC4/CapSense.c **** /*******************************************************************************
ARM GAS  C:\Users\Luci\AppData\Local\Temp\cc2LetiO.s 			page 14


 503:.\Generated_Source\PSoC4/CapSense.c **** * Function Name: CapSense_FindNextSensor
 504:.\Generated_Source\PSoC4/CapSense.c **** ********************************************************************************
 505:.\Generated_Source\PSoC4/CapSense.c **** *
 506:.\Generated_Source\PSoC4/CapSense.c **** * Summary:
 507:.\Generated_Source\PSoC4/CapSense.c **** *  Finds the next sensor to scan. 
 508:.\Generated_Source\PSoC4/CapSense.c **** *
 509:.\Generated_Source\PSoC4/CapSense.c **** * Parameters:
 510:.\Generated_Source\PSoC4/CapSense.c **** *  snsIndex:  Current index of sensor.
 511:.\Generated_Source\PSoC4/CapSense.c **** *
 512:.\Generated_Source\PSoC4/CapSense.c **** * Return:
 513:.\Generated_Source\PSoC4/CapSense.c **** *  Returns the next sensor index to scan.
 514:.\Generated_Source\PSoC4/CapSense.c **** *
 515:.\Generated_Source\PSoC4/CapSense.c **** * Global Variables:
 516:.\Generated_Source\PSoC4/CapSense.c **** *  CapSense_sensorEnableMask[] - used to store bit masks of the enabled sensors.
 517:.\Generated_Source\PSoC4/CapSense.c **** *
 518:.\Generated_Source\PSoC4/CapSense.c **** * Side Effects:
 519:.\Generated_Source\PSoC4/CapSense.c **** *  This function affects the  current scanning and should not
 520:.\Generated_Source\PSoC4/CapSense.c **** *  be used outside the component.
 521:.\Generated_Source\PSoC4/CapSense.c **** *
 522:.\Generated_Source\PSoC4/CapSense.c **** *******************************************************************************/
 523:.\Generated_Source\PSoC4/CapSense.c **** uint8 CapSense_FindNextSensor(uint8 snsIndex)
 524:.\Generated_Source\PSoC4/CapSense.c **** {
 525:.\Generated_Source\PSoC4/CapSense.c ****     uint32 enableFlag;
 526:.\Generated_Source\PSoC4/CapSense.c ****     
 527:.\Generated_Source\PSoC4/CapSense.c ****     /* Check if sensor enabled */
 528:.\Generated_Source\PSoC4/CapSense.c ****     do
 529:.\Generated_Source\PSoC4/CapSense.c ****     {
 530:.\Generated_Source\PSoC4/CapSense.c ****         /* Proceed with next sensor */
 531:.\Generated_Source\PSoC4/CapSense.c ****         snsIndex++;
 532:.\Generated_Source\PSoC4/CapSense.c ****         if(snsIndex == CapSense_TOTAL_SENSOR_COUNT)
 533:.\Generated_Source\PSoC4/CapSense.c ****         {
 534:.\Generated_Source\PSoC4/CapSense.c ****             break;
 535:.\Generated_Source\PSoC4/CapSense.c ****         }
 536:.\Generated_Source\PSoC4/CapSense.c ****         enableFlag = CapSense_GetBitValue(CapSense_sensorEnableMask, (uint32)snsIndex);
 537:.\Generated_Source\PSoC4/CapSense.c ****     }    
 538:.\Generated_Source\PSoC4/CapSense.c ****     while(enableFlag == 0u);
 539:.\Generated_Source\PSoC4/CapSense.c ****     
 540:.\Generated_Source\PSoC4/CapSense.c ****     return ((uint8)snsIndex);
 541:.\Generated_Source\PSoC4/CapSense.c **** }
 542:.\Generated_Source\PSoC4/CapSense.c **** 
 543:.\Generated_Source\PSoC4/CapSense.c **** 
 544:.\Generated_Source\PSoC4/CapSense.c **** /*******************************************************************************
 545:.\Generated_Source\PSoC4/CapSense.c **** * Function Name: CapSense_ScanSensor
 546:.\Generated_Source\PSoC4/CapSense.c **** ********************************************************************************
 547:.\Generated_Source\PSoC4/CapSense.c **** *
 548:.\Generated_Source\PSoC4/CapSense.c **** * Summary:
 549:.\Generated_Source\PSoC4/CapSense.c **** *  Sets the scan settings and starts scanning a sensor. After scanning is complete,
 550:.\Generated_Source\PSoC4/CapSense.c **** *  the ISR copies the measured sensor raw data to the global raw sensor array. 
 551:.\Generated_Source\PSoC4/CapSense.c **** *  Use of the ISR ensures this function is non-blocking. 
 552:.\Generated_Source\PSoC4/CapSense.c **** *  Each sensor has a unique number within the sensor array. 
 553:.\Generated_Source\PSoC4/CapSense.c **** *  This number is assigned by the CapSense customizer in sequence.
 554:.\Generated_Source\PSoC4/CapSense.c **** *
 555:.\Generated_Source\PSoC4/CapSense.c **** * Parameters:
 556:.\Generated_Source\PSoC4/CapSense.c **** *  sensor:  Sensor number.
 557:.\Generated_Source\PSoC4/CapSense.c **** *
 558:.\Generated_Source\PSoC4/CapSense.c **** * Return:
 559:.\Generated_Source\PSoC4/CapSense.c **** *  None
ARM GAS  C:\Users\Luci\AppData\Local\Temp\cc2LetiO.s 			page 15


 560:.\Generated_Source\PSoC4/CapSense.c **** *
 561:.\Generated_Source\PSoC4/CapSense.c **** * Global Variables:
 562:.\Generated_Source\PSoC4/CapSense.c **** *  CapSense_csdStatusVar - used to provide the status and mode of the scanning process. 
 563:.\Generated_Source\PSoC4/CapSense.c **** *  Sets the busy status(scan in progress) and mode of scan as single scan.
 564:.\Generated_Source\PSoC4/CapSense.c **** *  CapSense_sensorIndex - used to store a sensor scanning sensor number.
 565:.\Generated_Source\PSoC4/CapSense.c **** *  Sets to the provided sensor argument.
 566:.\Generated_Source\PSoC4/CapSense.c **** *
 567:.\Generated_Source\PSoC4/CapSense.c **** * Side Effects:
 568:.\Generated_Source\PSoC4/CapSense.c **** *  None
 569:.\Generated_Source\PSoC4/CapSense.c **** * 
 570:.\Generated_Source\PSoC4/CapSense.c **** *******************************************************************************/
 571:.\Generated_Source\PSoC4/CapSense.c **** void CapSense_ScanSensor(uint32 sensor)
 572:.\Generated_Source\PSoC4/CapSense.c **** {
 573:.\Generated_Source\PSoC4/CapSense.c ****     /* Clears status/control variable and set sensorIndex */
 574:.\Generated_Source\PSoC4/CapSense.c ****     CapSense_csdStatusVar = 0u;
 575:.\Generated_Source\PSoC4/CapSense.c ****     CapSense_sensorIndex = (uint8)sensor;
 576:.\Generated_Source\PSoC4/CapSense.c ****     
 577:.\Generated_Source\PSoC4/CapSense.c ****     /* Start of sensor scan */
 578:.\Generated_Source\PSoC4/CapSense.c ****     CapSense_csdStatusVar = (CapSense_SW_STS_BUSY | CapSense_SW_CTRL_SINGLE_SCAN);
 579:.\Generated_Source\PSoC4/CapSense.c ****     CapSense_PreScan(sensor);
 580:.\Generated_Source\PSoC4/CapSense.c **** }
 581:.\Generated_Source\PSoC4/CapSense.c **** 
 582:.\Generated_Source\PSoC4/CapSense.c **** 
 583:.\Generated_Source\PSoC4/CapSense.c **** #if(0u != CapSense_CSHL_API_GENERATE)
 584:.\Generated_Source\PSoC4/CapSense.c **** /*******************************************************************************
 585:.\Generated_Source\PSoC4/CapSense.c **** * Function Name: CapSense_ScanWidget
 586:.\Generated_Source\PSoC4/CapSense.c **** ********************************************************************************
 587:.\Generated_Source\PSoC4/CapSense.c **** *
 588:.\Generated_Source\PSoC4/CapSense.c **** * Summary:
 589:.\Generated_Source\PSoC4/CapSense.c **** *  Sets the scan settings and starts scanning a widget.
 590:.\Generated_Source\PSoC4/CapSense.c **** *
 591:.\Generated_Source\PSoC4/CapSense.c **** * Parameters:
 592:.\Generated_Source\PSoC4/CapSense.c **** *  uint32 widget: Widget number.
 593:.\Generated_Source\PSoC4/CapSense.c **** *
 594:.\Generated_Source\PSoC4/CapSense.c **** * Return:
 595:.\Generated_Source\PSoC4/CapSense.c **** *  None
 596:.\Generated_Source\PSoC4/CapSense.c **** *
 597:.\Generated_Source\PSoC4/CapSense.c **** * Global Variables:
 598:.\Generated_Source\PSoC4/CapSense.c **** *  CapSense_csdStatusVar - used to provide the status and mode of the scanning process. 
 599:.\Generated_Source\PSoC4/CapSense.c **** *  Sets the busy status(scan in progress) and clears the single scan mode.
 600:.\Generated_Source\PSoC4/CapSense.c **** *  CapSense_sensorIndex - used to store a sensor scanning sensor number.
 601:.\Generated_Source\PSoC4/CapSense.c **** *  Sets to 0xFF and provided to function CapSense_FindNextSensor or
 602:.\Generated_Source\PSoC4/CapSense.c **** *  CapSense_sensorEnableMask[] - used to store bit masks of the enabled sensors.
 603:.\Generated_Source\PSoC4/CapSense.c **** *  CapSense_sensorEnableMaskBackup[] - used to backup bit masks of the enabled
 604:.\Generated_Source\PSoC4/CapSense.c **** *   sensors.
 605:.\Generated_Source\PSoC4/CapSense.c **** *
 606:.\Generated_Source\PSoC4/CapSense.c **** * Side Effects:
 607:.\Generated_Source\PSoC4/CapSense.c **** *  None
 608:.\Generated_Source\PSoC4/CapSense.c **** * 
 609:.\Generated_Source\PSoC4/CapSense.c **** *******************************************************************************/
 610:.\Generated_Source\PSoC4/CapSense.c **** void CapSense_ScanWidget(uint32 widget)
 611:.\Generated_Source\PSoC4/CapSense.c **** {
 612:.\Generated_Source\PSoC4/CapSense.c ****     uint32 sensorsPerWidget;
 613:.\Generated_Source\PSoC4/CapSense.c ****     uint32 lastSensor;
 614:.\Generated_Source\PSoC4/CapSense.c ****     uint32 snsIndex;
 615:.\Generated_Source\PSoC4/CapSense.c **** 
 616:.\Generated_Source\PSoC4/CapSense.c **** 	/* Get first sensor in widget */
ARM GAS  C:\Users\Luci\AppData\Local\Temp\cc2LetiO.s 			page 16


 617:.\Generated_Source\PSoC4/CapSense.c **** 	CapSense_sensorIndex = CapSense_rawDataIndex[widget];
 618:.\Generated_Source\PSoC4/CapSense.c **** 	
 619:.\Generated_Source\PSoC4/CapSense.c **** 	/* Get number of sensors in widget */
 620:.\Generated_Source\PSoC4/CapSense.c **** 	sensorsPerWidget = CapSense_numberOfSensors[widget];
 621:.\Generated_Source\PSoC4/CapSense.c **** 	
 622:.\Generated_Source\PSoC4/CapSense.c **** 	/* Check if generic Sensor */
 623:.\Generated_Source\PSoC4/CapSense.c **** 	if(sensorsPerWidget == 0u)
 624:.\Generated_Source\PSoC4/CapSense.c **** 	{
 625:.\Generated_Source\PSoC4/CapSense.c **** 		sensorsPerWidget = 1u;
 626:.\Generated_Source\PSoC4/CapSense.c **** 	}
 627:.\Generated_Source\PSoC4/CapSense.c **** 	
 628:.\Generated_Source\PSoC4/CapSense.c **** 	/* Get last sensor in widget */
 629:.\Generated_Source\PSoC4/CapSense.c **** 	lastSensor = (CapSense_rawDataIndex[widget] + sensorsPerWidget) - 1u;
 630:.\Generated_Source\PSoC4/CapSense.c **** 
 631:.\Generated_Source\PSoC4/CapSense.c **** 	/* Backup sensorEnableMask array */
 632:.\Generated_Source\PSoC4/CapSense.c **** 	for(snsIndex = 0u; snsIndex < CapSense_TOTAL_SENSOR_MASK; snsIndex++)
 633:.\Generated_Source\PSoC4/CapSense.c **** 	{
 634:.\Generated_Source\PSoC4/CapSense.c **** 		/* Backup sensorEnableMask array */
 635:.\Generated_Source\PSoC4/CapSense.c **** 		CapSense_sensorEnableMaskBackup[snsIndex] = CapSense_sensorEnableMask[snsIndex];
 636:.\Generated_Source\PSoC4/CapSense.c **** 	}
 637:.\Generated_Source\PSoC4/CapSense.c **** 
 638:.\Generated_Source\PSoC4/CapSense.c **** 	/* Update sensorEnableMask to scan the sensors that belong to widget */
 639:.\Generated_Source\PSoC4/CapSense.c **** 	for(snsIndex = 0u; snsIndex < CapSense_TOTAL_SENSOR_COUNT; snsIndex++)
 640:.\Generated_Source\PSoC4/CapSense.c **** 	{
 641:.\Generated_Source\PSoC4/CapSense.c **** 		/* Update sensorEnableMask array bits to scan the widget only */ 
 642:.\Generated_Source\PSoC4/CapSense.c **** 	    if((snsIndex >= CapSense_sensorIndex) && (snsIndex <= lastSensor))
 643:.\Generated_Source\PSoC4/CapSense.c **** 		{
 644:.\Generated_Source\PSoC4/CapSense.c **** 		    /* Set sensor bit to scan */
 645:.\Generated_Source\PSoC4/CapSense.c **** 			CapSense_SetBitValue(CapSense_sensorEnableMask, snsIndex, 1u);
 646:.\Generated_Source\PSoC4/CapSense.c **** 		}
 647:.\Generated_Source\PSoC4/CapSense.c **** 		else
 648:.\Generated_Source\PSoC4/CapSense.c **** 		{
 649:.\Generated_Source\PSoC4/CapSense.c **** 		    /* Reset sensor bit to do not scan */
 650:.\Generated_Source\PSoC4/CapSense.c **** 		    CapSense_SetBitValue(CapSense_sensorEnableMask, snsIndex, 0u);
 651:.\Generated_Source\PSoC4/CapSense.c **** 		}
 652:.\Generated_Source\PSoC4/CapSense.c **** 	}
 653:.\Generated_Source\PSoC4/CapSense.c **** 
 654:.\Generated_Source\PSoC4/CapSense.c ****     /* Check end of scan condition */
 655:.\Generated_Source\PSoC4/CapSense.c ****     if(CapSense_sensorIndex < CapSense_TOTAL_SENSOR_COUNT)
 656:.\Generated_Source\PSoC4/CapSense.c ****     {
 657:.\Generated_Source\PSoC4/CapSense.c **** 		/* Set widget busy bit in status/control variable*/ 
 658:.\Generated_Source\PSoC4/CapSense.c **** 		CapSense_csdStatusVar = (CapSense_SW_STS_BUSY | CapSense_SW_CTRL_WIDGET_SCAN);
 659:.\Generated_Source\PSoC4/CapSense.c **** 		/* Scan first sensor of widget*/ 
 660:.\Generated_Source\PSoC4/CapSense.c ****         CapSense_PreScan((uint32)CapSense_sensorIndex);
 661:.\Generated_Source\PSoC4/CapSense.c ****     }
 662:.\Generated_Source\PSoC4/CapSense.c **** }
 663:.\Generated_Source\PSoC4/CapSense.c **** #endif /* (0u != CapSense_CSHL_API_GENERATE) */
 664:.\Generated_Source\PSoC4/CapSense.c **** 
 665:.\Generated_Source\PSoC4/CapSense.c **** 
 666:.\Generated_Source\PSoC4/CapSense.c **** /*******************************************************************************
 667:.\Generated_Source\PSoC4/CapSense.c **** * Function Name: CapSense_ScanEnableWidgets
 668:.\Generated_Source\PSoC4/CapSense.c **** ********************************************************************************
 669:.\Generated_Source\PSoC4/CapSense.c **** *
 670:.\Generated_Source\PSoC4/CapSense.c **** * Summary:
 671:.\Generated_Source\PSoC4/CapSense.c **** *  This is the preferred method to scan all of the enabled widgets. 
 672:.\Generated_Source\PSoC4/CapSense.c **** *  The API starts scanning a sensor within the enabled widgets. 
 673:.\Generated_Source\PSoC4/CapSense.c **** *  The ISR continues scanning the sensors until all the enabled widgets are scanned. 
ARM GAS  C:\Users\Luci\AppData\Local\Temp\cc2LetiO.s 			page 17


 674:.\Generated_Source\PSoC4/CapSense.c **** *  Use of the ISR ensures this function is non-blocking.
 675:.\Generated_Source\PSoC4/CapSense.c **** *  All the widgets are enabled by default except proximity widgets. 
 676:.\Generated_Source\PSoC4/CapSense.c **** *  The proximity widgets must be manually enabled as their long scan time 
 677:.\Generated_Source\PSoC4/CapSense.c **** *  is incompatible with a fast response required of other widget types.
 678:.\Generated_Source\PSoC4/CapSense.c **** *
 679:.\Generated_Source\PSoC4/CapSense.c **** * Parameters:
 680:.\Generated_Source\PSoC4/CapSense.c **** *  None
 681:.\Generated_Source\PSoC4/CapSense.c **** *
 682:.\Generated_Source\PSoC4/CapSense.c **** * Return:
 683:.\Generated_Source\PSoC4/CapSense.c **** *  None
 684:.\Generated_Source\PSoC4/CapSense.c **** *
 685:.\Generated_Source\PSoC4/CapSense.c **** * Global Variables:
 686:.\Generated_Source\PSoC4/CapSense.c **** *  CapSense_csdStatusVar - used to provide the status and mode of the scanning process. 
 687:.\Generated_Source\PSoC4/CapSense.c **** *  Sets the busy status(scan in progress) and clears the single scan mode.
 688:.\Generated_Source\PSoC4/CapSense.c **** *  CapSense_sensorIndex - used to store a sensor scanning sensor number.
 689:.\Generated_Source\PSoC4/CapSense.c **** *  Sets to 0xFF and provided to function CapSense_FindNextSensor or
 690:.\Generated_Source\PSoC4/CapSense.c **** *
 691:.\Generated_Source\PSoC4/CapSense.c **** * Side Effects:
 692:.\Generated_Source\PSoC4/CapSense.c **** *  None
 693:.\Generated_Source\PSoC4/CapSense.c **** * 
 694:.\Generated_Source\PSoC4/CapSense.c **** *******************************************************************************/
 695:.\Generated_Source\PSoC4/CapSense.c **** void CapSense_ScanEnabledWidgets(void)
 696:.\Generated_Source\PSoC4/CapSense.c **** {
 697:.\Generated_Source\PSoC4/CapSense.c ****     /* Clears status/control variable and set sensorIndex */
 698:.\Generated_Source\PSoC4/CapSense.c ****     CapSense_csdStatusVar = 0u;
 699:.\Generated_Source\PSoC4/CapSense.c ****     CapSense_sensorIndex = 0xFFu;
 700:.\Generated_Source\PSoC4/CapSense.c ****     
 701:.\Generated_Source\PSoC4/CapSense.c ****     /* Find next sensor */
 702:.\Generated_Source\PSoC4/CapSense.c ****     CapSense_sensorIndex = (uint8)CapSense_FindNextSensor(CapSense_sensorIndex);
 703:.\Generated_Source\PSoC4/CapSense.c **** 
 704:.\Generated_Source\PSoC4/CapSense.c ****     /* Check end of scan condition */
 705:.\Generated_Source\PSoC4/CapSense.c ****     if(CapSense_sensorIndex < CapSense_TOTAL_SENSOR_COUNT)
 706:.\Generated_Source\PSoC4/CapSense.c ****     {
 707:.\Generated_Source\PSoC4/CapSense.c ****         CapSense_csdStatusVar |= CapSense_SW_STS_BUSY;
 708:.\Generated_Source\PSoC4/CapSense.c ****         CapSense_PreScan((uint32)CapSense_sensorIndex);
 709:.\Generated_Source\PSoC4/CapSense.c ****     }
 710:.\Generated_Source\PSoC4/CapSense.c **** }
 711:.\Generated_Source\PSoC4/CapSense.c **** 
 712:.\Generated_Source\PSoC4/CapSense.c **** 
 713:.\Generated_Source\PSoC4/CapSense.c **** /*******************************************************************************
 714:.\Generated_Source\PSoC4/CapSense.c **** * Function Name: CapSense_IsBusy
 715:.\Generated_Source\PSoC4/CapSense.c **** ********************************************************************************
 716:.\Generated_Source\PSoC4/CapSense.c **** *
 717:.\Generated_Source\PSoC4/CapSense.c **** * Summary:
 718:.\Generated_Source\PSoC4/CapSense.c **** *  Returns the state of the CapSense component. 1 means that scanning in 
 719:.\Generated_Source\PSoC4/CapSense.c **** *  progress and 0 means that scanning is complete.
 720:.\Generated_Source\PSoC4/CapSense.c **** *
 721:.\Generated_Source\PSoC4/CapSense.c **** * Parameters:
 722:.\Generated_Source\PSoC4/CapSense.c **** *  None
 723:.\Generated_Source\PSoC4/CapSense.c **** *
 724:.\Generated_Source\PSoC4/CapSense.c **** * Return:
 725:.\Generated_Source\PSoC4/CapSense.c **** *  Returns the state of scanning. 1 - scanning in progress, 0 - scanning 
 726:.\Generated_Source\PSoC4/CapSense.c **** *  completed.
 727:.\Generated_Source\PSoC4/CapSense.c **** *
 728:.\Generated_Source\PSoC4/CapSense.c **** * Global Variables:
 729:.\Generated_Source\PSoC4/CapSense.c **** *  CapSense_csdStatusVar - used to provide the status and mode of the scanning process. 
 730:.\Generated_Source\PSoC4/CapSense.c **** *  Checks the busy status.
ARM GAS  C:\Users\Luci\AppData\Local\Temp\cc2LetiO.s 			page 18


 731:.\Generated_Source\PSoC4/CapSense.c **** *
 732:.\Generated_Source\PSoC4/CapSense.c **** * Side Effects:
 733:.\Generated_Source\PSoC4/CapSense.c **** *  None
 734:.\Generated_Source\PSoC4/CapSense.c **** * 
 735:.\Generated_Source\PSoC4/CapSense.c **** *******************************************************************************/
 736:.\Generated_Source\PSoC4/CapSense.c **** uint32 CapSense_IsBusy(void)
 737:.\Generated_Source\PSoC4/CapSense.c **** {
 240              		.loc 1 737 0
 241              		.cfi_startproc
 738:.\Generated_Source\PSoC4/CapSense.c ****     return ((uint32)((0u != (CapSense_csdStatusVar & CapSense_SW_STS_BUSY)) ? 1u : 0u));
 242              		.loc 1 738 0
 243 0000 024B     		ldr	r3, .L11
 244 0002 1878     		ldrb	r0, [r3]
 245 0004 0123     		mov	r3, #1
 246 0006 1840     		and	r0, r3
 739:.\Generated_Source\PSoC4/CapSense.c **** }
 247              		.loc 1 739 0
 248              		@ sp needed
 249 0008 7047     		bx	lr
 250              	.L12:
 251 000a C046     		.align	2
 252              	.L11:
 253 000c 00000000 		.word	.LANCHOR0
 254              		.cfi_endproc
 255              	.LFE44:
 256              		.size	CapSense_IsBusy, .-CapSense_IsBusy
 257              		.section	.text.CapSense_ReadSensorRaw,"ax",%progbits
 258              		.align	2
 259              		.global	CapSense_ReadSensorRaw
 260              		.code	16
 261              		.thumb_func
 262              		.type	CapSense_ReadSensorRaw, %function
 263              	CapSense_ReadSensorRaw:
 264              	.LFB45:
 740:.\Generated_Source\PSoC4/CapSense.c **** 
 741:.\Generated_Source\PSoC4/CapSense.c **** 
 742:.\Generated_Source\PSoC4/CapSense.c **** /*******************************************************************************
 743:.\Generated_Source\PSoC4/CapSense.c **** * Function Name: CapSense_ReadSensorRaw
 744:.\Generated_Source\PSoC4/CapSense.c **** ********************************************************************************
 745:.\Generated_Source\PSoC4/CapSense.c **** *
 746:.\Generated_Source\PSoC4/CapSense.c **** * Summary:
 747:.\Generated_Source\PSoC4/CapSense.c **** *  Returns sensor raw data from the global CapSense_sensorRaw[ ] array. 
 748:.\Generated_Source\PSoC4/CapSense.c **** *  Each scan sensor has a unique number within the sensor array. 
 749:.\Generated_Source\PSoC4/CapSense.c **** *  This number is assigned by the CapSense customizer in sequence. 
 750:.\Generated_Source\PSoC4/CapSense.c **** *  Raw data can be used to perform calculations outside of the CapSense 
 751:.\Generated_Source\PSoC4/CapSense.c **** *  provided framework.
 752:.\Generated_Source\PSoC4/CapSense.c **** *
 753:.\Generated_Source\PSoC4/CapSense.c **** * Parameters:
 754:.\Generated_Source\PSoC4/CapSense.c **** *  sensor:  Sensor number.
 755:.\Generated_Source\PSoC4/CapSense.c **** *
 756:.\Generated_Source\PSoC4/CapSense.c **** * Return:
 757:.\Generated_Source\PSoC4/CapSense.c **** *  Returns the current raw data value for a defined sensor number.
 758:.\Generated_Source\PSoC4/CapSense.c **** *
 759:.\Generated_Source\PSoC4/CapSense.c **** * Global Variables:
 760:.\Generated_Source\PSoC4/CapSense.c **** *  CapSense_sensorRaw[] - used to store sensors raw data.
 761:.\Generated_Source\PSoC4/CapSense.c **** *
 762:.\Generated_Source\PSoC4/CapSense.c **** * Side Effects: 
ARM GAS  C:\Users\Luci\AppData\Local\Temp\cc2LetiO.s 			page 19


 763:.\Generated_Source\PSoC4/CapSense.c **** *  None
 764:.\Generated_Source\PSoC4/CapSense.c **** *
 765:.\Generated_Source\PSoC4/CapSense.c **** *******************************************************************************/
 766:.\Generated_Source\PSoC4/CapSense.c **** uint16 CapSense_ReadSensorRaw(uint32 sensor)
 767:.\Generated_Source\PSoC4/CapSense.c **** {
 265              		.loc 1 767 0
 266              		.cfi_startproc
 267              	.LVL28:
 768:.\Generated_Source\PSoC4/CapSense.c ****     return CapSense_sensorRaw[sensor];
 268              		.loc 1 768 0
 269 0000 4000     		lsl	r0, r0, #1
 270              	.LVL29:
 271 0002 024B     		ldr	r3, .L14
 272 0004 1818     		add	r0, r3, r0
 273 0006 8088     		ldrh	r0, [r0, #4]
 769:.\Generated_Source\PSoC4/CapSense.c **** }
 274              		.loc 1 769 0
 275              		@ sp needed
 276 0008 7047     		bx	lr
 277              	.L15:
 278 000a C046     		.align	2
 279              	.L14:
 280 000c 00000000 		.word	.LANCHOR0
 281              		.cfi_endproc
 282              	.LFE45:
 283              		.size	CapSense_ReadSensorRaw, .-CapSense_ReadSensorRaw
 284              		.section	.text.CapSense_WriteSensorRaw,"ax",%progbits
 285              		.align	2
 286              		.global	CapSense_WriteSensorRaw
 287              		.code	16
 288              		.thumb_func
 289              		.type	CapSense_WriteSensorRaw, %function
 290              	CapSense_WriteSensorRaw:
 291              	.LFB46:
 770:.\Generated_Source\PSoC4/CapSense.c **** 
 771:.\Generated_Source\PSoC4/CapSense.c **** 
 772:.\Generated_Source\PSoC4/CapSense.c **** /*******************************************************************************
 773:.\Generated_Source\PSoC4/CapSense.c **** * Function Name: CapSense_WriteSensorRaw
 774:.\Generated_Source\PSoC4/CapSense.c **** ********************************************************************************
 775:.\Generated_Source\PSoC4/CapSense.c **** *
 776:.\Generated_Source\PSoC4/CapSense.c **** * Summary:
 777:.\Generated_Source\PSoC4/CapSense.c **** *  This API writes the raw count value passed as an argument to the sensor Raw count array.
 778:.\Generated_Source\PSoC4/CapSense.c **** *
 779:.\Generated_Source\PSoC4/CapSense.c **** * Parameters:
 780:.\Generated_Source\PSoC4/CapSense.c **** *  sensor:  Sensor number.
 781:.\Generated_Source\PSoC4/CapSense.c **** *  value: Raw count value.
 782:.\Generated_Source\PSoC4/CapSense.c **** *
 783:.\Generated_Source\PSoC4/CapSense.c **** * Global Variables:
 784:.\Generated_Source\PSoC4/CapSense.c **** *  CapSense_sensorRaw[] - used to store sensors raw data.
 785:.\Generated_Source\PSoC4/CapSense.c **** *
 786:.\Generated_Source\PSoC4/CapSense.c **** * Return:
 787:.\Generated_Source\PSoC4/CapSense.c **** *  None
 788:.\Generated_Source\PSoC4/CapSense.c **** *
 789:.\Generated_Source\PSoC4/CapSense.c **** * Side Effects: 
 790:.\Generated_Source\PSoC4/CapSense.c **** *  None
 791:.\Generated_Source\PSoC4/CapSense.c **** *
 792:.\Generated_Source\PSoC4/CapSense.c **** *******************************************************************************/
ARM GAS  C:\Users\Luci\AppData\Local\Temp\cc2LetiO.s 			page 20


 793:.\Generated_Source\PSoC4/CapSense.c **** void CapSense_WriteSensorRaw(uint32 sensor, uint16 value)
 794:.\Generated_Source\PSoC4/CapSense.c **** {
 292              		.loc 1 794 0
 293              		.cfi_startproc
 294              	.LVL30:
 795:.\Generated_Source\PSoC4/CapSense.c **** 	CapSense_sensorRaw[sensor] = value;
 295              		.loc 1 795 0
 296 0000 4000     		lsl	r0, r0, #1
 297              	.LVL31:
 298 0002 024B     		ldr	r3, .L17
 299 0004 1818     		add	r0, r3, r0
 300 0006 8180     		strh	r1, [r0, #4]
 796:.\Generated_Source\PSoC4/CapSense.c **** }
 301              		.loc 1 796 0
 302              		@ sp needed
 303 0008 7047     		bx	lr
 304              	.L18:
 305 000a C046     		.align	2
 306              	.L17:
 307 000c 00000000 		.word	.LANCHOR0
 308              		.cfi_endproc
 309              	.LFE46:
 310              		.size	CapSense_WriteSensorRaw, .-CapSense_WriteSensorRaw
 311              		.section	.text.CapSense_SetScanResolution,"ax",%progbits
 312              		.align	2
 313              		.global	CapSense_SetScanResolution
 314              		.code	16
 315              		.thumb_func
 316              		.type	CapSense_SetScanResolution, %function
 317              	CapSense_SetScanResolution:
 318              	.LFB47:
 797:.\Generated_Source\PSoC4/CapSense.c **** 
 798:.\Generated_Source\PSoC4/CapSense.c **** 
 799:.\Generated_Source\PSoC4/CapSense.c **** #if (CapSense_TUNING_METHOD != CapSense__TUNING_NONE)
 800:.\Generated_Source\PSoC4/CapSense.c **** 	/*******************************************************************************
 801:.\Generated_Source\PSoC4/CapSense.c **** 	* Function Name: CapSense_SetScanResolution
 802:.\Generated_Source\PSoC4/CapSense.c **** 	********************************************************************************
 803:.\Generated_Source\PSoC4/CapSense.c **** 	*
 804:.\Generated_Source\PSoC4/CapSense.c **** 	* Summary:
 805:.\Generated_Source\PSoC4/CapSense.c **** 	*  Sets a value of the sensor scan resolution for a widget. 
 806:.\Generated_Source\PSoC4/CapSense.c **** 	*  The MIN resolution can be set 8-bit. The MAX Resolution can be set 16 bit.
 807:.\Generated_Source\PSoC4/CapSense.c **** 	*  This function is not available for the tuning mode "None".
 808:.\Generated_Source\PSoC4/CapSense.c **** 	*
 809:.\Generated_Source\PSoC4/CapSense.c **** 	* Parameters:
 810:.\Generated_Source\PSoC4/CapSense.c **** 	*  widget:     Widget index.
 811:.\Generated_Source\PSoC4/CapSense.c **** 	*  resolution: Represents the resolution value. The following defines which are available in the
 812:.\Generated_Source\PSoC4/CapSense.c **** 	*			   CapSense.h file should be used:
 813:.\Generated_Source\PSoC4/CapSense.c **** 	*			   CapSense_RESOLUTION_6_BITS
 814:.\Generated_Source\PSoC4/CapSense.c **** 	*			   CapSense_RESOLUTION_7_BITS
 815:.\Generated_Source\PSoC4/CapSense.c **** 	*			   CapSense_RESOLUTION_8_BITS
 816:.\Generated_Source\PSoC4/CapSense.c **** 	*			   CapSense_RESOLUTION_9_BITS
 817:.\Generated_Source\PSoC4/CapSense.c **** 	*			   CapSense_RESOLUTION_10_BITS
 818:.\Generated_Source\PSoC4/CapSense.c **** 	*			   CapSense_RESOLUTION_11_BITS
 819:.\Generated_Source\PSoC4/CapSense.c **** 	*			   CapSense_RESOLUTION_12_BITS
 820:.\Generated_Source\PSoC4/CapSense.c **** 	*			   CapSense_RESOLUTION_13_BITS
 821:.\Generated_Source\PSoC4/CapSense.c **** 	*			   CapSense_RESOLUTION_14_BITS
 822:.\Generated_Source\PSoC4/CapSense.c **** 	*			   CapSense_RESOLUTION_15_BITS
ARM GAS  C:\Users\Luci\AppData\Local\Temp\cc2LetiO.s 			page 21


 823:.\Generated_Source\PSoC4/CapSense.c **** 	*			   CapSense_RESOLUTION_16_BITS
 824:.\Generated_Source\PSoC4/CapSense.c **** 	*
 825:.\Generated_Source\PSoC4/CapSense.c **** 	* Return:
 826:.\Generated_Source\PSoC4/CapSense.c **** 	*  None
 827:.\Generated_Source\PSoC4/CapSense.c **** 	*
 828:.\Generated_Source\PSoC4/CapSense.c **** 	* Global Variables:
 829:.\Generated_Source\PSoC4/CapSense.c **** 	*  CapSense_widgetResolution[] - used to store scan resolution of each widget.
 830:.\Generated_Source\PSoC4/CapSense.c **** 	*
 831:.\Generated_Source\PSoC4/CapSense.c **** 	* Side Effects: 
 832:.\Generated_Source\PSoC4/CapSense.c **** 	*  None
 833:.\Generated_Source\PSoC4/CapSense.c **** 	*
 834:.\Generated_Source\PSoC4/CapSense.c **** 	*******************************************************************************/
 835:.\Generated_Source\PSoC4/CapSense.c **** 	void CapSense_SetScanResolution(uint32 widget, uint32 resolution)
 836:.\Generated_Source\PSoC4/CapSense.c **** 	{ 
 319              		.loc 1 836 0
 320              		.cfi_startproc
 321              	.LVL32:
 837:.\Generated_Source\PSoC4/CapSense.c ****         CapSense_widgetResolution[widget] = resolution;
 322              		.loc 1 837 0
 323 0000 8000     		lsl	r0, r0, #2
 324              	.LVL33:
 325 0002 014B     		ldr	r3, .L20
 326 0004 C150     		str	r1, [r0, r3]
 838:.\Generated_Source\PSoC4/CapSense.c **** 	}
 327              		.loc 1 838 0
 328              		@ sp needed
 329 0006 7047     		bx	lr
 330              	.L21:
 331              		.align	2
 332              	.L20:
 333 0008 00000000 		.word	.LANCHOR1
 334              		.cfi_endproc
 335              	.LFE47:
 336              		.size	CapSense_SetScanResolution, .-CapSense_SetScanResolution
 337              		.section	.text.CapSense_GetScanResolution,"ax",%progbits
 338              		.align	2
 339              		.global	CapSense_GetScanResolution
 340              		.code	16
 341              		.thumb_func
 342              		.type	CapSense_GetScanResolution, %function
 343              	CapSense_GetScanResolution:
 344              	.LFB48:
 839:.\Generated_Source\PSoC4/CapSense.c **** #endif /* (CapSense_TUNING_METHOD != CapSense__TUNING_NONE) */
 840:.\Generated_Source\PSoC4/CapSense.c **** 
 841:.\Generated_Source\PSoC4/CapSense.c **** 
 842:.\Generated_Source\PSoC4/CapSense.c **** /*******************************************************************************
 843:.\Generated_Source\PSoC4/CapSense.c **** * Function Name: CapSense_GetScanResolution
 844:.\Generated_Source\PSoC4/CapSense.c **** ********************************************************************************
 845:.\Generated_Source\PSoC4/CapSense.c **** *
 846:.\Generated_Source\PSoC4/CapSense.c **** * Summary:
 847:.\Generated_Source\PSoC4/CapSense.c **** *  Returns the resolution value for the appropriate sensor.
 848:.\Generated_Source\PSoC4/CapSense.c **** *  This function is not available for tuning mode "None".
 849:.\Generated_Source\PSoC4/CapSense.c **** *
 850:.\Generated_Source\PSoC4/CapSense.c **** * Parameters:
 851:.\Generated_Source\PSoC4/CapSense.c **** *  widget:     Widget index.
 852:.\Generated_Source\PSoC4/CapSense.c **** *
 853:.\Generated_Source\PSoC4/CapSense.c **** * Return:
ARM GAS  C:\Users\Luci\AppData\Local\Temp\cc2LetiO.s 			page 22


 854:.\Generated_Source\PSoC4/CapSense.c **** *  resolution: Returns the resolution value for the appropriate sensor. 
 855:.\Generated_Source\PSoC4/CapSense.c **** *              The resolution values are defined in the CapSense.h file 
 856:.\Generated_Source\PSoC4/CapSense.c **** *              The defines are encountered below:
 857:.\Generated_Source\PSoC4/CapSense.c **** *			   CapSense_RESOLUTION_6_BITS
 858:.\Generated_Source\PSoC4/CapSense.c **** *			   CapSense_RESOLUTION_7_BITS
 859:.\Generated_Source\PSoC4/CapSense.c **** *			   CapSense_RESOLUTION_8_BITS
 860:.\Generated_Source\PSoC4/CapSense.c **** *			   CapSense_RESOLUTION_9_BITS
 861:.\Generated_Source\PSoC4/CapSense.c **** *			   CapSense_RESOLUTION_10_BITS
 862:.\Generated_Source\PSoC4/CapSense.c **** *			   CapSense_RESOLUTION_11_BITS
 863:.\Generated_Source\PSoC4/CapSense.c **** *			   CapSense_RESOLUTION_12_BITS
 864:.\Generated_Source\PSoC4/CapSense.c **** *			   CapSense_RESOLUTION_13_BITS
 865:.\Generated_Source\PSoC4/CapSense.c **** *			   CapSense_RESOLUTION_14_BITS
 866:.\Generated_Source\PSoC4/CapSense.c **** *			   CapSense_RESOLUTION_15_BITS
 867:.\Generated_Source\PSoC4/CapSense.c **** *			   CapSense_RESOLUTION_16_BITS
 868:.\Generated_Source\PSoC4/CapSense.c **** *
 869:.\Generated_Source\PSoC4/CapSense.c **** * Global Variables:
 870:.\Generated_Source\PSoC4/CapSense.c **** *  CapSense_widgetResolution[] - used to store scan resolution of every widget.
 871:.\Generated_Source\PSoC4/CapSense.c **** *
 872:.\Generated_Source\PSoC4/CapSense.c **** * Side Effects: 
 873:.\Generated_Source\PSoC4/CapSense.c **** *  None
 874:.\Generated_Source\PSoC4/CapSense.c **** *
 875:.\Generated_Source\PSoC4/CapSense.c **** *******************************************************************************/
 876:.\Generated_Source\PSoC4/CapSense.c **** uint32 CapSense_GetScanResolution(uint32 widget)
 877:.\Generated_Source\PSoC4/CapSense.c **** {
 345              		.loc 1 877 0
 346              		.cfi_startproc
 347              	.LVL34:
 878:.\Generated_Source\PSoC4/CapSense.c **** 	return(CapSense_widgetResolution[widget]);
 348              		.loc 1 878 0
 349 0000 8000     		lsl	r0, r0, #2
 350              	.LVL35:
 351 0002 014B     		ldr	r3, .L23
 352 0004 C058     		ldr	r0, [r0, r3]
 879:.\Generated_Source\PSoC4/CapSense.c **** }
 353              		.loc 1 879 0
 354              		@ sp needed
 355 0006 7047     		bx	lr
 356              	.L24:
 357              		.align	2
 358              	.L23:
 359 0008 00000000 		.word	.LANCHOR1
 360              		.cfi_endproc
 361              	.LFE48:
 362              		.size	CapSense_GetScanResolution, .-CapSense_GetScanResolution
 363              		.section	.text.CapSense_EnableSensor,"ax",%progbits
 364              		.align	2
 365              		.global	CapSense_EnableSensor
 366              		.code	16
 367              		.thumb_func
 368              		.type	CapSense_EnableSensor, %function
 369              	CapSense_EnableSensor:
 370              	.LFB50:
 880:.\Generated_Source\PSoC4/CapSense.c **** 
 881:.\Generated_Source\PSoC4/CapSense.c **** 
 882:.\Generated_Source\PSoC4/CapSense.c **** /*******************************************************************************
 883:.\Generated_Source\PSoC4/CapSense.c **** * Function Name: CapSense_ClearSensors
 884:.\Generated_Source\PSoC4/CapSense.c **** ********************************************************************************
ARM GAS  C:\Users\Luci\AppData\Local\Temp\cc2LetiO.s 			page 23


 885:.\Generated_Source\PSoC4/CapSense.c **** *
 886:.\Generated_Source\PSoC4/CapSense.c **** * Summary:
 887:.\Generated_Source\PSoC4/CapSense.c **** *  Resets all the sensors to the non-sampling state by sequentially disconnecting
 888:.\Generated_Source\PSoC4/CapSense.c **** *  all the sensors from Analog MUX Bus and putting them to an inactive state.
 889:.\Generated_Source\PSoC4/CapSense.c **** *
 890:.\Generated_Source\PSoC4/CapSense.c **** * Parameters:
 891:.\Generated_Source\PSoC4/CapSense.c **** *  None
 892:.\Generated_Source\PSoC4/CapSense.c **** *
 893:.\Generated_Source\PSoC4/CapSense.c **** * Return:
 894:.\Generated_Source\PSoC4/CapSense.c **** *  None
 895:.\Generated_Source\PSoC4/CapSense.c **** *
 896:.\Generated_Source\PSoC4/CapSense.c **** * Global Variables:
 897:.\Generated_Source\PSoC4/CapSense.c **** *  None
 898:.\Generated_Source\PSoC4/CapSense.c **** *
 899:.\Generated_Source\PSoC4/CapSense.c **** * Side Effects: 
 900:.\Generated_Source\PSoC4/CapSense.c **** *  None
 901:.\Generated_Source\PSoC4/CapSense.c **** *
 902:.\Generated_Source\PSoC4/CapSense.c **** *******************************************************************************/
 903:.\Generated_Source\PSoC4/CapSense.c **** void CapSense_ClearSensors(void)
 904:.\Generated_Source\PSoC4/CapSense.c **** {
 905:.\Generated_Source\PSoC4/CapSense.c **** 	uint32 snsIndex;
 906:.\Generated_Source\PSoC4/CapSense.c **** 	
 907:.\Generated_Source\PSoC4/CapSense.c ****     for (snsIndex = 0u; snsIndex < CapSense_TOTAL_SENSOR_COUNT; snsIndex++)
 908:.\Generated_Source\PSoC4/CapSense.c ****     {
 909:.\Generated_Source\PSoC4/CapSense.c ****         CapSense_DisableScanSlot(snsIndex);
 910:.\Generated_Source\PSoC4/CapSense.c ****     }
 911:.\Generated_Source\PSoC4/CapSense.c **** }
 912:.\Generated_Source\PSoC4/CapSense.c **** 
 913:.\Generated_Source\PSoC4/CapSense.c **** 
 914:.\Generated_Source\PSoC4/CapSense.c **** #if (CapSense_IS_COMPLEX_SCANSLOTS)
 915:.\Generated_Source\PSoC4/CapSense.c ****     /*******************************************************************************
 916:.\Generated_Source\PSoC4/CapSense.c ****     * Function Name: CapSense_EnableScanSlot
 917:.\Generated_Source\PSoC4/CapSense.c ****     ********************************************************************************
 918:.\Generated_Source\PSoC4/CapSense.c ****     *
 919:.\Generated_Source\PSoC4/CapSense.c ****     * Summary:
 920:.\Generated_Source\PSoC4/CapSense.c ****     *  Configures the selected slot to measure during the next measurement 
 921:.\Generated_Source\PSoC4/CapSense.c ****     *  cycle. The corresponding pin/pins are set to Analog High-Z mode and 
 922:.\Generated_Source\PSoC4/CapSense.c ****     *  connected to the Analog Mux Bus. This also enables the comparator function.
 923:.\Generated_Source\PSoC4/CapSense.c ****     *
 924:.\Generated_Source\PSoC4/CapSense.c ****     * Parameters:
 925:.\Generated_Source\PSoC4/CapSense.c ****     *  slot:  Slot number.
 926:.\Generated_Source\PSoC4/CapSense.c ****     *
 927:.\Generated_Source\PSoC4/CapSense.c ****     * Return:
 928:.\Generated_Source\PSoC4/CapSense.c ****     *  None
 929:.\Generated_Source\PSoC4/CapSense.c ****     *
 930:.\Generated_Source\PSoC4/CapSense.c ****     * Global Constants:
 931:.\Generated_Source\PSoC4/CapSense.c ****     *  CapSense_portTable[]  - used to store the port number that pin 
 932:.\Generated_Source\PSoC4/CapSense.c ****     *  belongs to for each sensor.
 933:.\Generated_Source\PSoC4/CapSense.c ****     *  CapSense_maskTable[]  - used to store the pin within the port for 
 934:.\Generated_Source\PSoC4/CapSense.c ****     *  each sensor.
 935:.\Generated_Source\PSoC4/CapSense.c ****     *  CapSense_indexTable[] - used to store indexes of complex sensors.
 936:.\Generated_Source\PSoC4/CapSense.c ****     *  The offset and position in this array are stored in a port and mask table for 
 937:.\Generated_Source\PSoC4/CapSense.c ****     *  complex sensors.
 938:.\Generated_Source\PSoC4/CapSense.c ****     *  Bit 7 (msb) is used to define the sensor type: single or complex.
 939:.\Generated_Source\PSoC4/CapSense.c ****     *
 940:.\Generated_Source\PSoC4/CapSense.c **** 	* Side Effects: 
 941:.\Generated_Source\PSoC4/CapSense.c **** 	*  None
ARM GAS  C:\Users\Luci\AppData\Local\Temp\cc2LetiO.s 			page 24


 942:.\Generated_Source\PSoC4/CapSense.c **** 	*
 943:.\Generated_Source\PSoC4/CapSense.c ****     *******************************************************************************/
 944:.\Generated_Source\PSoC4/CapSense.c ****     void CapSense_EnableScanSlot(uint32 slot)
 945:.\Generated_Source\PSoC4/CapSense.c ****     {
 946:.\Generated_Source\PSoC4/CapSense.c ****         uint8 j;
 947:.\Generated_Source\PSoC4/CapSense.c ****         uint8 snsNumber;
 948:.\Generated_Source\PSoC4/CapSense.c ****         const uint8 *index;
 949:.\Generated_Source\PSoC4/CapSense.c ****         /* Read sensor type: single or complex */
 950:.\Generated_Source\PSoC4/CapSense.c ****         uint8 snsType = CapSense_portTable[slot];
 951:.\Generated_Source\PSoC4/CapSense.c **** 
 952:.\Generated_Source\PSoC4/CapSense.c ****         /* Check if sensor is complex */
 953:.\Generated_Source\PSoC4/CapSense.c ****         if ((snsType & CapSense_COMPLEX_SS_FLAG) == 0u)
 954:.\Generated_Source\PSoC4/CapSense.c ****         {
 955:.\Generated_Source\PSoC4/CapSense.c ****             /* Enable sensor (single) */
 956:.\Generated_Source\PSoC4/CapSense.c ****             CapSense_EnableSensor(slot);
 957:.\Generated_Source\PSoC4/CapSense.c ****         }
 958:.\Generated_Source\PSoC4/CapSense.c ****         else
 959:.\Generated_Source\PSoC4/CapSense.c ****         {
 960:.\Generated_Source\PSoC4/CapSense.c ****             /* Enable complex sensor */
 961:.\Generated_Source\PSoC4/CapSense.c ****             snsType &= ~CapSense_COMPLEX_SS_FLAG;
 962:.\Generated_Source\PSoC4/CapSense.c ****             index = &CapSense_indexTable[snsType];
 963:.\Generated_Source\PSoC4/CapSense.c ****             snsNumber = CapSense_maskTable[slot];
 964:.\Generated_Source\PSoC4/CapSense.c ****                         
 965:.\Generated_Source\PSoC4/CapSense.c ****             for (j = 0u; j < snsNumber; j++)
 966:.\Generated_Source\PSoC4/CapSense.c ****             {
 967:.\Generated_Source\PSoC4/CapSense.c ****                 CapSense_EnableSensor(index[j]);
 968:.\Generated_Source\PSoC4/CapSense.c ****             }
 969:.\Generated_Source\PSoC4/CapSense.c ****         }
 970:.\Generated_Source\PSoC4/CapSense.c ****     }
 971:.\Generated_Source\PSoC4/CapSense.c ****     
 972:.\Generated_Source\PSoC4/CapSense.c ****     
 973:.\Generated_Source\PSoC4/CapSense.c ****     /*******************************************************************************
 974:.\Generated_Source\PSoC4/CapSense.c ****     * Function Name: CapSense_DisableScanSlot
 975:.\Generated_Source\PSoC4/CapSense.c ****     ********************************************************************************
 976:.\Generated_Source\PSoC4/CapSense.c ****     *
 977:.\Generated_Source\PSoC4/CapSense.c ****     * Summary:
 978:.\Generated_Source\PSoC4/CapSense.c ****     *  Disables the selected slot. The corresponding pin/pins is/are disconnected 
 979:.\Generated_Source\PSoC4/CapSense.c ****     *  from the Analog Mux Bus and connected to GND, High_Z or Shield electrode.
 980:.\Generated_Source\PSoC4/CapSense.c ****     *
 981:.\Generated_Source\PSoC4/CapSense.c ****     * Parameters:
 982:.\Generated_Source\PSoC4/CapSense.c ****     *  slot:  Slot number.
 983:.\Generated_Source\PSoC4/CapSense.c ****     *
 984:.\Generated_Source\PSoC4/CapSense.c ****     * Return:
 985:.\Generated_Source\PSoC4/CapSense.c ****     *  None
 986:.\Generated_Source\PSoC4/CapSense.c ****     *
 987:.\Generated_Source\PSoC4/CapSense.c ****     * Global Variables:
 988:.\Generated_Source\PSoC4/CapSense.c ****     *  CapSense_portTable[]  - used to store the port number that pin 
 989:.\Generated_Source\PSoC4/CapSense.c ****     *  belongs to for each sensor.
 990:.\Generated_Source\PSoC4/CapSense.c ****     *  CapSense_maskTable[]  - used to store the pin within the port for 
 991:.\Generated_Source\PSoC4/CapSense.c ****     *  each sensor.
 992:.\Generated_Source\PSoC4/CapSense.c ****     *  CapSense_indexTable[] - used to store indexes of complex sensors.
 993:.\Generated_Source\PSoC4/CapSense.c ****     *  The offset and position in this array are stored in a port and mask table for 
 994:.\Generated_Source\PSoC4/CapSense.c ****     *  complex sensors.
 995:.\Generated_Source\PSoC4/CapSense.c ****     *  7bit(msb) is used to define the sensor type: single or complex.
 996:.\Generated_Source\PSoC4/CapSense.c ****     *
 997:.\Generated_Source\PSoC4/CapSense.c **** 	* Side Effects: 
 998:.\Generated_Source\PSoC4/CapSense.c **** 	*  None
ARM GAS  C:\Users\Luci\AppData\Local\Temp\cc2LetiO.s 			page 25


 999:.\Generated_Source\PSoC4/CapSense.c **** 	*
1000:.\Generated_Source\PSoC4/CapSense.c ****     *******************************************************************************/
1001:.\Generated_Source\PSoC4/CapSense.c ****     void CapSense_DisableScanSlot(uint32 slot)
1002:.\Generated_Source\PSoC4/CapSense.c ****     {
1003:.\Generated_Source\PSoC4/CapSense.c ****         uint8 j;
1004:.\Generated_Source\PSoC4/CapSense.c ****         uint8 snsNumber;
1005:.\Generated_Source\PSoC4/CapSense.c ****         const uint8 *index;
1006:.\Generated_Source\PSoC4/CapSense.c **** 
1007:.\Generated_Source\PSoC4/CapSense.c ****         /* Read sensor type: single or complex */
1008:.\Generated_Source\PSoC4/CapSense.c ****         uint8 snsType = CapSense_portTable[slot];
1009:.\Generated_Source\PSoC4/CapSense.c ****         
1010:.\Generated_Source\PSoC4/CapSense.c ****         /* Check if sensor is complex */
1011:.\Generated_Source\PSoC4/CapSense.c ****         if ((snsType & CapSense_COMPLEX_SS_FLAG) == 0u)
1012:.\Generated_Source\PSoC4/CapSense.c ****         {
1013:.\Generated_Source\PSoC4/CapSense.c ****             /* Disable sensor (single) */
1014:.\Generated_Source\PSoC4/CapSense.c ****             CapSense_DisableSensor(slot);
1015:.\Generated_Source\PSoC4/CapSense.c ****         }
1016:.\Generated_Source\PSoC4/CapSense.c ****         else
1017:.\Generated_Source\PSoC4/CapSense.c ****         {
1018:.\Generated_Source\PSoC4/CapSense.c ****             /* Disable complex sensor */
1019:.\Generated_Source\PSoC4/CapSense.c ****             snsType &= ~CapSense_COMPLEX_SS_FLAG;
1020:.\Generated_Source\PSoC4/CapSense.c ****             index = &CapSense_indexTable[snsType];
1021:.\Generated_Source\PSoC4/CapSense.c ****             snsNumber = CapSense_maskTable[slot];
1022:.\Generated_Source\PSoC4/CapSense.c ****                         
1023:.\Generated_Source\PSoC4/CapSense.c ****             for (j=0; j < snsNumber; j++)
1024:.\Generated_Source\PSoC4/CapSense.c ****             {
1025:.\Generated_Source\PSoC4/CapSense.c ****                 CapSense_DisableSensor(index[j]);
1026:.\Generated_Source\PSoC4/CapSense.c ****             }
1027:.\Generated_Source\PSoC4/CapSense.c ****         } 
1028:.\Generated_Source\PSoC4/CapSense.c ****     }
1029:.\Generated_Source\PSoC4/CapSense.c **** #endif  /* CapSense_IS_COMPLEX_SCANSLOTS */
1030:.\Generated_Source\PSoC4/CapSense.c **** 
1031:.\Generated_Source\PSoC4/CapSense.c **** 
1032:.\Generated_Source\PSoC4/CapSense.c **** /*******************************************************************************
1033:.\Generated_Source\PSoC4/CapSense.c **** * Function Name: CapSense_EnableSensor
1034:.\Generated_Source\PSoC4/CapSense.c **** ********************************************************************************
1035:.\Generated_Source\PSoC4/CapSense.c **** *
1036:.\Generated_Source\PSoC4/CapSense.c **** * Summary:
1037:.\Generated_Source\PSoC4/CapSense.c **** *  Configures the selected sensor to measure during the next measurement cycle.
1038:.\Generated_Source\PSoC4/CapSense.c **** *  The corresponding pins are set to Analog High-Z mode and connected to the
1039:.\Generated_Source\PSoC4/CapSense.c **** *  Analog Mux Bus. This also enables the comparator function.
1040:.\Generated_Source\PSoC4/CapSense.c **** *
1041:.\Generated_Source\PSoC4/CapSense.c **** * Parameters:
1042:.\Generated_Source\PSoC4/CapSense.c **** *  sensor:  Sensor number.
1043:.\Generated_Source\PSoC4/CapSense.c **** *
1044:.\Generated_Source\PSoC4/CapSense.c **** * Return:
1045:.\Generated_Source\PSoC4/CapSense.c **** *  None
1046:.\Generated_Source\PSoC4/CapSense.c **** *
1047:.\Generated_Source\PSoC4/CapSense.c **** * Global Variables:
1048:.\Generated_Source\PSoC4/CapSense.c **** *  CapSense_portTable[] - used to store the port number that pin 
1049:.\Generated_Source\PSoC4/CapSense.c **** *  belongs to for each sensor.
1050:.\Generated_Source\PSoC4/CapSense.c **** *  CapSense_pinShiftTbl[] - used to store position of pin that 
1051:.\Generated_Source\PSoC4/CapSense.c **** *  configured as sensor in port. 
1052:.\Generated_Source\PSoC4/CapSense.c **** *  CapSense_prtSelTbl[] - Contains pointers to the HSIOM 
1053:.\Generated_Source\PSoC4/CapSense.c **** *  registers for each port. 
1054:.\Generated_Source\PSoC4/CapSense.c **** *  CapSense_PrtCfgTb[] - Contains pointers to the port config 
1055:.\Generated_Source\PSoC4/CapSense.c **** *  registers for each port.
ARM GAS  C:\Users\Luci\AppData\Local\Temp\cc2LetiO.s 			page 26


1056:.\Generated_Source\PSoC4/CapSense.c **** *
1057:.\Generated_Source\PSoC4/CapSense.c **** * Side Effects: 
1058:.\Generated_Source\PSoC4/CapSense.c **** *  None
1059:.\Generated_Source\PSoC4/CapSense.c **** *
1060:.\Generated_Source\PSoC4/CapSense.c **** *******************************************************************************/
1061:.\Generated_Source\PSoC4/CapSense.c **** void CapSense_EnableSensor(uint32 sensor)
1062:.\Generated_Source\PSoC4/CapSense.c **** {
 371              		.loc 1 1062 0
 372              		.cfi_startproc
 373              	.LVL36:
 374 0000 F8B5     		push	{r3, r4, r5, r6, r7, lr}
 375              		.cfi_def_cfa_offset 24
 376              		.cfi_offset 3, -24
 377              		.cfi_offset 4, -20
 378              		.cfi_offset 5, -16
 379              		.cfi_offset 6, -12
 380              		.cfi_offset 7, -8
 381              		.cfi_offset 14, -4
1063:.\Generated_Source\PSoC4/CapSense.c **** 	uint8  pinModeShift;
1064:.\Generated_Source\PSoC4/CapSense.c ****     uint8  pinHSIOMShift;
1065:.\Generated_Source\PSoC4/CapSense.c **** 	uint8 interruptState;
1066:.\Generated_Source\PSoC4/CapSense.c **** 	uint32 newRegisterValue;
1067:.\Generated_Source\PSoC4/CapSense.c ****     uint32 port;
1068:.\Generated_Source\PSoC4/CapSense.c **** 	
1069:.\Generated_Source\PSoC4/CapSense.c **** 	port = (uint32) CapSense_portTable[sensor];
 382              		.loc 1 1069 0
 383 0002 104C     		ldr	r4, .L26
 384 0004 275C     		ldrb	r7, [r4, r0]
 385              	.LVL37:
1070:.\Generated_Source\PSoC4/CapSense.c ****     pinModeShift = CapSense_pinShiftTbl[sensor]  * CapSense_PC_PIN_CFG_SIZE;
 386              		.loc 1 1070 0
 387 0006 2018     		add	r0, r4, r0
 388              	.LVL38:
 389 0008 0379     		ldrb	r3, [r0, #4]
 390 000a 5E00     		lsl	r6, r3, #1
 391 000c 9E19     		add	r6, r3, r6
 392 000e F6B2     		uxtb	r6, r6
 393              	.LVL39:
1071:.\Generated_Source\PSoC4/CapSense.c ****     pinHSIOMShift = CapSense_pinShiftTbl[sensor] * CapSense_HSIOM_PIN_CFG_SIZE;
 394              		.loc 1 1071 0
 395 0010 9B00     		lsl	r3, r3, #2
 396 0012 DDB2     		uxtb	r5, r3
 397              	.LVL40:
1072:.\Generated_Source\PSoC4/CapSense.c **** 
1073:.\Generated_Source\PSoC4/CapSense.c **** 	interruptState = CyEnterCriticalSection();
 398              		.loc 1 1073 0
 399 0014 FFF7FEFF 		bl	CyEnterCriticalSection
 400              	.LVL41:
1074:.\Generated_Source\PSoC4/CapSense.c **** 	
1075:.\Generated_Source\PSoC4/CapSense.c **** 	newRegisterValue = *CapSense_prtSelTbl[port];
 401              		.loc 1 1075 0
 402 0018 BF00     		lsl	r7, r7, #2
 403              	.LVL42:
 404 001a E419     		add	r4, r4, r7
 405              	.LVL43:
 406 001c A268     		ldr	r2, [r4, #8]
 407 001e 1168     		ldr	r1, [r2]
ARM GAS  C:\Users\Luci\AppData\Local\Temp\cc2LetiO.s 			page 27


 408              	.LVL44:
1076:.\Generated_Source\PSoC4/CapSense.c **** 	newRegisterValue &= ~(CapSense_CSD_HSIOM_MASK << pinHSIOMShift);
 409              		.loc 1 1076 0
 410 0020 0F23     		mov	r3, #15
 411 0022 AB40     		lsl	r3, r3, r5
 412 0024 9943     		bic	r1, r3
 413              	.LVL45:
1077:.\Generated_Source\PSoC4/CapSense.c **** 	newRegisterValue |= (uint32)((uint32)CapSense_CSD_SENSE_PORT_MODE << pinHSIOMShift);
 414              		.loc 1 1077 0
 415 0026 0423     		mov	r3, #4
 416 0028 AB40     		lsl	r3, r3, r5
 417 002a 1D1C     		mov	r5, r3
 418              	.LVL46:
 419 002c 0D43     		orr	r5, r1
 420              	.LVL47:
1078:.\Generated_Source\PSoC4/CapSense.c ****    
1079:.\Generated_Source\PSoC4/CapSense.c ****     *CapSense_prtCfgTbl[port] &= (uint32)~((uint32)CapSense_CSD_PIN_MODE_MASK << pinModeShift);
 421              		.loc 1 1079 0
 422 002e 216A     		ldr	r1, [r4, #32]
 423 0030 0B68     		ldr	r3, [r1]
 424 0032 0724     		mov	r4, #7
 425 0034 B440     		lsl	r4, r4, r6
 426 0036 A343     		bic	r3, r4
 427 0038 0B60     		str	r3, [r1]
1080:.\Generated_Source\PSoC4/CapSense.c ****     *CapSense_prtSelTbl[port] = newRegisterValue;
 428              		.loc 1 1080 0
 429 003a 1560     		str	r5, [r2]
1081:.\Generated_Source\PSoC4/CapSense.c **** 	
1082:.\Generated_Source\PSoC4/CapSense.c **** 	CyExitCriticalSection(interruptState);
 430              		.loc 1 1082 0
 431 003c FFF7FEFF 		bl	CyExitCriticalSection
 432              	.LVL48:
1083:.\Generated_Source\PSoC4/CapSense.c **** }
 433              		.loc 1 1083 0
 434              		@ sp needed
 435              	.LVL49:
 436              	.LVL50:
 437 0040 F8BD     		pop	{r3, r4, r5, r6, r7, pc}
 438              	.L27:
 439 0042 C046     		.align	2
 440              	.L26:
 441 0044 00000000 		.word	.LANCHOR2
 442              		.cfi_endproc
 443              	.LFE50:
 444              		.size	CapSense_EnableSensor, .-CapSense_EnableSensor
 445              		.section	.text.CapSense_DisableSensor,"ax",%progbits
 446              		.align	2
 447              		.global	CapSense_DisableSensor
 448              		.code	16
 449              		.thumb_func
 450              		.type	CapSense_DisableSensor, %function
 451              	CapSense_DisableSensor:
 452              	.LFB51:
1084:.\Generated_Source\PSoC4/CapSense.c **** 
1085:.\Generated_Source\PSoC4/CapSense.c **** 
1086:.\Generated_Source\PSoC4/CapSense.c **** /*******************************************************************************
1087:.\Generated_Source\PSoC4/CapSense.c **** * Function Name: CapSense_DisableSensor
ARM GAS  C:\Users\Luci\AppData\Local\Temp\cc2LetiO.s 			page 28


1088:.\Generated_Source\PSoC4/CapSense.c **** ********************************************************************************
1089:.\Generated_Source\PSoC4/CapSense.c **** *
1090:.\Generated_Source\PSoC4/CapSense.c **** * Summary:
1091:.\Generated_Source\PSoC4/CapSense.c **** *  Disables the selected sensor. The corresponding pin is disconnected from the
1092:.\Generated_Source\PSoC4/CapSense.c **** *  Analog Mux Bus and connected to GND, High_Z or Shield electrode.
1093:.\Generated_Source\PSoC4/CapSense.c **** *
1094:.\Generated_Source\PSoC4/CapSense.c **** * Parameters:
1095:.\Generated_Source\PSoC4/CapSense.c **** *  sensor:  Sensor number
1096:.\Generated_Source\PSoC4/CapSense.c **** *
1097:.\Generated_Source\PSoC4/CapSense.c **** * Return:
1098:.\Generated_Source\PSoC4/CapSense.c **** *  None
1099:.\Generated_Source\PSoC4/CapSense.c **** *
1100:.\Generated_Source\PSoC4/CapSense.c **** * Global Variables:
1101:.\Generated_Source\PSoC4/CapSense.c **** *  CapSense_portTable[] - used to store the port number that pin 
1102:.\Generated_Source\PSoC4/CapSense.c **** *  belongs to for each sensor.
1103:.\Generated_Source\PSoC4/CapSense.c **** *  CapSense_pinShiftTbl[] - used to store position of pin that 
1104:.\Generated_Source\PSoC4/CapSense.c **** *  configured as a sensor in the port. 
1105:.\Generated_Source\PSoC4/CapSense.c **** *  CapSense_prtSelTbl[] - Contains pointers to the HSIOM 
1106:.\Generated_Source\PSoC4/CapSense.c **** *  registers for each port. 
1107:.\Generated_Source\PSoC4/CapSense.c **** *  CapSense_PrtCfgTb[] - Contains pointers to the port config 
1108:.\Generated_Source\PSoC4/CapSense.c **** *  registers for each port.
1109:.\Generated_Source\PSoC4/CapSense.c **** *
1110:.\Generated_Source\PSoC4/CapSense.c **** * Side Effects: 
1111:.\Generated_Source\PSoC4/CapSense.c **** *  None
1112:.\Generated_Source\PSoC4/CapSense.c **** *
1113:.\Generated_Source\PSoC4/CapSense.c **** *******************************************************************************/
1114:.\Generated_Source\PSoC4/CapSense.c **** void CapSense_DisableSensor(uint32 sensor)
1115:.\Generated_Source\PSoC4/CapSense.c **** {
 453              		.loc 1 1115 0
 454              		.cfi_startproc
 455              	.LVL51:
 456 0000 F8B5     		push	{r3, r4, r5, r6, r7, lr}
 457              		.cfi_def_cfa_offset 24
 458              		.cfi_offset 3, -24
 459              		.cfi_offset 4, -20
 460              		.cfi_offset 5, -16
 461              		.cfi_offset 6, -12
 462              		.cfi_offset 7, -8
 463              		.cfi_offset 14, -4
1116:.\Generated_Source\PSoC4/CapSense.c ****     uint8 interruptState;
1117:.\Generated_Source\PSoC4/CapSense.c **** 	uint32 newRegisterValue;
1118:.\Generated_Source\PSoC4/CapSense.c **** 	
1119:.\Generated_Source\PSoC4/CapSense.c ****     uint32 port = (uint32) CapSense_portTable[sensor];
 464              		.loc 1 1119 0
 465 0002 194B     		ldr	r3, .L33
 466 0004 1D5C     		ldrb	r5, [r3, r0]
 467              	.LVL52:
1120:.\Generated_Source\PSoC4/CapSense.c ****     uint8  pinHSIOMShift = CapSense_pinShiftTbl[sensor] * CapSense_HSIOM_PIN_CFG_SIZE;
 468              		.loc 1 1120 0
 469 0006 1A18     		add	r2, r3, r0
 470 0008 1479     		ldrb	r4, [r2, #4]
 471 000a A700     		lsl	r7, r4, #2
 472 000c FFB2     		uxtb	r7, r7
 473              	.LVL53:
1121:.\Generated_Source\PSoC4/CapSense.c ****     uint8  pinModeShift = CapSense_pinShiftTbl[sensor]  * CapSense_PC_PIN_CFG_SIZE;
 474              		.loc 1 1121 0
 475 000e 6600     		lsl	r6, r4, #1
ARM GAS  C:\Users\Luci\AppData\Local\Temp\cc2LetiO.s 			page 29


 476 0010 A619     		add	r6, r4, r6
 477 0012 F6B2     		uxtb	r6, r6
 478              	.LVL54:
1122:.\Generated_Source\PSoC4/CapSense.c **** 
1123:.\Generated_Source\PSoC4/CapSense.c **** 	uint32 inactiveConnect = CapSense_SNS_HIZANALOG_CONNECT;
1124:.\Generated_Source\PSoC4/CapSense.c **** 	uint32 sensorState = CapSense_unscannedSnsDriveMode[sensor];
 479              		.loc 1 1124 0
 480 0014 154A     		ldr	r2, .L33+4
 481 0016 125C     		ldrb	r2, [r2, r0]
 482              	.LVL55:
1125:.\Generated_Source\PSoC4/CapSense.c **** 
1126:.\Generated_Source\PSoC4/CapSense.c ****     *CapSense_prtSelTbl[port] &= ~(CapSense_CSD_HSIOM_MASK << pinHSIOMShift);
 483              		.loc 1 1126 0
 484 0018 A900     		lsl	r1, r5, #2
 485 001a 5B18     		add	r3, r3, r1
 486 001c 9B68     		ldr	r3, [r3, #8]
 487 001e 1968     		ldr	r1, [r3]
 488 0020 0F20     		mov	r0, #15
 489              	.LVL56:
 490 0022 B840     		lsl	r0, r0, r7
 491 0024 8143     		bic	r1, r0
 492 0026 1960     		str	r1, [r3]
1127:.\Generated_Source\PSoC4/CapSense.c **** 
1128:.\Generated_Source\PSoC4/CapSense.c **** 	#if(CapSense_IS_SHIELD_ENABLE != 0)
1129:.\Generated_Source\PSoC4/CapSense.c **** 	if(sensorState != (uint32)CapSense__SHIELD)
1130:.\Generated_Source\PSoC4/CapSense.c **** 	{
1131:.\Generated_Source\PSoC4/CapSense.c **** 	#else
1132:.\Generated_Source\PSoC4/CapSense.c **** 	    /* Connected to Ground if shield is disabled */
1133:.\Generated_Source\PSoC4/CapSense.c **** 	    if(sensorState == (uint32)CapSense__SHIELD)
 493              		.loc 1 1133 0
 494 0028 022A     		cmp	r2, #2
 495 002a 00D1     		bne	.L29
1134:.\Generated_Source\PSoC4/CapSense.c **** 		{
1135:.\Generated_Source\PSoC4/CapSense.c **** 			sensorState = (uint32)CapSense__GROUND;
 496              		.loc 1 1135 0
 497 002c 0022     		mov	r2, #0
 498              	.LVL57:
 499              	.L29:
1136:.\Generated_Source\PSoC4/CapSense.c **** 		}
1137:.\Generated_Source\PSoC4/CapSense.c **** 	#endif /* (CapSense_IS_SHIELD_ENABLE) */
1138:.\Generated_Source\PSoC4/CapSense.c **** 	    if(sensorState != (uint32)CapSense__HIZ_ANALOG)
 500              		.loc 1 1138 0
 501 002e 012A     		cmp	r2, #1
 502 0030 01D1     		bne	.L32
1123:.\Generated_Source\PSoC4/CapSense.c **** 	uint32 inactiveConnect = CapSense_SNS_HIZANALOG_CONNECT;
 503              		.loc 1 1123 0
 504 0032 0027     		mov	r7, #0
 505              	.LVL58:
 506 0034 00E0     		b	.L30
 507              	.L32:
1139:.\Generated_Source\PSoC4/CapSense.c **** 		{   
1140:.\Generated_Source\PSoC4/CapSense.c **** 		    /* Connected to Ground */
1141:.\Generated_Source\PSoC4/CapSense.c **** 		    inactiveConnect = (uint32)CapSense_SNS_GROUND_CONNECT;
 508              		.loc 1 1141 0
 509 0036 0627     		mov	r7, #6
 510              	.L30:
 511              	.LVL59:
ARM GAS  C:\Users\Luci\AppData\Local\Temp\cc2LetiO.s 			page 30


1142:.\Generated_Source\PSoC4/CapSense.c **** 		}
1143:.\Generated_Source\PSoC4/CapSense.c **** 		
1144:.\Generated_Source\PSoC4/CapSense.c ****         interruptState = CyEnterCriticalSection();
 512              		.loc 1 1144 0
 513 0038 FFF7FEFF 		bl	CyEnterCriticalSection
 514              	.LVL60:
1145:.\Generated_Source\PSoC4/CapSense.c **** 
1146:.\Generated_Source\PSoC4/CapSense.c ****         /* Set drive mode */
1147:.\Generated_Source\PSoC4/CapSense.c ****     	newRegisterValue = *CapSense_prtCfgTbl[port];
 515              		.loc 1 1147 0
 516 003c AD00     		lsl	r5, r5, #2
 517              	.LVL61:
 518 003e 0A4B     		ldr	r3, .L33
 519              	.LVL62:
 520 0040 5D19     		add	r5, r3, r5
 521 0042 2B6A     		ldr	r3, [r5, #32]
 522              	.LVL63:
 523 0044 1A68     		ldr	r2, [r3]
 524              	.LVL64:
1148:.\Generated_Source\PSoC4/CapSense.c ****     	newRegisterValue &= ~(CapSense_CSD_PIN_MODE_MASK << pinModeShift);
 525              		.loc 1 1148 0
 526 0046 0721     		mov	r1, #7
 527 0048 B140     		lsl	r1, r1, r6
 528 004a 8A43     		bic	r2, r1
 529              	.LVL65:
1149:.\Generated_Source\PSoC4/CapSense.c ****     	newRegisterValue |=  (uint32)(inactiveConnect << pinModeShift);
 530              		.loc 1 1149 0
 531 004c B740     		lsl	r7, r7, r6
 532              	.LVL66:
 533 004e 3E1C     		mov	r6, r7
 534              	.LVL67:
 535 0050 1643     		orr	r6, r2
 536              	.LVL68:
1150:.\Generated_Source\PSoC4/CapSense.c ****         *CapSense_prtCfgTbl[port] =  newRegisterValue;
 537              		.loc 1 1150 0
 538 0052 1E60     		str	r6, [r3]
1151:.\Generated_Source\PSoC4/CapSense.c ****         
1152:.\Generated_Source\PSoC4/CapSense.c ****         CyExitCriticalSection(interruptState);
 539              		.loc 1 1152 0
 540 0054 FFF7FEFF 		bl	CyExitCriticalSection
 541              	.LVL69:
1153:.\Generated_Source\PSoC4/CapSense.c **** 
1154:.\Generated_Source\PSoC4/CapSense.c ****     	*CapSense_prtDRTbl[port]  &=  (uint32)~(uint32)((uint32)1u << CapSense_pinShiftTbl[sensor]); 
 542              		.loc 1 1154 0
 543 0058 AB6B     		ldr	r3, [r5, #56]
 544 005a 1A68     		ldr	r2, [r3]
 545 005c 0121     		mov	r1, #1
 546 005e A140     		lsl	r1, r1, r4
 547 0060 8A43     		bic	r2, r1
 548 0062 1A60     		str	r2, [r3]
1155:.\Generated_Source\PSoC4/CapSense.c **** 	#if(CapSense_IS_SHIELD_ENABLE != 0)
1156:.\Generated_Source\PSoC4/CapSense.c **** 	}
1157:.\Generated_Source\PSoC4/CapSense.c **** 	else
1158:.\Generated_Source\PSoC4/CapSense.c **** 	{
1159:.\Generated_Source\PSoC4/CapSense.c **** 		/* Connect to Shield */
1160:.\Generated_Source\PSoC4/CapSense.c **** 		*CapSense_prtSelTbl[port] |= (CapSense_CSD_SHIELD_PORT_MODE << pinHSIOMShift);
1161:.\Generated_Source\PSoC4/CapSense.c **** 	}
ARM GAS  C:\Users\Luci\AppData\Local\Temp\cc2LetiO.s 			page 31


1162:.\Generated_Source\PSoC4/CapSense.c **** 	#endif /* (CapSense_IS_SHIELD_ENABLE) */
1163:.\Generated_Source\PSoC4/CapSense.c **** }
 549              		.loc 1 1163 0
 550              		@ sp needed
 551              	.LVL70:
 552              	.LVL71:
 553 0064 F8BD     		pop	{r3, r4, r5, r6, r7, pc}
 554              	.L34:
 555 0066 C046     		.align	2
 556              	.L33:
 557 0068 00000000 		.word	.LANCHOR2
 558 006c 00000000 		.word	CapSense_unscannedSnsDriveMode
 559              		.cfi_endproc
 560              	.LFE51:
 561              		.size	CapSense_DisableSensor, .-CapSense_DisableSensor
 562              		.section	.text.CapSense_ClearSensors,"ax",%progbits
 563              		.align	2
 564              		.global	CapSense_ClearSensors
 565              		.code	16
 566              		.thumb_func
 567              		.type	CapSense_ClearSensors, %function
 568              	CapSense_ClearSensors:
 569              	.LFB49:
 904:.\Generated_Source\PSoC4/CapSense.c **** {
 570              		.loc 1 904 0
 571              		.cfi_startproc
 572 0000 10B5     		push	{r4, lr}
 573              		.cfi_def_cfa_offset 8
 574              		.cfi_offset 4, -8
 575              		.cfi_offset 14, -4
 576              	.LVL72:
 907:.\Generated_Source\PSoC4/CapSense.c ****     for (snsIndex = 0u; snsIndex < CapSense_TOTAL_SENSOR_COUNT; snsIndex++)
 577              		.loc 1 907 0
 578 0002 0024     		mov	r4, #0
 579 0004 03E0     		b	.L36
 580              	.LVL73:
 581              	.L37:
 909:.\Generated_Source\PSoC4/CapSense.c ****         CapSense_DisableScanSlot(snsIndex);
 582              		.loc 1 909 0 discriminator 2
 583 0006 201C     		mov	r0, r4
 584 0008 FFF7FEFF 		bl	CapSense_DisableSensor
 585              	.LVL74:
 907:.\Generated_Source\PSoC4/CapSense.c ****     for (snsIndex = 0u; snsIndex < CapSense_TOTAL_SENSOR_COUNT; snsIndex++)
 586              		.loc 1 907 0 discriminator 2
 587 000c 0134     		add	r4, r4, #1
 588              	.LVL75:
 589              	.L36:
 907:.\Generated_Source\PSoC4/CapSense.c ****     for (snsIndex = 0u; snsIndex < CapSense_TOTAL_SENSOR_COUNT; snsIndex++)
 590              		.loc 1 907 0 is_stmt 0 discriminator 1
 591 000e 012C     		cmp	r4, #1
 592 0010 F9D9     		bls	.L37
 911:.\Generated_Source\PSoC4/CapSense.c **** }
 593              		.loc 1 911 0 is_stmt 1
 594              		@ sp needed
 595              	.LVL76:
 596 0012 10BD     		pop	{r4, pc}
 597              		.cfi_endproc
ARM GAS  C:\Users\Luci\AppData\Local\Temp\cc2LetiO.s 			page 32


 598              	.LFE49:
 599              		.size	CapSense_ClearSensors, .-CapSense_ClearSensors
 600              		.section	.text.CapSense_SetPinDriveMode,"ax",%progbits
 601              		.align	2
 602              		.global	CapSense_SetPinDriveMode
 603              		.code	16
 604              		.thumb_func
 605              		.type	CapSense_SetPinDriveMode, %function
 606              	CapSense_SetPinDriveMode:
 607              	.LFB54:
1164:.\Generated_Source\PSoC4/CapSense.c **** 
1165:.\Generated_Source\PSoC4/CapSense.c **** 
1166:.\Generated_Source\PSoC4/CapSense.c **** /*******************************************************************************
1167:.\Generated_Source\PSoC4/CapSense.c **** * Function Name: CapSense_SetDriveModeAllPins
1168:.\Generated_Source\PSoC4/CapSense.c **** ********************************************************************************
1169:.\Generated_Source\PSoC4/CapSense.c **** *
1170:.\Generated_Source\PSoC4/CapSense.c **** * Summary:
1171:.\Generated_Source\PSoC4/CapSense.c **** * This API sets the drive mode of port pins used by the CapSense
1172:.\Generated_Source\PSoC4/CapSense.c **** * component (sensors, guard, shield, shield tank and Cmod) to drive the 
1173:.\Generated_Source\PSoC4/CapSense.c **** * mode specified by the argument.
1174:.\Generated_Source\PSoC4/CapSense.c **** *
1175:.\Generated_Source\PSoC4/CapSense.c **** * Parameters:
1176:.\Generated_Source\PSoC4/CapSense.c **** *  driveMode:  Drive mode definition.
1177:.\Generated_Source\PSoC4/CapSense.c **** *
1178:.\Generated_Source\PSoC4/CapSense.c **** * Return:
1179:.\Generated_Source\PSoC4/CapSense.c **** *  None
1180:.\Generated_Source\PSoC4/CapSense.c **** *
1181:.\Generated_Source\PSoC4/CapSense.c **** * Global Variables:
1182:.\Generated_Source\PSoC4/CapSense.c **** *  CapSense_portTable[] - used to store the port number that pin 
1183:.\Generated_Source\PSoC4/CapSense.c **** *  belongs to for each sensor.
1184:.\Generated_Source\PSoC4/CapSense.c **** *  CapSense_pinShiftTbl[] - used to store position of pin that 
1185:.\Generated_Source\PSoC4/CapSense.c **** *  configured as a sensor in the port. 
1186:.\Generated_Source\PSoC4/CapSense.c **** *
1187:.\Generated_Source\PSoC4/CapSense.c **** * Side Effects: 
1188:.\Generated_Source\PSoC4/CapSense.c **** *  This API shall be called only after CapSense component is stopped.
1189:.\Generated_Source\PSoC4/CapSense.c **** *
1190:.\Generated_Source\PSoC4/CapSense.c **** *******************************************************************************/
1191:.\Generated_Source\PSoC4/CapSense.c **** void CapSense_SetDriveModeAllPins(uint32 driveMode)
1192:.\Generated_Source\PSoC4/CapSense.c **** {
1193:.\Generated_Source\PSoC4/CapSense.c **** 	uint8 curSensor;
1194:.\Generated_Source\PSoC4/CapSense.c **** 	#if (CapSense_IS_COMPLEX_SCANSLOTS)
1195:.\Generated_Source\PSoC4/CapSense.c **** 		uint8 snsNumber;
1196:.\Generated_Source\PSoC4/CapSense.c **** 		uint8 snsType;
1197:.\Generated_Source\PSoC4/CapSense.c **** 	#endif  /* CapSense_IS_COMPLEX_SCANSLOTS */
1198:.\Generated_Source\PSoC4/CapSense.c **** 	uint32 prtNumberTmp;
1199:.\Generated_Source\PSoC4/CapSense.c **** 	uint32 pinNumberTmp;
1200:.\Generated_Source\PSoC4/CapSense.c **** 
1201:.\Generated_Source\PSoC4/CapSense.c **** 	for(curSensor = 0u; curSensor < CapSense_TOTAL_SENSOR_COUNT; curSensor++)
1202:.\Generated_Source\PSoC4/CapSense.c **** 	{	
1203:.\Generated_Source\PSoC4/CapSense.c **** 		#if (CapSense_IS_COMPLEX_SCANSLOTS)
1204:.\Generated_Source\PSoC4/CapSense.c **** 			/* Read sensor type: single or complex */
1205:.\Generated_Source\PSoC4/CapSense.c **** 			snsType = CapSense_portTable[curSensor];
1206:.\Generated_Source\PSoC4/CapSense.c **** 		
1207:.\Generated_Source\PSoC4/CapSense.c **** 			/* Check if sensor is complex */
1208:.\Generated_Source\PSoC4/CapSense.c **** 			if ((snsType & CapSense_COMPLEX_SS_FLAG) == 0u)
1209:.\Generated_Source\PSoC4/CapSense.c **** 			{
1210:.\Generated_Source\PSoC4/CapSense.c **** 				/* The sensor is not complex */
ARM GAS  C:\Users\Luci\AppData\Local\Temp\cc2LetiO.s 			page 33


1211:.\Generated_Source\PSoC4/CapSense.c **** 				snsNumber = curSensor;
1212:.\Generated_Source\PSoC4/CapSense.c **** 			}
1213:.\Generated_Source\PSoC4/CapSense.c **** 			else
1214:.\Generated_Source\PSoC4/CapSense.c **** 			{
1215:.\Generated_Source\PSoC4/CapSense.c **** 				/* Get dedicated sensor ID of the complex sensor */
1216:.\Generated_Source\PSoC4/CapSense.c **** 				snsType &= ~CapSense_COMPLEX_SS_FLAG;
1217:.\Generated_Source\PSoC4/CapSense.c **** 				snsNumber = CapSense_indexTable[snsType];
1218:.\Generated_Source\PSoC4/CapSense.c **** 			}
1219:.\Generated_Source\PSoC4/CapSense.c **** 
1220:.\Generated_Source\PSoC4/CapSense.c **** 			prtNumberTmp = CapSense_portTable[snsNumber];
1221:.\Generated_Source\PSoC4/CapSense.c **** 			pinNumberTmp = CapSense_pinShiftTbl[snsNumber];
1222:.\Generated_Source\PSoC4/CapSense.c **** 		#else
1223:.\Generated_Source\PSoC4/CapSense.c **** 			prtNumberTmp = CapSense_portTable[curSensor];
1224:.\Generated_Source\PSoC4/CapSense.c **** 			pinNumberTmp = CapSense_pinShiftTbl[curSensor];
1225:.\Generated_Source\PSoC4/CapSense.c **** 		#endif  /* CapSense_IS_COMPLEX_SCANSLOTS */
1226:.\Generated_Source\PSoC4/CapSense.c **** 	
1227:.\Generated_Source\PSoC4/CapSense.c **** 		CapSense_SetPinDriveMode(driveMode, pinNumberTmp, prtNumberTmp);
1228:.\Generated_Source\PSoC4/CapSense.c **** 	}
1229:.\Generated_Source\PSoC4/CapSense.c **** 	
1230:.\Generated_Source\PSoC4/CapSense.c **** 	CapSense_SetPinDriveMode(driveMode, (uint32)CapSense_CMOD_PIN_NUMBER, (uint32)CapSense_CMOD_PRT_NU
1231:.\Generated_Source\PSoC4/CapSense.c **** 	
1232:.\Generated_Source\PSoC4/CapSense.c **** 	#if(0u != CapSense_CSH_TANK_ENABLE)
1233:.\Generated_Source\PSoC4/CapSense.c **** 		CapSense_SetPinDriveMode(driveMode, (uint32)CapSense_CTANK_PIN_NUMBER, (uint32)CapSense_CTANK_PRT
1234:.\Generated_Source\PSoC4/CapSense.c **** 	#endif /* (0u != CapSense_CSH_TANK_ENABLE) */	
1235:.\Generated_Source\PSoC4/CapSense.c **** 	
1236:.\Generated_Source\PSoC4/CapSense.c **** 	#if(0u != CapSense_IS_SHIELD_ENABLE)
1237:.\Generated_Source\PSoC4/CapSense.c **** 		CapSense_SetPinDriveMode(driveMode, (uint32)CapSense_SHIELD_PIN_NUMBER, (uint32)CapSense_SHIELD_P
1238:.\Generated_Source\PSoC4/CapSense.c **** 	#endif /* (0u != CapSense_IS_SHIELD_ENABLE) */	
1239:.\Generated_Source\PSoC4/CapSense.c **** }
1240:.\Generated_Source\PSoC4/CapSense.c **** 
1241:.\Generated_Source\PSoC4/CapSense.c **** 
1242:.\Generated_Source\PSoC4/CapSense.c **** /*******************************************************************************
1243:.\Generated_Source\PSoC4/CapSense.c **** * Function Name: CapSense_RestoreDriveModeAllPins
1244:.\Generated_Source\PSoC4/CapSense.c **** ********************************************************************************
1245:.\Generated_Source\PSoC4/CapSense.c **** *
1246:.\Generated_Source\PSoC4/CapSense.c **** * Summary:
1247:.\Generated_Source\PSoC4/CapSense.c **** *  This API restores the drive for all the CapSense port pins to the original
1248:.\Generated_Source\PSoC4/CapSense.c **** *  state.
1249:.\Generated_Source\PSoC4/CapSense.c **** *
1250:.\Generated_Source\PSoC4/CapSense.c **** * Parameters:
1251:.\Generated_Source\PSoC4/CapSense.c **** *  None
1252:.\Generated_Source\PSoC4/CapSense.c **** *
1253:.\Generated_Source\PSoC4/CapSense.c **** * Return:
1254:.\Generated_Source\PSoC4/CapSense.c **** *  None
1255:.\Generated_Source\PSoC4/CapSense.c **** *
1256:.\Generated_Source\PSoC4/CapSense.c **** * Global Variables:
1257:.\Generated_Source\PSoC4/CapSense.c **** *  CapSense_prtSelTbl[] - Contains pointers to the HSIOM 
1258:.\Generated_Source\PSoC4/CapSense.c **** *  registers for each port. 
1259:.\Generated_Source\PSoC4/CapSense.c **** *
1260:.\Generated_Source\PSoC4/CapSense.c **** * Side Effects: 
1261:.\Generated_Source\PSoC4/CapSense.c **** *  This API is called only after the CapSense component is stopped.
1262:.\Generated_Source\PSoC4/CapSense.c **** *
1263:.\Generated_Source\PSoC4/CapSense.c **** *******************************************************************************/
1264:.\Generated_Source\PSoC4/CapSense.c **** void CapSense_RestoreDriveModeAllPins(void)
1265:.\Generated_Source\PSoC4/CapSense.c **** {
1266:.\Generated_Source\PSoC4/CapSense.c **** 	uint32 newRegisterValue;
1267:.\Generated_Source\PSoC4/CapSense.c **** 	
ARM GAS  C:\Users\Luci\AppData\Local\Temp\cc2LetiO.s 			page 34


1268:.\Generated_Source\PSoC4/CapSense.c **** 	CapSense_SetDriveModeAllPins(CY_SYS_PINS_DM_ALG_HIZ);
1269:.\Generated_Source\PSoC4/CapSense.c **** 	
1270:.\Generated_Source\PSoC4/CapSense.c **** 	newRegisterValue = CapSense_CMOD_CONNECTION_REG; 
1271:.\Generated_Source\PSoC4/CapSense.c ****     newRegisterValue &= ~(CapSense_CSD_CMOD_CONNECTION_MASK);
1272:.\Generated_Source\PSoC4/CapSense.c ****     newRegisterValue |= CapSense_CSD_CMOD_TO_AMUXBUS_A;
1273:.\Generated_Source\PSoC4/CapSense.c ****     CapSense_CMOD_CONNECTION_REG = newRegisterValue;
1274:.\Generated_Source\PSoC4/CapSense.c **** 	
1275:.\Generated_Source\PSoC4/CapSense.c **** 	#if(0u != CapSense_CSH_TANK_ENABLE)
1276:.\Generated_Source\PSoC4/CapSense.c **** 		newRegisterValue = CapSense_CTANK_CONNECTION_REG;
1277:.\Generated_Source\PSoC4/CapSense.c ****         newRegisterValue &= ~(CapSense_CSD_CTANK_CONNECTION_MASK);
1278:.\Generated_Source\PSoC4/CapSense.c **** 		newRegisterValue |= CapSense_CSD_CTANK_TO_AMUXBUS_B;
1279:.\Generated_Source\PSoC4/CapSense.c ****         CapSense_CTANK_CONNECTION_REG = newRegisterValue;
1280:.\Generated_Source\PSoC4/CapSense.c **** 	#endif/* (0u != CapSense_CSH_TANK_ENABLE) */
1281:.\Generated_Source\PSoC4/CapSense.c **** 	
1282:.\Generated_Source\PSoC4/CapSense.c **** 	#if(0u != CapSense_IS_SHIELD_ENABLE)
1283:.\Generated_Source\PSoC4/CapSense.c **** 		newRegisterValue = *CapSense_prtSelTbl[CapSense_SHIELD_PORT_NUMBER];
1284:.\Generated_Source\PSoC4/CapSense.c ****         newRegisterValue &= ~(CapSense_CSD_HSIOM_MASK << ((uint32)CapSense_SHIELD_PIN_NUMBER * CapS
1285:.\Generated_Source\PSoC4/CapSense.c ****         newRegisterValue |= (CapSense_CSD_SHIELD_PORT_MODE << ((uint32)CapSense_SHIELD_PIN_NUMBER *
1286:.\Generated_Source\PSoC4/CapSense.c ****         *CapSense_prtSelTbl[CapSense_SHIELD_PORT_NUMBER] = newRegisterValue;
1287:.\Generated_Source\PSoC4/CapSense.c **** 	#endif /* (0u != CapSense_IS_SHIELD_ENABLE) */	
1288:.\Generated_Source\PSoC4/CapSense.c **** }
1289:.\Generated_Source\PSoC4/CapSense.c **** 
1290:.\Generated_Source\PSoC4/CapSense.c **** 
1291:.\Generated_Source\PSoC4/CapSense.c **** /*******************************************************************************
1292:.\Generated_Source\PSoC4/CapSense.c **** * Function Name: CapSense_SetPinDriveMode
1293:.\Generated_Source\PSoC4/CapSense.c **** ********************************************************************************
1294:.\Generated_Source\PSoC4/CapSense.c **** *
1295:.\Generated_Source\PSoC4/CapSense.c **** * Summary:
1296:.\Generated_Source\PSoC4/CapSense.c **** * This API sets the drive mode for the appropriate port/pin.
1297:.\Generated_Source\PSoC4/CapSense.c **** *
1298:.\Generated_Source\PSoC4/CapSense.c **** * Parameters:
1299:.\Generated_Source\PSoC4/CapSense.c **** *  driveMode:  Drive mode definition.
1300:.\Generated_Source\PSoC4/CapSense.c **** *  portNumber: contains port number (0, 1, 2).
1301:.\Generated_Source\PSoC4/CapSense.c **** *  pinNumber: contains pin number (0, 1, 2, ... , 7).
1302:.\Generated_Source\PSoC4/CapSense.c **** *
1303:.\Generated_Source\PSoC4/CapSense.c **** * Return:
1304:.\Generated_Source\PSoC4/CapSense.c **** *  None
1305:.\Generated_Source\PSoC4/CapSense.c **** *
1306:.\Generated_Source\PSoC4/CapSense.c **** * Global Variables:
1307:.\Generated_Source\PSoC4/CapSense.c **** *  CapSense_prtSelTbl[] - Contains pointers to the HSIOM 
1308:.\Generated_Source\PSoC4/CapSense.c **** *  registers for each port. 
1309:.\Generated_Source\PSoC4/CapSense.c **** *  CapSense_prtCfgTb[] - Contains pointers to the port config 
1310:.\Generated_Source\PSoC4/CapSense.c **** *  registers for each port.
1311:.\Generated_Source\PSoC4/CapSense.c **** *
1312:.\Generated_Source\PSoC4/CapSense.c **** * Side Effects: 
1313:.\Generated_Source\PSoC4/CapSense.c **** *  This API is called only after CapSense component is stopped.
1314:.\Generated_Source\PSoC4/CapSense.c **** *
1315:.\Generated_Source\PSoC4/CapSense.c **** *******************************************************************************/
1316:.\Generated_Source\PSoC4/CapSense.c **** void CapSense_SetPinDriveMode(uint32 driveMode, uint32 pinNumber, uint32 portNumber)
1317:.\Generated_Source\PSoC4/CapSense.c **** {	
 608              		.loc 1 1317 0
 609              		.cfi_startproc
 610              	.LVL77:
 611 0000 10B5     		push	{r4, lr}
 612              		.cfi_def_cfa_offset 8
 613              		.cfi_offset 4, -8
 614              		.cfi_offset 14, -4
ARM GAS  C:\Users\Luci\AppData\Local\Temp\cc2LetiO.s 			page 35


1318:.\Generated_Source\PSoC4/CapSense.c **** 	uint32  pinModeShift;
1319:.\Generated_Source\PSoC4/CapSense.c **** 	uint32 newRegisterValue;
1320:.\Generated_Source\PSoC4/CapSense.c **** 	
1321:.\Generated_Source\PSoC4/CapSense.c **** 	pinModeShift  = pinNumber * CapSense_PC_PIN_CFG_SIZE;
 615              		.loc 1 1321 0
 616 0002 4B00     		lsl	r3, r1, #1
 617 0004 5918     		add	r1, r3, r1
 618              	.LVL78:
1322:.\Generated_Source\PSoC4/CapSense.c **** 	
1323:.\Generated_Source\PSoC4/CapSense.c **** 	newRegisterValue = *CapSense_prtCfgTbl[portNumber];
 619              		.loc 1 1323 0
 620 0006 9200     		lsl	r2, r2, #2
 621              	.LVL79:
 622 0008 054B     		ldr	r3, .L39
 623 000a 9A18     		add	r2, r3, r2
 624 000c 136A     		ldr	r3, [r2, #32]
 625 000e 1A68     		ldr	r2, [r3]
 626              	.LVL80:
1324:.\Generated_Source\PSoC4/CapSense.c **** 	newRegisterValue &= ~(CapSense_CSD_PIN_MODE_MASK << pinModeShift);
 627              		.loc 1 1324 0
 628 0010 0724     		mov	r4, #7
 629 0012 8C40     		lsl	r4, r4, r1
 630 0014 A243     		bic	r2, r4
 631              	.LVL81:
1325:.\Generated_Source\PSoC4/CapSense.c **** 	newRegisterValue |=  (uint32)((uint32)driveMode << pinModeShift);
 632              		.loc 1 1325 0
 633 0016 8840     		lsl	r0, r0, r1
 634              	.LVL82:
 635 0018 011C     		mov	r1, r0
 636              	.LVL83:
 637 001a 1143     		orr	r1, r2
 638              	.LVL84:
1326:.\Generated_Source\PSoC4/CapSense.c ****     *CapSense_prtCfgTbl[portNumber] =  newRegisterValue;
 639              		.loc 1 1326 0
 640 001c 1960     		str	r1, [r3]
1327:.\Generated_Source\PSoC4/CapSense.c **** }
 641              		.loc 1 1327 0
 642              		@ sp needed
 643 001e 10BD     		pop	{r4, pc}
 644              	.L40:
 645              		.align	2
 646              	.L39:
 647 0020 00000000 		.word	.LANCHOR2
 648              		.cfi_endproc
 649              	.LFE54:
 650              		.size	CapSense_SetPinDriveMode, .-CapSense_SetPinDriveMode
 651              		.section	.text.CapSense_SetDriveModeAllPins,"ax",%progbits
 652              		.align	2
 653              		.global	CapSense_SetDriveModeAllPins
 654              		.code	16
 655              		.thumb_func
 656              		.type	CapSense_SetDriveModeAllPins, %function
 657              	CapSense_SetDriveModeAllPins:
 658              	.LFB52:
1192:.\Generated_Source\PSoC4/CapSense.c **** {
 659              		.loc 1 1192 0
 660              		.cfi_startproc
ARM GAS  C:\Users\Luci\AppData\Local\Temp\cc2LetiO.s 			page 36


 661              	.LVL85:
 662 0000 70B5     		push	{r4, r5, r6, lr}
 663              		.cfi_def_cfa_offset 16
 664              		.cfi_offset 4, -16
 665              		.cfi_offset 5, -12
 666              		.cfi_offset 6, -8
 667              		.cfi_offset 14, -4
 668 0002 061C     		mov	r6, r0
 669              	.LVL86:
1201:.\Generated_Source\PSoC4/CapSense.c **** 	for(curSensor = 0u; curSensor < CapSense_TOTAL_SENSOR_COUNT; curSensor++)
 670              		.loc 1 1201 0
 671 0004 0024     		mov	r4, #0
1223:.\Generated_Source\PSoC4/CapSense.c **** 			prtNumberTmp = CapSense_portTable[curSensor];
 672              		.loc 1 1223 0
 673 0006 094D     		ldr	r5, .L44
1201:.\Generated_Source\PSoC4/CapSense.c **** 	for(curSensor = 0u; curSensor < CapSense_TOTAL_SENSOR_COUNT; curSensor++)
 674              		.loc 1 1201 0
 675 0008 07E0     		b	.L42
 676              	.LVL87:
 677              	.L43:
1223:.\Generated_Source\PSoC4/CapSense.c **** 			prtNumberTmp = CapSense_portTable[curSensor];
 678              		.loc 1 1223 0 discriminator 2
 679 000a 2A5D     		ldrb	r2, [r5, r4]
 680              	.LVL88:
1224:.\Generated_Source\PSoC4/CapSense.c **** 			pinNumberTmp = CapSense_pinShiftTbl[curSensor];
 681              		.loc 1 1224 0 discriminator 2
 682 000c 2B19     		add	r3, r5, r4
 683 000e 1979     		ldrb	r1, [r3, #4]
 684              	.LVL89:
1227:.\Generated_Source\PSoC4/CapSense.c **** 		CapSense_SetPinDriveMode(driveMode, pinNumberTmp, prtNumberTmp);
 685              		.loc 1 1227 0 discriminator 2
 686 0010 301C     		mov	r0, r6
 687 0012 FFF7FEFF 		bl	CapSense_SetPinDriveMode
 688              	.LVL90:
1201:.\Generated_Source\PSoC4/CapSense.c **** 	for(curSensor = 0u; curSensor < CapSense_TOTAL_SENSOR_COUNT; curSensor++)
 689              		.loc 1 1201 0 discriminator 2
 690 0016 0134     		add	r4, r4, #1
 691              	.LVL91:
 692 0018 E4B2     		uxtb	r4, r4
 693              	.LVL92:
 694              	.L42:
1201:.\Generated_Source\PSoC4/CapSense.c **** 	for(curSensor = 0u; curSensor < CapSense_TOTAL_SENSOR_COUNT; curSensor++)
 695              		.loc 1 1201 0 is_stmt 0 discriminator 1
 696 001a 012C     		cmp	r4, #1
 697 001c F5D9     		bls	.L43
1230:.\Generated_Source\PSoC4/CapSense.c **** 	CapSense_SetPinDriveMode(driveMode, (uint32)CapSense_CMOD_PIN_NUMBER, (uint32)CapSense_CMOD_PRT_NU
 698              		.loc 1 1230 0 is_stmt 1
 699 001e 301C     		mov	r0, r6
 700 0020 0021     		mov	r1, #0
 701 0022 0422     		mov	r2, #4
 702 0024 FFF7FEFF 		bl	CapSense_SetPinDriveMode
 703              	.LVL93:
1239:.\Generated_Source\PSoC4/CapSense.c **** }
 704              		.loc 1 1239 0
 705              		@ sp needed
 706              	.LVL94:
 707              	.LVL95:
ARM GAS  C:\Users\Luci\AppData\Local\Temp\cc2LetiO.s 			page 37


 708 0028 70BD     		pop	{r4, r5, r6, pc}
 709              	.L45:
 710 002a C046     		.align	2
 711              	.L44:
 712 002c 00000000 		.word	.LANCHOR2
 713              		.cfi_endproc
 714              	.LFE52:
 715              		.size	CapSense_SetDriveModeAllPins, .-CapSense_SetDriveModeAllPins
 716              		.section	.text.CapSense_RestoreDriveModeAllPins,"ax",%progbits
 717              		.align	2
 718              		.global	CapSense_RestoreDriveModeAllPins
 719              		.code	16
 720              		.thumb_func
 721              		.type	CapSense_RestoreDriveModeAllPins, %function
 722              	CapSense_RestoreDriveModeAllPins:
 723              	.LFB53:
1265:.\Generated_Source\PSoC4/CapSense.c **** {
 724              		.loc 1 1265 0
 725              		.cfi_startproc
 726 0000 08B5     		push	{r3, lr}
 727              		.cfi_def_cfa_offset 8
 728              		.cfi_offset 3, -8
 729              		.cfi_offset 14, -4
1268:.\Generated_Source\PSoC4/CapSense.c **** 	CapSense_SetDriveModeAllPins(CY_SYS_PINS_DM_ALG_HIZ);
 730              		.loc 1 1268 0
 731 0002 0020     		mov	r0, #0
 732 0004 FFF7FEFF 		bl	CapSense_SetDriveModeAllPins
 733              	.LVL96:
1270:.\Generated_Source\PSoC4/CapSense.c **** 	newRegisterValue = CapSense_CMOD_CONNECTION_REG; 
 734              		.loc 1 1270 0
 735 0008 034B     		ldr	r3, .L47
 736 000a 1A68     		ldr	r2, [r3]
 737              	.LVL97:
1271:.\Generated_Source\PSoC4/CapSense.c ****     newRegisterValue &= ~(CapSense_CSD_CMOD_CONNECTION_MASK);
 738              		.loc 1 1271 0
 739 000c 0F21     		mov	r1, #15
 740 000e 8A43     		bic	r2, r1
 741              	.LVL98:
1272:.\Generated_Source\PSoC4/CapSense.c ****     newRegisterValue |= CapSense_CSD_CMOD_TO_AMUXBUS_A;
 742              		.loc 1 1272 0
 743 0010 0621     		mov	r1, #6
 744 0012 0A43     		orr	r2, r1
 745              	.LVL99:
1273:.\Generated_Source\PSoC4/CapSense.c ****     CapSense_CMOD_CONNECTION_REG = newRegisterValue;
 746              		.loc 1 1273 0
 747 0014 1A60     		str	r2, [r3]
1288:.\Generated_Source\PSoC4/CapSense.c **** }
 748              		.loc 1 1288 0
 749              		@ sp needed
 750 0016 08BD     		pop	{r3, pc}
 751              	.L48:
 752              		.align	2
 753              	.L47:
 754 0018 00040240 		.word	1073873920
 755              		.cfi_endproc
 756              	.LFE53:
 757              		.size	CapSense_RestoreDriveModeAllPins, .-CapSense_RestoreDriveModeAllPins
ARM GAS  C:\Users\Luci\AppData\Local\Temp\cc2LetiO.s 			page 38


 758              		.section	.text.CapSense_EnableShieldElectrode,"ax",%progbits
 759              		.align	2
 760              		.global	CapSense_EnableShieldElectrode
 761              		.code	16
 762              		.thumb_func
 763              		.type	CapSense_EnableShieldElectrode, %function
 764              	CapSense_EnableShieldElectrode:
 765              	.LFB57:
1328:.\Generated_Source\PSoC4/CapSense.c **** 
1329:.\Generated_Source\PSoC4/CapSense.c **** 
1330:.\Generated_Source\PSoC4/CapSense.c **** /*******************************************************************************
1331:.\Generated_Source\PSoC4/CapSense.c **** * Function Name: CapSense_PreScan
1332:.\Generated_Source\PSoC4/CapSense.c **** ********************************************************************************
1333:.\Generated_Source\PSoC4/CapSense.c **** *
1334:.\Generated_Source\PSoC4/CapSense.c **** * Summary:
1335:.\Generated_Source\PSoC4/CapSense.c **** *  Sets required settings, enables a sensor, removes Vref from AMUX and starts the 
1336:.\Generated_Source\PSoC4/CapSense.c **** *  scanning process of the sensor.
1337:.\Generated_Source\PSoC4/CapSense.c **** *
1338:.\Generated_Source\PSoC4/CapSense.c **** * Parameters:
1339:.\Generated_Source\PSoC4/CapSense.c **** *  sensor:  Sensor number.
1340:.\Generated_Source\PSoC4/CapSense.c **** *
1341:.\Generated_Source\PSoC4/CapSense.c **** * Return:
1342:.\Generated_Source\PSoC4/CapSense.c **** *  None
1343:.\Generated_Source\PSoC4/CapSense.c **** *
1344:.\Generated_Source\PSoC4/CapSense.c **** * Global Variables:
1345:.\Generated_Source\PSoC4/CapSense.c **** * CapSense_widgetNumber[] - This array contains numbers of widgets for each sensor.
1346:.\Generated_Source\PSoC4/CapSense.c **** * CapSense_widgetResolution[] - Contains the widget resolution.
1347:.\Generated_Source\PSoC4/CapSense.c **** *
1348:.\Generated_Source\PSoC4/CapSense.c **** * Side Effects: 
1349:.\Generated_Source\PSoC4/CapSense.c **** *  None
1350:.\Generated_Source\PSoC4/CapSense.c **** *
1351:.\Generated_Source\PSoC4/CapSense.c **** *******************************************************************************/
1352:.\Generated_Source\PSoC4/CapSense.c **** void CapSense_PreScan(uint32 sensor)
1353:.\Generated_Source\PSoC4/CapSense.c **** {
1354:.\Generated_Source\PSoC4/CapSense.c ****     uint8 widget;
1355:.\Generated_Source\PSoC4/CapSense.c ****     uint8 interruptState;
1356:.\Generated_Source\PSoC4/CapSense.c **** 	uint32 newRegValue;
1357:.\Generated_Source\PSoC4/CapSense.c **** 	uint32 counterResolution;
1358:.\Generated_Source\PSoC4/CapSense.c **** 	
1359:.\Generated_Source\PSoC4/CapSense.c **** 	#if(CapSense_PRS_OPTIONS == CapSense__PRS_AUTO)
1360:.\Generated_Source\PSoC4/CapSense.c **** 		uint8 senseClkDivMath;
1361:.\Generated_Source\PSoC4/CapSense.c **** 		uint8 sampleClkDivMath;
1362:.\Generated_Source\PSoC4/CapSense.c **** 	#endif /* (CapSense_PRS_OPTIONS == CapSense__PRS_AUTO) */	
1363:.\Generated_Source\PSoC4/CapSense.c **** 	
1364:.\Generated_Source\PSoC4/CapSense.c **** 	#if ((CapSense_TUNING_METHOD == CapSense__TUNING_AUTO) &&\
1365:.\Generated_Source\PSoC4/CapSense.c **** 		 (0 != CapSense_IS_OVERSAMPLING_EN))
1366:.\Generated_Source\PSoC4/CapSense.c **** 		uint32 oversamplingFactor;
1367:.\Generated_Source\PSoC4/CapSense.c **** 	#endif /* ((CapSense_TUNING_METHOD == CapSense__TUNING_AUTO) &&\
1368:.\Generated_Source\PSoC4/CapSense.c **** 	           (0 != CapSense_IS_OVERSAMPLING_EN)) */
1369:.\Generated_Source\PSoC4/CapSense.c **** 
1370:.\Generated_Source\PSoC4/CapSense.c ****     /* Define widget sensor belongs to */
1371:.\Generated_Source\PSoC4/CapSense.c ****     widget = CapSense_widgetNumber[sensor];
1372:.\Generated_Source\PSoC4/CapSense.c **** 
1373:.\Generated_Source\PSoC4/CapSense.c **** 	/* Recalculate Counter Resolution to MSB 16 bits */
1374:.\Generated_Source\PSoC4/CapSense.c **** 	counterResolution = CapSense_widgetResolution[widget];
1375:.\Generated_Source\PSoC4/CapSense.c **** 	
1376:.\Generated_Source\PSoC4/CapSense.c **** 	#if ((CapSense_TUNING_METHOD == CapSense__TUNING_AUTO) &&\
ARM GAS  C:\Users\Luci\AppData\Local\Temp\cc2LetiO.s 			page 39


1377:.\Generated_Source\PSoC4/CapSense.c **** 		 (0 != CapSense_IS_OVERSAMPLING_EN))
1378:.\Generated_Source\PSoC4/CapSense.c **** 	    oversamplingFactor = CapSense_GetBitValue(scanSpeedTbl, sensor);
1379:.\Generated_Source\PSoC4/CapSense.c **** 
1380:.\Generated_Source\PSoC4/CapSense.c **** 		if(counterResolution < CapSense_RESOLUTION_16_BITS)
1381:.\Generated_Source\PSoC4/CapSense.c **** 		{
1382:.\Generated_Source\PSoC4/CapSense.c **** 			counterResolution <<= oversamplingFactor;
1383:.\Generated_Source\PSoC4/CapSense.c **** 			counterResolution |= (uint32)(CapSense_RESOLUTION_8_BITS);
1384:.\Generated_Source\PSoC4/CapSense.c **** 		}
1385:.\Generated_Source\PSoC4/CapSense.c **** 	#endif /* ((CapSense_TUNING_METHOD == CapSense__TUNING_AUTO) &&\
1386:.\Generated_Source\PSoC4/CapSense.c **** 	           (0 != CapSense_IS_OVERSAMPLING_EN)) */
1387:.\Generated_Source\PSoC4/CapSense.c **** 	
1388:.\Generated_Source\PSoC4/CapSense.c **** 	#if (0u != CapSense_IS_M0S8PERI_BLOCK)
1389:.\Generated_Source\PSoC4/CapSense.c **** 		CapSense_SenseClk_Stop();
1390:.\Generated_Source\PSoC4/CapSense.c **** 		CapSense_SampleClk_Stop();
1391:.\Generated_Source\PSoC4/CapSense.c **** 	#endif /* (0u != CapSense_IS_M0S8PERI_BLOCK) */
1392:.\Generated_Source\PSoC4/CapSense.c **** 
1393:.\Generated_Source\PSoC4/CapSense.c **** 	#if (0u != CapSense_MULTIPLE_FREQUENCY_SET)
1394:.\Generated_Source\PSoC4/CapSense.c **** 		CapSense_SampleClk_SetDividerValue((uint16)CapSense_sampleClkDividerVal[sensor]);
1395:.\Generated_Source\PSoC4/CapSense.c **** 		CapSense_SenseClk_SetDividerValue((uint16)CapSense_senseClkDividerVal[sensor]);
1396:.\Generated_Source\PSoC4/CapSense.c **** 	#else
1397:.\Generated_Source\PSoC4/CapSense.c **** 		CapSense_SampleClk_SetDividerValue((uint16)CapSense_sampleClkDividerVal);
1398:.\Generated_Source\PSoC4/CapSense.c **** 		CapSense_SenseClk_SetDividerValue((uint16)CapSense_senseClkDividerVal);
1399:.\Generated_Source\PSoC4/CapSense.c **** 	#endif /* (0u != CapSense_MULTIPLE_FREQUENCY_SET) */
1400:.\Generated_Source\PSoC4/CapSense.c **** 
1401:.\Generated_Source\PSoC4/CapSense.c **** 	#if (0u != CapSense_IS_M0S8PERI_BLOCK)
1402:.\Generated_Source\PSoC4/CapSense.c **** 		CapSense_SampleClk_Start();
1403:.\Generated_Source\PSoC4/CapSense.c **** 		CapSense_SenseClk_StartEx(CapSense_SampleClk__DIV_ID);
1404:.\Generated_Source\PSoC4/CapSense.c **** 		
1405:.\Generated_Source\PSoC4/CapSense.c **** 		#if(CapSense_PRS_OPTIONS == CapSense__PRS_NONE)
1406:.\Generated_Source\PSoC4/CapSense.c **** 			CyIntDisable(CapSense_ISR_NUMBER);
1407:.\Generated_Source\PSoC4/CapSense.c **** 			CapSense_CSD_CNT_REG = CapSense_ONE_CYCLE;
1408:.\Generated_Source\PSoC4/CapSense.c **** 			while(0u != (CapSense_CSD_CNT_REG & CapSense_RESOLUTION_16_BITS))
1409:.\Generated_Source\PSoC4/CapSense.c **** 			{
1410:.\Generated_Source\PSoC4/CapSense.c **** 			/* Wait until scanning is complete */ 
1411:.\Generated_Source\PSoC4/CapSense.c **** 			}
1412:.\Generated_Source\PSoC4/CapSense.c **** 			CapSense_CSD_INTR_REG = 1u;
1413:.\Generated_Source\PSoC4/CapSense.c **** 			CyIntClearPending(CapSense_ISR_NUMBER);
1414:.\Generated_Source\PSoC4/CapSense.c **** 			CyIntEnable(CapSense_ISR_NUMBER); 
1415:.\Generated_Source\PSoC4/CapSense.c **** 		#endif /* CapSense_PRS_OPTIONS == CapSense__PRS_NONE */
1416:.\Generated_Source\PSoC4/CapSense.c **** 	#endif /* (0u != CapSense_IS_M0S8PERI_BLOCK) */
1417:.\Generated_Source\PSoC4/CapSense.c **** 
1418:.\Generated_Source\PSoC4/CapSense.c **** #if(CapSense_PRS_OPTIONS != CapSense__PRS_NONE)
1419:.\Generated_Source\PSoC4/CapSense.c **** 
1420:.\Generated_Source\PSoC4/CapSense.c **** 	#if(CapSense_TUNING_METHOD == CapSense__TUNING_AUTO)
1421:.\Generated_Source\PSoC4/CapSense.c **** 		if(CapSense_prescalersTuningDone != 0u)
1422:.\Generated_Source\PSoC4/CapSense.c **** 		{
1423:.\Generated_Source\PSoC4/CapSense.c **** 	#endif /* (CapSense_TUNING_METHOD == CapSense__TUNING_AUTO) */
1424:.\Generated_Source\PSoC4/CapSense.c **** 			
1425:.\Generated_Source\PSoC4/CapSense.c **** 			CyIntDisable(CapSense_ISR_NUMBER);
1426:.\Generated_Source\PSoC4/CapSense.c **** 			
1427:.\Generated_Source\PSoC4/CapSense.c **** 			newRegValue = CapSense_CSD_CFG_REG;
1428:.\Generated_Source\PSoC4/CapSense.c **** 			newRegValue |= CapSense_CSD_CFG_PRS_SELECT;
1429:.\Generated_Source\PSoC4/CapSense.c **** 			
1430:.\Generated_Source\PSoC4/CapSense.c **** 			#if(CapSense_PRS_OPTIONS == CapSense__PRS_AUTO)
1431:.\Generated_Source\PSoC4/CapSense.c **** 				
1432:.\Generated_Source\PSoC4/CapSense.c **** 				newRegValue &= ~(CapSense_PRS_MODE_MASK);
1433:.\Generated_Source\PSoC4/CapSense.c **** 				
ARM GAS  C:\Users\Luci\AppData\Local\Temp\cc2LetiO.s 			page 40


1434:.\Generated_Source\PSoC4/CapSense.c **** 				#if (0u != CapSense_MULTIPLE_FREQUENCY_SET)
1435:.\Generated_Source\PSoC4/CapSense.c **** 					senseClkDivMath = CapSense_senseClkDividerVal[sensor];
1436:.\Generated_Source\PSoC4/CapSense.c **** 					sampleClkDivMath = CapSense_sampleClkDividerVal[sensor];
1437:.\Generated_Source\PSoC4/CapSense.c **** 				#else
1438:.\Generated_Source\PSoC4/CapSense.c **** 					senseClkDivMath = CapSense_senseClkDividerVal;
1439:.\Generated_Source\PSoC4/CapSense.c **** 					sampleClkDivMath = CapSense_sampleClkDividerVal;
1440:.\Generated_Source\PSoC4/CapSense.c **** 				#endif /* ( CapSense_MULTIPLE_FREQUENCY_SET) */
1441:.\Generated_Source\PSoC4/CapSense.c **** 				
1442:.\Generated_Source\PSoC4/CapSense.c **** 				#if(0u == CapSense_IS_M0S8PERI_BLOCK)
1443:.\Generated_Source\PSoC4/CapSense.c **** 					senseClkDivMath *= sampleClkDivMath;
1444:.\Generated_Source\PSoC4/CapSense.c **** 				#endif /* (0u == CapSense_IS_M0S8PERI_BLOCK) */	
1445:.\Generated_Source\PSoC4/CapSense.c **** 				
1446:.\Generated_Source\PSoC4/CapSense.c **** 				if((senseClkDivMath * CapSense_RESOLUTION_12_BITS) <
1447:.\Generated_Source\PSoC4/CapSense.c **** 				   (sampleClkDivMath * CapSense_widgetResolution[widget]))
1448:.\Generated_Source\PSoC4/CapSense.c **** 				{
1449:.\Generated_Source\PSoC4/CapSense.c **** 					newRegValue |= CapSense_CSD_PRS_12_BIT;
1450:.\Generated_Source\PSoC4/CapSense.c **** 				}
1451:.\Generated_Source\PSoC4/CapSense.c **** 			#endif /* (CapSense_PRS_OPTIONS == CapSense__PRS_AUTO) */
1452:.\Generated_Source\PSoC4/CapSense.c **** 			
1453:.\Generated_Source\PSoC4/CapSense.c **** 			CapSense_CSD_CFG_REG = newRegValue;
1454:.\Generated_Source\PSoC4/CapSense.c **** 			
1455:.\Generated_Source\PSoC4/CapSense.c **** 			CyIntEnable(CapSense_ISR_NUMBER);
1456:.\Generated_Source\PSoC4/CapSense.c **** 			
1457:.\Generated_Source\PSoC4/CapSense.c **** 	#if(CapSense_TUNING_METHOD == CapSense__TUNING_AUTO)	
1458:.\Generated_Source\PSoC4/CapSense.c **** 		}
1459:.\Generated_Source\PSoC4/CapSense.c **** 	#endif /* (CapSense_PRS_OPTIONS != CapSense__PRS_NONE) */
1460:.\Generated_Source\PSoC4/CapSense.c **** 
1461:.\Generated_Source\PSoC4/CapSense.c **** #endif /* (CapSense_PRS_OPTIONS == CapSense__PRS_NONE) */
1462:.\Generated_Source\PSoC4/CapSense.c **** 	
1463:.\Generated_Source\PSoC4/CapSense.c **** 	/* Set Idac Value */
1464:.\Generated_Source\PSoC4/CapSense.c **** 	CyIntDisable(CapSense_ISR_NUMBER);
1465:.\Generated_Source\PSoC4/CapSense.c ****     newRegValue = CapSense_CSD_IDAC_REG;
1466:.\Generated_Source\PSoC4/CapSense.c ****  
1467:.\Generated_Source\PSoC4/CapSense.c **** #if (CapSense_IDAC_CNT == 1u)    
1468:.\Generated_Source\PSoC4/CapSense.c **** 	newRegValue &= ~(CapSense_CSD_IDAC1_DATA_MASK);
1469:.\Generated_Source\PSoC4/CapSense.c **** 	newRegValue |= CapSense_modulationIDAC[sensor];
1470:.\Generated_Source\PSoC4/CapSense.c **** #else
1471:.\Generated_Source\PSoC4/CapSense.c **** 	newRegValue &= ~(CapSense_CSD_IDAC1_DATA_MASK | CapSense_CSD_IDAC2_DATA_MASK);
1472:.\Generated_Source\PSoC4/CapSense.c **** 	newRegValue |= (CapSense_modulationIDAC[sensor] | 
1473:.\Generated_Source\PSoC4/CapSense.c **** 							(uint32)((uint32)CapSense_compensationIDAC[sensor] <<
1474:.\Generated_Source\PSoC4/CapSense.c **** 							CapSense_CSD_IDAC2_DATA_OFFSET));                               
1475:.\Generated_Source\PSoC4/CapSense.c **** #endif /* (CapSense_IDAC_CNT == 1u) */
1476:.\Generated_Source\PSoC4/CapSense.c **** 	
1477:.\Generated_Source\PSoC4/CapSense.c **** 	CapSense_CSD_IDAC_REG = newRegValue;
1478:.\Generated_Source\PSoC4/CapSense.c **** 
1479:.\Generated_Source\PSoC4/CapSense.c **** #if(CapSense_CMOD_PREGARGE_OPTION == CapSense__CAPPRIOBUF)
1480:.\Generated_Source\PSoC4/CapSense.c **** 	newRegValue = CapSense_CMOD_CONNECTION_REG;
1481:.\Generated_Source\PSoC4/CapSense.c **** 	newRegValue &= ~(CapSense_CSD_CMOD_CONNECTION_MASK);
1482:.\Generated_Source\PSoC4/CapSense.c **** 	newRegValue |= CapSense_CSD_CMOD_TO_AMUXBUS_A;
1483:.\Generated_Source\PSoC4/CapSense.c **** 	CapSense_CMOD_CONNECTION_REG = newRegValue;
1484:.\Generated_Source\PSoC4/CapSense.c **** 	
1485:.\Generated_Source\PSoC4/CapSense.c **** 	newRegValue = CapSense_CMOD_PORT_PC_REG;
1486:.\Generated_Source\PSoC4/CapSense.c **** 	newRegValue &= ~(CapSense_CSD_CMOD_PC_MASK);
1487:.\Generated_Source\PSoC4/CapSense.c **** 	newRegValue |= CapSense_CMOD_PC_HIGH_Z_MODE;
1488:.\Generated_Source\PSoC4/CapSense.c **** 	CapSense_CMOD_PORT_PC_REG = newRegValue;
1489:.\Generated_Source\PSoC4/CapSense.c **** #endif /* (CapSense_CMOD_PREGARGE_OPTION == CapSense__CAPPRIOBUF) */
1490:.\Generated_Source\PSoC4/CapSense.c **** 
ARM GAS  C:\Users\Luci\AppData\Local\Temp\cc2LetiO.s 			page 41


1491:.\Generated_Source\PSoC4/CapSense.c ****     /* Disconnect Vref Buffer from AMUX */
1492:.\Generated_Source\PSoC4/CapSense.c **** 	newRegValue = CapSense_CSD_CFG_REG;
1493:.\Generated_Source\PSoC4/CapSense.c **** 	newRegValue &= ~(CapSense_PRECHARGE_CONFIG_MASK);
1494:.\Generated_Source\PSoC4/CapSense.c **** 	newRegValue |= CapSense_CTANK_PRECHARGE_CONFIG;
1495:.\Generated_Source\PSoC4/CapSense.c **** 	
1496:.\Generated_Source\PSoC4/CapSense.c **** 	CyIntEnable(CapSense_ISR_NUMBER);
1497:.\Generated_Source\PSoC4/CapSense.c **** 	
1498:.\Generated_Source\PSoC4/CapSense.c ****     /* Enable Sensor */
1499:.\Generated_Source\PSoC4/CapSense.c ****     CapSense_EnableScanSlot(sensor);
1500:.\Generated_Source\PSoC4/CapSense.c ****     
1501:.\Generated_Source\PSoC4/CapSense.c **** 	interruptState = CyEnterCriticalSection();
1502:.\Generated_Source\PSoC4/CapSense.c **** 	CapSense_CSD_CFG_REG = newRegValue;
1503:.\Generated_Source\PSoC4/CapSense.c **** 	
1504:.\Generated_Source\PSoC4/CapSense.c **** 	/* `#START CapSense_PreSettlingDelay_Debug` */
1505:.\Generated_Source\PSoC4/CapSense.c **** 
1506:.\Generated_Source\PSoC4/CapSense.c **** 	/* `#END` */
1507:.\Generated_Source\PSoC4/CapSense.c **** 	
1508:.\Generated_Source\PSoC4/CapSense.c **** 	CyDelayCycles(CapSense_GLITCH_ELIMINATION_CYCLES);
1509:.\Generated_Source\PSoC4/CapSense.c **** 	
1510:.\Generated_Source\PSoC4/CapSense.c **** 	/* `#START CapSense_PreScan_Debug` */
1511:.\Generated_Source\PSoC4/CapSense.c **** 
1512:.\Generated_Source\PSoC4/CapSense.c **** 	/* `#END` */
1513:.\Generated_Source\PSoC4/CapSense.c **** 	
1514:.\Generated_Source\PSoC4/CapSense.c ****     CapSense_CSD_CNT_REG = counterResolution;
1515:.\Generated_Source\PSoC4/CapSense.c ****     CyExitCriticalSection(interruptState);
1516:.\Generated_Source\PSoC4/CapSense.c **** }
1517:.\Generated_Source\PSoC4/CapSense.c **** 
1518:.\Generated_Source\PSoC4/CapSense.c **** 
1519:.\Generated_Source\PSoC4/CapSense.c **** /*******************************************************************************
1520:.\Generated_Source\PSoC4/CapSense.c **** * Function Name: CapSense_PostScan
1521:.\Generated_Source\PSoC4/CapSense.c **** ********************************************************************************
1522:.\Generated_Source\PSoC4/CapSense.c **** *
1523:.\Generated_Source\PSoC4/CapSense.c **** * Summary:
1524:.\Generated_Source\PSoC4/CapSense.c **** *  Stores the results of measurement in the CapSense_sensorRaw[] array,
1525:.\Generated_Source\PSoC4/CapSense.c **** *  sets the scanning sensor in the non-sampling state, turns off Idac(Current Source IDAC),
1526:.\Generated_Source\PSoC4/CapSense.c **** *  disconnects the IDAC(Sink mode), and applies Vref on AMUX.
1527:.\Generated_Source\PSoC4/CapSense.c **** *
1528:.\Generated_Source\PSoC4/CapSense.c **** * Parameters:
1529:.\Generated_Source\PSoC4/CapSense.c **** *  sensor:  Sensor number.
1530:.\Generated_Source\PSoC4/CapSense.c **** *
1531:.\Generated_Source\PSoC4/CapSense.c **** * Return:
1532:.\Generated_Source\PSoC4/CapSense.c **** *  None
1533:.\Generated_Source\PSoC4/CapSense.c **** *
1534:.\Generated_Source\PSoC4/CapSense.c **** * Global Variables:
1535:.\Generated_Source\PSoC4/CapSense.c **** *  CapSense_sensorRaw[] - used to store sensors raw data.
1536:.\Generated_Source\PSoC4/CapSense.c **** *
1537:.\Generated_Source\PSoC4/CapSense.c **** * Side Effects: 
1538:.\Generated_Source\PSoC4/CapSense.c **** *  None
1539:.\Generated_Source\PSoC4/CapSense.c **** *
1540:.\Generated_Source\PSoC4/CapSense.c **** *******************************************************************************/
1541:.\Generated_Source\PSoC4/CapSense.c **** void CapSense_PostScan(uint32 sensor)
1542:.\Generated_Source\PSoC4/CapSense.c **** {	
1543:.\Generated_Source\PSoC4/CapSense.c **** 	uint32 newRegValue;
1544:.\Generated_Source\PSoC4/CapSense.c **** #if ((CapSense_TUNING_METHOD == CapSense__TUNING_AUTO) &&\
1545:.\Generated_Source\PSoC4/CapSense.c **** 	 (0 != CapSense_IS_OVERSAMPLING_EN))
1546:.\Generated_Source\PSoC4/CapSense.c ****     uint32 oversamplingFactor;
1547:.\Generated_Source\PSoC4/CapSense.c ****     uint32 widget;
ARM GAS  C:\Users\Luci\AppData\Local\Temp\cc2LetiO.s 			page 42


1548:.\Generated_Source\PSoC4/CapSense.c **** #endif /* ((CapSense_TUNING_METHOD == CapSense__TUNING_AUTO) &&\
1549:.\Generated_Source\PSoC4/CapSense.c **** 		   (0 != CapSense_IS_OVERSAMPLING_EN)) */	
1550:.\Generated_Source\PSoC4/CapSense.c **** 
1551:.\Generated_Source\PSoC4/CapSense.c **** 	/* `#START CapSense_PostScan_Debug` */
1552:.\Generated_Source\PSoC4/CapSense.c **** 
1553:.\Generated_Source\PSoC4/CapSense.c **** 	/* `#END` */
1554:.\Generated_Source\PSoC4/CapSense.c **** 
1555:.\Generated_Source\PSoC4/CapSense.c **** 
1556:.\Generated_Source\PSoC4/CapSense.c ****     /* Read SlotResult from Raw Counter */
1557:.\Generated_Source\PSoC4/CapSense.c ****     CapSense_sensorRaw[sensor]  = (uint16)CapSense_CSD_CNT_REG;
1558:.\Generated_Source\PSoC4/CapSense.c **** 	
1559:.\Generated_Source\PSoC4/CapSense.c **** #if ((CapSense_TUNING_METHOD == CapSense__TUNING_AUTO) &&\
1560:.\Generated_Source\PSoC4/CapSense.c **** 	 (0 != CapSense_IS_OVERSAMPLING_EN))
1561:.\Generated_Source\PSoC4/CapSense.c **** 	widget = CapSense_widgetNumber[sensor];
1562:.\Generated_Source\PSoC4/CapSense.c **** 	if(CapSense_widgetResolution[widget] < CapSense_RESOLUTION_16_BITS)
1563:.\Generated_Source\PSoC4/CapSense.c **** 	{
1564:.\Generated_Source\PSoC4/CapSense.c **** 		oversamplingFactor = CapSense_GetBitValue(scanSpeedTbl, sensor);
1565:.\Generated_Source\PSoC4/CapSense.c **** 		CapSense_sensorRaw[sensor] >>= oversamplingFactor;
1566:.\Generated_Source\PSoC4/CapSense.c **** 	}
1567:.\Generated_Source\PSoC4/CapSense.c **** #endif /* ((CapSense_TUNING_METHOD == CapSense__TUNING_AUTO) &&\
1568:.\Generated_Source\PSoC4/CapSense.c **** 		   (0 != CapSense_IS_OVERSAMPLING_EN)) */
1569:.\Generated_Source\PSoC4/CapSense.c **** 
1570:.\Generated_Source\PSoC4/CapSense.c ****     /* Disable Sensor */
1571:.\Generated_Source\PSoC4/CapSense.c ****     CapSense_DisableScanSlot(sensor);
1572:.\Generated_Source\PSoC4/CapSense.c **** 
1573:.\Generated_Source\PSoC4/CapSense.c **** 	CyIntDisable(CapSense_ISR_NUMBER);
1574:.\Generated_Source\PSoC4/CapSense.c **** 	
1575:.\Generated_Source\PSoC4/CapSense.c **** #if(CapSense_CMOD_PREGARGE_OPTION == CapSense__CAPPRIOBUF)
1576:.\Generated_Source\PSoC4/CapSense.c **** 	newRegValue = CapSense_CMOD_CONNECTION_REG;
1577:.\Generated_Source\PSoC4/CapSense.c **** 	newRegValue &= ~(CapSense_CSD_CMOD_CONNECTION_MASK);
1578:.\Generated_Source\PSoC4/CapSense.c **** 	newRegValue |= CapSense_CSD_CMOD_TO_AMUXBUS_B;
1579:.\Generated_Source\PSoC4/CapSense.c **** 	CapSense_CMOD_CONNECTION_REG = newRegValue;
1580:.\Generated_Source\PSoC4/CapSense.c **** 	
1581:.\Generated_Source\PSoC4/CapSense.c **** 	newRegValue = CapSense_CMOD_PORT_PC_REG;
1582:.\Generated_Source\PSoC4/CapSense.c **** 	newRegValue &= ~(CapSense_CSD_CMOD_PC_MASK);
1583:.\Generated_Source\PSoC4/CapSense.c **** 	newRegValue |= CapSense_CMOD_PC_STRONG_MODE;
1584:.\Generated_Source\PSoC4/CapSense.c **** 	CapSense_CMOD_PORT_PC_REG = newRegValue;
1585:.\Generated_Source\PSoC4/CapSense.c **** 		
1586:.\Generated_Source\PSoC4/CapSense.c **** 	newRegValue = CapSense_CMOD_PORT_DR_REG;
1587:.\Generated_Source\PSoC4/CapSense.c ****     newRegValue &= ~(CapSense_CMOD_DR_MASK);
1588:.\Generated_Source\PSoC4/CapSense.c **** 	newRegValue |= CapSense_CMOD_DR_CONFIG;
1589:.\Generated_Source\PSoC4/CapSense.c ****     CapSense_CMOD_PORT_DR_REG = newRegValue;    
1590:.\Generated_Source\PSoC4/CapSense.c **** #endif /* (CapSense_CMOD_PREGARGE_OPTION == CapSense__CAPPRIOBUF) */
1591:.\Generated_Source\PSoC4/CapSense.c **** 	
1592:.\Generated_Source\PSoC4/CapSense.c **** 	/* Connect Vref Buffer to AMUX bus  */
1593:.\Generated_Source\PSoC4/CapSense.c **** 	newRegValue = CapSense_CSD_CFG_REG;
1594:.\Generated_Source\PSoC4/CapSense.c **** 	newRegValue &= ~(CapSense_PRECHARGE_CONFIG_MASK);
1595:.\Generated_Source\PSoC4/CapSense.c **** 	newRegValue |= CapSense_CMOD_PRECHARGE_CONFIG;
1596:.\Generated_Source\PSoC4/CapSense.c **** 	CapSense_CSD_CFG_REG = newRegValue;
1597:.\Generated_Source\PSoC4/CapSense.c **** 
1598:.\Generated_Source\PSoC4/CapSense.c **** 	/* Set Idac Value = 0 */
1599:.\Generated_Source\PSoC4/CapSense.c **** #if (CapSense_IDAC_CNT == 1u)   
1600:.\Generated_Source\PSoC4/CapSense.c **** 	CapSense_CSD_IDAC_REG &= ~(CapSense_CSD_IDAC1_DATA_MASK);
1601:.\Generated_Source\PSoC4/CapSense.c **** #else
1602:.\Generated_Source\PSoC4/CapSense.c **** 	CapSense_CSD_IDAC_REG &= ~(CapSense_CSD_IDAC1_DATA_MASK | CapSense_CSD_IDAC2_DATA_MASK);          
1603:.\Generated_Source\PSoC4/CapSense.c **** #endif /* (CapSense_IDAC_CNT == 1u) */
1604:.\Generated_Source\PSoC4/CapSense.c **** 
ARM GAS  C:\Users\Luci\AppData\Local\Temp\cc2LetiO.s 			page 43


1605:.\Generated_Source\PSoC4/CapSense.c **** 	CyIntEnable(CapSense_ISR_NUMBER);
1606:.\Generated_Source\PSoC4/CapSense.c **** }
1607:.\Generated_Source\PSoC4/CapSense.c **** 
1608:.\Generated_Source\PSoC4/CapSense.c **** 
1609:.\Generated_Source\PSoC4/CapSense.c **** /*******************************************************************************
1610:.\Generated_Source\PSoC4/CapSense.c **** * Function Name: CapSense_EnableShieldElectrode
1611:.\Generated_Source\PSoC4/CapSense.c **** ********************************************************************************
1612:.\Generated_Source\PSoC4/CapSense.c **** *
1613:.\Generated_Source\PSoC4/CapSense.c **** * Summary:
1614:.\Generated_Source\PSoC4/CapSense.c **** *  This API enables or disables the shield electrode on a specified port pin.
1615:.\Generated_Source\PSoC4/CapSense.c **** *
1616:.\Generated_Source\PSoC4/CapSense.c **** * Parameters:
1617:.\Generated_Source\PSoC4/CapSense.c **** *  portNumber: contains the shield electrode port number (0, 1, 2).
1618:.\Generated_Source\PSoC4/CapSense.c **** *  pinNumber: contains the shield electrode pin number (0, 1, 2, ... , 7).
1619:.\Generated_Source\PSoC4/CapSense.c **** *
1620:.\Generated_Source\PSoC4/CapSense.c **** * Return:
1621:.\Generated_Source\PSoC4/CapSense.c **** *  None
1622:.\Generated_Source\PSoC4/CapSense.c **** *
1623:.\Generated_Source\PSoC4/CapSense.c **** * Global Variables:
1624:.\Generated_Source\PSoC4/CapSense.c **** *  CapSense_prtCfgTbl[] - Contains pointers to the port config registers for each port.
1625:.\Generated_Source\PSoC4/CapSense.c **** *  CapSense_prtSelTbl[] - Contains pointers to the HSIOM registers for each port.
1626:.\Generated_Source\PSoC4/CapSense.c **** *
1627:.\Generated_Source\PSoC4/CapSense.c **** * Side Effects: 
1628:.\Generated_Source\PSoC4/CapSense.c **** *  None
1629:.\Generated_Source\PSoC4/CapSense.c **** *
1630:.\Generated_Source\PSoC4/CapSense.c **** *******************************************************************************/
1631:.\Generated_Source\PSoC4/CapSense.c **** void CapSense_EnableShieldElectrode(uint32 pinNumber, uint32 portNumber)
1632:.\Generated_Source\PSoC4/CapSense.c **** {
 766              		.loc 1 1632 0
 767              		.cfi_startproc
 768              	.LVL100:
 769 0000 30B5     		push	{r4, r5, lr}
 770              		.cfi_def_cfa_offset 12
 771              		.cfi_offset 4, -12
 772              		.cfi_offset 5, -8
 773              		.cfi_offset 14, -4
1633:.\Generated_Source\PSoC4/CapSense.c **** 	uint32 newRegValue;
1634:.\Generated_Source\PSoC4/CapSense.c **** 	
1635:.\Generated_Source\PSoC4/CapSense.c **** 	*CapSense_prtCfgTbl[portNumber] &= ~(CapSense_CSD_PIN_MODE_MASK << (pinNumber * CapSense_PC_PIN_CF
 774              		.loc 1 1635 0
 775 0002 8900     		lsl	r1, r1, #2
 776              	.LVL101:
 777 0004 0A4B     		ldr	r3, .L50
 778 0006 5918     		add	r1, r3, r1
 779 0008 0B6A     		ldr	r3, [r1, #32]
 780 000a 1A68     		ldr	r2, [r3]
 781 000c 4400     		lsl	r4, r0, #1
 782 000e 2418     		add	r4, r4, r0
 783 0010 0725     		mov	r5, #7
 784 0012 A540     		lsl	r5, r5, r4
 785 0014 AA43     		bic	r2, r5
 786 0016 1A60     		str	r2, [r3]
1636:.\Generated_Source\PSoC4/CapSense.c **** 	newRegValue = *CapSense_prtSelTbl[portNumber];
 787              		.loc 1 1636 0
 788 0018 8B68     		ldr	r3, [r1, #8]
 789 001a 1A68     		ldr	r2, [r3]
 790              	.LVL102:
ARM GAS  C:\Users\Luci\AppData\Local\Temp\cc2LetiO.s 			page 44


1637:.\Generated_Source\PSoC4/CapSense.c ****     newRegValue &= ~(CapSense_CSD_HSIOM_MASK << (pinNumber * CapSense_HSIOM_PIN_CFG_SIZE));
 791              		.loc 1 1637 0
 792 001c 8000     		lsl	r0, r0, #2
 793              	.LVL103:
 794 001e 0F21     		mov	r1, #15
 795 0020 8140     		lsl	r1, r1, r0
 796 0022 8A43     		bic	r2, r1
 797              	.LVL104:
1638:.\Generated_Source\PSoC4/CapSense.c ****     newRegValue |= (CapSense_CSD_SHIELD_PORT_MODE << (pinNumber * CapSense_HSIOM_PIN_CFG_SIZE));
 798              		.loc 1 1638 0
 799 0024 0521     		mov	r1, #5
 800 0026 8140     		lsl	r1, r1, r0
 801 0028 081C     		mov	r0, r1
 802 002a 1043     		orr	r0, r2
 803              	.LVL105:
1639:.\Generated_Source\PSoC4/CapSense.c ****     *CapSense_prtSelTbl[portNumber] = newRegValue;
 804              		.loc 1 1639 0
 805 002c 1860     		str	r0, [r3]
1640:.\Generated_Source\PSoC4/CapSense.c **** }
 806              		.loc 1 1640 0
 807              		@ sp needed
 808 002e 30BD     		pop	{r4, r5, pc}
 809              	.L51:
 810              		.align	2
 811              	.L50:
 812 0030 00000000 		.word	.LANCHOR2
 813              		.cfi_endproc
 814              	.LFE57:
 815              		.size	CapSense_EnableShieldElectrode, .-CapSense_EnableShieldElectrode
 816              		.section	.text.CapSense_SetShieldDelay,"ax",%progbits
 817              		.align	2
 818              		.global	CapSense_SetShieldDelay
 819              		.code	16
 820              		.thumb_func
 821              		.type	CapSense_SetShieldDelay, %function
 822              	CapSense_SetShieldDelay:
 823              	.LFB58:
1641:.\Generated_Source\PSoC4/CapSense.c **** 
1642:.\Generated_Source\PSoC4/CapSense.c **** 
1643:.\Generated_Source\PSoC4/CapSense.c **** /*******************************************************************************
1644:.\Generated_Source\PSoC4/CapSense.c **** * Function Name: CapSense_SetShieldDelay
1645:.\Generated_Source\PSoC4/CapSense.c **** ********************************************************************************
1646:.\Generated_Source\PSoC4/CapSense.c **** *
1647:.\Generated_Source\PSoC4/CapSense.c **** * Summary:
1648:.\Generated_Source\PSoC4/CapSense.c **** *  This API sets a shield delay.
1649:.\Generated_Source\PSoC4/CapSense.c **** *
1650:.\Generated_Source\PSoC4/CapSense.c **** * Parameters:
1651:.\Generated_Source\PSoC4/CapSense.c **** *  delay:  shield delay value:
1652:.\Generated_Source\PSoC4/CapSense.c **** *                               0 - no delay
1653:.\Generated_Source\PSoC4/CapSense.c **** *                               1 - 1 cycle delay
1654:.\Generated_Source\PSoC4/CapSense.c **** *                               2 - 2 cycles delay
1655:.\Generated_Source\PSoC4/CapSense.c **** *
1656:.\Generated_Source\PSoC4/CapSense.c **** * Return:
1657:.\Generated_Source\PSoC4/CapSense.c **** *  None
1658:.\Generated_Source\PSoC4/CapSense.c **** *
1659:.\Generated_Source\PSoC4/CapSense.c **** * Global Variables:
1660:.\Generated_Source\PSoC4/CapSense.c **** *  None
ARM GAS  C:\Users\Luci\AppData\Local\Temp\cc2LetiO.s 			page 45


1661:.\Generated_Source\PSoC4/CapSense.c **** *
1662:.\Generated_Source\PSoC4/CapSense.c **** * Side Effects: 
1663:.\Generated_Source\PSoC4/CapSense.c **** *  None
1664:.\Generated_Source\PSoC4/CapSense.c **** *
1665:.\Generated_Source\PSoC4/CapSense.c **** *******************************************************************************/
1666:.\Generated_Source\PSoC4/CapSense.c **** void CapSense_SetShieldDelay(uint32 delay)
1667:.\Generated_Source\PSoC4/CapSense.c **** {
 824              		.loc 1 1667 0
 825              		.cfi_startproc
 826              	.LVL106:
1668:.\Generated_Source\PSoC4/CapSense.c ****     uint32 newRegValue;
1669:.\Generated_Source\PSoC4/CapSense.c ****     
1670:.\Generated_Source\PSoC4/CapSense.c ****     delay &= 0x03u;
 827              		.loc 1 1670 0
 828 0000 0323     		mov	r3, #3
 829 0002 1840     		and	r0, r3
 830              	.LVL107:
1671:.\Generated_Source\PSoC4/CapSense.c ****     
1672:.\Generated_Source\PSoC4/CapSense.c ****     newRegValue = CapSense_CSD_CFG_REG;
 831              		.loc 1 1672 0
 832 0004 024B     		ldr	r3, .L53
 833 0006 1A68     		ldr	r2, [r3]
 834              	.LVL108:
1673:.\Generated_Source\PSoC4/CapSense.c ****     newRegValue &= (uint32)(~(uint32)CapSense_SHIELD_DELAY);    
1674:.\Generated_Source\PSoC4/CapSense.c ****     newRegValue |= (delay << CapSense_CSD_CFG_SHIELD_DELAY_POS);    
 835              		.loc 1 1674 0
 836 0008 4002     		lsl	r0, r0, #9
 837              	.LVL109:
 838 000a 1043     		orr	r0, r2
 839              	.LVL110:
1675:.\Generated_Source\PSoC4/CapSense.c ****     CapSense_CSD_CFG_REG = newRegValue;
 840              		.loc 1 1675 0
 841 000c 1860     		str	r0, [r3]
1676:.\Generated_Source\PSoC4/CapSense.c **** }
 842              		.loc 1 1676 0
 843              		@ sp needed
 844 000e 7047     		bx	lr
 845              	.L54:
 846              		.align	2
 847              	.L53:
 848 0010 04002840 		.word	1076363268
 849              		.cfi_endproc
 850              	.LFE58:
 851              		.size	CapSense_SetShieldDelay, .-CapSense_SetShieldDelay
 852              		.section	.text.CapSense_Init,"ax",%progbits
 853              		.align	2
 854              		.global	CapSense_Init
 855              		.code	16
 856              		.thumb_func
 857              		.type	CapSense_Init, %function
 858              	CapSense_Init:
 859              	.LFB35:
 185:.\Generated_Source\PSoC4/CapSense.c **** {   
 860              		.loc 1 185 0
 861              		.cfi_startproc
 862 0000 08B5     		push	{r3, lr}
 863              		.cfi_def_cfa_offset 8
ARM GAS  C:\Users\Luci\AppData\Local\Temp\cc2LetiO.s 			page 46


 864              		.cfi_offset 3, -8
 865              		.cfi_offset 14, -4
 866              	.LVL111:
 216:.\Generated_Source\PSoC4/CapSense.c **** 	for(curSensor = 0u; curSensor < CapSense_TOTAL_SENSOR_COUNT; curSensor++)
 867              		.loc 1 216 0
 868 0002 0023     		mov	r3, #0
 218:.\Generated_Source\PSoC4/CapSense.c **** 		CapSense_unscannedSnsDriveMode[curSensor] = CapSense_CONNECT_INACTIVE_SNS;
 869              		.loc 1 218 0
 870 0004 074A     		ldr	r2, .L58
 871 0006 0021     		mov	r1, #0
 216:.\Generated_Source\PSoC4/CapSense.c **** 	for(curSensor = 0u; curSensor < CapSense_TOTAL_SENSOR_COUNT; curSensor++)
 872              		.loc 1 216 0
 873 0008 01E0     		b	.L56
 874              	.LVL112:
 875              	.L57:
 218:.\Generated_Source\PSoC4/CapSense.c **** 		CapSense_unscannedSnsDriveMode[curSensor] = CapSense_CONNECT_INACTIVE_SNS;
 876              		.loc 1 218 0 discriminator 2
 877 000a D154     		strb	r1, [r2, r3]
 216:.\Generated_Source\PSoC4/CapSense.c **** 	for(curSensor = 0u; curSensor < CapSense_TOTAL_SENSOR_COUNT; curSensor++)
 878              		.loc 1 216 0 discriminator 2
 879 000c 0133     		add	r3, r3, #1
 880              	.LVL113:
 881              	.L56:
 216:.\Generated_Source\PSoC4/CapSense.c **** 	for(curSensor = 0u; curSensor < CapSense_TOTAL_SENSOR_COUNT; curSensor++)
 882              		.loc 1 216 0 is_stmt 0 discriminator 1
 883 000e 012B     		cmp	r3, #1
 884 0010 FBD9     		bls	.L57
 221:.\Generated_Source\PSoC4/CapSense.c **** 	CapSense_CsdHwBlockInit();
 885              		.loc 1 221 0 is_stmt 1
 886 0012 FFF7FEFF 		bl	CapSense_CsdHwBlockInit
 887              	.LVL114:
 222:.\Generated_Source\PSoC4/CapSense.c ****     CapSense_SetShieldDelay(CapSense_SHIELD_DELAY );
 888              		.loc 1 222 0
 889 0016 0020     		mov	r0, #0
 890 0018 FFF7FEFF 		bl	CapSense_SetShieldDelay
 891              	.LVL115:
 225:.\Generated_Source\PSoC4/CapSense.c ****     CapSense_ClearSensors();
 892              		.loc 1 225 0
 893 001c FFF7FEFF 		bl	CapSense_ClearSensors
 894              	.LVL116:
 226:.\Generated_Source\PSoC4/CapSense.c **** }
 895              		.loc 1 226 0
 896              		@ sp needed
 897 0020 08BD     		pop	{r3, pc}
 898              	.L59:
 899 0022 C046     		.align	2
 900              	.L58:
 901 0024 00000000 		.word	CapSense_unscannedSnsDriveMode
 902              		.cfi_endproc
 903              	.LFE35:
 904              		.size	CapSense_Init, .-CapSense_Init
 905              		.section	.text.CapSense_Start,"ax",%progbits
 906              		.align	2
 907              		.global	CapSense_Start
 908              		.code	16
 909              		.thumb_func
 910              		.type	CapSense_Start, %function
ARM GAS  C:\Users\Luci\AppData\Local\Temp\cc2LetiO.s 			page 47


 911              	CapSense_Start:
 912              	.LFB38:
 394:.\Generated_Source\PSoC4/CapSense.c **** {
 913              		.loc 1 394 0
 914              		.cfi_startproc
 915 0000 08B5     		push	{r3, lr}
 916              		.cfi_def_cfa_offset 8
 917              		.cfi_offset 3, -8
 918              		.cfi_offset 14, -4
 404:.\Generated_Source\PSoC4/CapSense.c ****     if (CapSense_initVar == 0u)
 919              		.loc 1 404 0
 920 0002 0B4B     		ldr	r3, .L62
 921 0004 1B7A     		ldrb	r3, [r3, #8]
 922 0006 002B     		cmp	r3, #0
 923 0008 04D1     		bne	.L61
 406:.\Generated_Source\PSoC4/CapSense.c ****         CapSense_Init();
 924              		.loc 1 406 0
 925 000a FFF7FEFF 		bl	CapSense_Init
 926              	.LVL117:
 407:.\Generated_Source\PSoC4/CapSense.c ****         CapSense_initVar = 1u;
 927              		.loc 1 407 0
 928 000e 0122     		mov	r2, #1
 929 0010 074B     		ldr	r3, .L62
 930 0012 1A72     		strb	r2, [r3, #8]
 931              	.L61:
 409:.\Generated_Source\PSoC4/CapSense.c ****     CapSense_Enable();
 932              		.loc 1 409 0
 933 0014 FFF7FEFF 		bl	CapSense_Enable
 934              	.LVL118:
 414:.\Generated_Source\PSoC4/CapSense.c **** 	        CapSense_AutoTune();
 935              		.loc 1 414 0
 936 0018 FFF7FEFF 		bl	CapSense_AutoTune
 937              	.LVL119:
 415:.\Generated_Source\PSoC4/CapSense.c **** 	        CapSense_lowLevelTuningDone = 1u;
 938              		.loc 1 415 0
 939 001c 0122     		mov	r2, #1
 940 001e 044B     		ldr	r3, .L62
 941 0020 5A72     		strb	r2, [r3, #9]
 458:.\Generated_Source\PSoC4/CapSense.c **** 	CapSense_CSD_CFG_REG |= CapSense_CSD_CFG_SENSE_INSEL;
 942              		.loc 1 458 0
 943 0022 044B     		ldr	r3, .L62+4
 944 0024 1968     		ldr	r1, [r3]
 945 0026 8022     		mov	r2, #128
 946 0028 D203     		lsl	r2, r2, #15
 947 002a 0A43     		orr	r2, r1
 948 002c 1A60     		str	r2, [r3]
 459:.\Generated_Source\PSoC4/CapSense.c **** }
 949              		.loc 1 459 0
 950              		@ sp needed
 951 002e 08BD     		pop	{r3, pc}
 952              	.L63:
 953              		.align	2
 954              	.L62:
 955 0030 00000000 		.word	.LANCHOR0
 956 0034 04002840 		.word	1076363268
 957              		.cfi_endproc
 958              	.LFE38:
ARM GAS  C:\Users\Luci\AppData\Local\Temp\cc2LetiO.s 			page 48


 959              		.size	CapSense_Start, .-CapSense_Start
 960              		.section	.text.CapSense_ReadCurrentScanningSensor,"ax",%progbits
 961              		.align	2
 962              		.global	CapSense_ReadCurrentScanningSensor
 963              		.code	16
 964              		.thumb_func
 965              		.type	CapSense_ReadCurrentScanningSensor, %function
 966              	CapSense_ReadCurrentScanningSensor:
 967              	.LFB59:
1677:.\Generated_Source\PSoC4/CapSense.c **** 
1678:.\Generated_Source\PSoC4/CapSense.c **** 
1679:.\Generated_Source\PSoC4/CapSense.c **** /*******************************************************************************
1680:.\Generated_Source\PSoC4/CapSense.c **** * Function Name: CapSense_ReadCurrentScanningSensor
1681:.\Generated_Source\PSoC4/CapSense.c **** ********************************************************************************
1682:.\Generated_Source\PSoC4/CapSense.c **** *
1683:.\Generated_Source\PSoC4/CapSense.c **** * Summary:
1684:.\Generated_Source\PSoC4/CapSense.c **** *  This API returns scanning sensor number when sensor scan is in progress. 
1685:.\Generated_Source\PSoC4/CapSense.c **** *  When sensor scan is completed the API returns 
1686:.\Generated_Source\PSoC4/CapSense.c **** *  $INSTANCE_NAME`_NOT_SENSOR (0xFFFFFFFF) (when no sensor is scanned).
1687:.\Generated_Source\PSoC4/CapSense.c **** *
1688:.\Generated_Source\PSoC4/CapSense.c **** * Parameters:
1689:.\Generated_Source\PSoC4/CapSense.c **** *	None.
1690:.\Generated_Source\PSoC4/CapSense.c **** *
1691:.\Generated_Source\PSoC4/CapSense.c **** * Return:
1692:.\Generated_Source\PSoC4/CapSense.c **** *  Returns Sensor number if sensor is being scanned and 
1693:.\Generated_Source\PSoC4/CapSense.c **** *  $INSTANCE_NAME`_NOT_SENSOR (0xFFFFFFFF) if scanning is complete.
1694:.\Generated_Source\PSoC4/CapSense.c **** *
1695:.\Generated_Source\PSoC4/CapSense.c **** * Global Variables:
1696:.\Generated_Source\PSoC4/CapSense.c **** *  CapSense_sensorIndex - the sensor number is being scanned.
1697:.\Generated_Source\PSoC4/CapSense.c **** *
1698:.\Generated_Source\PSoC4/CapSense.c **** * Side Effects: 
1699:.\Generated_Source\PSoC4/CapSense.c **** *  None
1700:.\Generated_Source\PSoC4/CapSense.c **** *
1701:.\Generated_Source\PSoC4/CapSense.c **** *******************************************************************************/
1702:.\Generated_Source\PSoC4/CapSense.c **** uint32 CapSense_ReadCurrentScanningSensor(void)
1703:.\Generated_Source\PSoC4/CapSense.c **** {
 968              		.loc 1 1703 0
 969              		.cfi_startproc
1704:.\Generated_Source\PSoC4/CapSense.c ****     return ((uint32)(( 0u != (CapSense_csdStatusVar & CapSense_SW_STS_BUSY)) ? 
 970              		.loc 1 1704 0
 971 0000 054B     		ldr	r3, .L67
 972 0002 1B78     		ldrb	r3, [r3]
 973 0004 DA07     		lsl	r2, r3, #31
 974 0006 03D5     		bpl	.L66
 975              		.loc 1 1704 0 is_stmt 0 discriminator 1
 976 0008 034B     		ldr	r3, .L67
 977 000a 987A     		ldrb	r0, [r3, #10]
 978 000c C0B2     		uxtb	r0, r0
 979 000e 01E0     		b	.L65
 980              	.L66:
 981              		.loc 1 1704 0
 982 0010 0120     		mov	r0, #1
 983 0012 4042     		neg	r0, r0
 984              	.L65:
1705:.\Generated_Source\PSoC4/CapSense.c ****                      CapSense_sensorIndex : CapSense_NOT_SENSOR));
1706:.\Generated_Source\PSoC4/CapSense.c **** }
 985              		.loc 1 1706 0 is_stmt 1 discriminator 3
ARM GAS  C:\Users\Luci\AppData\Local\Temp\cc2LetiO.s 			page 49


 986              		@ sp needed
 987 0014 7047     		bx	lr
 988              	.L68:
 989 0016 C046     		.align	2
 990              	.L67:
 991 0018 00000000 		.word	.LANCHOR0
 992              		.cfi_endproc
 993              	.LFE59:
 994              		.size	CapSense_ReadCurrentScanningSensor, .-CapSense_ReadCurrentScanningSensor
 995              		.section	.text.CapSense_GetBitValue,"ax",%progbits
 996              		.align	2
 997              		.global	CapSense_GetBitValue
 998              		.code	16
 999              		.thumb_func
 1000              		.type	CapSense_GetBitValue, %function
 1001              	CapSense_GetBitValue:
 1002              	.LFB60:
1707:.\Generated_Source\PSoC4/CapSense.c **** 
1708:.\Generated_Source\PSoC4/CapSense.c **** 
1709:.\Generated_Source\PSoC4/CapSense.c **** /*******************************************************************************
1710:.\Generated_Source\PSoC4/CapSense.c **** * Function Name: CapSense_GetBitValue
1711:.\Generated_Source\PSoC4/CapSense.c **** ********************************************************************************
1712:.\Generated_Source\PSoC4/CapSense.c **** *
1713:.\Generated_Source\PSoC4/CapSense.c **** * Summary:
1714:.\Generated_Source\PSoC4/CapSense.c **** *  The API returns a bit status of the bit in the table array which contains the masks.
1715:.\Generated_Source\PSoC4/CapSense.c **** * 
1716:.\Generated_Source\PSoC4/CapSense.c **** * Parameters:
1717:.\Generated_Source\PSoC4/CapSense.c **** *  table[] - array with bit masks.
1718:.\Generated_Source\PSoC4/CapSense.c **** *  position - position of bit in the table[] array.
1719:.\Generated_Source\PSoC4/CapSense.c **** *
1720:.\Generated_Source\PSoC4/CapSense.c **** * Return:
1721:.\Generated_Source\PSoC4/CapSense.c **** *  0 - bit is not set; 1 - bit is set.
1722:.\Generated_Source\PSoC4/CapSense.c **** *
1723:.\Generated_Source\PSoC4/CapSense.c **** * Global Variables:
1724:.\Generated_Source\PSoC4/CapSense.c **** *  None
1725:.\Generated_Source\PSoC4/CapSense.c **** *
1726:.\Generated_Source\PSoC4/CapSense.c **** * Side Effects:
1727:.\Generated_Source\PSoC4/CapSense.c **** *  None
1728:.\Generated_Source\PSoC4/CapSense.c **** *
1729:.\Generated_Source\PSoC4/CapSense.c **** *******************************************************************************/
1730:.\Generated_Source\PSoC4/CapSense.c **** uint32 CapSense_GetBitValue(const uint8 table[], uint32 position)
1731:.\Generated_Source\PSoC4/CapSense.c **** {
 1003              		.loc 1 1731 0
 1004              		.cfi_startproc
 1005              	.LVL120:
1732:.\Generated_Source\PSoC4/CapSense.c ****     uint32 offset;
1733:.\Generated_Source\PSoC4/CapSense.c **** 	uint8 enMask;
1734:.\Generated_Source\PSoC4/CapSense.c **** 	
1735:.\Generated_Source\PSoC4/CapSense.c **** 	/* position is divided by 8 to calculate the element of the 
1736:.\Generated_Source\PSoC4/CapSense.c **** 	   table[] array that contains the enable bit 
1737:.\Generated_Source\PSoC4/CapSense.c **** 	   for an appropriate sensor.
1738:.\Generated_Source\PSoC4/CapSense.c **** 	*/
1739:.\Generated_Source\PSoC4/CapSense.c **** 	offset = (position >> 3u);
 1006              		.loc 1 1739 0
 1007 0000 CB08     		lsr	r3, r1, #3
 1008              	.LVL121:
1740:.\Generated_Source\PSoC4/CapSense.c **** 	
ARM GAS  C:\Users\Luci\AppData\Local\Temp\cc2LetiO.s 			page 50


1741:.\Generated_Source\PSoC4/CapSense.c **** 	/* The enMask calculation for the appropriate sensor. Operation (position & 0x07u) 
1742:.\Generated_Source\PSoC4/CapSense.c **** 	   intends to calculate the enable bit offset for the 8-bit element of the 
1743:.\Generated_Source\PSoC4/CapSense.c **** 	   table[] array.
1744:.\Generated_Source\PSoC4/CapSense.c **** 	*/
1745:.\Generated_Source\PSoC4/CapSense.c **** 	enMask = 0x01u << (position & 0x07u);
 1009              		.loc 1 1745 0
 1010 0002 0722     		mov	r2, #7
 1011 0004 1140     		and	r1, r2
 1012              	.LVL122:
 1013 0006 0122     		mov	r2, #1
 1014 0008 8A40     		lsl	r2, r2, r1
 1015              	.LVL123:
1746:.\Generated_Source\PSoC4/CapSense.c ****     
1747:.\Generated_Source\PSoC4/CapSense.c ****     return ((0u !=(table[offset] & enMask)) ? 1Lu : 0Lu);
 1016              		.loc 1 1747 0
 1017 000a C35C     		ldrb	r3, [r0, r3]
 1018              	.LVL124:
 1019 000c 1A42     		tst	r2, r3
 1020 000e 01D0     		beq	.L71
 1021 0010 0120     		mov	r0, #1
 1022              	.LVL125:
 1023 0012 00E0     		b	.L70
 1024              	.LVL126:
 1025              	.L71:
 1026 0014 0020     		mov	r0, #0
 1027              	.LVL127:
 1028              	.L70:
1748:.\Generated_Source\PSoC4/CapSense.c **** }
 1029              		.loc 1 1748 0 discriminator 3
 1030              		@ sp needed
 1031 0016 7047     		bx	lr
 1032              		.cfi_endproc
 1033              	.LFE60:
 1034              		.size	CapSense_GetBitValue, .-CapSense_GetBitValue
 1035              		.section	.text.CapSense_FindNextSensor,"ax",%progbits
 1036              		.align	2
 1037              		.global	CapSense_FindNextSensor
 1038              		.code	16
 1039              		.thumb_func
 1040              		.type	CapSense_FindNextSensor, %function
 1041              	CapSense_FindNextSensor:
 1042              	.LFB40:
 524:.\Generated_Source\PSoC4/CapSense.c **** {
 1043              		.loc 1 524 0
 1044              		.cfi_startproc
 1045              	.LVL128:
 1046 0000 38B5     		push	{r3, r4, r5, lr}
 1047              		.cfi_def_cfa_offset 16
 1048              		.cfi_offset 3, -16
 1049              		.cfi_offset 4, -12
 1050              		.cfi_offset 5, -8
 1051              		.cfi_offset 14, -4
 1052 0002 041C     		mov	r4, r0
 536:.\Generated_Source\PSoC4/CapSense.c ****         enableFlag = CapSense_GetBitValue(CapSense_sensorEnableMask, (uint32)snsIndex);
 1053              		.loc 1 536 0
 1054 0004 064D     		ldr	r5, .L76
 1055 0006 0835     		add	r5, r5, #8
ARM GAS  C:\Users\Luci\AppData\Local\Temp\cc2LetiO.s 			page 51


 1056              	.LVL129:
 1057              	.L74:
 531:.\Generated_Source\PSoC4/CapSense.c ****         snsIndex++;
 1058              		.loc 1 531 0
 1059 0008 0134     		add	r4, r4, #1
 1060              	.LVL130:
 1061 000a E4B2     		uxtb	r4, r4
 1062              	.LVL131:
 532:.\Generated_Source\PSoC4/CapSense.c ****         if(snsIndex == CapSense_TOTAL_SENSOR_COUNT)
 1063              		.loc 1 532 0
 1064 000c 022C     		cmp	r4, #2
 1065 000e 05D0     		beq	.L73
 536:.\Generated_Source\PSoC4/CapSense.c ****         enableFlag = CapSense_GetBitValue(CapSense_sensorEnableMask, (uint32)snsIndex);
 1066              		.loc 1 536 0
 1067 0010 281C     		mov	r0, r5
 1068 0012 211C     		mov	r1, r4
 1069 0014 FFF7FEFF 		bl	CapSense_GetBitValue
 1070              	.LVL132:
 538:.\Generated_Source\PSoC4/CapSense.c ****     while(enableFlag == 0u);
 1071              		.loc 1 538 0
 1072 0018 0028     		cmp	r0, #0
 1073 001a F5D0     		beq	.L74
 1074              	.LVL133:
 1075              	.L73:
 541:.\Generated_Source\PSoC4/CapSense.c **** }
 1076              		.loc 1 541 0
 1077 001c 201C     		mov	r0, r4
 1078              		@ sp needed
 1079              	.LVL134:
 1080 001e 38BD     		pop	{r3, r4, r5, pc}
 1081              	.L77:
 1082              		.align	2
 1083              	.L76:
 1084 0020 00000000 		.word	.LANCHOR1
 1085              		.cfi_endproc
 1086              	.LFE40:
 1087              		.size	CapSense_FindNextSensor, .-CapSense_FindNextSensor
 1088              		.section	.text.CapSense_PreScan,"ax",%progbits
 1089              		.align	2
 1090              		.global	CapSense_PreScan
 1091              		.code	16
 1092              		.thumb_func
 1093              		.type	CapSense_PreScan, %function
 1094              	CapSense_PreScan:
 1095              	.LFB55:
1353:.\Generated_Source\PSoC4/CapSense.c **** {
 1096              		.loc 1 1353 0
 1097              		.cfi_startproc
 1098              	.LVL135:
 1099 0000 F8B5     		push	{r3, r4, r5, r6, r7, lr}
 1100              		.cfi_def_cfa_offset 24
 1101              		.cfi_offset 3, -24
 1102              		.cfi_offset 4, -20
 1103              		.cfi_offset 5, -16
 1104              		.cfi_offset 6, -12
 1105              		.cfi_offset 7, -8
 1106              		.cfi_offset 14, -4
ARM GAS  C:\Users\Luci\AppData\Local\Temp\cc2LetiO.s 			page 52


 1107 0002 041C     		mov	r4, r0
1371:.\Generated_Source\PSoC4/CapSense.c ****     widget = CapSense_widgetNumber[sensor];
 1108              		.loc 1 1371 0
 1109 0004 324B     		ldr	r3, .L82
 1110 0006 5033     		add	r3, r3, #80
 1111 0008 1A5C     		ldrb	r2, [r3, r0]
 1112              	.LVL136:
1374:.\Generated_Source\PSoC4/CapSense.c **** 	counterResolution = CapSense_widgetResolution[widget];
 1113              		.loc 1 1374 0
 1114 000a 9200     		lsl	r2, r2, #2
 1115 000c 314B     		ldr	r3, .L82+4
 1116              	.LVL137:
 1117 000e D558     		ldr	r5, [r2, r3]
 1118              	.LVL138:
1378:.\Generated_Source\PSoC4/CapSense.c **** 	    oversamplingFactor = CapSense_GetBitValue(scanSpeedTbl, sensor);
 1119              		.loc 1 1378 0
 1120 0010 3148     		ldr	r0, .L82+8
 1121              	.LVL139:
 1122 0012 211C     		mov	r1, r4
 1123 0014 FFF7FEFF 		bl	CapSense_GetBitValue
 1124              	.LVL140:
1380:.\Generated_Source\PSoC4/CapSense.c **** 		if(counterResolution < CapSense_RESOLUTION_16_BITS)
 1125              		.loc 1 1380 0
 1126 0018 304B     		ldr	r3, .L82+12
 1127 001a 9D42     		cmp	r5, r3
 1128 001c 04D8     		bhi	.L79
1382:.\Generated_Source\PSoC4/CapSense.c **** 			counterResolution <<= oversamplingFactor;
 1129              		.loc 1 1382 0
 1130 001e 8540     		lsl	r5, r5, r0
 1131              	.LVL141:
 1132 0020 281C     		mov	r0, r5
 1133              	.LVL142:
1383:.\Generated_Source\PSoC4/CapSense.c **** 			counterResolution |= (uint32)(CapSense_RESOLUTION_8_BITS);
 1134              		.loc 1 1383 0
 1135 0022 FF25     		mov	r5, #255
 1136 0024 2D04     		lsl	r5, r5, #16
 1137 0026 0543     		orr	r5, r0
 1138              	.LVL143:
 1139              	.L79:
1389:.\Generated_Source\PSoC4/CapSense.c **** 		CapSense_SenseClk_Stop();
 1140              		.loc 1 1389 0
 1141 0028 FFF7FEFF 		bl	CapSense_SenseClk_Stop
 1142              	.LVL144:
1390:.\Generated_Source\PSoC4/CapSense.c **** 		CapSense_SampleClk_Stop();
 1143              		.loc 1 1390 0
 1144 002c FFF7FEFF 		bl	CapSense_SampleClk_Stop
 1145              	.LVL145:
1394:.\Generated_Source\PSoC4/CapSense.c **** 		CapSense_SampleClk_SetDividerValue((uint16)CapSense_sampleClkDividerVal[sensor]);
 1146              		.loc 1 1394 0
 1147 0030 2B4B     		ldr	r3, .L82+16
 1148 0032 185D     		ldrb	r0, [r3, r4]
 1149 0034 0138     		sub	r0, r0, #1
 1150 0036 80B2     		uxth	r0, r0
 1151 0038 0021     		mov	r1, #0
 1152 003a FFF7FEFF 		bl	CapSense_SampleClk_SetFractionalDividerRegister
 1153              	.LVL146:
1395:.\Generated_Source\PSoC4/CapSense.c **** 		CapSense_SenseClk_SetDividerValue((uint16)CapSense_senseClkDividerVal[sensor]);
ARM GAS  C:\Users\Luci\AppData\Local\Temp\cc2LetiO.s 			page 53


 1154              		.loc 1 1395 0
 1155 003e 294B     		ldr	r3, .L82+20
 1156 0040 185D     		ldrb	r0, [r3, r4]
 1157 0042 0138     		sub	r0, r0, #1
 1158 0044 80B2     		uxth	r0, r0
 1159 0046 0021     		mov	r1, #0
 1160 0048 FFF7FEFF 		bl	CapSense_SenseClk_SetFractionalDividerRegister
 1161              	.LVL147:
1402:.\Generated_Source\PSoC4/CapSense.c **** 		CapSense_SampleClk_Start();
 1162              		.loc 1 1402 0
 1163 004c FF20     		mov	r0, #255
 1164 004e FFF7FEFF 		bl	CapSense_SampleClk_StartEx
 1165              	.LVL148:
1403:.\Generated_Source\PSoC4/CapSense.c **** 		CapSense_SenseClk_StartEx(CapSense_SampleClk__DIV_ID);
 1166              		.loc 1 1403 0
 1167 0052 4020     		mov	r0, #64
 1168 0054 FFF7FEFF 		bl	CapSense_SenseClk_StartEx
 1169              	.LVL149:
1406:.\Generated_Source\PSoC4/CapSense.c **** 			CyIntDisable(CapSense_ISR_NUMBER);
 1170              		.loc 1 1406 0
 1171 0058 1020     		mov	r0, #16
 1172 005a FFF7FEFF 		bl	CyIntDisable
 1173              	.LVL150:
1407:.\Generated_Source\PSoC4/CapSense.c **** 			CapSense_CSD_CNT_REG = CapSense_ONE_CYCLE;
 1174              		.loc 1 1407 0
 1175 005e 8022     		mov	r2, #128
 1176 0060 5202     		lsl	r2, r2, #9
 1177 0062 214B     		ldr	r3, .L82+24
 1178 0064 1A60     		str	r2, [r3]
1408:.\Generated_Source\PSoC4/CapSense.c **** 			while(0u != (CapSense_CSD_CNT_REG & CapSense_RESOLUTION_16_BITS))
 1179              		.loc 1 1408 0
 1180 0066 1A1C     		mov	r2, r3
 1181              	.L80:
1408:.\Generated_Source\PSoC4/CapSense.c **** 			while(0u != (CapSense_CSD_CNT_REG & CapSense_RESOLUTION_16_BITS))
 1182              		.loc 1 1408 0 is_stmt 0 discriminator 1
 1183 0068 1368     		ldr	r3, [r2]
 1184 006a 1B0C     		lsr	r3, r3, #16
 1185 006c FCD1     		bne	.L80
1412:.\Generated_Source\PSoC4/CapSense.c **** 			CapSense_CSD_INTR_REG = 1u;
 1186              		.loc 1 1412 0 is_stmt 1
 1187 006e 0122     		mov	r2, #1
 1188 0070 1E4B     		ldr	r3, .L82+28
 1189 0072 1A60     		str	r2, [r3]
1413:.\Generated_Source\PSoC4/CapSense.c **** 			CyIntClearPending(CapSense_ISR_NUMBER);
 1190              		.loc 1 1413 0
 1191 0074 1020     		mov	r0, #16
 1192 0076 FFF7FEFF 		bl	CyIntClearPending
 1193              	.LVL151:
1414:.\Generated_Source\PSoC4/CapSense.c **** 			CyIntEnable(CapSense_ISR_NUMBER); 
 1194              		.loc 1 1414 0
 1195 007a 1020     		mov	r0, #16
 1196 007c FFF7FEFF 		bl	CyIntEnable
 1197              	.LVL152:
1464:.\Generated_Source\PSoC4/CapSense.c **** 	CyIntDisable(CapSense_ISR_NUMBER);
 1198              		.loc 1 1464 0
 1199 0080 1020     		mov	r0, #16
 1200 0082 FFF7FEFF 		bl	CyIntDisable
ARM GAS  C:\Users\Luci\AppData\Local\Temp\cc2LetiO.s 			page 54


 1201              	.LVL153:
1465:.\Generated_Source\PSoC4/CapSense.c ****     newRegValue = CapSense_CSD_IDAC_REG;
 1202              		.loc 1 1465 0
 1203 0086 1A4B     		ldr	r3, .L82+32
 1204 0088 1968     		ldr	r1, [r3]
 1205              	.LVL154:
1471:.\Generated_Source\PSoC4/CapSense.c **** 	newRegValue &= ~(CapSense_CSD_IDAC1_DATA_MASK | CapSense_CSD_IDAC2_DATA_MASK);
 1206              		.loc 1 1471 0
 1207 008a 1A4A     		ldr	r2, .L82+36
 1208 008c 1140     		and	r1, r2
 1209              	.LVL155:
1472:.\Generated_Source\PSoC4/CapSense.c **** 	newRegValue |= (CapSense_modulationIDAC[sensor] | 
 1210              		.loc 1 1472 0
 1211 008e 1A4A     		ldr	r2, .L82+40
 1212 0090 105D     		ldrb	r0, [r2, r4]
1473:.\Generated_Source\PSoC4/CapSense.c **** 							(uint32)((uint32)CapSense_compensationIDAC[sensor] <<
 1213              		.loc 1 1473 0
 1214 0092 1A4A     		ldr	r2, .L82+44
 1215 0094 125D     		ldrb	r2, [r2, r4]
 1216 0096 1204     		lsl	r2, r2, #16
1472:.\Generated_Source\PSoC4/CapSense.c **** 	newRegValue |= (CapSense_modulationIDAC[sensor] | 
 1217              		.loc 1 1472 0
 1218 0098 0243     		orr	r2, r0
 1219 009a 0A43     		orr	r2, r1
 1220              	.LVL156:
1477:.\Generated_Source\PSoC4/CapSense.c **** 	CapSense_CSD_IDAC_REG = newRegValue;
 1221              		.loc 1 1477 0
 1222 009c 1A60     		str	r2, [r3]
1492:.\Generated_Source\PSoC4/CapSense.c **** 	newRegValue = CapSense_CSD_CFG_REG;
 1223              		.loc 1 1492 0
 1224 009e 184E     		ldr	r6, .L82+48
 1225 00a0 3768     		ldr	r7, [r6]
 1226              	.LVL157:
1493:.\Generated_Source\PSoC4/CapSense.c **** 	newRegValue &= ~(CapSense_PRECHARGE_CONFIG_MASK);
 1227              		.loc 1 1493 0
 1228 00a2 184B     		ldr	r3, .L82+52
 1229 00a4 1F40     		and	r7, r3
 1230              	.LVL158:
1494:.\Generated_Source\PSoC4/CapSense.c **** 	newRegValue |= CapSense_CTANK_PRECHARGE_CONFIG;
 1231              		.loc 1 1494 0
 1232 00a6 184B     		ldr	r3, .L82+56
 1233 00a8 1F43     		orr	r7, r3
 1234              	.LVL159:
1496:.\Generated_Source\PSoC4/CapSense.c **** 	CyIntEnable(CapSense_ISR_NUMBER);
 1235              		.loc 1 1496 0
 1236 00aa 1020     		mov	r0, #16
 1237 00ac FFF7FEFF 		bl	CyIntEnable
 1238              	.LVL160:
1499:.\Generated_Source\PSoC4/CapSense.c ****     CapSense_EnableScanSlot(sensor);
 1239              		.loc 1 1499 0
 1240 00b0 201C     		mov	r0, r4
 1241 00b2 FFF7FEFF 		bl	CapSense_EnableSensor
 1242              	.LVL161:
1501:.\Generated_Source\PSoC4/CapSense.c **** 	interruptState = CyEnterCriticalSection();
 1243              		.loc 1 1501 0
 1244 00b6 FFF7FEFF 		bl	CyEnterCriticalSection
 1245              	.LVL162:
ARM GAS  C:\Users\Luci\AppData\Local\Temp\cc2LetiO.s 			page 55


 1246 00ba 041C     		mov	r4, r0
 1247              	.LVL163:
1502:.\Generated_Source\PSoC4/CapSense.c **** 	CapSense_CSD_CFG_REG = newRegValue;
 1248              		.loc 1 1502 0
 1249 00bc 3760     		str	r7, [r6]
1508:.\Generated_Source\PSoC4/CapSense.c **** 	CyDelayCycles(CapSense_GLITCH_ELIMINATION_CYCLES);
 1250              		.loc 1 1508 0
 1251 00be 0020     		mov	r0, #0
 1252              	.LVL164:
 1253 00c0 FFF7FEFF 		bl	CyDelayCycles
 1254              	.LVL165:
1514:.\Generated_Source\PSoC4/CapSense.c ****     CapSense_CSD_CNT_REG = counterResolution;
 1255              		.loc 1 1514 0
 1256 00c4 084B     		ldr	r3, .L82+24
 1257 00c6 1D60     		str	r5, [r3]
1515:.\Generated_Source\PSoC4/CapSense.c ****     CyExitCriticalSection(interruptState);
 1258              		.loc 1 1515 0
 1259 00c8 201C     		mov	r0, r4
 1260 00ca FFF7FEFF 		bl	CyExitCriticalSection
 1261              	.LVL166:
1516:.\Generated_Source\PSoC4/CapSense.c **** }
 1262              		.loc 1 1516 0
 1263              		@ sp needed
 1264              	.LVL167:
 1265              	.LVL168:
 1266              	.LVL169:
 1267 00ce F8BD     		pop	{r3, r4, r5, r6, r7, pc}
 1268              	.L83:
 1269              		.align	2
 1270              	.L82:
 1271 00d0 00000000 		.word	.LANCHOR2
 1272 00d4 00000000 		.word	.LANCHOR1
 1273 00d8 00000000 		.word	scanSpeedTbl
 1274 00dc FFFFFEFF 		.word	-65537
 1275 00e0 00000000 		.word	CapSense_sampleClkDividerVal
 1276 00e4 00000000 		.word	CapSense_senseClkDividerVal
 1277 00e8 0C002840 		.word	1076363276
 1278 00ec 14002840 		.word	1076363284
 1279 00f0 08002840 		.word	1076363272
 1280 00f4 00FF80FF 		.word	-8323328
 1281 00f8 00000000 		.word	CapSense_modulationIDAC
 1282 00fc 00000000 		.word	CapSense_compensationIDAC
 1283 0100 04002840 		.word	1076363268
 1284 0104 FF1FDFFF 		.word	-2154497
 1285 0108 20E02000 		.word	2154528
 1286              		.cfi_endproc
 1287              	.LFE55:
 1288              		.size	CapSense_PreScan, .-CapSense_PreScan
 1289              		.section	.text.CapSense_ScanSensor,"ax",%progbits
 1290              		.align	2
 1291              		.global	CapSense_ScanSensor
 1292              		.code	16
 1293              		.thumb_func
 1294              		.type	CapSense_ScanSensor, %function
 1295              	CapSense_ScanSensor:
 1296              	.LFB41:
 572:.\Generated_Source\PSoC4/CapSense.c **** {
ARM GAS  C:\Users\Luci\AppData\Local\Temp\cc2LetiO.s 			page 56


 1297              		.loc 1 572 0
 1298              		.cfi_startproc
 1299              	.LVL170:
 1300 0000 08B5     		push	{r3, lr}
 1301              		.cfi_def_cfa_offset 8
 1302              		.cfi_offset 3, -8
 1303              		.cfi_offset 14, -4
 574:.\Generated_Source\PSoC4/CapSense.c ****     CapSense_csdStatusVar = 0u;
 1304              		.loc 1 574 0
 1305 0002 054B     		ldr	r3, .L85
 1306 0004 0022     		mov	r2, #0
 1307 0006 1A70     		strb	r2, [r3]
 575:.\Generated_Source\PSoC4/CapSense.c ****     CapSense_sensorIndex = (uint8)sensor;
 1308              		.loc 1 575 0
 1309 0008 C2B2     		uxtb	r2, r0
 1310 000a 9A72     		strb	r2, [r3, #10]
 578:.\Generated_Source\PSoC4/CapSense.c ****     CapSense_csdStatusVar = (CapSense_SW_STS_BUSY | CapSense_SW_CTRL_SINGLE_SCAN);
 1311              		.loc 1 578 0
 1312 000c 8122     		mov	r2, #129
 1313 000e 1A70     		strb	r2, [r3]
 579:.\Generated_Source\PSoC4/CapSense.c ****     CapSense_PreScan(sensor);
 1314              		.loc 1 579 0
 1315 0010 FFF7FEFF 		bl	CapSense_PreScan
 1316              	.LVL171:
 580:.\Generated_Source\PSoC4/CapSense.c **** }
 1317              		.loc 1 580 0
 1318              		@ sp needed
 1319 0014 08BD     		pop	{r3, pc}
 1320              	.L86:
 1321 0016 C046     		.align	2
 1322              	.L85:
 1323 0018 00000000 		.word	.LANCHOR0
 1324              		.cfi_endproc
 1325              	.LFE41:
 1326              		.size	CapSense_ScanSensor, .-CapSense_ScanSensor
 1327              		.section	.text.CapSense_ScanEnabledWidgets,"ax",%progbits
 1328              		.align	2
 1329              		.global	CapSense_ScanEnabledWidgets
 1330              		.code	16
 1331              		.thumb_func
 1332              		.type	CapSense_ScanEnabledWidgets, %function
 1333              	CapSense_ScanEnabledWidgets:
 1334              	.LFB43:
 696:.\Generated_Source\PSoC4/CapSense.c **** {
 1335              		.loc 1 696 0
 1336              		.cfi_startproc
 1337 0000 10B5     		push	{r4, lr}
 1338              		.cfi_def_cfa_offset 8
 1339              		.cfi_offset 4, -8
 1340              		.cfi_offset 14, -4
 698:.\Generated_Source\PSoC4/CapSense.c ****     CapSense_csdStatusVar = 0u;
 1341              		.loc 1 698 0
 1342 0002 0B4C     		ldr	r4, .L89
 1343 0004 0023     		mov	r3, #0
 1344 0006 2370     		strb	r3, [r4]
 699:.\Generated_Source\PSoC4/CapSense.c ****     CapSense_sensorIndex = 0xFFu;
 1345              		.loc 1 699 0
ARM GAS  C:\Users\Luci\AppData\Local\Temp\cc2LetiO.s 			page 57


 1346 0008 FF23     		mov	r3, #255
 1347 000a A372     		strb	r3, [r4, #10]
 702:.\Generated_Source\PSoC4/CapSense.c ****     CapSense_sensorIndex = (uint8)CapSense_FindNextSensor(CapSense_sensorIndex);
 1348              		.loc 1 702 0
 1349 000c A07A     		ldrb	r0, [r4, #10]
 1350 000e C0B2     		uxtb	r0, r0
 1351 0010 FFF7FEFF 		bl	CapSense_FindNextSensor
 1352              	.LVL172:
 1353 0014 A072     		strb	r0, [r4, #10]
 705:.\Generated_Source\PSoC4/CapSense.c ****     if(CapSense_sensorIndex < CapSense_TOTAL_SENSOR_COUNT)
 1354              		.loc 1 705 0
 1355 0016 A37A     		ldrb	r3, [r4, #10]
 1356 0018 DBB2     		uxtb	r3, r3
 1357 001a 012B     		cmp	r3, #1
 1358 001c 07D8     		bhi	.L87
 707:.\Generated_Source\PSoC4/CapSense.c ****         CapSense_csdStatusVar |= CapSense_SW_STS_BUSY;
 1359              		.loc 1 707 0
 1360 001e 2178     		ldrb	r1, [r4]
 1361 0020 0122     		mov	r2, #1
 1362 0022 0A43     		orr	r2, r1
 1363 0024 2270     		strb	r2, [r4]
 708:.\Generated_Source\PSoC4/CapSense.c ****         CapSense_PreScan((uint32)CapSense_sensorIndex);
 1364              		.loc 1 708 0
 1365 0026 A07A     		ldrb	r0, [r4, #10]
 1366 0028 C0B2     		uxtb	r0, r0
 1367 002a FFF7FEFF 		bl	CapSense_PreScan
 1368              	.LVL173:
 1369              	.L87:
 710:.\Generated_Source\PSoC4/CapSense.c **** }
 1370              		.loc 1 710 0
 1371              		@ sp needed
 1372 002e 10BD     		pop	{r4, pc}
 1373              	.L90:
 1374              		.align	2
 1375              	.L89:
 1376 0030 00000000 		.word	.LANCHOR0
 1377              		.cfi_endproc
 1378              	.LFE43:
 1379              		.size	CapSense_ScanEnabledWidgets, .-CapSense_ScanEnabledWidgets
 1380              		.section	.text.CapSense_PostScan,"ax",%progbits
 1381              		.align	2
 1382              		.global	CapSense_PostScan
 1383              		.code	16
 1384              		.thumb_func
 1385              		.type	CapSense_PostScan, %function
 1386              	CapSense_PostScan:
 1387              	.LFB56:
1542:.\Generated_Source\PSoC4/CapSense.c **** {	
 1388              		.loc 1 1542 0
 1389              		.cfi_startproc
 1390              	.LVL174:
 1391 0000 38B5     		push	{r3, r4, r5, lr}
 1392              		.cfi_def_cfa_offset 16
 1393              		.cfi_offset 3, -16
 1394              		.cfi_offset 4, -12
 1395              		.cfi_offset 5, -8
 1396              		.cfi_offset 14, -4
ARM GAS  C:\Users\Luci\AppData\Local\Temp\cc2LetiO.s 			page 58


 1397 0002 041C     		mov	r4, r0
1557:.\Generated_Source\PSoC4/CapSense.c ****     CapSense_sensorRaw[sensor]  = (uint16)CapSense_CSD_CNT_REG;
 1398              		.loc 1 1557 0
 1399 0004 174B     		ldr	r3, .L93
 1400 0006 1D68     		ldr	r5, [r3]
 1401 0008 ADB2     		uxth	r5, r5
 1402 000a 4300     		lsl	r3, r0, #1
 1403 000c 164A     		ldr	r2, .L93+4
 1404 000e D318     		add	r3, r2, r3
 1405 0010 9D80     		strh	r5, [r3, #4]
1561:.\Generated_Source\PSoC4/CapSense.c **** 	widget = CapSense_widgetNumber[sensor];
 1406              		.loc 1 1561 0
 1407 0012 164B     		ldr	r3, .L93+8
 1408 0014 5033     		add	r3, r3, #80
 1409 0016 1A5C     		ldrb	r2, [r3, r0]
 1410              	.LVL175:
1562:.\Generated_Source\PSoC4/CapSense.c **** 	if(CapSense_widgetResolution[widget] < CapSense_RESOLUTION_16_BITS)
 1411              		.loc 1 1562 0
 1412 0018 9200     		lsl	r2, r2, #2
 1413              	.LVL176:
 1414 001a 154B     		ldr	r3, .L93+12
 1415              	.LVL177:
 1416 001c D258     		ldr	r2, [r2, r3]
 1417 001e 154B     		ldr	r3, .L93+16
 1418 0020 9A42     		cmp	r2, r3
 1419 0022 08D8     		bhi	.L92
1564:.\Generated_Source\PSoC4/CapSense.c **** 		oversamplingFactor = CapSense_GetBitValue(scanSpeedTbl, sensor);
 1420              		.loc 1 1564 0
 1421 0024 1448     		ldr	r0, .L93+20
 1422              	.LVL178:
 1423 0026 211C     		mov	r1, r4
 1424 0028 FFF7FEFF 		bl	CapSense_GetBitValue
 1425              	.LVL179:
1565:.\Generated_Source\PSoC4/CapSense.c **** 		CapSense_sensorRaw[sensor] >>= oversamplingFactor;
 1426              		.loc 1 1565 0
 1427 002c 6300     		lsl	r3, r4, #1
 1428 002e 0E4A     		ldr	r2, .L93+4
 1429 0030 D318     		add	r3, r2, r3
 1430 0032 0541     		asr	r5, r5, r0
 1431 0034 9D80     		strh	r5, [r3, #4]
 1432              	.LVL180:
 1433              	.L92:
1571:.\Generated_Source\PSoC4/CapSense.c ****     CapSense_DisableScanSlot(sensor);
 1434              		.loc 1 1571 0
 1435 0036 201C     		mov	r0, r4
 1436 0038 FFF7FEFF 		bl	CapSense_DisableSensor
 1437              	.LVL181:
1573:.\Generated_Source\PSoC4/CapSense.c **** 	CyIntDisable(CapSense_ISR_NUMBER);
 1438              		.loc 1 1573 0
 1439 003c 1020     		mov	r0, #16
 1440 003e FFF7FEFF 		bl	CyIntDisable
 1441              	.LVL182:
1593:.\Generated_Source\PSoC4/CapSense.c **** 	newRegValue = CapSense_CSD_CFG_REG;
 1442              		.loc 1 1593 0
 1443 0042 0E4B     		ldr	r3, .L93+24
 1444 0044 1968     		ldr	r1, [r3]
 1445              	.LVL183:
ARM GAS  C:\Users\Luci\AppData\Local\Temp\cc2LetiO.s 			page 59


1594:.\Generated_Source\PSoC4/CapSense.c **** 	newRegValue &= ~(CapSense_PRECHARGE_CONFIG_MASK);
 1446              		.loc 1 1594 0
 1447 0046 0E4A     		ldr	r2, .L93+28
 1448 0048 0A40     		and	r2, r1
 1449              	.LVL184:
1595:.\Generated_Source\PSoC4/CapSense.c **** 	newRegValue |= CapSense_CMOD_PRECHARGE_CONFIG;
 1450              		.loc 1 1595 0
 1451 004a A021     		mov	r1, #160
 1452 004c 0902     		lsl	r1, r1, #8
 1453 004e 0A43     		orr	r2, r1
 1454              	.LVL185:
1596:.\Generated_Source\PSoC4/CapSense.c **** 	CapSense_CSD_CFG_REG = newRegValue;
 1455              		.loc 1 1596 0
 1456 0050 1A60     		str	r2, [r3]
1602:.\Generated_Source\PSoC4/CapSense.c **** 	CapSense_CSD_IDAC_REG &= ~(CapSense_CSD_IDAC1_DATA_MASK | CapSense_CSD_IDAC2_DATA_MASK);          
 1457              		.loc 1 1602 0
 1458 0052 0C4B     		ldr	r3, .L93+32
 1459 0054 1968     		ldr	r1, [r3]
 1460 0056 0C4A     		ldr	r2, .L93+36
 1461              	.LVL186:
 1462 0058 0A40     		and	r2, r1
 1463 005a 1A60     		str	r2, [r3]
 1464              	.LVL187:
1605:.\Generated_Source\PSoC4/CapSense.c **** 	CyIntEnable(CapSense_ISR_NUMBER);
 1465              		.loc 1 1605 0
 1466 005c 1020     		mov	r0, #16
 1467 005e FFF7FEFF 		bl	CyIntEnable
 1468              	.LVL188:
1606:.\Generated_Source\PSoC4/CapSense.c **** }
 1469              		.loc 1 1606 0
 1470              		@ sp needed
 1471              	.LVL189:
 1472 0062 38BD     		pop	{r3, r4, r5, pc}
 1473              	.L94:
 1474              		.align	2
 1475              	.L93:
 1476 0064 0C002840 		.word	1076363276
 1477 0068 00000000 		.word	.LANCHOR0
 1478 006c 00000000 		.word	.LANCHOR2
 1479 0070 00000000 		.word	.LANCHOR1
 1480 0074 FFFFFEFF 		.word	-65537
 1481 0078 00000000 		.word	scanSpeedTbl
 1482 007c 04002840 		.word	1076363268
 1483 0080 FF1FDFFF 		.word	-2154497
 1484 0084 08002840 		.word	1076363272
 1485 0088 00FF80FF 		.word	-8323328
 1486              		.cfi_endproc
 1487              	.LFE56:
 1488              		.size	CapSense_PostScan, .-CapSense_PostScan
 1489              		.section	.text.CapSense_SetBitValue,"ax",%progbits
 1490              		.align	2
 1491              		.global	CapSense_SetBitValue
 1492              		.code	16
 1493              		.thumb_func
 1494              		.type	CapSense_SetBitValue, %function
 1495              	CapSense_SetBitValue:
 1496              	.LFB61:
ARM GAS  C:\Users\Luci\AppData\Local\Temp\cc2LetiO.s 			page 60


1749:.\Generated_Source\PSoC4/CapSense.c **** 
1750:.\Generated_Source\PSoC4/CapSense.c **** 
1751:.\Generated_Source\PSoC4/CapSense.c **** /*******************************************************************************
1752:.\Generated_Source\PSoC4/CapSense.c **** * Function Name: CapSense_SetBitValue
1753:.\Generated_Source\PSoC4/CapSense.c **** ********************************************************************************
1754:.\Generated_Source\PSoC4/CapSense.c **** *
1755:.\Generated_Source\PSoC4/CapSense.c **** * Summary:
1756:.\Generated_Source\PSoC4/CapSense.c **** *  The API sets a bit status of the bit in the table array which contains masks.
1757:.\Generated_Source\PSoC4/CapSense.c **** * 
1758:.\Generated_Source\PSoC4/CapSense.c **** * Parameters:
1759:.\Generated_Source\PSoC4/CapSense.c **** *  table[] - array with bit masks.
1760:.\Generated_Source\PSoC4/CapSense.c **** *  position - position of bit in the table[] array.
1761:.\Generated_Source\PSoC4/CapSense.c **** *  value: 0 - bit is not set; 1 - bit is set.
1762:.\Generated_Source\PSoC4/CapSense.c **** *
1763:.\Generated_Source\PSoC4/CapSense.c **** * Return:
1764:.\Generated_Source\PSoC4/CapSense.c **** *  None
1765:.\Generated_Source\PSoC4/CapSense.c **** *
1766:.\Generated_Source\PSoC4/CapSense.c **** * Global Variables:
1767:.\Generated_Source\PSoC4/CapSense.c **** *  None
1768:.\Generated_Source\PSoC4/CapSense.c **** *
1769:.\Generated_Source\PSoC4/CapSense.c **** * Side Effects:
1770:.\Generated_Source\PSoC4/CapSense.c **** *  None
1771:.\Generated_Source\PSoC4/CapSense.c **** *
1772:.\Generated_Source\PSoC4/CapSense.c **** *******************************************************************************/
1773:.\Generated_Source\PSoC4/CapSense.c **** void CapSense_SetBitValue(uint8 table[], uint32 position, uint32 value)
1774:.\Generated_Source\PSoC4/CapSense.c **** {
 1497              		.loc 1 1774 0
 1498              		.cfi_startproc
 1499              	.LVL190:
 1500 0000 10B5     		push	{r4, lr}
 1501              		.cfi_def_cfa_offset 8
 1502              		.cfi_offset 4, -8
 1503              		.cfi_offset 14, -4
1775:.\Generated_Source\PSoC4/CapSense.c ****     uint32 offset;
1776:.\Generated_Source\PSoC4/CapSense.c **** 	uint8 enMask;
1777:.\Generated_Source\PSoC4/CapSense.c **** 	
1778:.\Generated_Source\PSoC4/CapSense.c **** 	/* position is divided by 8 to calculate the element of the 
1779:.\Generated_Source\PSoC4/CapSense.c **** 	   table[] array that contains the enable bit 
1780:.\Generated_Source\PSoC4/CapSense.c **** 	   for an appropriate sensor.
1781:.\Generated_Source\PSoC4/CapSense.c **** 	*/
1782:.\Generated_Source\PSoC4/CapSense.c **** 	offset = (position >> 3u);
 1504              		.loc 1 1782 0
 1505 0002 CB08     		lsr	r3, r1, #3
 1506              	.LVL191:
1783:.\Generated_Source\PSoC4/CapSense.c **** 	
1784:.\Generated_Source\PSoC4/CapSense.c **** 	/* The enMask calculation for the appropriate sensor. Operation (position & 0x07u) 
1785:.\Generated_Source\PSoC4/CapSense.c **** 	   intends to calculate the enable bit offset for the 8-bit element of the 
1786:.\Generated_Source\PSoC4/CapSense.c **** 	   table[] array.
1787:.\Generated_Source\PSoC4/CapSense.c **** 	*/
1788:.\Generated_Source\PSoC4/CapSense.c **** 	enMask = 0x01u << (position & 0x07u);
 1507              		.loc 1 1788 0
 1508 0004 0724     		mov	r4, #7
 1509 0006 2140     		and	r1, r4
 1510              	.LVL192:
 1511 0008 0124     		mov	r4, #1
 1512 000a 8C40     		lsl	r4, r4, r1
 1513 000c E1B2     		uxtb	r1, r4
ARM GAS  C:\Users\Luci\AppData\Local\Temp\cc2LetiO.s 			page 61


 1514              	.LVL193:
1789:.\Generated_Source\PSoC4/CapSense.c **** 	
1790:.\Generated_Source\PSoC4/CapSense.c **** 	if(0u != value)
 1515              		.loc 1 1790 0
 1516 000e 002A     		cmp	r2, #0
 1517 0010 04D0     		beq	.L96
1791:.\Generated_Source\PSoC4/CapSense.c **** 	{
1792:.\Generated_Source\PSoC4/CapSense.c **** 		table[offset] |= enMask;
 1518              		.loc 1 1792 0
 1519 0012 C018     		add	r0, r0, r3
 1520              	.LVL194:
 1521 0014 0378     		ldrb	r3, [r0]
 1522              	.LVL195:
 1523 0016 1943     		orr	r1, r3
 1524 0018 0170     		strb	r1, [r0]
 1525 001a 03E0     		b	.L95
 1526              	.LVL196:
 1527              	.L96:
1793:.\Generated_Source\PSoC4/CapSense.c **** 	}
1794:.\Generated_Source\PSoC4/CapSense.c **** 	else
1795:.\Generated_Source\PSoC4/CapSense.c **** 	{
1796:.\Generated_Source\PSoC4/CapSense.c **** 		table[offset] &= (uint8)~(enMask);
 1528              		.loc 1 1796 0
 1529 001c C018     		add	r0, r0, r3
 1530              	.LVL197:
 1531 001e 0378     		ldrb	r3, [r0]
 1532              	.LVL198:
 1533 0020 8B43     		bic	r3, r1
 1534 0022 0370     		strb	r3, [r0]
 1535              	.L95:
1797:.\Generated_Source\PSoC4/CapSense.c **** 	}
1798:.\Generated_Source\PSoC4/CapSense.c **** }
 1536              		.loc 1 1798 0
 1537              		@ sp needed
 1538              	.LVL199:
 1539 0024 10BD     		pop	{r4, pc}
 1540              		.cfi_endproc
 1541              	.LFE61:
 1542              		.size	CapSense_SetBitValue, .-CapSense_SetBitValue
 1543 0026 C046     		.section	.text.CapSense_ScanWidget,"ax",%progbits
 1544              		.align	2
 1545              		.global	CapSense_ScanWidget
 1546              		.code	16
 1547              		.thumb_func
 1548              		.type	CapSense_ScanWidget, %function
 1549              	CapSense_ScanWidget:
 1550              	.LFB42:
 611:.\Generated_Source\PSoC4/CapSense.c **** {
 1551              		.loc 1 611 0
 1552              		.cfi_startproc
 1553              	.LVL200:
 1554 0000 F8B5     		push	{r3, r4, r5, r6, r7, lr}
 1555              		.cfi_def_cfa_offset 24
 1556              		.cfi_offset 3, -24
 1557              		.cfi_offset 4, -20
 1558              		.cfi_offset 5, -16
 1559              		.cfi_offset 6, -12
ARM GAS  C:\Users\Luci\AppData\Local\Temp\cc2LetiO.s 			page 62


 1560              		.cfi_offset 7, -8
 1561              		.cfi_offset 14, -4
 617:.\Generated_Source\PSoC4/CapSense.c **** 	CapSense_sensorIndex = CapSense_rawDataIndex[widget];
 1562              		.loc 1 617 0
 1563 0002 1E4B     		ldr	r3, .L108
 1564 0004 1A5C     		ldrb	r2, [r3, r0]
 1565 0006 1E4B     		ldr	r3, .L108+4
 1566 0008 9A72     		strb	r2, [r3, #10]
 620:.\Generated_Source\PSoC4/CapSense.c **** 	sensorsPerWidget = CapSense_numberOfSensors[widget];
 1567              		.loc 1 620 0
 1568 000a 1E4B     		ldr	r3, .L108+8
 1569 000c 1B5C     		ldrb	r3, [r3, r0]
 1570              	.LVL201:
 623:.\Generated_Source\PSoC4/CapSense.c **** 	if(sensorsPerWidget == 0u)
 1571              		.loc 1 623 0
 1572 000e 002B     		cmp	r3, #0
 1573 0010 00D1     		bne	.L99
 625:.\Generated_Source\PSoC4/CapSense.c **** 		sensorsPerWidget = 1u;
 1574              		.loc 1 625 0
 1575 0012 0123     		mov	r3, #1
 1576              	.LVL202:
 1577              	.L99:
 629:.\Generated_Source\PSoC4/CapSense.c **** 	lastSensor = (CapSense_rawDataIndex[widget] + sensorsPerWidget) - 1u;
 1578              		.loc 1 629 0
 1579 0014 D318     		add	r3, r2, r3
 1580              	.LVL203:
 1581 0016 5F1E     		sub	r7, r3, #1
 1582              	.LVL204:
 632:.\Generated_Source\PSoC4/CapSense.c **** 	for(snsIndex = 0u; snsIndex < CapSense_TOTAL_SENSOR_MASK; snsIndex++)
 1583              		.loc 1 632 0
 1584 0018 0023     		mov	r3, #0
 1585 001a 05E0     		b	.L100
 1586              	.LVL205:
 1587              	.L101:
 635:.\Generated_Source\PSoC4/CapSense.c **** 		CapSense_sensorEnableMaskBackup[snsIndex] = CapSense_sensorEnableMask[snsIndex];
 1588              		.loc 1 635 0 discriminator 2
 1589 001c 1A49     		ldr	r1, .L108+12
 1590 001e CA18     		add	r2, r1, r3
 1591 0020 127A     		ldrb	r2, [r2, #8]
 1592 0022 1A49     		ldr	r1, .L108+16
 1593 0024 CA54     		strb	r2, [r1, r3]
 632:.\Generated_Source\PSoC4/CapSense.c **** 	for(snsIndex = 0u; snsIndex < CapSense_TOTAL_SENSOR_MASK; snsIndex++)
 1594              		.loc 1 632 0 discriminator 2
 1595 0026 0133     		add	r3, r3, #1
 1596              	.LVL206:
 1597              	.L100:
 632:.\Generated_Source\PSoC4/CapSense.c **** 	for(snsIndex = 0u; snsIndex < CapSense_TOTAL_SENSOR_MASK; snsIndex++)
 1598              		.loc 1 632 0 is_stmt 0 discriminator 1
 1599 0028 002B     		cmp	r3, #0
 1600 002a F7D0     		beq	.L101
 1601 002c 0024     		mov	r4, #0
 650:.\Generated_Source\PSoC4/CapSense.c **** 		    CapSense_SetBitValue(CapSense_sensorEnableMask, snsIndex, 0u);
 1602              		.loc 1 650 0 is_stmt 1
 1603 002e 164E     		ldr	r6, .L108+12
 1604 0030 0836     		add	r6, r6, #8
 645:.\Generated_Source\PSoC4/CapSense.c **** 			CapSense_SetBitValue(CapSense_sensorEnableMask, snsIndex, 1u);
 1605              		.loc 1 645 0
ARM GAS  C:\Users\Luci\AppData\Local\Temp\cc2LetiO.s 			page 63


 1606 0032 351C     		mov	r5, r6
 1607 0034 12E0     		b	.L102
 1608              	.LVL207:
 1609              	.L105:
 642:.\Generated_Source\PSoC4/CapSense.c **** 	    if((snsIndex >= CapSense_sensorIndex) && (snsIndex <= lastSensor))
 1610              		.loc 1 642 0
 1611 0036 124A     		ldr	r2, .L108+4
 1612 0038 937A     		ldrb	r3, [r2, #10]
 1613 003a DBB2     		uxtb	r3, r3
 1614 003c A342     		cmp	r3, r4
 1615 003e 07D8     		bhi	.L103
 642:.\Generated_Source\PSoC4/CapSense.c **** 	    if((snsIndex >= CapSense_sensorIndex) && (snsIndex <= lastSensor))
 1616              		.loc 1 642 0 is_stmt 0 discriminator 1
 1617 0040 BC42     		cmp	r4, r7
 1618 0042 05D8     		bhi	.L103
 645:.\Generated_Source\PSoC4/CapSense.c **** 			CapSense_SetBitValue(CapSense_sensorEnableMask, snsIndex, 1u);
 1619              		.loc 1 645 0 is_stmt 1
 1620 0044 281C     		mov	r0, r5
 1621 0046 211C     		mov	r1, r4
 1622 0048 0122     		mov	r2, #1
 1623 004a FFF7FEFF 		bl	CapSense_SetBitValue
 1624              	.LVL208:
 1625 004e 04E0     		b	.L104
 1626              	.L103:
 650:.\Generated_Source\PSoC4/CapSense.c **** 		    CapSense_SetBitValue(CapSense_sensorEnableMask, snsIndex, 0u);
 1627              		.loc 1 650 0
 1628 0050 301C     		mov	r0, r6
 1629 0052 211C     		mov	r1, r4
 1630 0054 0022     		mov	r2, #0
 1631 0056 FFF7FEFF 		bl	CapSense_SetBitValue
 1632              	.LVL209:
 1633              	.L104:
 639:.\Generated_Source\PSoC4/CapSense.c **** 	for(snsIndex = 0u; snsIndex < CapSense_TOTAL_SENSOR_COUNT; snsIndex++)
 1634              		.loc 1 639 0
 1635 005a 0134     		add	r4, r4, #1
 1636              	.LVL210:
 1637              	.L102:
 639:.\Generated_Source\PSoC4/CapSense.c **** 	for(snsIndex = 0u; snsIndex < CapSense_TOTAL_SENSOR_COUNT; snsIndex++)
 1638              		.loc 1 639 0 is_stmt 0 discriminator 1
 1639 005c 012C     		cmp	r4, #1
 1640 005e EAD9     		bls	.L105
 655:.\Generated_Source\PSoC4/CapSense.c ****     if(CapSense_sensorIndex < CapSense_TOTAL_SENSOR_COUNT)
 1641              		.loc 1 655 0 is_stmt 1
 1642 0060 074B     		ldr	r3, .L108+4
 1643 0062 9B7A     		ldrb	r3, [r3, #10]
 1644 0064 DBB2     		uxtb	r3, r3
 1645 0066 012B     		cmp	r3, #1
 1646 0068 06D8     		bhi	.L98
 658:.\Generated_Source\PSoC4/CapSense.c **** 		CapSense_csdStatusVar = (CapSense_SW_STS_BUSY | CapSense_SW_CTRL_WIDGET_SCAN);
 1647              		.loc 1 658 0
 1648 006a 054B     		ldr	r3, .L108+4
 1649 006c 4122     		mov	r2, #65
 1650 006e 1A70     		strb	r2, [r3]
 660:.\Generated_Source\PSoC4/CapSense.c ****         CapSense_PreScan((uint32)CapSense_sensorIndex);
 1651              		.loc 1 660 0
 1652 0070 987A     		ldrb	r0, [r3, #10]
 1653 0072 C0B2     		uxtb	r0, r0
ARM GAS  C:\Users\Luci\AppData\Local\Temp\cc2LetiO.s 			page 64


 1654 0074 FFF7FEFF 		bl	CapSense_PreScan
 1655              	.LVL211:
 1656              	.L98:
 662:.\Generated_Source\PSoC4/CapSense.c **** }
 1657              		.loc 1 662 0
 1658              		@ sp needed
 1659              	.LVL212:
 1660              	.LVL213:
 1661 0078 F8BD     		pop	{r3, r4, r5, r6, r7, pc}
 1662              	.L109:
 1663 007a C046     		.align	2
 1664              	.L108:
 1665 007c 00000000 		.word	CapSense_rawDataIndex
 1666 0080 00000000 		.word	.LANCHOR0
 1667 0084 00000000 		.word	CapSense_numberOfSensors
 1668 0088 00000000 		.word	.LANCHOR1
 1669 008c 00000000 		.word	CapSense_sensorEnableMaskBackup
 1670              		.cfi_endproc
 1671              	.LFE42:
 1672              		.size	CapSense_ScanWidget, .-CapSense_ScanWidget
 1673              		.section	.text.CapSense_GetSenseClkDivider,"ax",%progbits
 1674              		.align	2
 1675              		.global	CapSense_GetSenseClkDivider
 1676              		.code	16
 1677              		.thumb_func
 1678              		.type	CapSense_GetSenseClkDivider, %function
 1679              	CapSense_GetSenseClkDivider:
 1680              	.LFB62:
1799:.\Generated_Source\PSoC4/CapSense.c **** 
1800:.\Generated_Source\PSoC4/CapSense.c **** 
1801:.\Generated_Source\PSoC4/CapSense.c **** 
1802:.\Generated_Source\PSoC4/CapSense.c **** /*******************************************************************************
1803:.\Generated_Source\PSoC4/CapSense.c **** * Function Name: CapSense_GetSenseClkDivider
1804:.\Generated_Source\PSoC4/CapSense.c **** ********************************************************************************
1805:.\Generated_Source\PSoC4/CapSense.c **** *
1806:.\Generated_Source\PSoC4/CapSense.c **** * Summary:
1807:.\Generated_Source\PSoC4/CapSense.c **** *  This API returns a value of the sense clock divider for the  sensor.
1808:.\Generated_Source\PSoC4/CapSense.c **** *
1809:.\Generated_Source\PSoC4/CapSense.c **** * Parameters:
1810:.\Generated_Source\PSoC4/CapSense.c **** *  sensor: sensor index. The index value can be 
1811:.\Generated_Source\PSoC4/CapSense.c **** *  from 0 to (CapSense_TOTAL_SENSOR_COUNT-1).
1812:.\Generated_Source\PSoC4/CapSense.c **** *
1813:.\Generated_Source\PSoC4/CapSense.c **** * Return:
1814:.\Generated_Source\PSoC4/CapSense.c **** *  This API returns the sense clock divider of the sensor. 
1815:.\Generated_Source\PSoC4/CapSense.c **** *
1816:.\Generated_Source\PSoC4/CapSense.c **** * Global Variables:
1817:.\Generated_Source\PSoC4/CapSense.c **** *  CapSense_senseClkDividerVal[] - stores the sense clock divider values.
1818:.\Generated_Source\PSoC4/CapSense.c **** * 
1819:.\Generated_Source\PSoC4/CapSense.c **** * Side Effects:
1820:.\Generated_Source\PSoC4/CapSense.c **** *  None
1821:.\Generated_Source\PSoC4/CapSense.c **** *
1822:.\Generated_Source\PSoC4/CapSense.c **** *******************************************************************************/
1823:.\Generated_Source\PSoC4/CapSense.c **** uint32 CapSense_GetSenseClkDivider(uint32 sensor)
1824:.\Generated_Source\PSoC4/CapSense.c **** {
 1681              		.loc 1 1824 0
 1682              		.cfi_startproc
 1683              	.LVL214:
ARM GAS  C:\Users\Luci\AppData\Local\Temp\cc2LetiO.s 			page 65


1825:.\Generated_Source\PSoC4/CapSense.c **** 	#if(0u != CapSense_MULTIPLE_FREQUENCY_SET)
1826:.\Generated_Source\PSoC4/CapSense.c **** 		return((uint32)CapSense_senseClkDividerVal[sensor]);
 1684              		.loc 1 1826 0
 1685 0000 014B     		ldr	r3, .L111
 1686 0002 185C     		ldrb	r0, [r3, r0]
 1687              	.LVL215:
1827:.\Generated_Source\PSoC4/CapSense.c **** 	#else
1828:.\Generated_Source\PSoC4/CapSense.c **** 		return((uint32)CapSense_senseClkDividerVal);
1829:.\Generated_Source\PSoC4/CapSense.c **** 	#endif /* (0u != CapSense_MULTIPLE_FREQUENCY_SET) */
1830:.\Generated_Source\PSoC4/CapSense.c **** }
 1688              		.loc 1 1830 0
 1689              		@ sp needed
 1690 0004 7047     		bx	lr
 1691              	.L112:
 1692 0006 C046     		.align	2
 1693              	.L111:
 1694 0008 00000000 		.word	CapSense_senseClkDividerVal
 1695              		.cfi_endproc
 1696              	.LFE62:
 1697              		.size	CapSense_GetSenseClkDivider, .-CapSense_GetSenseClkDivider
 1698              		.section	.text.CapSense_SetSenseClkDivider,"ax",%progbits
 1699              		.align	2
 1700              		.global	CapSense_SetSenseClkDivider
 1701              		.code	16
 1702              		.thumb_func
 1703              		.type	CapSense_SetSenseClkDivider, %function
 1704              	CapSense_SetSenseClkDivider:
 1705              	.LFB63:
1831:.\Generated_Source\PSoC4/CapSense.c **** 
1832:.\Generated_Source\PSoC4/CapSense.c **** #if (CapSense_TUNING_METHOD != CapSense__TUNING_NONE)
1833:.\Generated_Source\PSoC4/CapSense.c **** 	/*******************************************************************************
1834:.\Generated_Source\PSoC4/CapSense.c **** 	* Function Name: CapSense_SetSenseClkDivider
1835:.\Generated_Source\PSoC4/CapSense.c **** 	********************************************************************************
1836:.\Generated_Source\PSoC4/CapSense.c **** 	*
1837:.\Generated_Source\PSoC4/CapSense.c **** 	* Summary:
1838:.\Generated_Source\PSoC4/CapSense.c **** 	*  This API sets a value of the sense clock divider for the  sensor. 
1839:.\Generated_Source\PSoC4/CapSense.c **** 	*
1840:.\Generated_Source\PSoC4/CapSense.c **** 	* Parameters:
1841:.\Generated_Source\PSoC4/CapSense.c **** 	*  sensor:  Sensor index.
1842:.\Generated_Source\PSoC4/CapSense.c **** 	*  senseClk: represents the sense clock value.
1843:.\Generated_Source\PSoC4/CapSense.c **** 	*
1844:.\Generated_Source\PSoC4/CapSense.c **** 	* Return:
1845:.\Generated_Source\PSoC4/CapSense.c **** 	*  None.
1846:.\Generated_Source\PSoC4/CapSense.c **** 	*
1847:.\Generated_Source\PSoC4/CapSense.c **** 	* Global Variables:
1848:.\Generated_Source\PSoC4/CapSense.c **** 	*  CapSense_senseClkDividerVal[] - stores the sense clock divider values.
1849:.\Generated_Source\PSoC4/CapSense.c **** 	* 
1850:.\Generated_Source\PSoC4/CapSense.c **** 	* Side Effects:
1851:.\Generated_Source\PSoC4/CapSense.c **** 	*  None
1852:.\Generated_Source\PSoC4/CapSense.c **** 	*
1853:.\Generated_Source\PSoC4/CapSense.c **** 	*******************************************************************************/
1854:.\Generated_Source\PSoC4/CapSense.c **** 	void CapSense_SetSenseClkDivider(uint32 sensor, uint32 senseClk)
1855:.\Generated_Source\PSoC4/CapSense.c **** 	{
 1706              		.loc 1 1855 0
 1707              		.cfi_startproc
 1708              	.LVL216:
1856:.\Generated_Source\PSoC4/CapSense.c **** 		#if(0u != CapSense_MULTIPLE_FREQUENCY_SET)
ARM GAS  C:\Users\Luci\AppData\Local\Temp\cc2LetiO.s 			page 66


1857:.\Generated_Source\PSoC4/CapSense.c **** 			CapSense_senseClkDividerVal[sensor] = (uint8)senseClk;
 1709              		.loc 1 1857 0
 1710 0000 014B     		ldr	r3, .L114
 1711 0002 1954     		strb	r1, [r3, r0]
1858:.\Generated_Source\PSoC4/CapSense.c **** 		#else
1859:.\Generated_Source\PSoC4/CapSense.c **** 			CapSense_senseClkDividerVal = (uint8)senseClk;
1860:.\Generated_Source\PSoC4/CapSense.c **** 		#endif /* (0u != CapSense_MULTIPLE_FREQUENCY_SET) */
1861:.\Generated_Source\PSoC4/CapSense.c **** 	}
 1712              		.loc 1 1861 0
 1713              		@ sp needed
 1714 0004 7047     		bx	lr
 1715              	.L115:
 1716 0006 C046     		.align	2
 1717              	.L114:
 1718 0008 00000000 		.word	CapSense_senseClkDividerVal
 1719              		.cfi_endproc
 1720              	.LFE63:
 1721              		.size	CapSense_SetSenseClkDivider, .-CapSense_SetSenseClkDivider
 1722              		.section	.text.CapSense_GetModulatorClkDivider,"ax",%progbits
 1723              		.align	2
 1724              		.global	CapSense_GetModulatorClkDivider
 1725              		.code	16
 1726              		.thumb_func
 1727              		.type	CapSense_GetModulatorClkDivider, %function
 1728              	CapSense_GetModulatorClkDivider:
 1729              	.LFB64:
1862:.\Generated_Source\PSoC4/CapSense.c **** #endif /* (CapSense_TUNING_METHOD != CapSense__TUNING_NONE) */
1863:.\Generated_Source\PSoC4/CapSense.c **** 
1864:.\Generated_Source\PSoC4/CapSense.c **** 
1865:.\Generated_Source\PSoC4/CapSense.c **** /*******************************************************************************
1866:.\Generated_Source\PSoC4/CapSense.c **** * Function Name: CapSense_GetModulatorClkDivider
1867:.\Generated_Source\PSoC4/CapSense.c **** ********************************************************************************
1868:.\Generated_Source\PSoC4/CapSense.c **** *
1869:.\Generated_Source\PSoC4/CapSense.c **** * Summary:
1870:.\Generated_Source\PSoC4/CapSense.c **** *  This API returns a value of the modulator sample clock divider for the  sensor.
1871:.\Generated_Source\PSoC4/CapSense.c **** *
1872:.\Generated_Source\PSoC4/CapSense.c **** * Parameters:
1873:.\Generated_Source\PSoC4/CapSense.c **** *  sensor: sensor index. The value of index can be 
1874:.\Generated_Source\PSoC4/CapSense.c **** *  from 0 to (CapSense_TOTAL_SENSOR_COUNT-1).
1875:.\Generated_Source\PSoC4/CapSense.c **** *
1876:.\Generated_Source\PSoC4/CapSense.c **** * Return:
1877:.\Generated_Source\PSoC4/CapSense.c **** *  This API returns the modulator sample clock divider for the  sensor.
1878:.\Generated_Source\PSoC4/CapSense.c **** *
1879:.\Generated_Source\PSoC4/CapSense.c **** * Global Variables:
1880:.\Generated_Source\PSoC4/CapSense.c **** *  CapSense_sampleClkDividerVal[] - stores the modulator sample divider values.
1881:.\Generated_Source\PSoC4/CapSense.c **** * 
1882:.\Generated_Source\PSoC4/CapSense.c **** * Side Effects:
1883:.\Generated_Source\PSoC4/CapSense.c **** *  None
1884:.\Generated_Source\PSoC4/CapSense.c **** *
1885:.\Generated_Source\PSoC4/CapSense.c **** *******************************************************************************/
1886:.\Generated_Source\PSoC4/CapSense.c **** uint32 CapSense_GetModulatorClkDivider(uint32 sensor)
1887:.\Generated_Source\PSoC4/CapSense.c **** {
 1730              		.loc 1 1887 0
 1731              		.cfi_startproc
 1732              	.LVL217:
1888:.\Generated_Source\PSoC4/CapSense.c **** 	#if(0u != CapSense_MULTIPLE_FREQUENCY_SET)
1889:.\Generated_Source\PSoC4/CapSense.c **** 		return((uint32)CapSense_sampleClkDividerVal[sensor]);
ARM GAS  C:\Users\Luci\AppData\Local\Temp\cc2LetiO.s 			page 67


 1733              		.loc 1 1889 0
 1734 0000 014B     		ldr	r3, .L117
 1735 0002 185C     		ldrb	r0, [r3, r0]
 1736              	.LVL218:
1890:.\Generated_Source\PSoC4/CapSense.c **** 	#else
1891:.\Generated_Source\PSoC4/CapSense.c **** 		return((uint32)CapSense_sampleClkDividerVal);
1892:.\Generated_Source\PSoC4/CapSense.c **** 	#endif /* (0u != CapSense_MULTIPLE_FREQUENCY_SET) */
1893:.\Generated_Source\PSoC4/CapSense.c **** }
 1737              		.loc 1 1893 0
 1738              		@ sp needed
 1739 0004 7047     		bx	lr
 1740              	.L118:
 1741 0006 C046     		.align	2
 1742              	.L117:
 1743 0008 00000000 		.word	CapSense_sampleClkDividerVal
 1744              		.cfi_endproc
 1745              	.LFE64:
 1746              		.size	CapSense_GetModulatorClkDivider, .-CapSense_GetModulatorClkDivider
 1747              		.section	.text.CapSense_SetModulatorClkDivider,"ax",%progbits
 1748              		.align	2
 1749              		.global	CapSense_SetModulatorClkDivider
 1750              		.code	16
 1751              		.thumb_func
 1752              		.type	CapSense_SetModulatorClkDivider, %function
 1753              	CapSense_SetModulatorClkDivider:
 1754              	.LFB65:
1894:.\Generated_Source\PSoC4/CapSense.c **** 
1895:.\Generated_Source\PSoC4/CapSense.c **** #if (CapSense_TUNING_METHOD != CapSense__TUNING_NONE)
1896:.\Generated_Source\PSoC4/CapSense.c **** 	/*******************************************************************************
1897:.\Generated_Source\PSoC4/CapSense.c **** 	* Function Name: CapSense_SetModulatorClkDivider
1898:.\Generated_Source\PSoC4/CapSense.c **** 	********************************************************************************
1899:.\Generated_Source\PSoC4/CapSense.c **** 	*
1900:.\Generated_Source\PSoC4/CapSense.c **** 	* Summary:
1901:.\Generated_Source\PSoC4/CapSense.c **** 	*  This API sets a value of the modulator sample clock divider for the  sensor.
1902:.\Generated_Source\PSoC4/CapSense.c **** 	*
1903:.\Generated_Source\PSoC4/CapSense.c **** 	* Parameters:
1904:.\Generated_Source\PSoC4/CapSense.c **** 	*  sensor:  Sensor index.
1905:.\Generated_Source\PSoC4/CapSense.c **** 	*  modulatorClk: represents the modulator sample clock value.
1906:.\Generated_Source\PSoC4/CapSense.c **** 	*
1907:.\Generated_Source\PSoC4/CapSense.c **** 	* Return:
1908:.\Generated_Source\PSoC4/CapSense.c **** 	*  None.
1909:.\Generated_Source\PSoC4/CapSense.c **** 	*
1910:.\Generated_Source\PSoC4/CapSense.c **** 	* Global Variables:
1911:.\Generated_Source\PSoC4/CapSense.c **** 	*  CapSense_sampleClkDividerVal[] - stores the modulator sample divider values.
1912:.\Generated_Source\PSoC4/CapSense.c **** 	* 
1913:.\Generated_Source\PSoC4/CapSense.c **** 	* Side Effects:
1914:.\Generated_Source\PSoC4/CapSense.c **** 	*  None
1915:.\Generated_Source\PSoC4/CapSense.c **** 	*
1916:.\Generated_Source\PSoC4/CapSense.c **** 	*******************************************************************************/
1917:.\Generated_Source\PSoC4/CapSense.c **** 	void CapSense_SetModulatorClkDivider(uint32 sensor, uint32 modulatorClk)
1918:.\Generated_Source\PSoC4/CapSense.c **** 	{
 1755              		.loc 1 1918 0
 1756              		.cfi_startproc
 1757              	.LVL219:
1919:.\Generated_Source\PSoC4/CapSense.c **** 		#if(0u != CapSense_MULTIPLE_FREQUENCY_SET)
1920:.\Generated_Source\PSoC4/CapSense.c **** 			CapSense_sampleClkDividerVal[sensor] = (uint8)modulatorClk;
 1758              		.loc 1 1920 0
ARM GAS  C:\Users\Luci\AppData\Local\Temp\cc2LetiO.s 			page 68


 1759 0000 014B     		ldr	r3, .L120
 1760 0002 1954     		strb	r1, [r3, r0]
1921:.\Generated_Source\PSoC4/CapSense.c **** 		#else
1922:.\Generated_Source\PSoC4/CapSense.c **** 			CapSense_sampleClkDividerVal = (uint8)modulatorClk;
1923:.\Generated_Source\PSoC4/CapSense.c **** 		#endif /* (0u != CapSense_MULTIPLE_FREQUENCY_SET) */
1924:.\Generated_Source\PSoC4/CapSense.c **** 	}
 1761              		.loc 1 1924 0
 1762              		@ sp needed
 1763 0004 7047     		bx	lr
 1764              	.L121:
 1765 0006 C046     		.align	2
 1766              	.L120:
 1767 0008 00000000 		.word	CapSense_sampleClkDividerVal
 1768              		.cfi_endproc
 1769              	.LFE65:
 1770              		.size	CapSense_SetModulatorClkDivider, .-CapSense_SetModulatorClkDivider
 1771              		.section	.text.CapSense_GetModulationIDAC,"ax",%progbits
 1772              		.align	2
 1773              		.global	CapSense_GetModulationIDAC
 1774              		.code	16
 1775              		.thumb_func
 1776              		.type	CapSense_GetModulationIDAC, %function
 1777              	CapSense_GetModulationIDAC:
 1778              	.LFB66:
1925:.\Generated_Source\PSoC4/CapSense.c **** #endif /* (CapSense_TUNING_METHOD != CapSense__TUNING_NONE) */
1926:.\Generated_Source\PSoC4/CapSense.c **** 
1927:.\Generated_Source\PSoC4/CapSense.c **** /*******************************************************************************
1928:.\Generated_Source\PSoC4/CapSense.c **** * Function Name: CapSense_GetModulationIDAC
1929:.\Generated_Source\PSoC4/CapSense.c **** ********************************************************************************
1930:.\Generated_Source\PSoC4/CapSense.c **** *
1931:.\Generated_Source\PSoC4/CapSense.c **** * Summary:
1932:.\Generated_Source\PSoC4/CapSense.c **** *  This API returns a value of the modulation IDAC for the  sensor.
1933:.\Generated_Source\PSoC4/CapSense.c **** *
1934:.\Generated_Source\PSoC4/CapSense.c **** * Parameters:
1935:.\Generated_Source\PSoC4/CapSense.c **** *  sensor: sensor index. The index value can be 
1936:.\Generated_Source\PSoC4/CapSense.c **** *  from 0 to (CapSense_TOTAL_SENSOR_COUNT-1).
1937:.\Generated_Source\PSoC4/CapSense.c **** *
1938:.\Generated_Source\PSoC4/CapSense.c **** * Return:
1939:.\Generated_Source\PSoC4/CapSense.c **** *  This API returns the modulation IDAC of the sensor. 
1940:.\Generated_Source\PSoC4/CapSense.c **** *
1941:.\Generated_Source\PSoC4/CapSense.c **** * Global Variables:
1942:.\Generated_Source\PSoC4/CapSense.c **** *  CapSense_modulationIDAC[] - stores modulation IDAC values.
1943:.\Generated_Source\PSoC4/CapSense.c **** * 
1944:.\Generated_Source\PSoC4/CapSense.c **** * Side Effects:
1945:.\Generated_Source\PSoC4/CapSense.c **** *  None
1946:.\Generated_Source\PSoC4/CapSense.c **** *
1947:.\Generated_Source\PSoC4/CapSense.c **** *******************************************************************************/
1948:.\Generated_Source\PSoC4/CapSense.c **** uint32 CapSense_GetModulationIDAC(uint32 sensor)
1949:.\Generated_Source\PSoC4/CapSense.c **** {
 1779              		.loc 1 1949 0
 1780              		.cfi_startproc
 1781              	.LVL220:
1950:.\Generated_Source\PSoC4/CapSense.c **** 		return((uint32)CapSense_modulationIDAC[sensor]);
 1782              		.loc 1 1950 0
 1783 0000 014B     		ldr	r3, .L123
 1784 0002 185C     		ldrb	r0, [r3, r0]
 1785              	.LVL221:
ARM GAS  C:\Users\Luci\AppData\Local\Temp\cc2LetiO.s 			page 69


1951:.\Generated_Source\PSoC4/CapSense.c **** }
 1786              		.loc 1 1951 0
 1787              		@ sp needed
 1788 0004 7047     		bx	lr
 1789              	.L124:
 1790 0006 C046     		.align	2
 1791              	.L123:
 1792 0008 00000000 		.word	CapSense_modulationIDAC
 1793              		.cfi_endproc
 1794              	.LFE66:
 1795              		.size	CapSense_GetModulationIDAC, .-CapSense_GetModulationIDAC
 1796              		.section	.text.CapSense_SetModulationIDAC,"ax",%progbits
 1797              		.align	2
 1798              		.global	CapSense_SetModulationIDAC
 1799              		.code	16
 1800              		.thumb_func
 1801              		.type	CapSense_SetModulationIDAC, %function
 1802              	CapSense_SetModulationIDAC:
 1803              	.LFB67:
1952:.\Generated_Source\PSoC4/CapSense.c **** 
1953:.\Generated_Source\PSoC4/CapSense.c **** #if (CapSense_TUNING_METHOD != CapSense__TUNING_NONE)
1954:.\Generated_Source\PSoC4/CapSense.c **** 	/*******************************************************************************
1955:.\Generated_Source\PSoC4/CapSense.c **** 	* Function Name: CapSense_SetModulationIDAC
1956:.\Generated_Source\PSoC4/CapSense.c **** 	********************************************************************************
1957:.\Generated_Source\PSoC4/CapSense.c **** 	*
1958:.\Generated_Source\PSoC4/CapSense.c **** 	* Summary:
1959:.\Generated_Source\PSoC4/CapSense.c **** 	*  This API sets a value of the modulation IDAC for the  sensor.
1960:.\Generated_Source\PSoC4/CapSense.c **** 	*
1961:.\Generated_Source\PSoC4/CapSense.c **** 	* Parameters:
1962:.\Generated_Source\PSoC4/CapSense.c **** 	*  sensor:  Sensor index.
1963:.\Generated_Source\PSoC4/CapSense.c **** 	*  compIdacValue: represents the modulation IDAC data register value.
1964:.\Generated_Source\PSoC4/CapSense.c **** 	*
1965:.\Generated_Source\PSoC4/CapSense.c **** 	* Return:
1966:.\Generated_Source\PSoC4/CapSense.c **** 	*  None.
1967:.\Generated_Source\PSoC4/CapSense.c **** 	*
1968:.\Generated_Source\PSoC4/CapSense.c **** 	* Global Variables:
1969:.\Generated_Source\PSoC4/CapSense.c **** 	*  CapSense_modulationIDAC[] - array with modulation IDAC values
1970:.\Generated_Source\PSoC4/CapSense.c **** 	* 
1971:.\Generated_Source\PSoC4/CapSense.c **** 	* Side Effects:
1972:.\Generated_Source\PSoC4/CapSense.c **** 	*  None
1973:.\Generated_Source\PSoC4/CapSense.c **** 	*
1974:.\Generated_Source\PSoC4/CapSense.c **** 	*******************************************************************************/
1975:.\Generated_Source\PSoC4/CapSense.c **** 	void CapSense_SetModulationIDAC(uint32 sensor, uint32 modIdacValue)
1976:.\Generated_Source\PSoC4/CapSense.c **** 	{
 1804              		.loc 1 1976 0
 1805              		.cfi_startproc
 1806              	.LVL222:
1977:.\Generated_Source\PSoC4/CapSense.c **** 		CapSense_modulationIDAC[sensor] = (uint8)modIdacValue;
 1807              		.loc 1 1977 0
 1808 0000 014B     		ldr	r3, .L126
 1809 0002 1954     		strb	r1, [r3, r0]
1978:.\Generated_Source\PSoC4/CapSense.c **** 	}
 1810              		.loc 1 1978 0
 1811              		@ sp needed
 1812 0004 7047     		bx	lr
 1813              	.L127:
 1814 0006 C046     		.align	2
ARM GAS  C:\Users\Luci\AppData\Local\Temp\cc2LetiO.s 			page 70


 1815              	.L126:
 1816 0008 00000000 		.word	CapSense_modulationIDAC
 1817              		.cfi_endproc
 1818              	.LFE67:
 1819              		.size	CapSense_SetModulationIDAC, .-CapSense_SetModulationIDAC
 1820              		.section	.text.CapSense_GetCompensationIDAC,"ax",%progbits
 1821              		.align	2
 1822              		.global	CapSense_GetCompensationIDAC
 1823              		.code	16
 1824              		.thumb_func
 1825              		.type	CapSense_GetCompensationIDAC, %function
 1826              	CapSense_GetCompensationIDAC:
 1827              	.LFB68:
1979:.\Generated_Source\PSoC4/CapSense.c **** #endif /* (CapSense_TUNING_METHOD != CapSense__TUNING_NONE) */
1980:.\Generated_Source\PSoC4/CapSense.c **** 
1981:.\Generated_Source\PSoC4/CapSense.c **** 
1982:.\Generated_Source\PSoC4/CapSense.c **** #if(CapSense_IDAC_CNT > 1u)
1983:.\Generated_Source\PSoC4/CapSense.c **** 	/*******************************************************************************
1984:.\Generated_Source\PSoC4/CapSense.c **** 	* Function Name: CapSense_GetCompensationIDAC
1985:.\Generated_Source\PSoC4/CapSense.c **** 	********************************************************************************
1986:.\Generated_Source\PSoC4/CapSense.c **** 	*
1987:.\Generated_Source\PSoC4/CapSense.c **** 	* Summary:
1988:.\Generated_Source\PSoC4/CapSense.c **** 	*  This API returns a value of the compensation IDAC for the  sensor.
1989:.\Generated_Source\PSoC4/CapSense.c **** 	*
1990:.\Generated_Source\PSoC4/CapSense.c **** 	* Parameters:
1991:.\Generated_Source\PSoC4/CapSense.c **** 	*  sensor: sensor index. The index value can be 
1992:.\Generated_Source\PSoC4/CapSense.c **** 	*  from 0 to (CapSense_TOTAL_SENSOR_COUNT-1).
1993:.\Generated_Source\PSoC4/CapSense.c **** 	*
1994:.\Generated_Source\PSoC4/CapSense.c **** 	* Return:
1995:.\Generated_Source\PSoC4/CapSense.c **** 	*  This API returns the compensation IDAC of the sensor. 
1996:.\Generated_Source\PSoC4/CapSense.c **** 	*
1997:.\Generated_Source\PSoC4/CapSense.c **** 	* Global Variables:
1998:.\Generated_Source\PSoC4/CapSense.c **** 	*  CapSense_compensationIDAC[] - stores the compensation IDAC values.
1999:.\Generated_Source\PSoC4/CapSense.c **** 	* 
2000:.\Generated_Source\PSoC4/CapSense.c **** 	* Side Effects:
2001:.\Generated_Source\PSoC4/CapSense.c **** 	*  None
2002:.\Generated_Source\PSoC4/CapSense.c **** 	*
2003:.\Generated_Source\PSoC4/CapSense.c **** 	*******************************************************************************/
2004:.\Generated_Source\PSoC4/CapSense.c **** 	uint32 CapSense_GetCompensationIDAC(uint32 sensor)
2005:.\Generated_Source\PSoC4/CapSense.c **** 	{
 1828              		.loc 1 2005 0
 1829              		.cfi_startproc
 1830              	.LVL223:
2006:.\Generated_Source\PSoC4/CapSense.c **** 		return((uint32)CapSense_compensationIDAC[sensor]);
 1831              		.loc 1 2006 0
 1832 0000 014B     		ldr	r3, .L129
 1833 0002 185C     		ldrb	r0, [r3, r0]
 1834              	.LVL224:
2007:.\Generated_Source\PSoC4/CapSense.c **** 	}
 1835              		.loc 1 2007 0
 1836              		@ sp needed
 1837 0004 7047     		bx	lr
 1838              	.L130:
 1839 0006 C046     		.align	2
 1840              	.L129:
 1841 0008 00000000 		.word	CapSense_compensationIDAC
 1842              		.cfi_endproc
ARM GAS  C:\Users\Luci\AppData\Local\Temp\cc2LetiO.s 			page 71


 1843              	.LFE68:
 1844              		.size	CapSense_GetCompensationIDAC, .-CapSense_GetCompensationIDAC
 1845              		.section	.text.CapSense_SetCompensationIDAC,"ax",%progbits
 1846              		.align	2
 1847              		.global	CapSense_SetCompensationIDAC
 1848              		.code	16
 1849              		.thumb_func
 1850              		.type	CapSense_SetCompensationIDAC, %function
 1851              	CapSense_SetCompensationIDAC:
 1852              	.LFB69:
2008:.\Generated_Source\PSoC4/CapSense.c **** #endif /* (CapSense_IDAC_CNT > 1u) */
2009:.\Generated_Source\PSoC4/CapSense.c **** 
2010:.\Generated_Source\PSoC4/CapSense.c **** 
2011:.\Generated_Source\PSoC4/CapSense.c **** #if((CapSense_TUNING_METHOD != CapSense__TUNING_NONE) && (CapSense_IDAC_CNT > 1u))
2012:.\Generated_Source\PSoC4/CapSense.c **** 	/*******************************************************************************
2013:.\Generated_Source\PSoC4/CapSense.c **** 	* Function Name: CapSense_SetCompensationIDAC
2014:.\Generated_Source\PSoC4/CapSense.c **** 	********************************************************************************
2015:.\Generated_Source\PSoC4/CapSense.c **** 	*
2016:.\Generated_Source\PSoC4/CapSense.c **** 	* Summary:
2017:.\Generated_Source\PSoC4/CapSense.c **** 	*  This API sets a value of compensation IDAC for the  sensor.
2018:.\Generated_Source\PSoC4/CapSense.c **** 	*
2019:.\Generated_Source\PSoC4/CapSense.c **** 	* Parameters:
2020:.\Generated_Source\PSoC4/CapSense.c **** 	*  sensor:  Sensor index.
2021:.\Generated_Source\PSoC4/CapSense.c **** 	*  compIdacValue: represents the compensation IDAC data register value.
2022:.\Generated_Source\PSoC4/CapSense.c **** 	*
2023:.\Generated_Source\PSoC4/CapSense.c **** 	* Return:
2024:.\Generated_Source\PSoC4/CapSense.c **** 	*  None.
2025:.\Generated_Source\PSoC4/CapSense.c **** 	*
2026:.\Generated_Source\PSoC4/CapSense.c **** 	* Global Variables:
2027:.\Generated_Source\PSoC4/CapSense.c **** 	*  CapSense_compensationIDAC[] - an array with compensation IDAC values
2028:.\Generated_Source\PSoC4/CapSense.c **** 	* 
2029:.\Generated_Source\PSoC4/CapSense.c **** 	* Side Effects:
2030:.\Generated_Source\PSoC4/CapSense.c **** 	*  None
2031:.\Generated_Source\PSoC4/CapSense.c **** 	*
2032:.\Generated_Source\PSoC4/CapSense.c **** 	*******************************************************************************/
2033:.\Generated_Source\PSoC4/CapSense.c **** 	void CapSense_SetCompensationIDAC(uint32 sensor, uint32 compIdacValue)
2034:.\Generated_Source\PSoC4/CapSense.c **** 	{
 1853              		.loc 1 2034 0
 1854              		.cfi_startproc
 1855              	.LVL225:
2035:.\Generated_Source\PSoC4/CapSense.c **** 		CapSense_compensationIDAC[sensor] = (uint8)compIdacValue;
 1856              		.loc 1 2035 0
 1857 0000 014B     		ldr	r3, .L132
 1858 0002 1954     		strb	r1, [r3, r0]
2036:.\Generated_Source\PSoC4/CapSense.c **** 	}
 1859              		.loc 1 2036 0
 1860              		@ sp needed
 1861 0004 7047     		bx	lr
 1862              	.L133:
 1863 0006 C046     		.align	2
 1864              	.L132:
 1865 0008 00000000 		.word	CapSense_compensationIDAC
 1866              		.cfi_endproc
 1867              	.LFE69:
 1868              		.size	CapSense_SetCompensationIDAC, .-CapSense_SetCompensationIDAC
 1869              		.section	.text.CapSense_GetIDACRange,"ax",%progbits
 1870              		.align	2
ARM GAS  C:\Users\Luci\AppData\Local\Temp\cc2LetiO.s 			page 72


 1871              		.global	CapSense_GetIDACRange
 1872              		.code	16
 1873              		.thumb_func
 1874              		.type	CapSense_GetIDACRange, %function
 1875              	CapSense_GetIDACRange:
 1876              	.LFB70:
2037:.\Generated_Source\PSoC4/CapSense.c **** #endif /* ((CapSense_TUNING_METHOD != CapSense__TUNING_NONE) && (CapSense_IDAC_CNT > 1u)) */
2038:.\Generated_Source\PSoC4/CapSense.c **** 
2039:.\Generated_Source\PSoC4/CapSense.c **** /*******************************************************************************
2040:.\Generated_Source\PSoC4/CapSense.c **** * Function Name: CapSense_GetIDACRange
2041:.\Generated_Source\PSoC4/CapSense.c **** ********************************************************************************
2042:.\Generated_Source\PSoC4/CapSense.c **** *
2043:.\Generated_Source\PSoC4/CapSense.c **** * Summary:
2044:.\Generated_Source\PSoC4/CapSense.c **** *  This API returns a value that indicates the IDAC range used by the 
2045:.\Generated_Source\PSoC4/CapSense.c **** *  component to scan sensors. The IDAC range is common for all the sensors.
2046:.\Generated_Source\PSoC4/CapSense.c **** *
2047:.\Generated_Source\PSoC4/CapSense.c **** * Parameters:
2048:.\Generated_Source\PSoC4/CapSense.c **** *  None
2049:.\Generated_Source\PSoC4/CapSense.c **** *
2050:.\Generated_Source\PSoC4/CapSense.c **** * Return:
2051:.\Generated_Source\PSoC4/CapSense.c **** *  This API Returns a value that indicates the IDAC range:
2052:.\Generated_Source\PSoC4/CapSense.c **** *      0 - IDAC range set to 4x
2053:.\Generated_Source\PSoC4/CapSense.c **** *      1 - IDAC range set to 8x
2054:.\Generated_Source\PSoC4/CapSense.c **** *
2055:.\Generated_Source\PSoC4/CapSense.c **** * Global Variables:
2056:.\Generated_Source\PSoC4/CapSense.c **** *  None
2057:.\Generated_Source\PSoC4/CapSense.c **** * 
2058:.\Generated_Source\PSoC4/CapSense.c **** * Side Effects:
2059:.\Generated_Source\PSoC4/CapSense.c **** *  None
2060:.\Generated_Source\PSoC4/CapSense.c **** *
2061:.\Generated_Source\PSoC4/CapSense.c **** *******************************************************************************/
2062:.\Generated_Source\PSoC4/CapSense.c **** uint32 CapSense_GetIDACRange(void)
2063:.\Generated_Source\PSoC4/CapSense.c **** {
 1877              		.loc 1 2063 0
 1878              		.cfi_startproc
2064:.\Generated_Source\PSoC4/CapSense.c **** 	return((0u != (CapSense_CSD_IDAC_REG & CapSense_CSD_IDAC1_RANGE_8X)) ? 1uL : 0uL);
 1879              		.loc 1 2064 0
 1880 0000 034B     		ldr	r3, .L137
 1881 0002 1B68     		ldr	r3, [r3]
 1882 0004 5A05     		lsl	r2, r3, #21
 1883 0006 01D5     		bpl	.L136
 1884 0008 0120     		mov	r0, #1
 1885 000a 00E0     		b	.L135
 1886              	.L136:
 1887 000c 0020     		mov	r0, #0
 1888              	.L135:
2065:.\Generated_Source\PSoC4/CapSense.c **** }
 1889              		.loc 1 2065 0 discriminator 3
 1890              		@ sp needed
 1891 000e 7047     		bx	lr
 1892              	.L138:
 1893              		.align	2
 1894              	.L137:
 1895 0010 08002840 		.word	1076363272
 1896              		.cfi_endproc
 1897              	.LFE70:
 1898              		.size	CapSense_GetIDACRange, .-CapSense_GetIDACRange
ARM GAS  C:\Users\Luci\AppData\Local\Temp\cc2LetiO.s 			page 73


 1899              		.section	.text.CapSense_SetIDACRange,"ax",%progbits
 1900              		.align	2
 1901              		.global	CapSense_SetIDACRange
 1902              		.code	16
 1903              		.thumb_func
 1904              		.type	CapSense_SetIDACRange, %function
 1905              	CapSense_SetIDACRange:
 1906              	.LFB71:
2066:.\Generated_Source\PSoC4/CapSense.c **** 
2067:.\Generated_Source\PSoC4/CapSense.c **** #if (CapSense_TUNING_METHOD != CapSense__TUNING_NONE)
2068:.\Generated_Source\PSoC4/CapSense.c **** 	/*******************************************************************************
2069:.\Generated_Source\PSoC4/CapSense.c **** 	* Function Name: CapSense_SetIDACRange
2070:.\Generated_Source\PSoC4/CapSense.c **** 	********************************************************************************
2071:.\Generated_Source\PSoC4/CapSense.c **** 	*
2072:.\Generated_Source\PSoC4/CapSense.c **** 	* Summary:
2073:.\Generated_Source\PSoC4/CapSense.c **** 	*  This API sets the IDAC range to the 4x (1.2uA/bit) or 8x (2.4uA/bit) mode.
2074:.\Generated_Source\PSoC4/CapSense.c ****     *  The IDAC range is common for all the sensors and common for the modulation and 
2075:.\Generated_Source\PSoC4/CapSense.c **** 	*  compensation IDACs.
2076:.\Generated_Source\PSoC4/CapSense.c **** 	*
2077:.\Generated_Source\PSoC4/CapSense.c **** 	* Parameters:
2078:.\Generated_Source\PSoC4/CapSense.c **** 	*  iDacRange:  represents value for IDAC range 
2079:.\Generated_Source\PSoC4/CapSense.c **** 	*  0 -  IDAC range set to 4x (1.2uA/bit)
