ARM GAS  C:\Users\Luci\AppData\Local\Temp\ccddysmu.s 			page 1


   1              		.cpu cortex-m0
   2              		.fpu softvfp
   3              		.eabi_attribute 20, 1
   4              		.eabi_attribute 21, 1
   5              		.eabi_attribute 23, 3
   6              		.eabi_attribute 24, 1
   7              		.eabi_attribute 25, 1
   8              		.eabi_attribute 26, 1
   9              		.eabi_attribute 30, 1
  10              		.eabi_attribute 34, 0
  11              		.eabi_attribute 18, 4
  12              		.code	16
  13              		.file	"CapSense_SMS.c"
  14              		.text
  15              	.Ltext0:
  16              		.cfi_sections	.debug_frame
  17              		.section	.text.CapSense_UpdateThresholds,"ax",%progbits
  18              		.align	2
  19              		.global	CapSense_UpdateThresholds
  20              		.code	16
  21              		.thumb_func
  22              		.type	CapSense_UpdateThresholds, %function
  23              	CapSense_UpdateThresholds:
  24              	.LFB36:
  25              		.file 1 ".\\Generated_Source\\PSoC4\\CapSense_SMS.c"
   1:.\Generated_Source\PSoC4/CapSense_SMS.c **** /*******************************************************************************
   2:.\Generated_Source\PSoC4/CapSense_SMS.c **** * File Name: CapSense_SMS.c
   3:.\Generated_Source\PSoC4/CapSense_SMS.c **** * Version 2.20
   4:.\Generated_Source\PSoC4/CapSense_SMS.c **** *
   5:.\Generated_Source\PSoC4/CapSense_SMS.c **** * Description:
   6:.\Generated_Source\PSoC4/CapSense_SMS.c **** *  This file provides the source code of wrapper between CapSense CSD component 
   7:.\Generated_Source\PSoC4/CapSense_SMS.c **** *  and Auto Tuning library.
   8:.\Generated_Source\PSoC4/CapSense_SMS.c **** *
   9:.\Generated_Source\PSoC4/CapSense_SMS.c **** * Note:
  10:.\Generated_Source\PSoC4/CapSense_SMS.c **** *
  11:.\Generated_Source\PSoC4/CapSense_SMS.c **** ********************************************************************************
  12:.\Generated_Source\PSoC4/CapSense_SMS.c **** * Copyright 2014, Cypress Semiconductor Corporation.  All rights reserved.
  13:.\Generated_Source\PSoC4/CapSense_SMS.c **** * You may use this file only in accordance with the license, terms, conditions,
  14:.\Generated_Source\PSoC4/CapSense_SMS.c **** * disclaimers, and limitations in the end user license agreement accompanying
  15:.\Generated_Source\PSoC4/CapSense_SMS.c **** * the software package with which this file was provided.
  16:.\Generated_Source\PSoC4/CapSense_SMS.c **** *******************************************************************************/
  17:.\Generated_Source\PSoC4/CapSense_SMS.c **** 
  18:.\Generated_Source\PSoC4/CapSense_SMS.c **** #include "CapSense_SMS.h"
  19:.\Generated_Source\PSoC4/CapSense_SMS.c **** #include "CapSense_PVT.h"
  20:.\Generated_Source\PSoC4/CapSense_SMS.c **** 
  21:.\Generated_Source\PSoC4/CapSense_SMS.c **** #include "cytypes.h"
  22:.\Generated_Source\PSoC4/CapSense_SMS.c **** 
  23:.\Generated_Source\PSoC4/CapSense_SMS.c **** #if (CapSense_TUNING_METHOD == CapSense__TUNING_AUTO)
  24:.\Generated_Source\PSoC4/CapSense_SMS.c **** 
  25:.\Generated_Source\PSoC4/CapSense_SMS.c **** 
  26:.\Generated_Source\PSoC4/CapSense_SMS.c **** /*  Real Charge Divider values */
  27:.\Generated_Source\PSoC4/CapSense_SMS.c **** #if (CY_PSOC4_4100BL || CY_PSOC4_4200BL || CY_PSOC4_4100M || CY_PSOC4_4200M)
  28:.\Generated_Source\PSoC4/CapSense_SMS.c ****     /*  Dividers are not chained */
  29:.\Generated_Source\PSoC4/CapSense_SMS.c **** 	#if (CYDEV_BCLK__HFCLK__MHZ > 24u)
  30:.\Generated_Source\PSoC4/CapSense_SMS.c **** 		const uint8 prescalerTable[CapSense_PRESCALERS_TBL_SIZE] = {
  31:.\Generated_Source\PSoC4/CapSense_SMS.c **** 			4u,     4u,     4u,    8u,    8u,    8u,    8u,    16u,    16u,    16u,    16u,    16u,    16u, 
  32:.\Generated_Source\PSoC4/CapSense_SMS.c **** 		};
ARM GAS  C:\Users\Luci\AppData\Local\Temp\ccddysmu.s 			page 2


  33:.\Generated_Source\PSoC4/CapSense_SMS.c **** 	#elif (CYDEV_BCLK__HFCLK__MHZ >12u)
  34:.\Generated_Source\PSoC4/CapSense_SMS.c **** 		const uint8 prescalerTable[CapSense_PRESCALERS_TBL_SIZE] = {
  35:.\Generated_Source\PSoC4/CapSense_SMS.c **** 			2u,     2u,     2u,    4u,    4u,    4u,    4u,    8u,    8u,    8u,    8u,    8u,    8u,    8u,
  36:.\Generated_Source\PSoC4/CapSense_SMS.c **** 		};
  37:.\Generated_Source\PSoC4/CapSense_SMS.c **** 	#else   /* (CYDEV_BCLK__HFCLK__MHZ > 12u) */
  38:.\Generated_Source\PSoC4/CapSense_SMS.c **** 		const uint8 prescalerTable[CapSense_PRESCALERS_TBL_SIZE] = {
  39:.\Generated_Source\PSoC4/CapSense_SMS.c **** 			1u,     1u,     1u,    2u,    2u,    2u,    2u,    4u,    4u,    4u,    4u,    4u,    4u,    4u,
  40:.\Generated_Source\PSoC4/CapSense_SMS.c **** 		};
  41:.\Generated_Source\PSoC4/CapSense_SMS.c **** 	#endif /* (CYDEV_BCLK__HFCLK__MHZ > 24u) */
  42:.\Generated_Source\PSoC4/CapSense_SMS.c **** 	
  43:.\Generated_Source\PSoC4/CapSense_SMS.c **** #elif (0u != CapSense_IS_M0S8PERI_BLOCK)
  44:.\Generated_Source\PSoC4/CapSense_SMS.c ****     /*  Dividers are not chained (PSoC 4000) */
  45:.\Generated_Source\PSoC4/CapSense_SMS.c **** 	#if (CYDEV_BCLK__HFCLK__MHZ >= 12u)
  46:.\Generated_Source\PSoC4/CapSense_SMS.c **** 		const uint8 prescalerTable[CapSense_PRESCALERS_TBL_SIZE] = {
  47:.\Generated_Source\PSoC4/CapSense_SMS.c **** 			1u,     1u,     1u,    2u,    2u,    2u,    2u,    4u,    4u,    4u,    4u,    4u,    4u,    4u,
  48:.\Generated_Source\PSoC4/CapSense_SMS.c **** 		};
  49:.\Generated_Source\PSoC4/CapSense_SMS.c **** 
  50:.\Generated_Source\PSoC4/CapSense_SMS.c **** 	#elif (CYDEV_BCLK__HFCLK__MHZ >= 6u)
  51:.\Generated_Source\PSoC4/CapSense_SMS.c **** 		const uint8 prescalerTable[CapSense_PRESCALERS_TBL_SIZE] = {
  52:.\Generated_Source\PSoC4/CapSense_SMS.c **** 			1u,     1u,     1u,    1u,    1u,    1u,    1u,    2u,    2u,    2u,    2u,    2u,    2u,    2u,
  53:.\Generated_Source\PSoC4/CapSense_SMS.c **** 		};
  54:.\Generated_Source\PSoC4/CapSense_SMS.c **** 	#else
  55:.\Generated_Source\PSoC4/CapSense_SMS.c **** 		const uint8 prescalerTable[CapSense_PRESCALERS_TBL_SIZE] = {
  56:.\Generated_Source\PSoC4/CapSense_SMS.c **** 			1u,     1u,     1u,    1u,    1u,    1u,    1u,    1u,    1u,    1u,    1u,    1u,    1u,    1u,
  57:.\Generated_Source\PSoC4/CapSense_SMS.c **** 		};
  58:.\Generated_Source\PSoC4/CapSense_SMS.c **** 	#endif /* (CYDEV_BCLK__HFCLK__MHZ > 12u) */
  59:.\Generated_Source\PSoC4/CapSense_SMS.c **** 
  60:.\Generated_Source\PSoC4/CapSense_SMS.c **** #else
  61:.\Generated_Source\PSoC4/CapSense_SMS.c ****     /*  Dividers are chained (PSoC 4100, PSoC 4200) */ 
  62:.\Generated_Source\PSoC4/CapSense_SMS.c **** 	#if (CYDEV_BCLK__HFCLK__MHZ > 24u)
  63:.\Generated_Source\PSoC4/CapSense_SMS.c **** 		const uint8 prescalerTable[CapSense_PRESCALERS_TBL_SIZE] = {
  64:.\Generated_Source\PSoC4/CapSense_SMS.c **** 			2u,     2u,     2u,    4u,    4u,    4u,    4u,    8u,    8u,    8u,    8u,    8u,    8u,    8u,
  65:.\Generated_Source\PSoC4/CapSense_SMS.c **** 		};
  66:.\Generated_Source\PSoC4/CapSense_SMS.c **** 
  67:.\Generated_Source\PSoC4/CapSense_SMS.c **** 	#elif (CYDEV_BCLK__HFCLK__MHZ >12u)
  68:.\Generated_Source\PSoC4/CapSense_SMS.c **** 		const uint8 prescalerTable[CapSense_PRESCALERS_TBL_SIZE] = {
  69:.\Generated_Source\PSoC4/CapSense_SMS.c **** 			1u,     1u,     1u,    2u,    2u,    2u,    2u,    4u,    4u,    4u,    4u,    4u,    4u,    4u,
  70:.\Generated_Source\PSoC4/CapSense_SMS.c **** 		};
  71:.\Generated_Source\PSoC4/CapSense_SMS.c **** 	#else   /* (CYDEV_BCLK__HFCLK__MHZ > 12u) */
  72:.\Generated_Source\PSoC4/CapSense_SMS.c **** 		const uint8 prescalerTable[CapSense_PRESCALERS_TBL_SIZE] = {
  73:.\Generated_Source\PSoC4/CapSense_SMS.c **** 			1u,     1u,     1u,    1u,    1u,    1u,    1u,    2u,    2u,    2u,    2u,    2u,    2u,    2u,
  74:.\Generated_Source\PSoC4/CapSense_SMS.c **** 		};
  75:.\Generated_Source\PSoC4/CapSense_SMS.c **** 	#endif /* (CYDEV_BCLK__HFCLK__MHZ > 24u) */
  76:.\Generated_Source\PSoC4/CapSense_SMS.c **** #endif /* (CY_PSOC4_4100BL || CY_PSOC4_4200BL || CY_PSOC4_4100M || CY_PSOC4_4200M) */
  77:.\Generated_Source\PSoC4/CapSense_SMS.c **** 
  78:.\Generated_Source\PSoC4/CapSense_SMS.c **** 
  79:.\Generated_Source\PSoC4/CapSense_SMS.c **** uint8 noiseEnvelopeTbl[CapSense_TOTAL_SENSOR_COUNT];
  80:.\Generated_Source\PSoC4/CapSense_SMS.c **** uint8 runningDifferenceTbl[CapSense_TOTAL_SENSOR_COUNT];
  81:.\Generated_Source\PSoC4/CapSense_SMS.c **** uint8 signRegisterTbl[CapSense_TOTAL_SENSOR_COUNT];
  82:.\Generated_Source\PSoC4/CapSense_SMS.c **** uint16 sampleMinTbl[CapSense_TOTAL_SENSOR_COUNT];
  83:.\Generated_Source\PSoC4/CapSense_SMS.c **** uint16 sampleMaxTbl[CapSense_TOTAL_SENSOR_COUNT];
  84:.\Generated_Source\PSoC4/CapSense_SMS.c **** uint16 previousSampleTbl[CapSense_TOTAL_SENSOR_COUNT];
  85:.\Generated_Source\PSoC4/CapSense_SMS.c **** uint8 kValueTbl[CapSense_TOTAL_SENSOR_COUNT];
  86:.\Generated_Source\PSoC4/CapSense_SMS.c **** 
  87:.\Generated_Source\PSoC4/CapSense_SMS.c **** uint8 SMS_LIB_SensorSensitivity[] = {
  88:.\Generated_Source\PSoC4/CapSense_SMS.c ****     2u, 2u, 
  89:.\Generated_Source\PSoC4/CapSense_SMS.c **** };
ARM GAS  C:\Users\Luci\AppData\Local\Temp\ccddysmu.s 			page 3


  90:.\Generated_Source\PSoC4/CapSense_SMS.c **** 
  91:.\Generated_Source\PSoC4/CapSense_SMS.c **** CapSense_CONFIG_TYPE_P4_v2_20 CapSense_config;
  92:.\Generated_Source\PSoC4/CapSense_SMS.c **** CapSense_CONFIG_TYPE_POINTERS_P4_v2_20 const CapSense_configPointers = {
  93:.\Generated_Source\PSoC4/CapSense_SMS.c ****     CapSense_modulationIDAC,
  94:.\Generated_Source\PSoC4/CapSense_SMS.c ****     CapSense_compensationIDAC,
  95:.\Generated_Source\PSoC4/CapSense_SMS.c ****      SMS_LIB_SensorSensitivity,
  96:.\Generated_Source\PSoC4/CapSense_SMS.c ****     CapSense_senseClkDividerVal,
  97:.\Generated_Source\PSoC4/CapSense_SMS.c ****     CapSense_sampleClkDividerVal,
  98:.\Generated_Source\PSoC4/CapSense_SMS.c ****     CapSense_widgetNumber,
  99:.\Generated_Source\PSoC4/CapSense_SMS.c ****     CapSense_widgetResolution,
 100:.\Generated_Source\PSoC4/CapSense_SMS.c **** 	(const uint8  *)CapSense_rawDataIndex,
 101:.\Generated_Source\PSoC4/CapSense_SMS.c **** 	(const uint8  *)CapSense_numberOfSensors,
 102:.\Generated_Source\PSoC4/CapSense_SMS.c ****     &CapSense_GetSensorRaw,
 103:.\Generated_Source\PSoC4/CapSense_SMS.c ****     &CapSense_PreScan,
 104:.\Generated_Source\PSoC4/CapSense_SMS.c ****     &CapSense_ReadSensorRaw,
 105:.\Generated_Source\PSoC4/CapSense_SMS.c ****     &CapSense_GetBitValue,
 106:.\Generated_Source\PSoC4/CapSense_SMS.c **** 	&CapSense_SetBitValue
 107:.\Generated_Source\PSoC4/CapSense_SMS.c **** };
 108:.\Generated_Source\PSoC4/CapSense_SMS.c **** 
 109:.\Generated_Source\PSoC4/CapSense_SMS.c **** 
 110:.\Generated_Source\PSoC4/CapSense_SMS.c **** /*******************************************************************************
 111:.\Generated_Source\PSoC4/CapSense_SMS.c **** * Function Name: CapSense_AutoTune
 112:.\Generated_Source\PSoC4/CapSense_SMS.c **** ********************************************************************************
 113:.\Generated_Source\PSoC4/CapSense_SMS.c **** *
 114:.\Generated_Source\PSoC4/CapSense_SMS.c **** * Summary:
 115:.\Generated_Source\PSoC4/CapSense_SMS.c **** *  Provides the tuning procedure for all sensors.
 116:.\Generated_Source\PSoC4/CapSense_SMS.c **** *
 117:.\Generated_Source\PSoC4/CapSense_SMS.c **** * Parameters:
 118:.\Generated_Source\PSoC4/CapSense_SMS.c **** *  None
 119:.\Generated_Source\PSoC4/CapSense_SMS.c **** *
 120:.\Generated_Source\PSoC4/CapSense_SMS.c **** * Return:
 121:.\Generated_Source\PSoC4/CapSense_SMS.c **** *  None
 122:.\Generated_Source\PSoC4/CapSense_SMS.c **** *
 123:.\Generated_Source\PSoC4/CapSense_SMS.c **** * Global Variables:
 124:.\Generated_Source\PSoC4/CapSense_SMS.c **** *   CapSense_config: the structure which contains configuration parameters
 125:.\Generated_Source\PSoC4/CapSense_SMS.c **** *   CapSense_senseClkDividerVal[]: used to store the Analog Switch 
 126:.\Generated_Source\PSoC4/CapSense_SMS.c **** *   dividers for each sensor.
 127:.\Generated_Source\PSoC4/CapSense_SMS.c **** *   CapSense_senseClkDividerVal[]: used to store the 
 128:.\Generated_Source\PSoC4/CapSense_SMS.c **** *    Analog Switch divider for all sensors.
 129:.\Generated_Source\PSoC4/CapSense_SMS.c **** *   CapSense_prescalersTuningDone - used to notify the Tuner GUI that 
 130:.\Generated_Source\PSoC4/CapSense_SMS.c **** *   the pre-scalers tuning  is done.
 131:.\Generated_Source\PSoC4/CapSense_SMS.c **** *
 132:.\Generated_Source\PSoC4/CapSense_SMS.c **** * Side Effects:
 133:.\Generated_Source\PSoC4/CapSense_SMS.c **** *  None
 134:.\Generated_Source\PSoC4/CapSense_SMS.c **** *
 135:.\Generated_Source\PSoC4/CapSense_SMS.c **** *******************************************************************************/
 136:.\Generated_Source\PSoC4/CapSense_SMS.c **** void CapSense_AutoTune(void)
 137:.\Generated_Source\PSoC4/CapSense_SMS.c **** {
 138:.\Generated_Source\PSoC4/CapSense_SMS.c **** 	uint32 curSensor;
 139:.\Generated_Source\PSoC4/CapSense_SMS.c ****     uint32 widget;
 140:.\Generated_Source\PSoC4/CapSense_SMS.c **** 
 141:.\Generated_Source\PSoC4/CapSense_SMS.c **** 	CapSense_config.totalScanslotsNum = CapSense_TOTAL_SCANSLOT_COUNT;
 142:.\Generated_Source\PSoC4/CapSense_SMS.c **** 	CapSense_config.totalWidgetsNum = CapSense_END_OF_WIDGETS_INDEX;
 143:.\Generated_Source\PSoC4/CapSense_SMS.c **** 	CapSense_config.totalSensorsNum = CapSense_TOTAL_SENSOR_COUNT;
 144:.\Generated_Source\PSoC4/CapSense_SMS.c **** 	
 145:.\Generated_Source\PSoC4/CapSense_SMS.c **** 	CapSense_config.hfclkFreq_MHz = CYDEV_BCLK__HFCLK__MHZ;
 146:.\Generated_Source\PSoC4/CapSense_SMS.c **** 	CapSense_config.sensetivitySeed = CapSense_SENSETIVITY_FACTOR;
ARM GAS  C:\Users\Luci\AppData\Local\Temp\ccddysmu.s 			page 4


 147:.\Generated_Source\PSoC4/CapSense_SMS.c **** 	
 148:.\Generated_Source\PSoC4/CapSense_SMS.c ****     CapSense_config.pointers = &CapSense_configPointers;       
 149:.\Generated_Source\PSoC4/CapSense_SMS.c ****     
 150:.\Generated_Source\PSoC4/CapSense_SMS.c **** 	CapSense_SetAnalogSwitchesSrcDirect();
 151:.\Generated_Source\PSoC4/CapSense_SMS.c ****     
 152:.\Generated_Source\PSoC4/CapSense_SMS.c ****     for(widget = 0u; widget < CapSense_config.totalWidgetsNum; widget++)
 153:.\Generated_Source\PSoC4/CapSense_SMS.c ****     {
 154:.\Generated_Source\PSoC4/CapSense_SMS.c ****         CapSense_widgetResolution[widget] = CapSense_CALIBRATION_RESOLUTION;
 155:.\Generated_Source\PSoC4/CapSense_SMS.c ****     }
 156:.\Generated_Source\PSoC4/CapSense_SMS.c **** 	
 157:.\Generated_Source\PSoC4/CapSense_SMS.c **** 
 158:.\Generated_Source\PSoC4/CapSense_SMS.c **** 	for(curSensor = 0u; curSensor < CapSense_TOTAL_SCANSLOT_COUNT; curSensor++)
 159:.\Generated_Source\PSoC4/CapSense_SMS.c ****     {
 160:.\Generated_Source\PSoC4/CapSense_SMS.c **** 		CapSense_senseClkDividerVal[curSensor] = CapSense_CALIBRATION_ASD;
 161:.\Generated_Source\PSoC4/CapSense_SMS.c **** 		CapSense_sampleClkDividerVal[curSensor] = CapSense_CALIBRATION_MD;
 162:.\Generated_Source\PSoC4/CapSense_SMS.c **** 	}
 163:.\Generated_Source\PSoC4/CapSense_SMS.c ****     
 164:.\Generated_Source\PSoC4/CapSense_SMS.c ****     CapSense_DisableBaselineIDAC();
 165:.\Generated_Source\PSoC4/CapSense_SMS.c **** 
 166:.\Generated_Source\PSoC4/CapSense_SMS.c ****     CalibrateSensors_P4_v2_20(&CapSense_config, CapSense_CAL_RAW_COUNT);
 167:.\Generated_Source\PSoC4/CapSense_SMS.c **** 
 168:.\Generated_Source\PSoC4/CapSense_SMS.c **** 	#if(0u != CapSense_TOTAL_CENTROIDS_COUNT) 
 169:.\Generated_Source\PSoC4/CapSense_SMS.c **** 		CapSense_NormalizeWidgets(CapSense_END_OF_WIDGETS_INDEX, CapSense_modulationIDAC);
 170:.\Generated_Source\PSoC4/CapSense_SMS.c **** 	#endif /* (0u != CapSense_TOTAL_CENTROIDS_COUNT)  */
 171:.\Generated_Source\PSoC4/CapSense_SMS.c **** 	
 172:.\Generated_Source\PSoC4/CapSense_SMS.c ****     TunePrescalers_P4_v2_20(&CapSense_config);
 173:.\Generated_Source\PSoC4/CapSense_SMS.c **** 	
 174:.\Generated_Source\PSoC4/CapSense_SMS.c **** 	#if(CapSense_PRS_OPTIONS != CapSense__PRS_NONE)
 175:.\Generated_Source\PSoC4/CapSense_SMS.c **** 		CapSense_prescalersTuningDone = 1u;
 176:.\Generated_Source\PSoC4/CapSense_SMS.c **** 	#endif /* (CapSense_PRS_OPTIONS == CapSense__PRS_NONE) */
 177:.\Generated_Source\PSoC4/CapSense_SMS.c ****        
 178:.\Generated_Source\PSoC4/CapSense_SMS.c ****     CalibrateSensors_P4_v2_20(&CapSense_config, CapSense_CAL_RAW_COUNT);
 179:.\Generated_Source\PSoC4/CapSense_SMS.c **** 	#if(0u != CapSense_TOTAL_CENTROIDS_COUNT)
 180:.\Generated_Source\PSoC4/CapSense_SMS.c **** 		CapSense_NormalizeWidgets(CapSense_END_OF_WIDGETS_INDEX, CapSense_modulationIDAC);
 181:.\Generated_Source\PSoC4/CapSense_SMS.c **** 	#endif /* (0u != CapSense_TOTAL_CENTROIDS_COUNT)  */
 182:.\Generated_Source\PSoC4/CapSense_SMS.c ****     TuneSensitivity_P4_v2_20(&CapSense_config);
 183:.\Generated_Source\PSoC4/CapSense_SMS.c **** 	
 184:.\Generated_Source\PSoC4/CapSense_SMS.c **** 	CapSense_EnableBaselineIDAC(&CapSense_config);
 185:.\Generated_Source\PSoC4/CapSense_SMS.c ****     
 186:.\Generated_Source\PSoC4/CapSense_SMS.c ****     for(curSensor = 0u; curSensor < CapSense_TOTAL_SCANSLOT_COUNT; curSensor++)
 187:.\Generated_Source\PSoC4/CapSense_SMS.c ****     {
 188:.\Generated_Source\PSoC4/CapSense_SMS.c ****         CapSense_UpdateThresholds(curSensor);
 189:.\Generated_Source\PSoC4/CapSense_SMS.c ****     }
 190:.\Generated_Source\PSoC4/CapSense_SMS.c **** }
 191:.\Generated_Source\PSoC4/CapSense_SMS.c **** 
 192:.\Generated_Source\PSoC4/CapSense_SMS.c **** 
 193:.\Generated_Source\PSoC4/CapSense_SMS.c **** /*******************************************************************************
 194:.\Generated_Source\PSoC4/CapSense_SMS.c **** * Function Name: CapSense_UpdateThresholds
 195:.\Generated_Source\PSoC4/CapSense_SMS.c **** ********************************************************************************
 196:.\Generated_Source\PSoC4/CapSense_SMS.c **** *
 197:.\Generated_Source\PSoC4/CapSense_SMS.c **** * Summary:
 198:.\Generated_Source\PSoC4/CapSense_SMS.c **** *  The API updates the Finger Threshold, Hysteresis, Noise Threshold, and 
 199:.\Generated_Source\PSoC4/CapSense_SMS.c **** *  Negative Noise Threshold in the AutoTuning (Smartsense) Mode.
 200:.\Generated_Source\PSoC4/CapSense_SMS.c **** *
 201:.\Generated_Source\PSoC4/CapSense_SMS.c **** * Parameters:
 202:.\Generated_Source\PSoC4/CapSense_SMS.c **** *  sensor: sensor number.
 203:.\Generated_Source\PSoC4/CapSense_SMS.c **** *
ARM GAS  C:\Users\Luci\AppData\Local\Temp\ccddysmu.s 			page 5


 204:.\Generated_Source\PSoC4/CapSense_SMS.c **** * Return:
 205:.\Generated_Source\PSoC4/CapSense_SMS.c **** *  None
 206:.\Generated_Source\PSoC4/CapSense_SMS.c **** *
 207:.\Generated_Source\PSoC4/CapSense_SMS.c **** * Global Variables:
 208:.\Generated_Source\PSoC4/CapSense_SMS.c **** *  CapSense_widgetNumber[] - contains widget Number for given sensor.
 209:.\Generated_Source\PSoC4/CapSense_SMS.c **** *  0 through 7 (sensor 0 is bit 0, sensor 1 is bit 1).
 210:.\Generated_Source\PSoC4/CapSense_SMS.c **** *  For other sensors the array element equals to 255. 
 211:.\Generated_Source\PSoC4/CapSense_SMS.c **** *  CapSense_numberOfSensors[widget] - Number of sensors in the widget.
 212:.\Generated_Source\PSoC4/CapSense_SMS.c **** *   CapSense_fingerThreshold[] - contains the level of signal for each sensor
 213:.\Generated_Source\PSoC4/CapSense_SMS.c **** *   that determines if a finger present on the sensor.
 214:.\Generated_Source\PSoC4/CapSense_SMS.c **** *   CapSense_negativeNoiseThreshold[] - negative Noise Threshold
 215:.\Generated_Source\PSoC4/CapSense_SMS.c **** *   CapSense_hysteresis[] - the array with hysteresis values.
 216:.\Generated_Source\PSoC4/CapSense_SMS.c **** *
 217:.\Generated_Source\PSoC4/CapSense_SMS.c **** * Side Effects:
 218:.\Generated_Source\PSoC4/CapSense_SMS.c **** *  None
 219:.\Generated_Source\PSoC4/CapSense_SMS.c **** *
 220:.\Generated_Source\PSoC4/CapSense_SMS.c **** *******************************************************************************/
 221:.\Generated_Source\PSoC4/CapSense_SMS.c **** void CapSense_UpdateThresholds(uint32 sensor)
 222:.\Generated_Source\PSoC4/CapSense_SMS.c **** {
  26              		.loc 1 222 0
  27              		.cfi_startproc
  28              	.LVL0:
  29 0000 70B5     		push	{r4, r5, r6, lr}
  30              		.cfi_def_cfa_offset 16
  31              		.cfi_offset 4, -16
  32              		.cfi_offset 5, -12
  33              		.cfi_offset 6, -8
  34              		.cfi_offset 14, -4
  35 0002 82B0     		sub	sp, sp, #8
  36              		.cfi_def_cfa_offset 24
 223:.\Generated_Source\PSoC4/CapSense_SMS.c **** 	uint8 fingerThreshold;
 224:.\Generated_Source\PSoC4/CapSense_SMS.c **** 	uint32 widget;
 225:.\Generated_Source\PSoC4/CapSense_SMS.c **** 	
 226:.\Generated_Source\PSoC4/CapSense_SMS.c **** 	widget = CapSense_widgetNumber[sensor];
  37              		.loc 1 226 0
  38 0004 164B     		ldr	r3, .L7
  39 0006 1C5C     		ldrb	r4, [r3, r0]
  40              	.LVL1:
 227:.\Generated_Source\PSoC4/CapSense_SMS.c **** 
 228:.\Generated_Source\PSoC4/CapSense_SMS.c **** 	#if(0u != CapSense_FLEXIBLE_THRESHOLDS_EN)
 229:.\Generated_Source\PSoC4/CapSense_SMS.c **** 	    fingerThreshold = CapSense_fingerThreshold[widget];
 230:.\Generated_Source\PSoC4/CapSense_SMS.c ****         /* Update Threshold manually (flexible) */   
 231:.\Generated_Source\PSoC4/CapSense_SMS.c **** 		CapSense_noiseThreshold[widget] = (uint8)(fingerThreshold >> 1u);
 232:.\Generated_Source\PSoC4/CapSense_SMS.c **** 		CapSense_negativeNoiseThreshold[widget] = (uint8)(fingerThreshold >> 1u);
 233:.\Generated_Source\PSoC4/CapSense_SMS.c **** 		CapSense_hysteresis[widget] = (uint8)(fingerThreshold >> 3u);
 234:.\Generated_Source\PSoC4/CapSense_SMS.c **** 	#else
 235:.\Generated_Source\PSoC4/CapSense_SMS.c **** 		/* Calculate Finger Threshold and Noise Threshold with Smartsense (automatic) */ 	
 236:.\Generated_Source\PSoC4/CapSense_SMS.c **** 		CalculateThresholds_P4_v2_20(&CapSense_config, (uint8)sensor, CapSense_sensorRaw, (uint8)widget, 
  41              		.loc 1 236 0
  42 0008 C1B2     		uxtb	r1, r0
  43 000a 164E     		ldr	r6, .L7+4
  44 000c 0096     		str	r6, [sp]
  45 000e 164D     		ldr	r5, .L7+8
  46 0010 0195     		str	r5, [sp, #4]
  47 0012 1648     		ldr	r0, .L7+12
  48              	.LVL2:
  49 0014 164A     		ldr	r2, .L7+16
ARM GAS  C:\Users\Luci\AppData\Local\Temp\ccddysmu.s 			page 6


  50 0016 231C     		mov	r3, r4
  51 0018 FFF7FEFF 		bl	CalculateThresholds_P4_v2_20
  52              	.LVL3:
 237:.\Generated_Source\PSoC4/CapSense_SMS.c **** 		
 238:.\Generated_Source\PSoC4/CapSense_SMS.c **** 	    fingerThreshold = CapSense_fingerThreshold[widget];
  53              		.loc 1 238 0
  54 001c 335D     		ldrb	r3, [r6, r4]
  55              	.LVL4:
 239:.\Generated_Source\PSoC4/CapSense_SMS.c **** 		
 240:.\Generated_Source\PSoC4/CapSense_SMS.c **** 	    /* Update Threshold based on calculated with Smartsense (automatic) */
 241:.\Generated_Source\PSoC4/CapSense_SMS.c **** 		CapSense_negativeNoiseThreshold[widget] = CapSense_noiseThreshold[widget];
  56              		.loc 1 241 0
  57 001e 295D     		ldrb	r1, [r5, r4]
  58 0020 144A     		ldr	r2, .L7+20
  59 0022 1155     		strb	r1, [r2, r4]
 242:.\Generated_Source\PSoC4/CapSense_SMS.c ****         
 243:.\Generated_Source\PSoC4/CapSense_SMS.c **** 		if(fingerThreshold < CapSense_THRESHOLD_1)
  60              		.loc 1 243 0
  61 0024 DB2B     		cmp	r3, #219
  62 0026 03D8     		bhi	.L2
 244:.\Generated_Source\PSoC4/CapSense_SMS.c **** 		{
 245:.\Generated_Source\PSoC4/CapSense_SMS.c **** 			CapSense_hysteresis[widget] = (uint8)(fingerThreshold >> 3u);
  63              		.loc 1 245 0
  64 0028 DB08     		lsr	r3, r3, #3
  65 002a 134A     		ldr	r2, .L7+24
  66 002c 1355     		strb	r3, [r2, r4]
  67 002e 14E0     		b	.L1
  68              	.L2:
 246:.\Generated_Source\PSoC4/CapSense_SMS.c **** 		}
 247:.\Generated_Source\PSoC4/CapSense_SMS.c **** 		else if(fingerThreshold <  CapSense_THRESHOLD_2)
  69              		.loc 1 247 0
  70 0030 EC2B     		cmp	r3, #236
  71 0032 03D8     		bhi	.L4
 248:.\Generated_Source\PSoC4/CapSense_SMS.c **** 		{
 249:.\Generated_Source\PSoC4/CapSense_SMS.c **** 			CapSense_hysteresis[widget] = (uint8)(fingerThreshold >> 4u);
  72              		.loc 1 249 0
  73 0034 1B09     		lsr	r3, r3, #4
  74 0036 104A     		ldr	r2, .L7+24
  75 0038 1355     		strb	r3, [r2, r4]
  76 003a 0EE0     		b	.L1
  77              	.L4:
 250:.\Generated_Source\PSoC4/CapSense_SMS.c **** 		}
 251:.\Generated_Source\PSoC4/CapSense_SMS.c **** 		else if(fingerThreshold <  CapSense_THRESHOLD_3)
  78              		.loc 1 251 0
  79 003c F42B     		cmp	r3, #244
  80 003e 03D8     		bhi	.L5
 252:.\Generated_Source\PSoC4/CapSense_SMS.c **** 		{
 253:.\Generated_Source\PSoC4/CapSense_SMS.c **** 			CapSense_hysteresis[widget] = (uint8)(fingerThreshold >> 5u);
  81              		.loc 1 253 0
  82 0040 5B09     		lsr	r3, r3, #5
  83 0042 0D4A     		ldr	r2, .L7+24
  84 0044 1355     		strb	r3, [r2, r4]
  85 0046 08E0     		b	.L1
  86              	.L5:
 254:.\Generated_Source\PSoC4/CapSense_SMS.c **** 		}
 255:.\Generated_Source\PSoC4/CapSense_SMS.c **** 		else if(fingerThreshold <  CapSense_THRESHOLD_4)
  87              		.loc 1 255 0
ARM GAS  C:\Users\Luci\AppData\Local\Temp\ccddysmu.s 			page 7


  88 0048 F92B     		cmp	r3, #249
  89 004a 03D8     		bhi	.L6
 256:.\Generated_Source\PSoC4/CapSense_SMS.c **** 		{
 257:.\Generated_Source\PSoC4/CapSense_SMS.c **** 			CapSense_hysteresis[widget] = (uint8)(fingerThreshold >> 6u);
  90              		.loc 1 257 0
  91 004c 9B09     		lsr	r3, r3, #6
  92 004e 0A4A     		ldr	r2, .L7+24
  93 0050 1355     		strb	r3, [r2, r4]
  94 0052 02E0     		b	.L1
  95              	.L6:
 258:.\Generated_Source\PSoC4/CapSense_SMS.c **** 		}
 259:.\Generated_Source\PSoC4/CapSense_SMS.c **** 		else
 260:.\Generated_Source\PSoC4/CapSense_SMS.c **** 		{
 261:.\Generated_Source\PSoC4/CapSense_SMS.c **** 			CapSense_hysteresis[widget] = 0u;
  96              		.loc 1 261 0
  97 0054 0022     		mov	r2, #0
  98 0056 084B     		ldr	r3, .L7+24
  99 0058 1A55     		strb	r2, [r3, r4]
 100              	.L1:
 262:.\Generated_Source\PSoC4/CapSense_SMS.c **** 		}
 263:.\Generated_Source\PSoC4/CapSense_SMS.c **** 	#endif /* (0u != CapSense_FLEXIBLE_THRESHOLDS_EN)  */
 264:.\Generated_Source\PSoC4/CapSense_SMS.c **** }
 101              		.loc 1 264 0
 102 005a 02B0     		add	sp, sp, #8
 103              		@ sp needed
 104              	.LVL5:
 105              	.LVL6:
 106 005c 70BD     		pop	{r4, r5, r6, pc}
 107              	.L8:
 108 005e C046     		.align	2
 109              	.L7:
 110 0060 00000000 		.word	CapSense_widgetNumber
 111 0064 00000000 		.word	CapSense_fingerThreshold
 112 0068 00000000 		.word	CapSense_noiseThreshold
 113 006c 00000000 		.word	CapSense_config
 114 0070 00000000 		.word	CapSense_sensorRaw
 115 0074 00000000 		.word	CapSense_negativeNoiseThreshold
 116 0078 00000000 		.word	CapSense_hysteresis
 117              		.cfi_endproc
 118              	.LFE36:
 119              		.size	CapSense_UpdateThresholds, .-CapSense_UpdateThresholds
 120              		.section	.text.CapSense_SetAnalogSwitchesSrcDirect,"ax",%progbits
 121              		.align	2
 122              		.global	CapSense_SetAnalogSwitchesSrcDirect
 123              		.code	16
 124              		.thumb_func
 125              		.type	CapSense_SetAnalogSwitchesSrcDirect, %function
 126              	CapSense_SetAnalogSwitchesSrcDirect:
 127              	.LFB37:
 265:.\Generated_Source\PSoC4/CapSense_SMS.c **** 
 266:.\Generated_Source\PSoC4/CapSense_SMS.c **** /*******************************************************************************
 267:.\Generated_Source\PSoC4/CapSense_SMS.c **** * Function Name: CapSense_SetAnalogSwitchesSrcDirect
 268:.\Generated_Source\PSoC4/CapSense_SMS.c **** ********************************************************************************
 269:.\Generated_Source\PSoC4/CapSense_SMS.c **** *
 270:.\Generated_Source\PSoC4/CapSense_SMS.c **** * Summary:
 271:.\Generated_Source\PSoC4/CapSense_SMS.c **** *  This API switches the charge clock source to prescaler. 
 272:.\Generated_Source\PSoC4/CapSense_SMS.c **** *
ARM GAS  C:\Users\Luci\AppData\Local\Temp\ccddysmu.s 			page 8


 273:.\Generated_Source\PSoC4/CapSense_SMS.c **** * Parameters:
 274:.\Generated_Source\PSoC4/CapSense_SMS.c **** *  None
 275:.\Generated_Source\PSoC4/CapSense_SMS.c **** *
 276:.\Generated_Source\PSoC4/CapSense_SMS.c **** * Return:
 277:.\Generated_Source\PSoC4/CapSense_SMS.c **** *  None
 278:.\Generated_Source\PSoC4/CapSense_SMS.c **** *
 279:.\Generated_Source\PSoC4/CapSense_SMS.c **** * Global Variables:
 280:.\Generated_Source\PSoC4/CapSense_SMS.c **** *  None
 281:.\Generated_Source\PSoC4/CapSense_SMS.c **** *
 282:.\Generated_Source\PSoC4/CapSense_SMS.c **** * Side Effects:
 283:.\Generated_Source\PSoC4/CapSense_SMS.c **** *  None
 284:.\Generated_Source\PSoC4/CapSense_SMS.c **** *
 285:.\Generated_Source\PSoC4/CapSense_SMS.c **** *******************************************************************************/
 286:.\Generated_Source\PSoC4/CapSense_SMS.c **** void CapSense_SetAnalogSwitchesSrcDirect(void)
 287:.\Generated_Source\PSoC4/CapSense_SMS.c **** {
 128              		.loc 1 287 0
 129              		.cfi_startproc
 288:.\Generated_Source\PSoC4/CapSense_SMS.c **** 	CapSense_CSD_CFG_REG &= ~(CapSense_CSD_CFG_PRS_SELECT);
 130              		.loc 1 288 0
 131 0000 024B     		ldr	r3, .L10
 132 0002 1A68     		ldr	r2, [r3]
 133 0004 4021     		mov	r1, #64
 134 0006 8A43     		bic	r2, r1
 135 0008 1A60     		str	r2, [r3]
 289:.\Generated_Source\PSoC4/CapSense_SMS.c **** }
 136              		.loc 1 289 0
 137              		@ sp needed
 138 000a 7047     		bx	lr
 139              	.L11:
 140              		.align	2
 141              	.L10:
 142 000c 04002840 		.word	1076363268
 143              		.cfi_endproc
 144              	.LFE37:
 145              		.size	CapSense_SetAnalogSwitchesSrcDirect, .-CapSense_SetAnalogSwitchesSrcDirect
 146              		.section	.text.CapSense_DisableBaselineIDAC,"ax",%progbits
 147              		.align	2
 148              		.global	CapSense_DisableBaselineIDAC
 149              		.code	16
 150              		.thumb_func
 151              		.type	CapSense_DisableBaselineIDAC, %function
 152              	CapSense_DisableBaselineIDAC:
 153              	.LFB38:
 290:.\Generated_Source\PSoC4/CapSense_SMS.c **** 
 291:.\Generated_Source\PSoC4/CapSense_SMS.c **** 
 292:.\Generated_Source\PSoC4/CapSense_SMS.c **** /*******************************************************************************
 293:.\Generated_Source\PSoC4/CapSense_SMS.c **** * Function Name: CapSense_DisableBaselineIDAC
 294:.\Generated_Source\PSoC4/CapSense_SMS.c **** ********************************************************************************
 295:.\Generated_Source\PSoC4/CapSense_SMS.c **** *
 296:.\Generated_Source\PSoC4/CapSense_SMS.c **** * Summary:
 297:.\Generated_Source\PSoC4/CapSense_SMS.c **** *  The API disables the Compensation IDAC. 
 298:.\Generated_Source\PSoC4/CapSense_SMS.c **** *
 299:.\Generated_Source\PSoC4/CapSense_SMS.c **** * Parameters:
 300:.\Generated_Source\PSoC4/CapSense_SMS.c **** *  None
 301:.\Generated_Source\PSoC4/CapSense_SMS.c **** *
 302:.\Generated_Source\PSoC4/CapSense_SMS.c **** * Return:
 303:.\Generated_Source\PSoC4/CapSense_SMS.c **** *  None
ARM GAS  C:\Users\Luci\AppData\Local\Temp\ccddysmu.s 			page 9


 304:.\Generated_Source\PSoC4/CapSense_SMS.c **** *
 305:.\Generated_Source\PSoC4/CapSense_SMS.c **** * Global Variables:
 306:.\Generated_Source\PSoC4/CapSense_SMS.c **** *  None
 307:.\Generated_Source\PSoC4/CapSense_SMS.c **** *
 308:.\Generated_Source\PSoC4/CapSense_SMS.c **** * Side Effects:
 309:.\Generated_Source\PSoC4/CapSense_SMS.c **** *  None
 310:.\Generated_Source\PSoC4/CapSense_SMS.c **** *
 311:.\Generated_Source\PSoC4/CapSense_SMS.c **** *******************************************************************************/
 312:.\Generated_Source\PSoC4/CapSense_SMS.c **** void CapSense_DisableBaselineIDAC(void)
 313:.\Generated_Source\PSoC4/CapSense_SMS.c **** {
 154              		.loc 1 313 0
 155              		.cfi_startproc
 314:.\Generated_Source\PSoC4/CapSense_SMS.c **** 	uint32 newRegValue;
 315:.\Generated_Source\PSoC4/CapSense_SMS.c ****     
 316:.\Generated_Source\PSoC4/CapSense_SMS.c ****     newRegValue = CapSense_CSD_IDAC_REG;
 156              		.loc 1 316 0
 157 0000 044B     		ldr	r3, .L13
 158 0002 1968     		ldr	r1, [r3]
 159              	.LVL7:
 317:.\Generated_Source\PSoC4/CapSense_SMS.c ****     
 318:.\Generated_Source\PSoC4/CapSense_SMS.c ****     newRegValue &= ~(CapSense_CSD_IDAC1_MODE_MASK | CapSense_CSD_IDAC2_MODE_MASK);
 160              		.loc 1 318 0
 161 0004 044A     		ldr	r2, .L13+4
 162 0006 0A40     		and	r2, r1
 163              	.LVL8:
 319:.\Generated_Source\PSoC4/CapSense_SMS.c ****     newRegValue |= CapSense_CSD_IDAC1_MODE_VARIABLE;
 164              		.loc 1 319 0
 165 0008 8021     		mov	r1, #128
 166 000a 8900     		lsl	r1, r1, #2
 167 000c 0A43     		orr	r2, r1
 168              	.LVL9:
 320:.\Generated_Source\PSoC4/CapSense_SMS.c ****     
 321:.\Generated_Source\PSoC4/CapSense_SMS.c **** 	CapSense_CSD_IDAC_REG = newRegValue;
 169              		.loc 1 321 0
 170 000e 1A60     		str	r2, [r3]
 322:.\Generated_Source\PSoC4/CapSense_SMS.c **** }
 171              		.loc 1 322 0
 172              		@ sp needed
 173 0010 7047     		bx	lr
 174              	.L14:
 175 0012 C046     		.align	2
 176              	.L13:
 177 0014 08002840 		.word	1076363272
 178 0018 FFFCFFFC 		.word	-50332417
 179              		.cfi_endproc
 180              	.LFE38:
 181              		.size	CapSense_DisableBaselineIDAC, .-CapSense_DisableBaselineIDAC
 182              		.section	.text.CapSense_EnableBaselineIDAC,"ax",%progbits
 183              		.align	2
 184              		.global	CapSense_EnableBaselineIDAC
 185              		.code	16
 186              		.thumb_func
 187              		.type	CapSense_EnableBaselineIDAC, %function
 188              	CapSense_EnableBaselineIDAC:
 189              	.LFB39:
 323:.\Generated_Source\PSoC4/CapSense_SMS.c **** 
 324:.\Generated_Source\PSoC4/CapSense_SMS.c **** 
ARM GAS  C:\Users\Luci\AppData\Local\Temp\ccddysmu.s 			page 10


 325:.\Generated_Source\PSoC4/CapSense_SMS.c **** /*******************************************************************************
 326:.\Generated_Source\PSoC4/CapSense_SMS.c **** * Function Name: CapSense_EnableBaselineIDAC
 327:.\Generated_Source\PSoC4/CapSense_SMS.c **** ********************************************************************************
 328:.\Generated_Source\PSoC4/CapSense_SMS.c **** *
 329:.\Generated_Source\PSoC4/CapSense_SMS.c **** * Summary:
 330:.\Generated_Source\PSoC4/CapSense_SMS.c **** *  The API enables the Compensation IDAC. 
 331:.\Generated_Source\PSoC4/CapSense_SMS.c **** *
 332:.\Generated_Source\PSoC4/CapSense_SMS.c **** * Parameters:
 333:.\Generated_Source\PSoC4/CapSense_SMS.c **** *  None
 334:.\Generated_Source\PSoC4/CapSense_SMS.c **** *
 335:.\Generated_Source\PSoC4/CapSense_SMS.c **** * Return:
 336:.\Generated_Source\PSoC4/CapSense_SMS.c **** *  None
 337:.\Generated_Source\PSoC4/CapSense_SMS.c **** *
 338:.\Generated_Source\PSoC4/CapSense_SMS.c **** * Global Variables:
 339:.\Generated_Source\PSoC4/CapSense_SMS.c **** *  CapSense_compensationIDAC[] - used to store a 7-bit idac value for all the sensors.
 340:.\Generated_Source\PSoC4/CapSense_SMS.c **** *
 341:.\Generated_Source\PSoC4/CapSense_SMS.c **** * Side Effects:
 342:.\Generated_Source\PSoC4/CapSense_SMS.c **** *  None
 343:.\Generated_Source\PSoC4/CapSense_SMS.c **** *
 344:.\Generated_Source\PSoC4/CapSense_SMS.c **** *******************************************************************************/
 345:.\Generated_Source\PSoC4/CapSense_SMS.c **** void  CapSense_EnableBaselineIDAC(const CapSense_CONFIG_TYPE_P4_v2_20 *config)
 346:.\Generated_Source\PSoC4/CapSense_SMS.c **** {
 190              		.loc 1 346 0
 191              		.cfi_startproc
 192              	.LVL10:
 193 0000 38B5     		push	{r3, r4, r5, lr}
 194              		.cfi_def_cfa_offset 16
 195              		.cfi_offset 3, -16
 196              		.cfi_offset 4, -12
 197              		.cfi_offset 5, -8
 198              		.cfi_offset 14, -4
 199              	.LVL11:
 347:.\Generated_Source\PSoC4/CapSense_SMS.c ****     uint32 curSensor;
 348:.\Generated_Source\PSoC4/CapSense_SMS.c ****     uint32 newRegValue;
 349:.\Generated_Source\PSoC4/CapSense_SMS.c **** 
 350:.\Generated_Source\PSoC4/CapSense_SMS.c ****     for(curSensor = 0u; curSensor < config->totalScanslotsNum; curSensor++)
 200              		.loc 1 350 0
 201 0002 0023     		mov	r3, #0
 351:.\Generated_Source\PSoC4/CapSense_SMS.c ****     {
 352:.\Generated_Source\PSoC4/CapSense_SMS.c **** 		CapSense_compensationIDAC[curSensor] = CapSense_modulationIDAC[curSensor] / 2u;
 202              		.loc 1 352 0
 203 0004 0D49     		ldr	r1, .L18
 204 0006 0E4C     		ldr	r4, .L18+4
 350:.\Generated_Source\PSoC4/CapSense_SMS.c ****     for(curSensor = 0u; curSensor < config->totalScanslotsNum; curSensor++)
 205              		.loc 1 350 0
 206 0008 06E0     		b	.L16
 207              	.LVL12:
 208              	.L17:
 209              		.loc 1 352 0 discriminator 2
 210 000a CA5C     		ldrb	r2, [r1, r3]
 211 000c 5508     		lsr	r5, r2, #1
 212 000e E554     		strb	r5, [r4, r3]
 353:.\Generated_Source\PSoC4/CapSense_SMS.c **** 	    CapSense_modulationIDAC[curSensor] = (CapSense_modulationIDAC[curSensor] + 1u) / 2u;
 213              		.loc 1 353 0 discriminator 2
 214 0010 0132     		add	r2, r2, #1
 215 0012 5208     		lsr	r2, r2, #1
 216 0014 CA54     		strb	r2, [r1, r3]
ARM GAS  C:\Users\Luci\AppData\Local\Temp\ccddysmu.s 			page 11


 350:.\Generated_Source\PSoC4/CapSense_SMS.c ****     for(curSensor = 0u; curSensor < config->totalScanslotsNum; curSensor++)
 217              		.loc 1 350 0 discriminator 2
 218 0016 0133     		add	r3, r3, #1
 219              	.LVL13:
 220              	.L16:
 350:.\Generated_Source\PSoC4/CapSense_SMS.c ****     for(curSensor = 0u; curSensor < config->totalScanslotsNum; curSensor++)
 221              		.loc 1 350 0 is_stmt 0 discriminator 1
 222 0018 0278     		ldrb	r2, [r0]
 223 001a 9A42     		cmp	r2, r3
 224 001c F5D8     		bhi	.L17
 354:.\Generated_Source\PSoC4/CapSense_SMS.c ****     }
 355:.\Generated_Source\PSoC4/CapSense_SMS.c **** 	
 356:.\Generated_Source\PSoC4/CapSense_SMS.c **** 	CyIntDisable(CapSense_ISR_NUMBER);
 225              		.loc 1 356 0 is_stmt 1
 226 001e 1020     		mov	r0, #16
 227              	.LVL14:
 228 0020 FFF7FEFF 		bl	CyIntDisable
 229              	.LVL15:
 357:.\Generated_Source\PSoC4/CapSense_SMS.c **** 	
 358:.\Generated_Source\PSoC4/CapSense_SMS.c **** 	newRegValue = CapSense_CSD_IDAC_REG;
 230              		.loc 1 358 0
 231 0024 074B     		ldr	r3, .L18+8
 232 0026 1968     		ldr	r1, [r3]
 233              	.LVL16:
 359:.\Generated_Source\PSoC4/CapSense_SMS.c ****     newRegValue &= ~(CapSense_CSD_IDAC1_MODE_MASK | CapSense_CSD_IDAC2_MODE_MASK);
 234              		.loc 1 359 0
 235 0028 074A     		ldr	r2, .L18+12
 236 002a 0A40     		and	r2, r1
 237              	.LVL17:
 360:.\Generated_Source\PSoC4/CapSense_SMS.c ****     newRegValue |= (CapSense_CSD_IDAC1_MODE_VARIABLE | CapSense_CSD_IDAC2_MODE_FIXED);
 238              		.loc 1 360 0
 239 002c 0749     		ldr	r1, .L18+16
 240 002e 0A43     		orr	r2, r1
 241              	.LVL18:
 361:.\Generated_Source\PSoC4/CapSense_SMS.c ****     CapSense_CSD_IDAC_REG = newRegValue;
 242              		.loc 1 361 0
 243 0030 1A60     		str	r2, [r3]
 362:.\Generated_Source\PSoC4/CapSense_SMS.c **** 	
 363:.\Generated_Source\PSoC4/CapSense_SMS.c **** 	CyIntEnable(CapSense_ISR_NUMBER);
 244              		.loc 1 363 0
 245 0032 1020     		mov	r0, #16
 246 0034 FFF7FEFF 		bl	CyIntEnable
 247              	.LVL19:
 364:.\Generated_Source\PSoC4/CapSense_SMS.c **** }
 248              		.loc 1 364 0
 249              		@ sp needed
 250 0038 38BD     		pop	{r3, r4, r5, pc}
 251              	.L19:
 252 003a C046     		.align	2
 253              	.L18:
 254 003c 00000000 		.word	CapSense_modulationIDAC
 255 0040 00000000 		.word	CapSense_compensationIDAC
 256 0044 08002840 		.word	1076363272
 257 0048 FFFCFFFC 		.word	-50332417
 258 004c 00020001 		.word	16777728
 259              		.cfi_endproc
 260              	.LFE39:
ARM GAS  C:\Users\Luci\AppData\Local\Temp\ccddysmu.s 			page 12


 261              		.size	CapSense_EnableBaselineIDAC, .-CapSense_EnableBaselineIDAC
 262              		.section	.text.CapSense_AutoTune,"ax",%progbits
 263              		.align	2
 264              		.global	CapSense_AutoTune
 265              		.code	16
 266              		.thumb_func
 267              		.type	CapSense_AutoTune, %function
 268              	CapSense_AutoTune:
 269              	.LFB35:
 137:.\Generated_Source\PSoC4/CapSense_SMS.c **** {
 270              		.loc 1 137 0
 271              		.cfi_startproc
 272 0000 38B5     		push	{r3, r4, r5, lr}
 273              		.cfi_def_cfa_offset 16
 274              		.cfi_offset 3, -16
 275              		.cfi_offset 4, -12
 276              		.cfi_offset 5, -8
 277              		.cfi_offset 14, -4
 141:.\Generated_Source\PSoC4/CapSense_SMS.c **** 	CapSense_config.totalScanslotsNum = CapSense_TOTAL_SCANSLOT_COUNT;
 278              		.loc 1 141 0
 279 0002 204B     		ldr	r3, .L27
 280 0004 0222     		mov	r2, #2
 281 0006 1A70     		strb	r2, [r3]
 142:.\Generated_Source\PSoC4/CapSense_SMS.c **** 	CapSense_config.totalWidgetsNum = CapSense_END_OF_WIDGETS_INDEX;
 282              		.loc 1 142 0
 283 0008 5A70     		strb	r2, [r3, #1]
 143:.\Generated_Source\PSoC4/CapSense_SMS.c **** 	CapSense_config.totalSensorsNum = CapSense_TOTAL_SENSOR_COUNT;
 284              		.loc 1 143 0
 285 000a 9A70     		strb	r2, [r3, #2]
 145:.\Generated_Source\PSoC4/CapSense_SMS.c **** 	CapSense_config.hfclkFreq_MHz = CYDEV_BCLK__HFCLK__MHZ;
 286              		.loc 1 145 0
 287 000c 3022     		mov	r2, #48
 288 000e DA80     		strh	r2, [r3, #6]
 146:.\Generated_Source\PSoC4/CapSense_SMS.c **** 	CapSense_config.sensetivitySeed = CapSense_SENSETIVITY_FACTOR;
 289              		.loc 1 146 0
 290 0010 1D4A     		ldr	r2, .L27+4
 291 0012 9A80     		strh	r2, [r3, #4]
 148:.\Generated_Source\PSoC4/CapSense_SMS.c ****     CapSense_config.pointers = &CapSense_configPointers;       
 292              		.loc 1 148 0
 293 0014 1D4A     		ldr	r2, .L27+8
 294 0016 9A60     		str	r2, [r3, #8]
 150:.\Generated_Source\PSoC4/CapSense_SMS.c **** 	CapSense_SetAnalogSwitchesSrcDirect();
 295              		.loc 1 150 0
 296 0018 FFF7FEFF 		bl	CapSense_SetAnalogSwitchesSrcDirect
 297              	.LVL20:
 152:.\Generated_Source\PSoC4/CapSense_SMS.c ****     for(widget = 0u; widget < CapSense_config.totalWidgetsNum; widget++)
 298              		.loc 1 152 0
 299 001c 0023     		mov	r3, #0
 300 001e 1949     		ldr	r1, .L27
 154:.\Generated_Source\PSoC4/CapSense_SMS.c ****         CapSense_widgetResolution[widget] = CapSense_CALIBRATION_RESOLUTION;
 301              		.loc 1 154 0
 302 0020 1B48     		ldr	r0, .L27+12
 303 0022 1C4C     		ldr	r4, .L27+16
 152:.\Generated_Source\PSoC4/CapSense_SMS.c ****     for(widget = 0u; widget < CapSense_config.totalWidgetsNum; widget++)
 304              		.loc 1 152 0
 305 0024 02E0     		b	.L21
 306              	.LVL21:
ARM GAS  C:\Users\Luci\AppData\Local\Temp\ccddysmu.s 			page 13


 307              	.L22:
 154:.\Generated_Source\PSoC4/CapSense_SMS.c ****         CapSense_widgetResolution[widget] = CapSense_CALIBRATION_RESOLUTION;
 308              		.loc 1 154 0 discriminator 2
 309 0026 9A00     		lsl	r2, r3, #2
 310 0028 1450     		str	r4, [r2, r0]
 152:.\Generated_Source\PSoC4/CapSense_SMS.c ****     for(widget = 0u; widget < CapSense_config.totalWidgetsNum; widget++)
 311              		.loc 1 152 0 discriminator 2
 312 002a 0133     		add	r3, r3, #1
 313              	.LVL22:
 314              	.L21:
 152:.\Generated_Source\PSoC4/CapSense_SMS.c ****     for(widget = 0u; widget < CapSense_config.totalWidgetsNum; widget++)
 315              		.loc 1 152 0 is_stmt 0 discriminator 1
 316 002c 4A78     		ldrb	r2, [r1, #1]
 317 002e 9A42     		cmp	r2, r3
 318 0030 F9D8     		bhi	.L22
 319 0032 0023     		mov	r3, #0
 320              	.LVL23:
 160:.\Generated_Source\PSoC4/CapSense_SMS.c **** 		CapSense_senseClkDividerVal[curSensor] = CapSense_CALIBRATION_ASD;
 321              		.loc 1 160 0 is_stmt 1
 322 0034 1849     		ldr	r1, .L27+20
 323 0036 1024     		mov	r4, #16
 161:.\Generated_Source\PSoC4/CapSense_SMS.c **** 		CapSense_sampleClkDividerVal[curSensor] = CapSense_CALIBRATION_MD;
 324              		.loc 1 161 0
 325 0038 184A     		ldr	r2, .L27+24
 326 003a 0420     		mov	r0, #4
 327 003c 02E0     		b	.L23
 328              	.LVL24:
 329              	.L24:
 160:.\Generated_Source\PSoC4/CapSense_SMS.c **** 		CapSense_senseClkDividerVal[curSensor] = CapSense_CALIBRATION_ASD;
 330              		.loc 1 160 0 discriminator 2
 331 003e CC54     		strb	r4, [r1, r3]
 161:.\Generated_Source\PSoC4/CapSense_SMS.c **** 		CapSense_sampleClkDividerVal[curSensor] = CapSense_CALIBRATION_MD;
 332              		.loc 1 161 0 discriminator 2
 333 0040 D054     		strb	r0, [r2, r3]
 158:.\Generated_Source\PSoC4/CapSense_SMS.c **** 	for(curSensor = 0u; curSensor < CapSense_TOTAL_SCANSLOT_COUNT; curSensor++)
 334              		.loc 1 158 0 discriminator 2
 335 0042 0133     		add	r3, r3, #1
 336              	.LVL25:
 337              	.L23:
 158:.\Generated_Source\PSoC4/CapSense_SMS.c **** 	for(curSensor = 0u; curSensor < CapSense_TOTAL_SCANSLOT_COUNT; curSensor++)
 338              		.loc 1 158 0 is_stmt 0 discriminator 1
 339 0044 012B     		cmp	r3, #1
 340 0046 FAD9     		bls	.L24
 164:.\Generated_Source\PSoC4/CapSense_SMS.c ****     CapSense_DisableBaselineIDAC();
 341              		.loc 1 164 0 is_stmt 1
 342 0048 FFF7FEFF 		bl	CapSense_DisableBaselineIDAC
 343              	.LVL26:
 166:.\Generated_Source\PSoC4/CapSense_SMS.c ****     CalibrateSensors_P4_v2_20(&CapSense_config, CapSense_CAL_RAW_COUNT);
 344              		.loc 1 166 0
 345 004c 0D4C     		ldr	r4, .L27
 346 004e 144D     		ldr	r5, .L27+28
 347 0050 201C     		mov	r0, r4
 348 0052 291C     		mov	r1, r5
 349 0054 FFF7FEFF 		bl	CalibrateSensors_P4_v2_20
 350              	.LVL27:
 172:.\Generated_Source\PSoC4/CapSense_SMS.c ****     TunePrescalers_P4_v2_20(&CapSense_config);
 351              		.loc 1 172 0
ARM GAS  C:\Users\Luci\AppData\Local\Temp\ccddysmu.s 			page 14


 352 0058 201C     		mov	r0, r4
 353 005a FFF7FEFF 		bl	TunePrescalers_P4_v2_20
 354              	.LVL28:
 178:.\Generated_Source\PSoC4/CapSense_SMS.c ****     CalibrateSensors_P4_v2_20(&CapSense_config, CapSense_CAL_RAW_COUNT);
 355              		.loc 1 178 0
 356 005e 201C     		mov	r0, r4
 357 0060 291C     		mov	r1, r5
 358 0062 FFF7FEFF 		bl	CalibrateSensors_P4_v2_20
 359              	.LVL29:
 182:.\Generated_Source\PSoC4/CapSense_SMS.c ****     TuneSensitivity_P4_v2_20(&CapSense_config);
 360              		.loc 1 182 0
 361 0066 201C     		mov	r0, r4
 362 0068 FFF7FEFF 		bl	TuneSensitivity_P4_v2_20
 363              	.LVL30:
 184:.\Generated_Source\PSoC4/CapSense_SMS.c **** 	CapSense_EnableBaselineIDAC(&CapSense_config);
 364              		.loc 1 184 0
 365 006c 201C     		mov	r0, r4
 366 006e FFF7FEFF 		bl	CapSense_EnableBaselineIDAC
 367              	.LVL31:
 186:.\Generated_Source\PSoC4/CapSense_SMS.c ****     for(curSensor = 0u; curSensor < CapSense_TOTAL_SCANSLOT_COUNT; curSensor++)
 368              		.loc 1 186 0
 369 0072 0024     		mov	r4, #0
 370 0074 03E0     		b	.L25
 371              	.LVL32:
 372              	.L26:
 188:.\Generated_Source\PSoC4/CapSense_SMS.c ****         CapSense_UpdateThresholds(curSensor);
 373              		.loc 1 188 0 discriminator 2
 374 0076 201C     		mov	r0, r4
 375 0078 FFF7FEFF 		bl	CapSense_UpdateThresholds
 376              	.LVL33:
 186:.\Generated_Source\PSoC4/CapSense_SMS.c ****     for(curSensor = 0u; curSensor < CapSense_TOTAL_SCANSLOT_COUNT; curSensor++)
 377              		.loc 1 186 0 discriminator 2
 378 007c 0134     		add	r4, r4, #1
 379              	.LVL34:
 380              	.L25:
 186:.\Generated_Source\PSoC4/CapSense_SMS.c ****     for(curSensor = 0u; curSensor < CapSense_TOTAL_SCANSLOT_COUNT; curSensor++)
 381              		.loc 1 186 0 is_stmt 0 discriminator 1
 382 007e 012C     		cmp	r4, #1
 383 0080 F9D9     		bls	.L26
 190:.\Generated_Source\PSoC4/CapSense_SMS.c **** }
 384              		.loc 1 190 0 is_stmt 1
 385              		@ sp needed
 386              	.LVL35:
 387 0082 38BD     		pop	{r3, r4, r5, pc}
 388              	.L28:
 389              		.align	2
 390              	.L27:
 391 0084 00000000 		.word	CapSense_config
 392 0088 98090000 		.word	2456
 393 008c 00000000 		.word	.LANCHOR0
 394 0090 00000000 		.word	CapSense_widgetResolution
 395 0094 0000FF0F 		.word	268369920
 396 0098 00000000 		.word	CapSense_senseClkDividerVal
 397 009c 00000000 		.word	CapSense_sampleClkDividerVal
 398 00a0 9A0D0000 		.word	3482
 399              		.cfi_endproc
 400              	.LFE35:
ARM GAS  C:\Users\Luci\AppData\Local\Temp\ccddysmu.s 			page 15


 401              		.size	CapSense_AutoTune, .-CapSense_AutoTune
 402              		.section	.text.CapSense_SetSensitivity,"ax",%progbits
 403              		.align	2
 404              		.global	CapSense_SetSensitivity
 405              		.code	16
 406              		.thumb_func
 407              		.type	CapSense_SetSensitivity, %function
 408              	CapSense_SetSensitivity:
 409              	.LFB40:
 365:.\Generated_Source\PSoC4/CapSense_SMS.c **** 
 366:.\Generated_Source\PSoC4/CapSense_SMS.c **** 
 367:.\Generated_Source\PSoC4/CapSense_SMS.c **** /*******************************************************************************
 368:.\Generated_Source\PSoC4/CapSense_SMS.c **** * Function Name: CapSense_SetSensitivity
 369:.\Generated_Source\PSoC4/CapSense_SMS.c **** ********************************************************************************
 370:.\Generated_Source\PSoC4/CapSense_SMS.c **** *
 371:.\Generated_Source\PSoC4/CapSense_SMS.c **** * Summary:
 372:.\Generated_Source\PSoC4/CapSense_SMS.c **** *  This API sets the sensitivity value for the sensor. The sensitivity 
 373:.\Generated_Source\PSoC4/CapSense_SMS.c **** *  value is used during the auto-tuning algorithm executed as part of the CapSense_Start API.
 374:.\Generated_Source\PSoC4/CapSense_SMS.c **** *  This API is called by the application layer prior to calling the CapSense_Start API. 
 375:.\Generated_Source\PSoC4/CapSense_SMS.c **** *  Calling this API after execution of CapSense_Start API has no effect. 
 376:.\Generated_Source\PSoC4/CapSense_SMS.c **** *
 377:.\Generated_Source\PSoC4/CapSense_SMS.c **** * Parameters: 
 378:.\Generated_Source\PSoC4/CapSense_SMS.c **** *  sensor  Sensor index 
 379:.\Generated_Source\PSoC4/CapSense_SMS.c **** *  data    Sensitivity of the sensor. Possible values are below
 380:.\Generated_Source\PSoC4/CapSense_SMS.c **** *  1 - 0.1pf sensitivity
 381:.\Generated_Source\PSoC4/CapSense_SMS.c **** *  2 - 0.2pf sensitivity
 382:.\Generated_Source\PSoC4/CapSense_SMS.c **** *  3 - 0.3pf sensitivity
 383:.\Generated_Source\PSoC4/CapSense_SMS.c **** *  4 - 0.4pf sensitivity
 384:.\Generated_Source\PSoC4/CapSense_SMS.c **** *  5 - 0.5pf sensitivity
 385:.\Generated_Source\PSoC4/CapSense_SMS.c **** *  6 - 0.6pf sensitivity
 386:.\Generated_Source\PSoC4/CapSense_SMS.c **** *  7 - 0.7pf sensitivity
 387:.\Generated_Source\PSoC4/CapSense_SMS.c **** *  8 - 0.8pf sensitivity
 388:.\Generated_Source\PSoC4/CapSense_SMS.c **** *  9 - 0.9pf sensitivity
 389:.\Generated_Source\PSoC4/CapSense_SMS.c **** *  10 - 1.0pf sensitivity
 390:.\Generated_Source\PSoC4/CapSense_SMS.c **** *  All other values, set sensitivity to 1.0pf
 391:.\Generated_Source\PSoC4/CapSense_SMS.c **** *
 392:.\Generated_Source\PSoC4/CapSense_SMS.c **** *  Return Value:
 393:.\Generated_Source\PSoC4/CapSense_SMS.c **** *   None
 394:.\Generated_Source\PSoC4/CapSense_SMS.c **** *
 395:.\Generated_Source\PSoC4/CapSense_SMS.c **** * Global Variables:
 396:.\Generated_Source\PSoC4/CapSense_SMS.c **** * SMS_LIB_SensorSensitivity[] - This 8-bits array contains Sensitivity in the LSB nibble
 397:.\Generated_Source\PSoC4/CapSense_SMS.c **** *                                and Noise Reset Counter value in the MSB nibble.      
 398:.\Generated_Source\PSoC4/CapSense_SMS.c **** *
 399:.\Generated_Source\PSoC4/CapSense_SMS.c **** * Side Effects: 
 400:.\Generated_Source\PSoC4/CapSense_SMS.c **** *  None
 401:.\Generated_Source\PSoC4/CapSense_SMS.c **** *
 402:.\Generated_Source\PSoC4/CapSense_SMS.c **** *******************************************************************************/
 403:.\Generated_Source\PSoC4/CapSense_SMS.c **** void CapSense_SetSensitivity(uint32 sensor, uint32 value)
 404:.\Generated_Source\PSoC4/CapSense_SMS.c **** {
 410              		.loc 1 404 0
 411              		.cfi_startproc
 412              	.LVL36:
 413 0000 10B5     		push	{r4, lr}
 414              		.cfi_def_cfa_offset 8
 415              		.cfi_offset 4, -8
 416              		.cfi_offset 14, -4
 405:.\Generated_Source\PSoC4/CapSense_SMS.c **** 	if(value > 10u)
ARM GAS  C:\Users\Luci\AppData\Local\Temp\ccddysmu.s 			page 16


 417              		.loc 1 405 0
 418 0002 0A29     		cmp	r1, #10
 419 0004 00D9     		bls	.L30
 406:.\Generated_Source\PSoC4/CapSense_SMS.c **** 	{
 407:.\Generated_Source\PSoC4/CapSense_SMS.c **** 		value = 10u;
 420              		.loc 1 407 0
 421 0006 0A21     		mov	r1, #10
 422              	.LVL37:
 423              	.L30:
 408:.\Generated_Source\PSoC4/CapSense_SMS.c **** 	}
 409:.\Generated_Source\PSoC4/CapSense_SMS.c **** 	
 410:.\Generated_Source\PSoC4/CapSense_SMS.c ****     /* Clear SensorSensitivity value in LSB nibble */
 411:.\Generated_Source\PSoC4/CapSense_SMS.c **** 	SMS_LIB_SensorSensitivity[sensor] &= (uint8)~CapSense_SENSITIVITY_MASK;
 424              		.loc 1 411 0
 425 0008 034B     		ldr	r3, .L32
 426 000a 1A5C     		ldrb	r2, [r3, r0]
 427 000c 0F24     		mov	r4, #15
 428 000e A243     		bic	r2, r4
 412:.\Generated_Source\PSoC4/CapSense_SMS.c **** 	/* Set SensorSensitivity value in LSB nibble */
 413:.\Generated_Source\PSoC4/CapSense_SMS.c **** 	SMS_LIB_SensorSensitivity[sensor] |= (uint8)value;
 429              		.loc 1 413 0
 430 0010 1143     		orr	r1, r2
 431              	.LVL38:
 432 0012 1954     		strb	r1, [r3, r0]
 414:.\Generated_Source\PSoC4/CapSense_SMS.c **** }
 433              		.loc 1 414 0
 434              		@ sp needed
 435 0014 10BD     		pop	{r4, pc}
 436              	.L33:
 437 0016 C046     		.align	2
 438              	.L32:
 439 0018 00000000 		.word	.LANCHOR1
 440              		.cfi_endproc
 441              	.LFE40:
 442              		.size	CapSense_SetSensitivity, .-CapSense_SetSensitivity
 443              		.section	.text.CapSense_GetSensitivityCoefficient,"ax",%progbits
 444              		.align	2
 445              		.global	CapSense_GetSensitivityCoefficient
 446              		.code	16
 447              		.thumb_func
 448              		.type	CapSense_GetSensitivityCoefficient, %function
 449              	CapSense_GetSensitivityCoefficient:
 450              	.LFB41:
 415:.\Generated_Source\PSoC4/CapSense_SMS.c **** 
 416:.\Generated_Source\PSoC4/CapSense_SMS.c **** 
 417:.\Generated_Source\PSoC4/CapSense_SMS.c **** /*******************************************************************************
 418:.\Generated_Source\PSoC4/CapSense_SMS.c **** * Function Name: CapSense_GetSensitivityCoefficient
 419:.\Generated_Source\PSoC4/CapSense_SMS.c **** ********************************************************************************
 420:.\Generated_Source\PSoC4/CapSense_SMS.c **** *
 421:.\Generated_Source\PSoC4/CapSense_SMS.c **** * Summary:
 422:.\Generated_Source\PSoC4/CapSense_SMS.c **** *  This API returns the K coefficient for the appropriate sensor. 
 423:.\Generated_Source\PSoC4/CapSense_SMS.c **** *
 424:.\Generated_Source\PSoC4/CapSense_SMS.c **** * Parameters: 
 425:.\Generated_Source\PSoC4/CapSense_SMS.c **** *  sensor:  Sensor index 
 426:.\Generated_Source\PSoC4/CapSense_SMS.c **** *
 427:.\Generated_Source\PSoC4/CapSense_SMS.c **** *  Return Value:
 428:.\Generated_Source\PSoC4/CapSense_SMS.c **** *   K - value for the appropriate sensor.
ARM GAS  C:\Users\Luci\AppData\Local\Temp\ccddysmu.s 			page 17


 429:.\Generated_Source\PSoC4/CapSense_SMS.c **** *
 430:.\Generated_Source\PSoC4/CapSense_SMS.c **** * Global Variables:
 431:.\Generated_Source\PSoC4/CapSense_SMS.c **** *  kValueTbl[] - This 8-bits array contains the K value for each sensor.
 432:.\Generated_Source\PSoC4/CapSense_SMS.c **** *
 433:.\Generated_Source\PSoC4/CapSense_SMS.c **** * Side Effects: 
 434:.\Generated_Source\PSoC4/CapSense_SMS.c **** *  None
 435:.\Generated_Source\PSoC4/CapSense_SMS.c **** *
 436:.\Generated_Source\PSoC4/CapSense_SMS.c **** *******************************************************************************/
 437:.\Generated_Source\PSoC4/CapSense_SMS.c **** uint8 CapSense_GetSensitivityCoefficient(uint32 sensor)
 438:.\Generated_Source\PSoC4/CapSense_SMS.c **** {
 451              		.loc 1 438 0
 452              		.cfi_startproc
 453              	.LVL39:
 439:.\Generated_Source\PSoC4/CapSense_SMS.c **** 	return (kValueTbl[sensor]);
 454              		.loc 1 439 0
 455 0000 014B     		ldr	r3, .L35
 456 0002 185C     		ldrb	r0, [r3, r0]
 457              	.LVL40:
 440:.\Generated_Source\PSoC4/CapSense_SMS.c **** }
 458              		.loc 1 440 0
 459              		@ sp needed
 460 0004 7047     		bx	lr
 461              	.L36:
 462 0006 C046     		.align	2
 463              	.L35:
 464 0008 00000000 		.word	kValueTbl
 465              		.cfi_endproc
 466              	.LFE41:
 467              		.size	CapSense_GetSensitivityCoefficient, .-CapSense_GetSensitivityCoefficient
 468              		.section	.text.CapSense_GetNoiseEnvelope,"ax",%progbits
 469              		.align	2
 470              		.global	CapSense_GetNoiseEnvelope
 471              		.code	16
 472              		.thumb_func
 473              		.type	CapSense_GetNoiseEnvelope, %function
 474              	CapSense_GetNoiseEnvelope:
 475              	.LFB42:
 441:.\Generated_Source\PSoC4/CapSense_SMS.c **** 
 442:.\Generated_Source\PSoC4/CapSense_SMS.c **** 
 443:.\Generated_Source\PSoC4/CapSense_SMS.c **** /*******************************************************************************
 444:.\Generated_Source\PSoC4/CapSense_SMS.c **** * Function Name: CapSense_GetNoiseEnvelope
 445:.\Generated_Source\PSoC4/CapSense_SMS.c **** ********************************************************************************
 446:.\Generated_Source\PSoC4/CapSense_SMS.c **** *
 447:.\Generated_Source\PSoC4/CapSense_SMS.c **** * Summary:
 448:.\Generated_Source\PSoC4/CapSense_SMS.c **** *  This function returns the noise value of a
 449:.\Generated_Source\PSoC4/CapSense_SMS.c **** *  component.
 450:.\Generated_Source\PSoC4/CapSense_SMS.c **** *
 451:.\Generated_Source\PSoC4/CapSense_SMS.c **** * Parameters:
 452:.\Generated_Source\PSoC4/CapSense_SMS.c **** *  sensor - Sensor number.
 453:.\Generated_Source\PSoC4/CapSense_SMS.c **** *
 454:.\Generated_Source\PSoC4/CapSense_SMS.c **** * Return:
 455:.\Generated_Source\PSoC4/CapSense_SMS.c **** *  The noise envelope value of the sensor
 456:.\Generated_Source\PSoC4/CapSense_SMS.c **** *  indicated by argument.
 457:.\Generated_Source\PSoC4/CapSense_SMS.c **** *
 458:.\Generated_Source\PSoC4/CapSense_SMS.c **** * Global Variables:
 459:.\Generated_Source\PSoC4/CapSense_SMS.c **** *  baNoiseEnvelope[] - array with Noise Envelope.
 460:.\Generated_Source\PSoC4/CapSense_SMS.c **** *
ARM GAS  C:\Users\Luci\AppData\Local\Temp\ccddysmu.s 			page 18


 461:.\Generated_Source\PSoC4/CapSense_SMS.c **** * Side Effects:
 462:.\Generated_Source\PSoC4/CapSense_SMS.c **** *  None
 463:.\Generated_Source\PSoC4/CapSense_SMS.c **** *
 464:.\Generated_Source\PSoC4/CapSense_SMS.c **** *******************************************************************************/
 465:.\Generated_Source\PSoC4/CapSense_SMS.c **** uint16 CapSense_GetNoiseEnvelope(uint32 sensor)
 466:.\Generated_Source\PSoC4/CapSense_SMS.c **** {
 476              		.loc 1 466 0
 477              		.cfi_startproc
 478              	.LVL41:
 467:.\Generated_Source\PSoC4/CapSense_SMS.c ****     return((uint16)((uint16)noiseEnvelopeTbl[sensor] << 1u) + 1u);
 479              		.loc 1 467 0
 480 0000 024B     		ldr	r3, .L38
 481 0002 185C     		ldrb	r0, [r3, r0]
 482              	.LVL42:
 483 0004 4000     		lsl	r0, r0, #1
 484 0006 0130     		add	r0, r0, #1
 468:.\Generated_Source\PSoC4/CapSense_SMS.c **** }
 485              		.loc 1 468 0
 486              		@ sp needed
 487 0008 7047     		bx	lr
 488              	.L39:
 489 000a C046     		.align	2
 490              	.L38:
 491 000c 00000000 		.word	noiseEnvelopeTbl
 492              		.cfi_endproc
 493              	.LFE42:
 494              		.size	CapSense_GetNoiseEnvelope, .-CapSense_GetNoiseEnvelope
 495              		.global	__aeabi_uidiv
 496              		.section	.text.CapSense_GetNormalizedDiffCountData,"ax",%progbits
 497              		.align	2
 498              		.global	CapSense_GetNormalizedDiffCountData
 499              		.code	16
 500              		.thumb_func
 501              		.type	CapSense_GetNormalizedDiffCountData, %function
 502              	CapSense_GetNormalizedDiffCountData:
 503              	.LFB43:
 469:.\Generated_Source\PSoC4/CapSense_SMS.c **** 
 470:.\Generated_Source\PSoC4/CapSense_SMS.c **** 
 471:.\Generated_Source\PSoC4/CapSense_SMS.c **** /*******************************************************************************
 472:.\Generated_Source\PSoC4/CapSense_SMS.c **** * Function Name: CapSense_GetNormalizedDiffCountData
 473:.\Generated_Source\PSoC4/CapSense_SMS.c **** ********************************************************************************
 474:.\Generated_Source\PSoC4/CapSense_SMS.c **** *
 475:.\Generated_Source\PSoC4/CapSense_SMS.c **** * Summary:
 476:.\Generated_Source\PSoC4/CapSense_SMS.c **** *  This API returns normalized difference count data.
 477:.\Generated_Source\PSoC4/CapSense_SMS.c **** *
 478:.\Generated_Source\PSoC4/CapSense_SMS.c **** * Parameters:
 479:.\Generated_Source\PSoC4/CapSense_SMS.c **** *  sensor:  Sensor number.
 480:.\Generated_Source\PSoC4/CapSense_SMS.c **** *
 481:.\Generated_Source\PSoC4/CapSense_SMS.c **** * Return:
 482:.\Generated_Source\PSoC4/CapSense_SMS.c **** *  This API returns a normalized count value of the sensor indicated by the 
 483:.\Generated_Source\PSoC4/CapSense_SMS.c **** *  argument. 
 484:.\Generated_Source\PSoC4/CapSense_SMS.c **** *
 485:.\Generated_Source\PSoC4/CapSense_SMS.c **** * Global Variables:
 486:.\Generated_Source\PSoC4/CapSense_SMS.c **** *  CapSense_sensorSignal[] - array with difference counts for sensors
 487:.\Generated_Source\PSoC4/CapSense_SMS.c **** * 
 488:.\Generated_Source\PSoC4/CapSense_SMS.c **** * Side Effects:
 489:.\Generated_Source\PSoC4/CapSense_SMS.c **** *  None
ARM GAS  C:\Users\Luci\AppData\Local\Temp\ccddysmu.s 			page 19


 490:.\Generated_Source\PSoC4/CapSense_SMS.c **** *
 491:.\Generated_Source\PSoC4/CapSense_SMS.c **** *******************************************************************************/
 492:.\Generated_Source\PSoC4/CapSense_SMS.c **** uint16 CapSense_GetNormalizedDiffCountData(uint32 sensor)
 493:.\Generated_Source\PSoC4/CapSense_SMS.c **** {
 504              		.loc 1 493 0
 505              		.cfi_startproc
 506              	.LVL43:
 507 0000 08B5     		push	{r3, lr}
 508              		.cfi_def_cfa_offset 8
 509              		.cfi_offset 3, -8
 510              		.cfi_offset 14, -4
 511 0002 031C     		mov	r3, r0
 494:.\Generated_Source\PSoC4/CapSense_SMS.c **** 	return (uint16)(((uint32)CapSense_sensorSignal[sensor] << 7u) / kValueTbl[sensor]);
 512              		.loc 1 494 0
 513 0004 044A     		ldr	r2, .L41
 514 0006 105C     		ldrb	r0, [r2, r0]
 515              	.LVL44:
 516 0008 C001     		lsl	r0, r0, #7
 517 000a 044A     		ldr	r2, .L41+4
 518 000c D15C     		ldrb	r1, [r2, r3]
 519 000e FFF7FEFF 		bl	__aeabi_uidiv
 520              	.LVL45:
 521 0012 80B2     		uxth	r0, r0
 495:.\Generated_Source\PSoC4/CapSense_SMS.c **** }
 522              		.loc 1 495 0
 523              		@ sp needed
 524 0014 08BD     		pop	{r3, pc}
 525              	.L42:
 526 0016 C046     		.align	2
 527              	.L41:
 528 0018 00000000 		.word	CapSense_sensorSignal
 529 001c 00000000 		.word	kValueTbl
 530              		.cfi_endproc
 531              	.LFE43:
 532              		.size	CapSense_GetNormalizedDiffCountData, .-CapSense_GetNormalizedDiffCountData
 533              		.global	CapSense_configPointers
 534              		.comm	CapSense_config,12,4
 535              		.global	SMS_LIB_SensorSensitivity
 536              		.comm	kValueTbl,2,4
 537              		.comm	previousSampleTbl,4,4
 538              		.comm	sampleMaxTbl,4,4
 539              		.comm	sampleMinTbl,4,4
 540              		.comm	signRegisterTbl,2,4
 541              		.comm	runningDifferenceTbl,2,4
 542              		.comm	noiseEnvelopeTbl,2,4
 543              		.global	prescalerTable
 544              		.section	.rodata
 545              		.align	2
 546              		.set	.LANCHOR0,. + 0
 547              		.type	CapSense_configPointers, %object
 548              		.size	CapSense_configPointers, 56
 549              	CapSense_configPointers:
 550 0000 00000000 		.word	CapSense_modulationIDAC
 551 0004 00000000 		.word	CapSense_compensationIDAC
 552 0008 00000000 		.word	SMS_LIB_SensorSensitivity
 553 000c 00000000 		.word	CapSense_senseClkDividerVal
 554 0010 00000000 		.word	CapSense_sampleClkDividerVal
ARM GAS  C:\Users\Luci\AppData\Local\Temp\ccddysmu.s 			page 20


 555 0014 00000000 		.word	CapSense_widgetNumber
 556 0018 00000000 		.word	CapSense_widgetResolution
 557 001c 00000000 		.word	CapSense_rawDataIndex
 558 0020 00000000 		.word	CapSense_numberOfSensors
 559 0024 00000000 		.word	CapSense_GetSensorRaw
 560 0028 00000000 		.word	CapSense_PreScan
 561 002c 00000000 		.word	CapSense_ReadSensorRaw
 562 0030 00000000 		.word	CapSense_GetBitValue
 563 0034 00000000 		.word	CapSense_SetBitValue
 564              		.type	prescalerTable, %object
 565              		.size	prescalerTable, 16
 566              	prescalerTable:
 567 0038 04       		.byte	4
 568 0039 04       		.byte	4
 569 003a 04       		.byte	4
 570 003b 08       		.byte	8
 571 003c 08       		.byte	8
 572 003d 08       		.byte	8
 573 003e 08       		.byte	8
 574 003f 10       		.byte	16
 575 0040 10       		.byte	16
 576 0041 10       		.byte	16
 577 0042 10       		.byte	16
 578 0043 10       		.byte	16
 579 0044 10       		.byte	16
 580 0045 10       		.byte	16
 581 0046 10       		.byte	16
 582 0047 10       		.byte	16
 583              		.data
 584              		.align	2
 585              		.set	.LANCHOR1,. + 0
 586              		.type	SMS_LIB_SensorSensitivity, %object
 587              		.size	SMS_LIB_SensorSensitivity, 2
 588              	SMS_LIB_SensorSensitivity:
 589 0000 02       		.byte	2
 590 0001 02       		.byte	2
 591 0002 0000     		.text
 592              	.Letext0:
 593              		.file 2 ".\\Generated_Source\\PSoC4\\cytypes.h"
 594              		.file 3 ".\\Generated_Source\\PSoC4\\CapSense_PVT.h"
 595              		.file 4 ".\\Generated_Source\\PSoC4\\CapSense.h"
 596              		.file 5 ".\\Generated_Source\\PSoC4\\CapSense_CSHL.h"
 597              		.file 6 ".\\Generated_Source\\PSoC4\\CyLib.h"