ARM GAS  C:\Users\Luci\AppData\Local\Temp\cc978npf.s 			page 1


   1              		.cpu cortex-m0
   2              		.fpu softvfp
   3              		.eabi_attribute 20, 1
   4              		.eabi_attribute 21, 1
   5              		.eabi_attribute 23, 3
   6              		.eabi_attribute 24, 1
   7              		.eabi_attribute 25, 1
   8              		.eabi_attribute 26, 1
   9              		.eabi_attribute 30, 1
  10              		.eabi_attribute 34, 0
  11              		.eabi_attribute 18, 4
  12              		.code	16
  13              		.file	"Comp_1.c"
  14              		.text
  15              	.Ltext0:
  16              		.cfi_sections	.debug_frame
  17              		.section	.text.Comp_1_Init,"ax",%progbits
  18              		.align	2
  19              		.global	Comp_1_Init
  20              		.code	16
  21              		.thumb_func
  22              		.type	Comp_1_Init, %function
  23              	Comp_1_Init:
  24              	.LFB3:
  25              		.file 1 ".\\Generated_Source\\PSoC4\\Comp_1.c"
   1:.\Generated_Source\PSoC4/Comp_1.c **** /*******************************************************************************
   2:.\Generated_Source\PSoC4/Comp_1.c **** * File Name: Comp_1.c
   3:.\Generated_Source\PSoC4/Comp_1.c **** * Version 2.0
   4:.\Generated_Source\PSoC4/Comp_1.c **** *
   5:.\Generated_Source\PSoC4/Comp_1.c **** * Description:
   6:.\Generated_Source\PSoC4/Comp_1.c **** *  This file provides the source code to the API for the Low Power Comparator
   7:.\Generated_Source\PSoC4/Comp_1.c **** *  component.
   8:.\Generated_Source\PSoC4/Comp_1.c **** *
   9:.\Generated_Source\PSoC4/Comp_1.c **** * Note:
  10:.\Generated_Source\PSoC4/Comp_1.c **** *  None
  11:.\Generated_Source\PSoC4/Comp_1.c **** *
  12:.\Generated_Source\PSoC4/Comp_1.c **** ********************************************************************************
  13:.\Generated_Source\PSoC4/Comp_1.c **** * Copyright 2013-2014, Cypress Semiconductor Corporation.  All rights reserved.
  14:.\Generated_Source\PSoC4/Comp_1.c **** * You may use this file only in accordance with the license, terms, conditions,
  15:.\Generated_Source\PSoC4/Comp_1.c **** * disclaimers, and limitations in the end user license agreement accompanying
  16:.\Generated_Source\PSoC4/Comp_1.c **** * the software package with which this file was provided.
  17:.\Generated_Source\PSoC4/Comp_1.c **** *******************************************************************************/
  18:.\Generated_Source\PSoC4/Comp_1.c **** 
  19:.\Generated_Source\PSoC4/Comp_1.c **** #include "Comp_1.h"
  20:.\Generated_Source\PSoC4/Comp_1.c **** #include "CyLib.h"
  21:.\Generated_Source\PSoC4/Comp_1.c **** #include "cyPm.h"
  22:.\Generated_Source\PSoC4/Comp_1.c **** 
  23:.\Generated_Source\PSoC4/Comp_1.c **** uint8 Comp_1_initVar = 0u;
  24:.\Generated_Source\PSoC4/Comp_1.c **** static uint32 Comp_1_internalIntr = 0u;
  25:.\Generated_Source\PSoC4/Comp_1.c **** #if(Comp_1_CY_LPCOMP_V2)
  26:.\Generated_Source\PSoC4/Comp_1.c ****     /* This variable saves INTR_MASK register since it get reset after wakeup 
  27:.\Generated_Source\PSoC4/Comp_1.c ****     * from Hibernate. Attribute CY_NOINIT puts SRAM variable in memory section 
  28:.\Generated_Source\PSoC4/Comp_1.c ****     * which is retained in low power modes 
  29:.\Generated_Source\PSoC4/Comp_1.c ****     */
  30:.\Generated_Source\PSoC4/Comp_1.c ****     CY_NOINIT static uint32 Comp_1_intrMaskRegState;
  31:.\Generated_Source\PSoC4/Comp_1.c **** #endif /* (Comp_1_CY_LPCOMP_V2) */
  32:.\Generated_Source\PSoC4/Comp_1.c **** 
ARM GAS  C:\Users\Luci\AppData\Local\Temp\cc978npf.s 			page 2


  33:.\Generated_Source\PSoC4/Comp_1.c **** 
  34:.\Generated_Source\PSoC4/Comp_1.c **** /*******************************************************************************
  35:.\Generated_Source\PSoC4/Comp_1.c **** * Function Name: Comp_1_Start
  36:.\Generated_Source\PSoC4/Comp_1.c **** ********************************************************************************
  37:.\Generated_Source\PSoC4/Comp_1.c **** *
  38:.\Generated_Source\PSoC4/Comp_1.c **** * Summary:
  39:.\Generated_Source\PSoC4/Comp_1.c **** *  Performs all of the required initialization for the component and enables
  40:.\Generated_Source\PSoC4/Comp_1.c **** *  power to the block. The first time the routine is executed, the component is
  41:.\Generated_Source\PSoC4/Comp_1.c **** *  initialized to the configuration from the customizer. When called to restart
  42:.\Generated_Source\PSoC4/Comp_1.c **** *  the comparator following a Comp_1_Stop() call, the current
  43:.\Generated_Source\PSoC4/Comp_1.c **** *  component parameter settings are retained.
  44:.\Generated_Source\PSoC4/Comp_1.c **** *
  45:.\Generated_Source\PSoC4/Comp_1.c **** * Parameters:
  46:.\Generated_Source\PSoC4/Comp_1.c **** *   None
  47:.\Generated_Source\PSoC4/Comp_1.c **** *
  48:.\Generated_Source\PSoC4/Comp_1.c **** * Return:
  49:.\Generated_Source\PSoC4/Comp_1.c **** *  None
  50:.\Generated_Source\PSoC4/Comp_1.c **** *
  51:.\Generated_Source\PSoC4/Comp_1.c **** * Global variables:
  52:.\Generated_Source\PSoC4/Comp_1.c **** *  Comp_1_initVar: Is modified when this function is called for the
  53:.\Generated_Source\PSoC4/Comp_1.c **** *   first time. Is used to ensure that initialization happens only once.
  54:.\Generated_Source\PSoC4/Comp_1.c **** *
  55:.\Generated_Source\PSoC4/Comp_1.c **** *******************************************************************************/
  56:.\Generated_Source\PSoC4/Comp_1.c **** void Comp_1_Start(void)
  57:.\Generated_Source\PSoC4/Comp_1.c **** {
  58:.\Generated_Source\PSoC4/Comp_1.c ****     if(0u == Comp_1_initVar)
  59:.\Generated_Source\PSoC4/Comp_1.c ****     {
  60:.\Generated_Source\PSoC4/Comp_1.c ****         Comp_1_Init();
  61:.\Generated_Source\PSoC4/Comp_1.c ****         Comp_1_initVar = 1u;
  62:.\Generated_Source\PSoC4/Comp_1.c ****     }
  63:.\Generated_Source\PSoC4/Comp_1.c ****     Comp_1_Enable();
  64:.\Generated_Source\PSoC4/Comp_1.c **** }
  65:.\Generated_Source\PSoC4/Comp_1.c **** 
  66:.\Generated_Source\PSoC4/Comp_1.c **** 
  67:.\Generated_Source\PSoC4/Comp_1.c **** /*******************************************************************************
  68:.\Generated_Source\PSoC4/Comp_1.c **** * Function Name: Comp_1_Init
  69:.\Generated_Source\PSoC4/Comp_1.c **** ********************************************************************************
  70:.\Generated_Source\PSoC4/Comp_1.c **** *
  71:.\Generated_Source\PSoC4/Comp_1.c **** * Summary:
  72:.\Generated_Source\PSoC4/Comp_1.c **** *  Initializes or restores the component according to the customizer settings.
  73:.\Generated_Source\PSoC4/Comp_1.c **** *  It is not necessary to call Comp_1_Init() because the
  74:.\Generated_Source\PSoC4/Comp_1.c **** *  Comp_1_Start() API calls this function and is the preferred method
  75:.\Generated_Source\PSoC4/Comp_1.c **** *  to begin component operation.
  76:.\Generated_Source\PSoC4/Comp_1.c **** *
  77:.\Generated_Source\PSoC4/Comp_1.c **** * Parameters:
  78:.\Generated_Source\PSoC4/Comp_1.c **** *  None
  79:.\Generated_Source\PSoC4/Comp_1.c **** *
  80:.\Generated_Source\PSoC4/Comp_1.c **** * Return:
  81:.\Generated_Source\PSoC4/Comp_1.c **** *  None
  82:.\Generated_Source\PSoC4/Comp_1.c **** *
  83:.\Generated_Source\PSoC4/Comp_1.c **** *******************************************************************************/
  84:.\Generated_Source\PSoC4/Comp_1.c **** void Comp_1_Init(void)
  85:.\Generated_Source\PSoC4/Comp_1.c **** {
  26              		.loc 1 85 0
  27              		.cfi_startproc
  28 0000 10B5     		push	{r4, lr}
  29              		.cfi_def_cfa_offset 8
ARM GAS  C:\Users\Luci\AppData\Local\Temp\cc978npf.s 			page 3


  30              		.cfi_offset 4, -8
  31              		.cfi_offset 14, -4
  86:.\Generated_Source\PSoC4/Comp_1.c ****     uint8 enableInterrupts;
  87:.\Generated_Source\PSoC4/Comp_1.c **** 
  88:.\Generated_Source\PSoC4/Comp_1.c ****     enableInterrupts = CyEnterCriticalSection();
  32              		.loc 1 88 0
  33 0002 FFF7FEFF 		bl	CyEnterCriticalSection
  34              	.LVL0:
  35 0006 041C     		mov	r4, r0
  36              	.LVL1:
  89:.\Generated_Source\PSoC4/Comp_1.c ****     Comp_1_CONFIG_REG |= Comp_1_CONFIG_REG_DEFAULT;
  37              		.loc 1 89 0
  38 0008 0C4B     		ldr	r3, .L4
  39 000a 1A68     		ldr	r2, [r3]
  40 000c 0C49     		ldr	r1, .L4+4
  41 000e 0A43     		orr	r2, r1
  42 0010 1A60     		str	r2, [r3]
  90:.\Generated_Source\PSoC4/Comp_1.c ****     
  91:.\Generated_Source\PSoC4/Comp_1.c ****     #if (Comp_1_CY_LPCOMP_V2)
  92:.\Generated_Source\PSoC4/Comp_1.c ****         if (CySysPmGetResetReason() == CY_PM_RESET_REASON_WAKEUP_HIB)
  43              		.loc 1 92 0
  44 0012 FFF7FEFF 		bl	CySysPmGetResetReason
  45              	.LVL2:
  46 0016 0228     		cmp	r0, #2
  47 0018 06D1     		bne	.L2
  93:.\Generated_Source\PSoC4/Comp_1.c ****         {
  94:.\Generated_Source\PSoC4/Comp_1.c ****             /* Restore the INTR_MASK register state since it get reset after 
  95:.\Generated_Source\PSoC4/Comp_1.c ****             * wakeup from Hibernate.  
  96:.\Generated_Source\PSoC4/Comp_1.c ****             */
  97:.\Generated_Source\PSoC4/Comp_1.c ****             Comp_1_INTR_MASK_REG |= Comp_1_intrMaskRegState;  
  48              		.loc 1 97 0
  49 001a 0A4B     		ldr	r3, .L4+8
  50 001c 1968     		ldr	r1, [r3]
  51 001e 0A4A     		ldr	r2, .L4+12
  52 0020 1268     		ldr	r2, [r2]
  53 0022 0A43     		orr	r2, r1
  54 0024 1A60     		str	r2, [r3]
  55 0026 05E0     		b	.L3
  56              	.L2:
  98:.\Generated_Source\PSoC4/Comp_1.c ****         }
  99:.\Generated_Source\PSoC4/Comp_1.c ****         else
 100:.\Generated_Source\PSoC4/Comp_1.c ****         {
 101:.\Generated_Source\PSoC4/Comp_1.c ****             Comp_1_INTR_MASK_REG |= Comp_1_INTR_MASK_REG_DEFAULT;    
  57              		.loc 1 101 0
  58 0028 064B     		ldr	r3, .L4+8
  59 002a 1A68     		ldr	r2, [r3]
  60 002c 1A60     		str	r2, [r3]
 102:.\Generated_Source\PSoC4/Comp_1.c ****             Comp_1_intrMaskRegState = Comp_1_INTR_MASK_REG;
  61              		.loc 1 102 0
  62 002e 1A68     		ldr	r2, [r3]
  63 0030 054B     		ldr	r3, .L4+12
  64 0032 1A60     		str	r2, [r3]
  65              	.L3:
 103:.\Generated_Source\PSoC4/Comp_1.c ****         }
 104:.\Generated_Source\PSoC4/Comp_1.c ****     #endif /* (Comp_1_CY_LPCOMP_V2) */
 105:.\Generated_Source\PSoC4/Comp_1.c ****     CyExitCriticalSection(enableInterrupts);
  66              		.loc 1 105 0
ARM GAS  C:\Users\Luci\AppData\Local\Temp\cc978npf.s 			page 4


  67 0034 201C     		mov	r0, r4
  68 0036 FFF7FEFF 		bl	CyExitCriticalSection
  69              	.LVL3:
 106:.\Generated_Source\PSoC4/Comp_1.c **** }
  70              		.loc 1 106 0
  71              		@ sp needed
  72              	.LVL4:
  73 003a 10BD     		pop	{r4, pc}
  74              	.L5:
  75              		.align	2
  76              	.L4:
  77 003c 04002B40 		.word	1076559876
  78 0040 35000100 		.word	65589
  79 0044 18002B40 		.word	1076559896
  80 0048 00000000 		.word	.LANCHOR0
  81              		.cfi_endproc
  82              	.LFE3:
  83              		.size	Comp_1_Init, .-Comp_1_Init
  84              		.section	.text.Comp_1_Enable,"ax",%progbits
  85              		.align	2
  86              		.global	Comp_1_Enable
  87              		.code	16
  88              		.thumb_func
  89              		.type	Comp_1_Enable, %function
  90              	Comp_1_Enable:
  91              	.LFB4:
 107:.\Generated_Source\PSoC4/Comp_1.c **** 
 108:.\Generated_Source\PSoC4/Comp_1.c **** 
 109:.\Generated_Source\PSoC4/Comp_1.c **** /*******************************************************************************
 110:.\Generated_Source\PSoC4/Comp_1.c **** * Function Name: Comp_1_Enable
 111:.\Generated_Source\PSoC4/Comp_1.c **** ********************************************************************************
 112:.\Generated_Source\PSoC4/Comp_1.c **** *
 113:.\Generated_Source\PSoC4/Comp_1.c **** * Summary:
 114:.\Generated_Source\PSoC4/Comp_1.c **** *  Activates the hardware and begins component operation. It is not necessary
 115:.\Generated_Source\PSoC4/Comp_1.c **** *  to call Comp_1_Enable() because the Comp_1_Start() API
 116:.\Generated_Source\PSoC4/Comp_1.c **** *  calls this function, which is the preferred method to begin component
 117:.\Generated_Source\PSoC4/Comp_1.c **** *  operation.
 118:.\Generated_Source\PSoC4/Comp_1.c **** *
 119:.\Generated_Source\PSoC4/Comp_1.c **** * Parameters:
 120:.\Generated_Source\PSoC4/Comp_1.c **** *  None
 121:.\Generated_Source\PSoC4/Comp_1.c **** *
 122:.\Generated_Source\PSoC4/Comp_1.c **** * Return:
 123:.\Generated_Source\PSoC4/Comp_1.c **** *  None
 124:.\Generated_Source\PSoC4/Comp_1.c **** *
 125:.\Generated_Source\PSoC4/Comp_1.c **** *******************************************************************************/
 126:.\Generated_Source\PSoC4/Comp_1.c **** void Comp_1_Enable(void)
 127:.\Generated_Source\PSoC4/Comp_1.c **** {
  92              		.loc 1 127 0
  93              		.cfi_startproc
  94 0000 08B5     		push	{r3, lr}
  95              		.cfi_def_cfa_offset 8
  96              		.cfi_offset 3, -8
  97              		.cfi_offset 14, -4
 128:.\Generated_Source\PSoC4/Comp_1.c ****     uint8 enableInterrupts;
 129:.\Generated_Source\PSoC4/Comp_1.c ****     
 130:.\Generated_Source\PSoC4/Comp_1.c ****     enableInterrupts = CyEnterCriticalSection();
  98              		.loc 1 130 0
ARM GAS  C:\Users\Luci\AppData\Local\Temp\cc978npf.s 			page 5


  99 0002 FFF7FEFF 		bl	CyEnterCriticalSection
 100              	.LVL5:
 131:.\Generated_Source\PSoC4/Comp_1.c ****     Comp_1_CONFIG_REG |= Comp_1_CONFIG_EN;
 101              		.loc 1 131 0
 102 0006 064B     		ldr	r3, .L7
 103 0008 1968     		ldr	r1, [r3]
 104 000a 8022     		mov	r2, #128
 105 000c 0A43     		orr	r2, r1
 106 000e 1A60     		str	r2, [r3]
 132:.\Generated_Source\PSoC4/Comp_1.c ****     
 133:.\Generated_Source\PSoC4/Comp_1.c ****     /*******************************************************
 134:.\Generated_Source\PSoC4/Comp_1.c ****     * When the Enable() API is called the CONFIG_EN bit is set. 
 135:.\Generated_Source\PSoC4/Comp_1.c ****     * This can cause fake interrupt because of the output delay 
 136:.\Generated_Source\PSoC4/Comp_1.c ****     * of the analog. This requires setting the CONFIG_INTR bits 
 137:.\Generated_Source\PSoC4/Comp_1.c ****     * after the CONFIG_EN bit is set.
 138:.\Generated_Source\PSoC4/Comp_1.c ****     *******************************************************/
 139:.\Generated_Source\PSoC4/Comp_1.c ****     Comp_1_CONFIG_REG |= Comp_1_internalIntr;
 107              		.loc 1 139 0
 108 0010 1968     		ldr	r1, [r3]
 109 0012 044A     		ldr	r2, .L7+4
 110 0014 1268     		ldr	r2, [r2]
 111 0016 0A43     		orr	r2, r1
 112 0018 1A60     		str	r2, [r3]
 140:.\Generated_Source\PSoC4/Comp_1.c ****     CyExitCriticalSection(enableInterrupts);
 113              		.loc 1 140 0
 114 001a FFF7FEFF 		bl	CyExitCriticalSection
 115              	.LVL6:
 141:.\Generated_Source\PSoC4/Comp_1.c **** }
 116              		.loc 1 141 0
 117              		@ sp needed
 118 001e 08BD     		pop	{r3, pc}
 119              	.L8:
 120              		.align	2
 121              	.L7:
 122 0020 04002B40 		.word	1076559876
 123 0024 00000000 		.word	.LANCHOR1
 124              		.cfi_endproc
 125              	.LFE4:
 126              		.size	Comp_1_Enable, .-Comp_1_Enable
 127              		.section	.text.Comp_1_Start,"ax",%progbits
 128              		.align	2
 129              		.global	Comp_1_Start
 130              		.code	16
 131              		.thumb_func
 132              		.type	Comp_1_Start, %function
 133              	Comp_1_Start:
 134              	.LFB2:
  57:.\Generated_Source\PSoC4/Comp_1.c **** {
 135              		.loc 1 57 0
 136              		.cfi_startproc
 137 0000 08B5     		push	{r3, lr}
 138              		.cfi_def_cfa_offset 8
 139              		.cfi_offset 3, -8
 140              		.cfi_offset 14, -4
  58:.\Generated_Source\PSoC4/Comp_1.c ****     if(0u == Comp_1_initVar)
 141              		.loc 1 58 0
 142 0002 064B     		ldr	r3, .L11
ARM GAS  C:\Users\Luci\AppData\Local\Temp\cc978npf.s 			page 6


 143 0004 1B79     		ldrb	r3, [r3, #4]
 144 0006 002B     		cmp	r3, #0
 145 0008 04D1     		bne	.L10
  60:.\Generated_Source\PSoC4/Comp_1.c ****         Comp_1_Init();
 146              		.loc 1 60 0
 147 000a FFF7FEFF 		bl	Comp_1_Init
 148              	.LVL7:
  61:.\Generated_Source\PSoC4/Comp_1.c ****         Comp_1_initVar = 1u;
 149              		.loc 1 61 0
 150 000e 0122     		mov	r2, #1
 151 0010 024B     		ldr	r3, .L11
 152 0012 1A71     		strb	r2, [r3, #4]
 153              	.L10:
  63:.\Generated_Source\PSoC4/Comp_1.c ****     Comp_1_Enable();
 154              		.loc 1 63 0
 155 0014 FFF7FEFF 		bl	Comp_1_Enable
 156              	.LVL8:
  64:.\Generated_Source\PSoC4/Comp_1.c **** }
 157              		.loc 1 64 0
 158              		@ sp needed
 159 0018 08BD     		pop	{r3, pc}
 160              	.L12:
 161 001a C046     		.align	2
 162              	.L11:
 163 001c 00000000 		.word	.LANCHOR1
 164              		.cfi_endproc
 165              	.LFE2:
 166              		.size	Comp_1_Start, .-Comp_1_Start
 167              		.section	.text.Comp_1_Stop,"ax",%progbits
 168              		.align	2
 169              		.global	Comp_1_Stop
 170              		.code	16
 171              		.thumb_func
 172              		.type	Comp_1_Stop, %function
 173              	Comp_1_Stop:
 174              	.LFB5:
 142:.\Generated_Source\PSoC4/Comp_1.c **** 
 143:.\Generated_Source\PSoC4/Comp_1.c **** 
 144:.\Generated_Source\PSoC4/Comp_1.c **** /*******************************************************************************
 145:.\Generated_Source\PSoC4/Comp_1.c **** * Function Name: Comp_1_Stop
 146:.\Generated_Source\PSoC4/Comp_1.c **** ********************************************************************************
 147:.\Generated_Source\PSoC4/Comp_1.c **** *
 148:.\Generated_Source\PSoC4/Comp_1.c **** * Summary:
 149:.\Generated_Source\PSoC4/Comp_1.c **** *  Turns off the LP Comparator.
 150:.\Generated_Source\PSoC4/Comp_1.c **** *
 151:.\Generated_Source\PSoC4/Comp_1.c **** * Parameters:
 152:.\Generated_Source\PSoC4/Comp_1.c **** *  None
 153:.\Generated_Source\PSoC4/Comp_1.c **** *
 154:.\Generated_Source\PSoC4/Comp_1.c **** * Return:
 155:.\Generated_Source\PSoC4/Comp_1.c **** *  None
 156:.\Generated_Source\PSoC4/Comp_1.c **** *
 157:.\Generated_Source\PSoC4/Comp_1.c **** * Side Effects:
 158:.\Generated_Source\PSoC4/Comp_1.c **** *  The function doesn't change component Speed settings.
 159:.\Generated_Source\PSoC4/Comp_1.c **** *
 160:.\Generated_Source\PSoC4/Comp_1.c **** *******************************************************************************/
 161:.\Generated_Source\PSoC4/Comp_1.c **** void Comp_1_Stop(void)
 162:.\Generated_Source\PSoC4/Comp_1.c **** {
ARM GAS  C:\Users\Luci\AppData\Local\Temp\cc978npf.s 			page 7


 175              		.loc 1 162 0
 176              		.cfi_startproc
 177 0000 08B5     		push	{r3, lr}
 178              		.cfi_def_cfa_offset 8
 179              		.cfi_offset 3, -8
 180              		.cfi_offset 14, -4
 163:.\Generated_Source\PSoC4/Comp_1.c ****     uint8 enableInterrupts;
 164:.\Generated_Source\PSoC4/Comp_1.c ****     
 165:.\Generated_Source\PSoC4/Comp_1.c ****     enableInterrupts = CyEnterCriticalSection();
 181              		.loc 1 165 0
 182 0002 FFF7FEFF 		bl	CyEnterCriticalSection
 183              	.LVL9:
 166:.\Generated_Source\PSoC4/Comp_1.c ****     #if (Comp_1_CY_LPCOMP_V0)
 167:.\Generated_Source\PSoC4/Comp_1.c ****         /*******************************************************
 168:.\Generated_Source\PSoC4/Comp_1.c ****         * When the Stop() API is called the CONFIG_EN bit is 
 169:.\Generated_Source\PSoC4/Comp_1.c ****         * cleared. This causes the output of the comparator to go 
 170:.\Generated_Source\PSoC4/Comp_1.c ****         * low. If the comparator output was high and the Interrupt 
 171:.\Generated_Source\PSoC4/Comp_1.c ****         * Configuration is set for Falling edge disabling the 
 172:.\Generated_Source\PSoC4/Comp_1.c ****         * comparator will cause an fake interrupt. This requires 
 173:.\Generated_Source\PSoC4/Comp_1.c ****         * to clear the CONFIG_INTR bits before the CONFIG_EN bit 
 174:.\Generated_Source\PSoC4/Comp_1.c ****         * is cleared.
 175:.\Generated_Source\PSoC4/Comp_1.c ****         *******************************************************/
 176:.\Generated_Source\PSoC4/Comp_1.c ****         Comp_1_CONFIG_REG &= (uint32)~Comp_1_CONFIG_INTR_MASK;
 177:.\Generated_Source\PSoC4/Comp_1.c ****     #endif /* (Comp_1_CY_LPCOMP_V0) */
 178:.\Generated_Source\PSoC4/Comp_1.c **** 
 179:.\Generated_Source\PSoC4/Comp_1.c ****     Comp_1_CONFIG_REG &= (uint32)~Comp_1_CONFIG_EN;
 184              		.loc 1 179 0
 185 0006 044B     		ldr	r3, .L14
 186 0008 1A68     		ldr	r2, [r3]
 187 000a 8021     		mov	r1, #128
 188 000c 8A43     		bic	r2, r1
 189 000e 1A60     		str	r2, [r3]
 180:.\Generated_Source\PSoC4/Comp_1.c ****     CyExitCriticalSection(enableInterrupts);
 190              		.loc 1 180 0
 191 0010 FFF7FEFF 		bl	CyExitCriticalSection
 192              	.LVL10:
 181:.\Generated_Source\PSoC4/Comp_1.c **** }
 193              		.loc 1 181 0
 194              		@ sp needed
 195 0014 08BD     		pop	{r3, pc}
 196              	.L15:
 197 0016 C046     		.align	2
 198              	.L14:
 199 0018 04002B40 		.word	1076559876
 200              		.cfi_endproc
 201              	.LFE5:
 202              		.size	Comp_1_Stop, .-Comp_1_Stop
 203              		.section	.text.Comp_1_SetSpeed,"ax",%progbits
 204              		.align	2
 205              		.global	Comp_1_SetSpeed
 206              		.code	16
 207              		.thumb_func
 208              		.type	Comp_1_SetSpeed, %function
 209              	Comp_1_SetSpeed:
 210              	.LFB6:
 182:.\Generated_Source\PSoC4/Comp_1.c **** 
 183:.\Generated_Source\PSoC4/Comp_1.c **** 
ARM GAS  C:\Users\Luci\AppData\Local\Temp\cc978npf.s 			page 8


 184:.\Generated_Source\PSoC4/Comp_1.c **** /*******************************************************************************
 185:.\Generated_Source\PSoC4/Comp_1.c **** * Function Name: Comp_1_SetSpeed
 186:.\Generated_Source\PSoC4/Comp_1.c **** *
 187:.\Generated_Source\PSoC4/Comp_1.c **** * Summary:
 188:.\Generated_Source\PSoC4/Comp_1.c **** *  Sets the drive power and speed to one of three settings.
 189:.\Generated_Source\PSoC4/Comp_1.c **** *
 190:.\Generated_Source\PSoC4/Comp_1.c **** * Parameters:
 191:.\Generated_Source\PSoC4/Comp_1.c **** *  uint32 speed: Sets operation mode of the component:
 192:.\Generated_Source\PSoC4/Comp_1.c **** *   Comp_1_LOW_SPEED  - Slow/ultra low 
 193:.\Generated_Source\PSoC4/Comp_1.c **** *   Comp_1_MED_SPEED  - Medium/low 
 194:.\Generated_Source\PSoC4/Comp_1.c **** *   Comp_1_HIGH_SPEED - Fast/normal 
 195:.\Generated_Source\PSoC4/Comp_1.c **** *
 196:.\Generated_Source\PSoC4/Comp_1.c **** * Return:
 197:.\Generated_Source\PSoC4/Comp_1.c **** *  None
 198:.\Generated_Source\PSoC4/Comp_1.c **** *
 199:.\Generated_Source\PSoC4/Comp_1.c **** *******************************************************************************/
 200:.\Generated_Source\PSoC4/Comp_1.c **** void Comp_1_SetSpeed(uint32 speed)
 201:.\Generated_Source\PSoC4/Comp_1.c **** {
 211              		.loc 1 201 0
 212              		.cfi_startproc
 213              	.LVL11:
 214 0000 10B5     		push	{r4, lr}
 215              		.cfi_def_cfa_offset 8
 216              		.cfi_offset 4, -8
 217              		.cfi_offset 14, -4
 218 0002 041C     		mov	r4, r0
 202:.\Generated_Source\PSoC4/Comp_1.c ****     uint32 config;
 203:.\Generated_Source\PSoC4/Comp_1.c ****     uint8 enableInterrupts;
 204:.\Generated_Source\PSoC4/Comp_1.c ****     
 205:.\Generated_Source\PSoC4/Comp_1.c ****     enableInterrupts = CyEnterCriticalSection();
 219              		.loc 1 205 0
 220 0004 FFF7FEFF 		bl	CyEnterCriticalSection
 221              	.LVL12:
 206:.\Generated_Source\PSoC4/Comp_1.c ****     config = Comp_1_CONFIG_REG & (uint32)~Comp_1_CONFIG_SPEED_MODE_MASK;
 222              		.loc 1 206 0
 223 0008 044B     		ldr	r3, .L17
 224 000a 1968     		ldr	r1, [r3]
 225 000c 0322     		mov	r2, #3
 226 000e 9143     		bic	r1, r2
 227              	.LVL13:
 207:.\Generated_Source\PSoC4/Comp_1.c ****     Comp_1_CONFIG_REG = config | Comp_1_GET_CONFIG_SPEED_MODE(speed);
 228              		.loc 1 207 0
 229 0010 2240     		and	r2, r4
 230 0012 0A43     		orr	r2, r1
 231 0014 1A60     		str	r2, [r3]
 208:.\Generated_Source\PSoC4/Comp_1.c ****     CyExitCriticalSection(enableInterrupts);
 232              		.loc 1 208 0
 233 0016 FFF7FEFF 		bl	CyExitCriticalSection
 234              	.LVL14:
 209:.\Generated_Source\PSoC4/Comp_1.c **** }
 235              		.loc 1 209 0
 236              		@ sp needed
 237              	.LVL15:
 238 001a 10BD     		pop	{r4, pc}
 239              	.L18:
 240              		.align	2
 241              	.L17:
ARM GAS  C:\Users\Luci\AppData\Local\Temp\cc978npf.s 			page 9


 242 001c 04002B40 		.word	1076559876
 243              		.cfi_endproc
 244              	.LFE6:
 245              		.size	Comp_1_SetSpeed, .-Comp_1_SetSpeed
 246              		.section	.text.Comp_1_SetInterruptMode,"ax",%progbits
 247              		.align	2
 248              		.global	Comp_1_SetInterruptMode
 249              		.code	16
 250              		.thumb_func
 251              		.type	Comp_1_SetInterruptMode, %function
 252              	Comp_1_SetInterruptMode:
 253              	.LFB7:
 210:.\Generated_Source\PSoC4/Comp_1.c **** 
 211:.\Generated_Source\PSoC4/Comp_1.c **** 
 212:.\Generated_Source\PSoC4/Comp_1.c **** /*******************************************************************************
 213:.\Generated_Source\PSoC4/Comp_1.c **** * Function Name: Comp_1_SetInterruptMode
 214:.\Generated_Source\PSoC4/Comp_1.c **** ********************************************************************************
 215:.\Generated_Source\PSoC4/Comp_1.c **** *
 216:.\Generated_Source\PSoC4/Comp_1.c **** * Summary:
 217:.\Generated_Source\PSoC4/Comp_1.c **** *  Sets the interrupt edge detect mode. This also controls the value provided
 218:.\Generated_Source\PSoC4/Comp_1.c **** *  on the output.
 219:.\Generated_Source\PSoC4/Comp_1.c **** *
 220:.\Generated_Source\PSoC4/Comp_1.c **** * Parameters:
 221:.\Generated_Source\PSoC4/Comp_1.c **** *  uint32 mode: Enumerated edge detect mode value:
 222:.\Generated_Source\PSoC4/Comp_1.c **** *  Comp_1_INTR_DISABLE - Disable
 223:.\Generated_Source\PSoC4/Comp_1.c **** *  Comp_1_INTR_RISING  - Rising edge detect
 224:.\Generated_Source\PSoC4/Comp_1.c **** *  Comp_1_INTR_FALLING - Falling edge detect
 225:.\Generated_Source\PSoC4/Comp_1.c **** *  Comp_1_INTR_BOTH    - Detect both edges
 226:.\Generated_Source\PSoC4/Comp_1.c **** *
 227:.\Generated_Source\PSoC4/Comp_1.c **** * Return:
 228:.\Generated_Source\PSoC4/Comp_1.c **** *  None
 229:.\Generated_Source\PSoC4/Comp_1.c **** *
 230:.\Generated_Source\PSoC4/Comp_1.c **** *******************************************************************************/
 231:.\Generated_Source\PSoC4/Comp_1.c **** void Comp_1_SetInterruptMode(uint32 mode)
 232:.\Generated_Source\PSoC4/Comp_1.c **** {
 254              		.loc 1 232 0
 255              		.cfi_startproc
 256              	.LVL16:
 257 0000 38B5     		push	{r3, r4, r5, lr}
 258              		.cfi_def_cfa_offset 16
 259              		.cfi_offset 3, -16
 260              		.cfi_offset 4, -12
 261              		.cfi_offset 5, -8
 262              		.cfi_offset 14, -4
 233:.\Generated_Source\PSoC4/Comp_1.c ****     uint32 config;
 234:.\Generated_Source\PSoC4/Comp_1.c ****     uint8 enableInterrupts;
 235:.\Generated_Source\PSoC4/Comp_1.c ****     
 236:.\Generated_Source\PSoC4/Comp_1.c ****     Comp_1_internalIntr = Comp_1_GET_CONFIG_INTR(mode);
 263              		.loc 1 236 0
 264 0002 0001     		lsl	r0, r0, #4
 265              	.LVL17:
 266 0004 3025     		mov	r5, #48
 267 0006 2840     		and	r0, r5
 268 0008 064C     		ldr	r4, .L20
 269 000a 2060     		str	r0, [r4]
 237:.\Generated_Source\PSoC4/Comp_1.c **** 
 238:.\Generated_Source\PSoC4/Comp_1.c ****     enableInterrupts = CyEnterCriticalSection();
ARM GAS  C:\Users\Luci\AppData\Local\Temp\cc978npf.s 			page 10


 270              		.loc 1 238 0
 271 000c FFF7FEFF 		bl	CyEnterCriticalSection
 272              	.LVL18:
 239:.\Generated_Source\PSoC4/Comp_1.c ****     config = Comp_1_CONFIG_REG & (uint32)~Comp_1_CONFIG_INTR_MASK;
 273              		.loc 1 239 0
 274 0010 054B     		ldr	r3, .L20+4
 275 0012 1A68     		ldr	r2, [r3]
 276 0014 AA43     		bic	r2, r5
 277              	.LVL19:
 240:.\Generated_Source\PSoC4/Comp_1.c ****     Comp_1_CONFIG_REG = config | Comp_1_internalIntr;
 278              		.loc 1 240 0
 279 0016 2168     		ldr	r1, [r4]
 280 0018 0A43     		orr	r2, r1
 281              	.LVL20:
 282 001a 1A60     		str	r2, [r3]
 241:.\Generated_Source\PSoC4/Comp_1.c ****     CyExitCriticalSection(enableInterrupts);
 283              		.loc 1 241 0
 284 001c FFF7FEFF 		bl	CyExitCriticalSection
 285              	.LVL21:
 242:.\Generated_Source\PSoC4/Comp_1.c **** }
 286              		.loc 1 242 0
 287              		@ sp needed
 288 0020 38BD     		pop	{r3, r4, r5, pc}
 289              	.L21:
 290 0022 C046     		.align	2
 291              	.L20:
 292 0024 00000000 		.word	.LANCHOR1
 293 0028 04002B40 		.word	1076559876
 294              		.cfi_endproc
 295              	.LFE7:
 296              		.size	Comp_1_SetInterruptMode, .-Comp_1_SetInterruptMode
 297              		.section	.text.Comp_1_GetInterruptSource,"ax",%progbits
 298              		.align	2
 299              		.global	Comp_1_GetInterruptSource
 300              		.code	16
 301              		.thumb_func
 302              		.type	Comp_1_GetInterruptSource, %function
 303              	Comp_1_GetInterruptSource:
 304              	.LFB8:
 243:.\Generated_Source\PSoC4/Comp_1.c **** 
 244:.\Generated_Source\PSoC4/Comp_1.c **** 
 245:.\Generated_Source\PSoC4/Comp_1.c **** /*******************************************************************************
 246:.\Generated_Source\PSoC4/Comp_1.c **** * Function Name: Comp_1_GetInterruptSource
 247:.\Generated_Source\PSoC4/Comp_1.c **** ********************************************************************************
 248:.\Generated_Source\PSoC4/Comp_1.c **** *
 249:.\Generated_Source\PSoC4/Comp_1.c **** * Summary:
 250:.\Generated_Source\PSoC4/Comp_1.c **** *  Gets the interrupt requests. This function is for use when using the combined
 251:.\Generated_Source\PSoC4/Comp_1.c **** *  interrupt signal from the global signal reference. This function from either
 252:.\Generated_Source\PSoC4/Comp_1.c **** *  component instance can be used to determine the interrupt source for both the
 253:.\Generated_Source\PSoC4/Comp_1.c **** *  interrupts combined.
 254:.\Generated_Source\PSoC4/Comp_1.c **** *
 255:.\Generated_Source\PSoC4/Comp_1.c **** * Parameters:
 256:.\Generated_Source\PSoC4/Comp_1.c **** *  None
 257:.\Generated_Source\PSoC4/Comp_1.c **** *
 258:.\Generated_Source\PSoC4/Comp_1.c **** * Return:
 259:.\Generated_Source\PSoC4/Comp_1.c **** *  uint32: Interrupt source. Each component instance has a mask value:
 260:.\Generated_Source\PSoC4/Comp_1.c **** *  Comp_1_INTR.
ARM GAS  C:\Users\Luci\AppData\Local\Temp\cc978npf.s 			page 11


 261:.\Generated_Source\PSoC4/Comp_1.c **** *
 262:.\Generated_Source\PSoC4/Comp_1.c **** *******************************************************************************/
 263:.\Generated_Source\PSoC4/Comp_1.c **** uint32 Comp_1_GetInterruptSource(void)
 264:.\Generated_Source\PSoC4/Comp_1.c **** {
 305              		.loc 1 264 0
 306              		.cfi_startproc
 265:.\Generated_Source\PSoC4/Comp_1.c ****     return (Comp_1_INTR_REG); 
 307              		.loc 1 265 0
 308 0000 014B     		ldr	r3, .L23
 309 0002 1868     		ldr	r0, [r3]
 266:.\Generated_Source\PSoC4/Comp_1.c **** }
 310              		.loc 1 266 0
 311              		@ sp needed
 312 0004 7047     		bx	lr
 313              	.L24:
 314 0006 C046     		.align	2
 315              	.L23:
 316 0008 10002B40 		.word	1076559888
 317              		.cfi_endproc
 318              	.LFE8:
 319              		.size	Comp_1_GetInterruptSource, .-Comp_1_GetInterruptSource
 320              		.section	.text.Comp_1_ClearInterrupt,"ax",%progbits
 321              		.align	2
 322              		.global	Comp_1_ClearInterrupt
 323              		.code	16
 324              		.thumb_func
 325              		.type	Comp_1_ClearInterrupt, %function
 326              	Comp_1_ClearInterrupt:
 327              	.LFB9:
 267:.\Generated_Source\PSoC4/Comp_1.c **** 
 268:.\Generated_Source\PSoC4/Comp_1.c **** 
 269:.\Generated_Source\PSoC4/Comp_1.c **** /*******************************************************************************
 270:.\Generated_Source\PSoC4/Comp_1.c **** * Function Name: Comp_1_ClearInterrupt
 271:.\Generated_Source\PSoC4/Comp_1.c **** ********************************************************************************
 272:.\Generated_Source\PSoC4/Comp_1.c **** *
 273:.\Generated_Source\PSoC4/Comp_1.c **** * Summary:
 274:.\Generated_Source\PSoC4/Comp_1.c **** *  Clears the interrupt request. This function is for use when using the
 275:.\Generated_Source\PSoC4/Comp_1.c **** *  combined interrupt signal from the global signal reference. This function
 276:.\Generated_Source\PSoC4/Comp_1.c **** *  from either component instance can be used to clear either or both
 277:.\Generated_Source\PSoC4/Comp_1.c **** *  interrupts.
 278:.\Generated_Source\PSoC4/Comp_1.c **** *
 279:.\Generated_Source\PSoC4/Comp_1.c **** * Parameters:
 280:.\Generated_Source\PSoC4/Comp_1.c **** *  uint32 interruptMask: Mask of interrupts to clear. Each component instance
 281:.\Generated_Source\PSoC4/Comp_1.c **** *  has a mask value: Comp_1_INTR.
 282:.\Generated_Source\PSoC4/Comp_1.c **** *
 283:.\Generated_Source\PSoC4/Comp_1.c **** * Return:
 284:.\Generated_Source\PSoC4/Comp_1.c **** *  None
 285:.\Generated_Source\PSoC4/Comp_1.c **** *
 286:.\Generated_Source\PSoC4/Comp_1.c **** *******************************************************************************/
 287:.\Generated_Source\PSoC4/Comp_1.c **** void Comp_1_ClearInterrupt(uint32 interruptMask)
 288:.\Generated_Source\PSoC4/Comp_1.c **** {   
 328              		.loc 1 288 0
 329              		.cfi_startproc
 330              	.LVL22:
 289:.\Generated_Source\PSoC4/Comp_1.c ****     Comp_1_INTR_REG = interruptMask;
 331              		.loc 1 289 0
 332 0000 014B     		ldr	r3, .L26
ARM GAS  C:\Users\Luci\AppData\Local\Temp\cc978npf.s 			page 12


 333 0002 1860     		str	r0, [r3]
 290:.\Generated_Source\PSoC4/Comp_1.c **** }
 334              		.loc 1 290 0
 335              		@ sp needed
 336 0004 7047     		bx	lr
 337              	.L27:
 338 0006 C046     		.align	2
 339              	.L26:
 340 0008 10002B40 		.word	1076559888
 341              		.cfi_endproc
 342              	.LFE9:
 343              		.size	Comp_1_ClearInterrupt, .-Comp_1_ClearInterrupt
 344              		.section	.text.Comp_1_SetInterrupt,"ax",%progbits
 345              		.align	2
 346              		.global	Comp_1_SetInterrupt
 347              		.code	16
 348              		.thumb_func
 349              		.type	Comp_1_SetInterrupt, %function
 350              	Comp_1_SetInterrupt:
 351              	.LFB10:
 291:.\Generated_Source\PSoC4/Comp_1.c **** 
 292:.\Generated_Source\PSoC4/Comp_1.c **** 
 293:.\Generated_Source\PSoC4/Comp_1.c **** /*******************************************************************************
 294:.\Generated_Source\PSoC4/Comp_1.c **** * Function Name: Comp_1_SetInterrupt
 295:.\Generated_Source\PSoC4/Comp_1.c **** ********************************************************************************
 296:.\Generated_Source\PSoC4/Comp_1.c **** *
 297:.\Generated_Source\PSoC4/Comp_1.c **** * Summary:
 298:.\Generated_Source\PSoC4/Comp_1.c **** *  Sets a software interrupt request. This function is for use when using the
 299:.\Generated_Source\PSoC4/Comp_1.c **** *  combined interrupt signal from the global signal reference. This function
 300:.\Generated_Source\PSoC4/Comp_1.c **** *  from either component instance can be used to trigger either or both software
 301:.\Generated_Source\PSoC4/Comp_1.c **** *  interrupts.
 302:.\Generated_Source\PSoC4/Comp_1.c **** *
 303:.\Generated_Source\PSoC4/Comp_1.c **** * Parameters:
 304:.\Generated_Source\PSoC4/Comp_1.c **** *  uint32 interruptMask: Mask of interrupts to set. Each component instance has
 305:.\Generated_Source\PSoC4/Comp_1.c **** *  a mask value: Comp_1_INTR_SET.
 306:.\Generated_Source\PSoC4/Comp_1.c **** *
 307:.\Generated_Source\PSoC4/Comp_1.c **** * Return:
 308:.\Generated_Source\PSoC4/Comp_1.c **** *  None
 309:.\Generated_Source\PSoC4/Comp_1.c **** *
 310:.\Generated_Source\PSoC4/Comp_1.c **** *******************************************************************************/
 311:.\Generated_Source\PSoC4/Comp_1.c **** void Comp_1_SetInterrupt(uint32 interruptMask)
 312:.\Generated_Source\PSoC4/Comp_1.c **** {
 352              		.loc 1 312 0
 353              		.cfi_startproc
 354              	.LVL23:
 355 0000 10B5     		push	{r4, lr}
 356              		.cfi_def_cfa_offset 8
 357              		.cfi_offset 4, -8
 358              		.cfi_offset 14, -4
 359 0002 041C     		mov	r4, r0
 313:.\Generated_Source\PSoC4/Comp_1.c ****     uint8 enableInterrupts;
 314:.\Generated_Source\PSoC4/Comp_1.c ****     
 315:.\Generated_Source\PSoC4/Comp_1.c ****     enableInterrupts = CyEnterCriticalSection();
 360              		.loc 1 315 0
 361 0004 FFF7FEFF 		bl	CyEnterCriticalSection
 362              	.LVL24:
 316:.\Generated_Source\PSoC4/Comp_1.c ****     Comp_1_INTR_SET_REG |= interruptMask;
ARM GAS  C:\Users\Luci\AppData\Local\Temp\cc978npf.s 			page 13


 363              		.loc 1 316 0
 364 0008 034B     		ldr	r3, .L29
 365 000a 1A68     		ldr	r2, [r3]
 366 000c 1443     		orr	r4, r2
 367              	.LVL25:
 368 000e 1C60     		str	r4, [r3]
 317:.\Generated_Source\PSoC4/Comp_1.c ****     CyExitCriticalSection(enableInterrupts);
 369              		.loc 1 317 0
 370 0010 FFF7FEFF 		bl	CyExitCriticalSection
 371              	.LVL26:
 318:.\Generated_Source\PSoC4/Comp_1.c **** }
 372              		.loc 1 318 0
 373              		@ sp needed
 374 0014 10BD     		pop	{r4, pc}
 375              	.L30:
 376 0016 C046     		.align	2
 377              	.L29:
 378 0018 14002B40 		.word	1076559892
 379              		.cfi_endproc
 380              	.LFE10:
 381              		.size	Comp_1_SetInterrupt, .-Comp_1_SetInterrupt
 382              		.section	.text.Comp_1_SetHysteresis,"ax",%progbits
 383              		.align	2
 384              		.global	Comp_1_SetHysteresis
 385              		.code	16
 386              		.thumb_func
 387              		.type	Comp_1_SetHysteresis, %function
 388              	Comp_1_SetHysteresis:
 389              	.LFB11:
 319:.\Generated_Source\PSoC4/Comp_1.c **** 
 320:.\Generated_Source\PSoC4/Comp_1.c **** 
 321:.\Generated_Source\PSoC4/Comp_1.c **** /*******************************************************************************
 322:.\Generated_Source\PSoC4/Comp_1.c **** * Function Name: Comp_1_SetHysteresis
 323:.\Generated_Source\PSoC4/Comp_1.c **** ********************************************************************************
 324:.\Generated_Source\PSoC4/Comp_1.c **** *
 325:.\Generated_Source\PSoC4/Comp_1.c **** * Summary:
 326:.\Generated_Source\PSoC4/Comp_1.c **** *  Enables or disables the hysteresis.
 327:.\Generated_Source\PSoC4/Comp_1.c **** *
 328:.\Generated_Source\PSoC4/Comp_1.c **** * Parameters:
 329:.\Generated_Source\PSoC4/Comp_1.c **** *  hysteresis: (uint32) Enables or disables the hysteresis setting.
 330:.\Generated_Source\PSoC4/Comp_1.c **** *  Comp_1_HYST_ENABLE     - Enable hysteresis
 331:.\Generated_Source\PSoC4/Comp_1.c **** *  Comp_1_HYST_DISABLE    - Disable hysteresis
 332:.\Generated_Source\PSoC4/Comp_1.c **** *
 333:.\Generated_Source\PSoC4/Comp_1.c **** * Return:
 334:.\Generated_Source\PSoC4/Comp_1.c **** *  None
 335:.\Generated_Source\PSoC4/Comp_1.c **** *
 336:.\Generated_Source\PSoC4/Comp_1.c **** *******************************************************************************/
 337:.\Generated_Source\PSoC4/Comp_1.c **** void Comp_1_SetHysteresis(uint32 hysteresis)
 338:.\Generated_Source\PSoC4/Comp_1.c **** {
 390              		.loc 1 338 0
 391              		.cfi_startproc
 392              	.LVL27:
 393 0000 10B5     		push	{r4, lr}
 394              		.cfi_def_cfa_offset 8
 395              		.cfi_offset 4, -8
 396              		.cfi_offset 14, -4
 397 0002 041C     		mov	r4, r0
ARM GAS  C:\Users\Luci\AppData\Local\Temp\cc978npf.s 			page 14


 339:.\Generated_Source\PSoC4/Comp_1.c ****     uint8 enableInterrupts;
 340:.\Generated_Source\PSoC4/Comp_1.c ****     
 341:.\Generated_Source\PSoC4/Comp_1.c ****     enableInterrupts = CyEnterCriticalSection();
 398              		.loc 1 341 0
 399 0004 FFF7FEFF 		bl	CyEnterCriticalSection
 400              	.LVL28:
 342:.\Generated_Source\PSoC4/Comp_1.c ****     if(0u != hysteresis)
 401              		.loc 1 342 0
 402 0008 002C     		cmp	r4, #0
 403 000a 05D0     		beq	.L32
 343:.\Generated_Source\PSoC4/Comp_1.c ****     {
 344:.\Generated_Source\PSoC4/Comp_1.c ****         Comp_1_CONFIG_REG |= Comp_1_CONFIG_HYST;
 404              		.loc 1 344 0
 405 000c 064B     		ldr	r3, .L34
 406 000e 1968     		ldr	r1, [r3]
 407 0010 0422     		mov	r2, #4
 408 0012 0A43     		orr	r2, r1
 409 0014 1A60     		str	r2, [r3]
 410 0016 04E0     		b	.L33
 411              	.L32:
 345:.\Generated_Source\PSoC4/Comp_1.c ****     }
 346:.\Generated_Source\PSoC4/Comp_1.c ****     else
 347:.\Generated_Source\PSoC4/Comp_1.c ****     {
 348:.\Generated_Source\PSoC4/Comp_1.c ****         Comp_1_CONFIG_REG &= (uint32)~Comp_1_CONFIG_HYST;
 412              		.loc 1 348 0
 413 0018 034B     		ldr	r3, .L34
 414 001a 1A68     		ldr	r2, [r3]
 415 001c 0421     		mov	r1, #4
 416 001e 8A43     		bic	r2, r1
 417 0020 1A60     		str	r2, [r3]
 418              	.L33:
 349:.\Generated_Source\PSoC4/Comp_1.c ****     }
 350:.\Generated_Source\PSoC4/Comp_1.c ****     CyExitCriticalSection(enableInterrupts);
 419              		.loc 1 350 0
 420 0022 FFF7FEFF 		bl	CyExitCriticalSection
 421              	.LVL29:
 351:.\Generated_Source\PSoC4/Comp_1.c **** }
 422              		.loc 1 351 0
 423              		@ sp needed
 424              	.LVL30:
 425 0026 10BD     		pop	{r4, pc}
 426              	.L35:
 427              		.align	2
 428              	.L34:
 429 0028 04002B40 		.word	1076559876
 430              		.cfi_endproc
 431              	.LFE11:
 432              		.size	Comp_1_SetHysteresis, .-Comp_1_SetHysteresis
 433              		.section	.text.Comp_1_SetFilter,"ax",%progbits
 434              		.align	2
 435              		.global	Comp_1_SetFilter
 436              		.code	16
 437              		.thumb_func
 438              		.type	Comp_1_SetFilter, %function
 439              	Comp_1_SetFilter:
 440              	.LFB12:
 352:.\Generated_Source\PSoC4/Comp_1.c **** 
ARM GAS  C:\Users\Luci\AppData\Local\Temp\cc978npf.s 			page 15


 353:.\Generated_Source\PSoC4/Comp_1.c **** 
 354:.\Generated_Source\PSoC4/Comp_1.c **** /*******************************************************************************
 355:.\Generated_Source\PSoC4/Comp_1.c **** * Function Name: Comp_1_SetFilter
 356:.\Generated_Source\PSoC4/Comp_1.c **** ********************************************************************************
 357:.\Generated_Source\PSoC4/Comp_1.c **** *
 358:.\Generated_Source\PSoC4/Comp_1.c **** * Summary:
 359:.\Generated_Source\PSoC4/Comp_1.c **** *  Enables or disables the digital filter. This still exists for saving backward 
 360:.\Generated_Source\PSoC4/Comp_1.c **** *  compatibility, but not recommended for using.
 361:.\Generated_Source\PSoC4/Comp_1.c **** *  This API is DEPRECATED and should not be used in new projects.
 362:.\Generated_Source\PSoC4/Comp_1.c **** *
 363:.\Generated_Source\PSoC4/Comp_1.c **** * Parameters:
 364:.\Generated_Source\PSoC4/Comp_1.c **** *  uint32 filter: filter enable.
 365:.\Generated_Source\PSoC4/Comp_1.c **** *  Comp_1_FILT_ENABLE  - Enable filter
 366:.\Generated_Source\PSoC4/Comp_1.c **** *  Comp_1_FILT_DISABLE - Disable filter
 367:.\Generated_Source\PSoC4/Comp_1.c **** *
 368:.\Generated_Source\PSoC4/Comp_1.c **** * Return:
 369:.\Generated_Source\PSoC4/Comp_1.c **** *  None
 370:.\Generated_Source\PSoC4/Comp_1.c **** *
 371:.\Generated_Source\PSoC4/Comp_1.c **** *******************************************************************************/
 372:.\Generated_Source\PSoC4/Comp_1.c **** void Comp_1_SetFilter(uint32 filter)
 373:.\Generated_Source\PSoC4/Comp_1.c **** {
 441              		.loc 1 373 0
 442              		.cfi_startproc
 443              	.LVL31:
 444 0000 10B5     		push	{r4, lr}
 445              		.cfi_def_cfa_offset 8
 446              		.cfi_offset 4, -8
 447              		.cfi_offset 14, -4
 448 0002 041C     		mov	r4, r0
 374:.\Generated_Source\PSoC4/Comp_1.c ****     uint8 enableInterrupts;
 375:.\Generated_Source\PSoC4/Comp_1.c ****     
 376:.\Generated_Source\PSoC4/Comp_1.c ****     enableInterrupts = CyEnterCriticalSection();
 449              		.loc 1 376 0
 450 0004 FFF7FEFF 		bl	CyEnterCriticalSection
 451              	.LVL32:
 377:.\Generated_Source\PSoC4/Comp_1.c ****     if( 0u != filter)
 452              		.loc 1 377 0
 453 0008 002C     		cmp	r4, #0
 454 000a 05D0     		beq	.L37
 378:.\Generated_Source\PSoC4/Comp_1.c ****     {
 379:.\Generated_Source\PSoC4/Comp_1.c ****         Comp_1_CONFIG_REG |= Comp_1_CONFIG_FILT;
 455              		.loc 1 379 0
 456 000c 064B     		ldr	r3, .L39
 457 000e 1968     		ldr	r1, [r3]
 458 0010 0822     		mov	r2, #8
 459 0012 0A43     		orr	r2, r1
 460 0014 1A60     		str	r2, [r3]
 461 0016 04E0     		b	.L38
 462              	.L37:
 380:.\Generated_Source\PSoC4/Comp_1.c ****     }
 381:.\Generated_Source\PSoC4/Comp_1.c ****     else
 382:.\Generated_Source\PSoC4/Comp_1.c ****     {
 383:.\Generated_Source\PSoC4/Comp_1.c ****         Comp_1_CONFIG_REG &= (uint32)~Comp_1_CONFIG_FILT;
 463              		.loc 1 383 0
 464 0018 034B     		ldr	r3, .L39
 465 001a 1A68     		ldr	r2, [r3]
 466 001c 0821     		mov	r1, #8
ARM GAS  C:\Users\Luci\AppData\Local\Temp\cc978npf.s 			page 16


 467 001e 8A43     		bic	r2, r1
 468 0020 1A60     		str	r2, [r3]
 469              	.L38:
 384:.\Generated_Source\PSoC4/Comp_1.c ****     }
 385:.\Generated_Source\PSoC4/Comp_1.c ****     CyExitCriticalSection(enableInterrupts);
 470              		.loc 1 385 0
 471 0022 FFF7FEFF 		bl	CyExitCriticalSection
 472              	.LVL33:
 386:.\Generated_Source\PSoC4/Comp_1.c **** }
 473              		.loc 1 386 0
 474              		@ sp needed
 475              	.LVL34:
 476 0026 10BD     		pop	{r4, pc}
 477              	.L40:
 478              		.align	2
 479              	.L39:
 480 0028 04002B40 		.word	1076559876
 481              		.cfi_endproc
 482              	.LFE12:
 483              		.size	Comp_1_SetFilter, .-Comp_1_SetFilter
 484              		.section	.text.Comp_1_GetCompare,"ax",%progbits
 485              		.align	2
 486              		.global	Comp_1_GetCompare
 487              		.code	16
 488              		.thumb_func
 489              		.type	Comp_1_GetCompare, %function
 490              	Comp_1_GetCompare:
 491              	.LFB13:
 387:.\Generated_Source\PSoC4/Comp_1.c **** 
 388:.\Generated_Source\PSoC4/Comp_1.c **** 
 389:.\Generated_Source\PSoC4/Comp_1.c **** /*******************************************************************************
 390:.\Generated_Source\PSoC4/Comp_1.c **** * Function Name: Comp_1_GetCompare
 391:.\Generated_Source\PSoC4/Comp_1.c **** ********************************************************************************
 392:.\Generated_Source\PSoC4/Comp_1.c **** *
 393:.\Generated_Source\PSoC4/Comp_1.c **** * Summary:
 394:.\Generated_Source\PSoC4/Comp_1.c **** *  This function returns a nonzero value when the voltage connected to the
 395:.\Generated_Source\PSoC4/Comp_1.c **** *  positive input is greater than the negative input voltage.
 396:.\Generated_Source\PSoC4/Comp_1.c **** *  This function reads the direct (unflopped) comparator output which can also be 
 397:.\Generated_Source\PSoC4/Comp_1.c **** *  metastable (since it may result in incorrect data).
 398:.\Generated_Source\PSoC4/Comp_1.c **** *
 399:.\Generated_Source\PSoC4/Comp_1.c **** * Parameters:
 400:.\Generated_Source\PSoC4/Comp_1.c **** *  None
 401:.\Generated_Source\PSoC4/Comp_1.c **** *
 402:.\Generated_Source\PSoC4/Comp_1.c **** * Return:
 403:.\Generated_Source\PSoC4/Comp_1.c **** *  (uint32) Comparator output state. This value is not impacted by the interrupt
 404:.\Generated_Source\PSoC4/Comp_1.c **** *  edge detect setting:
 405:.\Generated_Source\PSoC4/Comp_1.c **** *   0 - if positive input is less than negative one.
 406:.\Generated_Source\PSoC4/Comp_1.c **** *   1 - if positive input greater than negative one.
 407:.\Generated_Source\PSoC4/Comp_1.c **** *
 408:.\Generated_Source\PSoC4/Comp_1.c **** *******************************************************************************/
 409:.\Generated_Source\PSoC4/Comp_1.c **** uint32 Comp_1_GetCompare(void)
 410:.\Generated_Source\PSoC4/Comp_1.c **** {
 492              		.loc 1 410 0
 493              		.cfi_startproc
 411:.\Generated_Source\PSoC4/Comp_1.c ****     return((uint32)((0u == (Comp_1_CONFIG_REG & Comp_1_CONFIG_OUT)) ? 0u : 1u));
 494              		.loc 1 411 0
 495 0000 024B     		ldr	r3, .L42
ARM GAS  C:\Users\Luci\AppData\Local\Temp\cc978npf.s 			page 17


 496 0002 1868     		ldr	r0, [r3]
 497 0004 4006     		lsl	r0, r0, #25
 498 0006 C00F     		lsr	r0, r0, #31
 412:.\Generated_Source\PSoC4/Comp_1.c **** }
 499              		.loc 1 412 0
 500              		@ sp needed
 501 0008 7047     		bx	lr
 502              	.L43:
 503 000a C046     		.align	2
 504              	.L42:
 505 000c 04002B40 		.word	1076559876
 506              		.cfi_endproc
 507              	.LFE13:
 508              		.size	Comp_1_GetCompare, .-Comp_1_GetCompare
 509              		.section	.text.Comp_1_ZeroCal,"ax",%progbits
 510              		.align	2
 511              		.global	Comp_1_ZeroCal
 512              		.code	16
 513              		.thumb_func
 514              		.type	Comp_1_ZeroCal, %function
 515              	Comp_1_ZeroCal:
 516              	.LFB14:
 413:.\Generated_Source\PSoC4/Comp_1.c **** 
 414:.\Generated_Source\PSoC4/Comp_1.c **** 
 415:.\Generated_Source\PSoC4/Comp_1.c **** /*******************************************************************************
 416:.\Generated_Source\PSoC4/Comp_1.c **** * Function Name: Comp_1_ZeroCal
 417:.\Generated_Source\PSoC4/Comp_1.c **** ********************************************************************************
 418:.\Generated_Source\PSoC4/Comp_1.c **** *
 419:.\Generated_Source\PSoC4/Comp_1.c **** * Summary:
 420:.\Generated_Source\PSoC4/Comp_1.c **** *  Performs custom calibration of the input offset to minimize error for a
 421:.\Generated_Source\PSoC4/Comp_1.c **** *  specific set of conditions: comparator reference voltage, supply voltage,
 422:.\Generated_Source\PSoC4/Comp_1.c **** *  and operating temperature. A reference voltage in the range at which the
 423:.\Generated_Source\PSoC4/Comp_1.c **** *  comparator will be used must be applied to one of the inputs. The two inputs
 424:.\Generated_Source\PSoC4/Comp_1.c **** *  will be shorted internally to perform the offset calibration.
 425:.\Generated_Source\PSoC4/Comp_1.c **** *
 426:.\Generated_Source\PSoC4/Comp_1.c **** * Parameters:
 427:.\Generated_Source\PSoC4/Comp_1.c **** *  None
 428:.\Generated_Source\PSoC4/Comp_1.c **** *
 429:.\Generated_Source\PSoC4/Comp_1.c **** * Return:
 430:.\Generated_Source\PSoC4/Comp_1.c **** *  The value from the comparator trim register after the offset calibration is
 431:.\Generated_Source\PSoC4/Comp_1.c **** *  complete. This value has the same format as the input parameter for the
 432:.\Generated_Source\PSoC4/Comp_1.c **** *  Comp_1_LoadTrim() API routine.
 433:.\Generated_Source\PSoC4/Comp_1.c **** *
 434:.\Generated_Source\PSoC4/Comp_1.c **** *******************************************************************************/
 435:.\Generated_Source\PSoC4/Comp_1.c **** uint32 Comp_1_ZeroCal(void)
 436:.\Generated_Source\PSoC4/Comp_1.c **** {
 517              		.loc 1 436 0
 518              		.cfi_startproc
 519 0000 70B5     		push	{r4, r5, r6, lr}
 520              		.cfi_def_cfa_offset 16
 521              		.cfi_offset 4, -16
 522              		.cfi_offset 5, -12
 523              		.cfi_offset 6, -8
 524              		.cfi_offset 14, -4
 437:.\Generated_Source\PSoC4/Comp_1.c ****     uint32 cmpOut;
 438:.\Generated_Source\PSoC4/Comp_1.c ****     uint32 i;
 439:.\Generated_Source\PSoC4/Comp_1.c **** 
ARM GAS  C:\Users\Luci\AppData\Local\Temp\cc978npf.s 			page 18


 440:.\Generated_Source\PSoC4/Comp_1.c ****     Comp_1_DFT_REG |= Comp_1_DFT_CAL_EN;
 525              		.loc 1 440 0
 526 0002 254B     		ldr	r3, .L53
 527 0004 1968     		ldr	r1, [r3]
 528 0006 0122     		mov	r2, #1
 529 0008 0A43     		orr	r2, r1
 530 000a 1A60     		str	r2, [r3]
 441:.\Generated_Source\PSoC4/Comp_1.c ****     Comp_1_TRIMA_REG = 0u;
 531              		.loc 1 441 0
 532 000c 0023     		mov	r3, #0
 533 000e 234A     		ldr	r2, .L53+4
 534 0010 1360     		str	r3, [r2]
 442:.\Generated_Source\PSoC4/Comp_1.c ****     Comp_1_TRIMB_REG = 0u;
 535              		.loc 1 442 0
 536 0012 234A     		ldr	r2, .L53+8
 537 0014 1360     		str	r3, [r2]
 443:.\Generated_Source\PSoC4/Comp_1.c **** 
 444:.\Generated_Source\PSoC4/Comp_1.c ****     CyDelayUs(1u);
 538              		.loc 1 444 0
 539 0016 0120     		mov	r0, #1
 540 0018 FFF7FEFF 		bl	CyDelayUs
 541              	.LVL35:
 445:.\Generated_Source\PSoC4/Comp_1.c **** 
 446:.\Generated_Source\PSoC4/Comp_1.c ****     cmpOut = Comp_1_GetCompare();
 542              		.loc 1 446 0
 543 001c FFF7FEFF 		bl	Comp_1_GetCompare
 544              	.LVL36:
 545 0020 061E     		sub	r6, r0, #0
 546              	.LVL37:
 447:.\Generated_Source\PSoC4/Comp_1.c **** 
 448:.\Generated_Source\PSoC4/Comp_1.c ****     if(0u != cmpOut)
 547              		.loc 1 448 0
 548 0022 02D0     		beq	.L45
 449:.\Generated_Source\PSoC4/Comp_1.c ****     {
 450:.\Generated_Source\PSoC4/Comp_1.c ****         Comp_1_TRIMA_REG = ((uint32) 0x01u << Comp_1_TRIMA_SIGNBIT);
 549              		.loc 1 450 0
 550 0024 1022     		mov	r2, #16
 551 0026 1D4B     		ldr	r3, .L53+4
 552 0028 1A60     		str	r2, [r3]
 553              	.L45:
 436:.\Generated_Source\PSoC4/Comp_1.c **** {
 554              		.loc 1 436 0 discriminator 1
 555 002a 1024     		mov	r4, #16
 451:.\Generated_Source\PSoC4/Comp_1.c ****     }
 452:.\Generated_Source\PSoC4/Comp_1.c **** 
 453:.\Generated_Source\PSoC4/Comp_1.c ****     for(i = (Comp_1_TRIMA_MAX_VALUE +1u ); i != 0u; i--)
 454:.\Generated_Source\PSoC4/Comp_1.c ****     {
 455:.\Generated_Source\PSoC4/Comp_1.c ****         Comp_1_TRIMA_REG++;
 556              		.loc 1 455 0 discriminator 1
 557 002c 1B4D     		ldr	r5, .L53+4
 558 002e 0AE0     		b	.L46
 559              	.LVL38:
 560              	.L48:
 561              		.loc 1 455 0 is_stmt 0
 562 0030 2B68     		ldr	r3, [r5]
 563 0032 0133     		add	r3, r3, #1
 564 0034 2B60     		str	r3, [r5]
ARM GAS  C:\Users\Luci\AppData\Local\Temp\cc978npf.s 			page 19


 456:.\Generated_Source\PSoC4/Comp_1.c ****         CyDelayUs(1u);
 565              		.loc 1 456 0 is_stmt 1
 566 0036 0120     		mov	r0, #1
 567 0038 FFF7FEFF 		bl	CyDelayUs
 568              	.LVL39:
 457:.\Generated_Source\PSoC4/Comp_1.c ****         if(cmpOut != Comp_1_GetCompare())
 569              		.loc 1 457 0
 570 003c FFF7FEFF 		bl	Comp_1_GetCompare
 571              	.LVL40:
 572 0040 B042     		cmp	r0, r6
 573 0042 02D1     		bne	.L47
 453:.\Generated_Source\PSoC4/Comp_1.c ****     for(i = (Comp_1_TRIMA_MAX_VALUE +1u ); i != 0u; i--)
 574              		.loc 1 453 0
 575 0044 013C     		sub	r4, r4, #1
 576              	.LVL41:
 577              	.L46:
 453:.\Generated_Source\PSoC4/Comp_1.c ****     for(i = (Comp_1_TRIMA_MAX_VALUE +1u ); i != 0u; i--)
 578              		.loc 1 453 0 is_stmt 0 discriminator 1
 579 0046 002C     		cmp	r4, #0
 580 0048 F2D1     		bne	.L48
 581              	.L47:
 458:.\Generated_Source\PSoC4/Comp_1.c ****         {
 459:.\Generated_Source\PSoC4/Comp_1.c ****             break;
 460:.\Generated_Source\PSoC4/Comp_1.c ****         }
 461:.\Generated_Source\PSoC4/Comp_1.c ****     }
 462:.\Generated_Source\PSoC4/Comp_1.c **** 
 463:.\Generated_Source\PSoC4/Comp_1.c ****     if(((uint32)(Comp_1_CONFIG_REG >> Comp_1_CONFIG_REG_SHIFT) &
 582              		.loc 1 463 0 is_stmt 1
 583 004a 164B     		ldr	r3, .L53+12
 584 004c 1B68     		ldr	r3, [r3]
 585 004e 9A07     		lsl	r2, r3, #30
 586 0050 16D1     		bne	.L49
 464:.\Generated_Source\PSoC4/Comp_1.c ****         Comp_1_SPEED_PARAM_MASK) == Comp_1_MED_SPEED)
 465:.\Generated_Source\PSoC4/Comp_1.c ****     {
 466:.\Generated_Source\PSoC4/Comp_1.c ****         cmpOut = Comp_1_GetCompare();
 587              		.loc 1 466 0
 588 0052 FFF7FEFF 		bl	Comp_1_GetCompare
 589              	.LVL42:
 590 0056 061E     		sub	r6, r0, #0
 591              	.LVL43:
 467:.\Generated_Source\PSoC4/Comp_1.c **** 
 468:.\Generated_Source\PSoC4/Comp_1.c ****         if(0u == cmpOut)
 592              		.loc 1 468 0
 593 0058 02D1     		bne	.L50
 469:.\Generated_Source\PSoC4/Comp_1.c ****         {
 470:.\Generated_Source\PSoC4/Comp_1.c ****             Comp_1_TRIMB_REG = ((uint32)1u << Comp_1_TRIMB_SIGNBIT);
 594              		.loc 1 470 0
 595 005a 1022     		mov	r2, #16
 596 005c 104B     		ldr	r3, .L53+8
 597 005e 1A60     		str	r2, [r3]
 598              	.L50:
 436:.\Generated_Source\PSoC4/Comp_1.c **** {
 599              		.loc 1 436 0 discriminator 1
 600 0060 1024     		mov	r4, #16
 601              	.LVL44:
 471:.\Generated_Source\PSoC4/Comp_1.c ****         }
 472:.\Generated_Source\PSoC4/Comp_1.c **** 
ARM GAS  C:\Users\Luci\AppData\Local\Temp\cc978npf.s 			page 20


 473:.\Generated_Source\PSoC4/Comp_1.c ****         for(i = (Comp_1_TRIMB_MAX_VALUE +1u ); i != 0u; i--)
 474:.\Generated_Source\PSoC4/Comp_1.c ****         {
 475:.\Generated_Source\PSoC4/Comp_1.c ****             Comp_1_TRIMB_REG++;
 602              		.loc 1 475 0 discriminator 1
 603 0062 0F4D     		ldr	r5, .L53+8
 604 0064 0AE0     		b	.L51
 605              	.LVL45:
 606              	.L52:
 607              		.loc 1 475 0 is_stmt 0
 608 0066 2B68     		ldr	r3, [r5]
 609 0068 0133     		add	r3, r3, #1
 610 006a 2B60     		str	r3, [r5]
 476:.\Generated_Source\PSoC4/Comp_1.c ****             CyDelayUs(1u);
 611              		.loc 1 476 0 is_stmt 1
 612 006c 0120     		mov	r0, #1
 613 006e FFF7FEFF 		bl	CyDelayUs
 614              	.LVL46:
 477:.\Generated_Source\PSoC4/Comp_1.c ****             if(cmpOut != Comp_1_GetCompare())
 615              		.loc 1 477 0
 616 0072 FFF7FEFF 		bl	Comp_1_GetCompare
 617              	.LVL47:
 618 0076 B042     		cmp	r0, r6
 619 0078 02D1     		bne	.L49
 473:.\Generated_Source\PSoC4/Comp_1.c ****         for(i = (Comp_1_TRIMB_MAX_VALUE +1u ); i != 0u; i--)
 620              		.loc 1 473 0
 621 007a 013C     		sub	r4, r4, #1
 622              	.LVL48:
 623              	.L51:
 473:.\Generated_Source\PSoC4/Comp_1.c ****         for(i = (Comp_1_TRIMB_MAX_VALUE +1u ); i != 0u; i--)
 624              		.loc 1 473 0 is_stmt 0 discriminator 1
 625 007c 002C     		cmp	r4, #0
 626 007e F2D1     		bne	.L52
 627              	.L49:
 478:.\Generated_Source\PSoC4/Comp_1.c ****             {
 479:.\Generated_Source\PSoC4/Comp_1.c ****                 break;
 480:.\Generated_Source\PSoC4/Comp_1.c ****             }
 481:.\Generated_Source\PSoC4/Comp_1.c ****         }
 482:.\Generated_Source\PSoC4/Comp_1.c ****     }
 483:.\Generated_Source\PSoC4/Comp_1.c **** 
 484:.\Generated_Source\PSoC4/Comp_1.c ****     Comp_1_DFT_REG &= ((uint32)~Comp_1_DFT_CAL_EN);
 628              		.loc 1 484 0 is_stmt 1
 629 0080 054B     		ldr	r3, .L53
 630 0082 1A68     		ldr	r2, [r3]
 631 0084 0121     		mov	r1, #1
 632 0086 8A43     		bic	r2, r1
 633 0088 1A60     		str	r2, [r3]
 485:.\Generated_Source\PSoC4/Comp_1.c **** 
 486:.\Generated_Source\PSoC4/Comp_1.c ****     return (Comp_1_TRIMA_REG | ((uint32)Comp_1_TRIMB_REG << Comp_1_TRIMB_SHIFT));
 634              		.loc 1 486 0
 635 008a 044B     		ldr	r3, .L53+4
 636 008c 1B68     		ldr	r3, [r3]
 637 008e 044A     		ldr	r2, .L53+8
 638 0090 1068     		ldr	r0, [r2]
 639 0092 0002     		lsl	r0, r0, #8
 640 0094 1843     		orr	r0, r3
 487:.\Generated_Source\PSoC4/Comp_1.c **** }
 641              		.loc 1 487 0
ARM GAS  C:\Users\Luci\AppData\Local\Temp\cc978npf.s 			page 21


 642              		@ sp needed
 643              	.LVL49:
 644              	.LVL50:
 645 0096 70BD     		pop	{r4, r5, r6, pc}
 646              	.L54:
 647              		.align	2
 648              	.L53:
 649 0098 08002B40 		.word	1076559880
 650 009c 00FF2B40 		.word	1076625152
 651 00a0 04FF2B40 		.word	1076625156
 652 00a4 04002B40 		.word	1076559876
 653              		.cfi_endproc
 654              	.LFE14:
 655              		.size	Comp_1_ZeroCal, .-Comp_1_ZeroCal
 656              		.section	.text.Comp_1_LoadTrim,"ax",%progbits
 657              		.align	2
 658              		.global	Comp_1_LoadTrim
 659              		.code	16
 660              		.thumb_func
 661              		.type	Comp_1_LoadTrim, %function
 662              	Comp_1_LoadTrim:
 663              	.LFB15:
 488:.\Generated_Source\PSoC4/Comp_1.c **** 
 489:.\Generated_Source\PSoC4/Comp_1.c **** 
 490:.\Generated_Source\PSoC4/Comp_1.c **** /*******************************************************************************
 491:.\Generated_Source\PSoC4/Comp_1.c **** * Function Name: Comp_1_LoadTrim
 492:.\Generated_Source\PSoC4/Comp_1.c **** ********************************************************************************
 493:.\Generated_Source\PSoC4/Comp_1.c **** *
 494:.\Generated_Source\PSoC4/Comp_1.c **** * Summary:
 495:.\Generated_Source\PSoC4/Comp_1.c **** *  This function writes a value into the comparator offset trim register.
 496:.\Generated_Source\PSoC4/Comp_1.c **** *
 497:.\Generated_Source\PSoC4/Comp_1.c **** * Parameters:
 498:.\Generated_Source\PSoC4/Comp_1.c **** *  trimVal: Value to be stored in the comparator offset trim register. This
 499:.\Generated_Source\PSoC4/Comp_1.c **** *  value has the same format as the parameter returned by the
 500:.\Generated_Source\PSoC4/Comp_1.c **** *  Comp_1_ZeroCal() API routine.
 501:.\Generated_Source\PSoC4/Comp_1.c **** *
 502:.\Generated_Source\PSoC4/Comp_1.c **** * Return:
 503:.\Generated_Source\PSoC4/Comp_1.c **** *  None
 504:.\Generated_Source\PSoC4/Comp_1.c **** *
 505:.\Generated_Source\PSoC4/Comp_1.c **** *******************************************************************************/
 506:.\Generated_Source\PSoC4/Comp_1.c **** void Comp_1_LoadTrim(uint32 trimVal)
 507:.\Generated_Source\PSoC4/Comp_1.c **** {
 664              		.loc 1 507 0
 665              		.cfi_startproc
 666              	.LVL51:
 508:.\Generated_Source\PSoC4/Comp_1.c ****     Comp_1_TRIMA_REG = (trimVal & Comp_1_TRIMA_MASK);
 667              		.loc 1 508 0
 668 0000 1F23     		mov	r3, #31
 669 0002 191C     		mov	r1, r3
 670 0004 0140     		and	r1, r0
 671 0006 034A     		ldr	r2, .L56
 672 0008 1160     		str	r1, [r2]
 509:.\Generated_Source\PSoC4/Comp_1.c ****     Comp_1_TRIMB_REG = ((trimVal >> Comp_1_TRIMB_SHIFT) & Comp_1_TRIMB_MASK);
 673              		.loc 1 509 0
 674 000a 000A     		lsr	r0, r0, #8
 675              	.LVL52:
 676 000c 0340     		and	r3, r0
ARM GAS  C:\Users\Luci\AppData\Local\Temp\cc978npf.s 			page 22


 677 000e 024A     		ldr	r2, .L56+4
 678 0010 1360     		str	r3, [r2]
 510:.\Generated_Source\PSoC4/Comp_1.c **** }
 679              		.loc 1 510 0
 680              		@ sp needed
 681 0012 7047     		bx	lr
 682              	.L57:
 683              		.align	2
 684              	.L56:
 685 0014 00FF2B40 		.word	1076625152
 686 0018 04FF2B40 		.word	1076625156
 687              		.cfi_endproc
 688              	.LFE15:
 689              		.size	Comp_1_LoadTrim, .-Comp_1_LoadTrim
 690              		.section	.text.Comp_1_SetOutputMode,"ax",%progbits
 691              		.align	2
 692              		.global	Comp_1_SetOutputMode
 693              		.code	16
 694              		.thumb_func
 695              		.type	Comp_1_SetOutputMode, %function
 696              	Comp_1_SetOutputMode:
 697              	.LFB16:
 511:.\Generated_Source\PSoC4/Comp_1.c **** 
 512:.\Generated_Source\PSoC4/Comp_1.c **** 
 513:.\Generated_Source\PSoC4/Comp_1.c **** #if (Comp_1_CY_LPCOMP_V2)
 514:.\Generated_Source\PSoC4/Comp_1.c ****     
 515:.\Generated_Source\PSoC4/Comp_1.c **** /*******************************************************************************
 516:.\Generated_Source\PSoC4/Comp_1.c **** * Function Name: Comp_1_SetOutputMode
 517:.\Generated_Source\PSoC4/Comp_1.c **** ********************************************************************************
 518:.\Generated_Source\PSoC4/Comp_1.c **** *
 519:.\Generated_Source\PSoC4/Comp_1.c **** * Summary:
 520:.\Generated_Source\PSoC4/Comp_1.c **** *  Set comparator output mode. 
 521:.\Generated_Source\PSoC4/Comp_1.c **** *
 522:.\Generated_Source\PSoC4/Comp_1.c **** * Parameters:
 523:.\Generated_Source\PSoC4/Comp_1.c **** *  uint32 mode: Comparator output mode value
 524:.\Generated_Source\PSoC4/Comp_1.c **** *  Comp_1_OUT_DIRECT - Direct output
 525:.\Generated_Source\PSoC4/Comp_1.c **** *  Comp_1_OUT_SYNC   - Synchronized output
 526:.\Generated_Source\PSoC4/Comp_1.c **** *  Comp_1_OUT_PULSE  - Pulse output
 527:.\Generated_Source\PSoC4/Comp_1.c **** *
 528:.\Generated_Source\PSoC4/Comp_1.c **** * Return:
 529:.\Generated_Source\PSoC4/Comp_1.c **** *  None
 530:.\Generated_Source\PSoC4/Comp_1.c **** *
 531:.\Generated_Source\PSoC4/Comp_1.c **** *******************************************************************************/
 532:.\Generated_Source\PSoC4/Comp_1.c **** void Comp_1_SetOutputMode(uint32 mode)
 533:.\Generated_Source\PSoC4/Comp_1.c **** {
 698              		.loc 1 533 0
 699              		.cfi_startproc
 700              	.LVL53:
 701 0000 10B5     		push	{r4, lr}
 702              		.cfi_def_cfa_offset 8
 703              		.cfi_offset 4, -8
 704              		.cfi_offset 14, -4
 705 0002 041C     		mov	r4, r0
 534:.\Generated_Source\PSoC4/Comp_1.c ****     uint32 config;
 535:.\Generated_Source\PSoC4/Comp_1.c ****     uint8 enableInterrupts;
 536:.\Generated_Source\PSoC4/Comp_1.c ****     
 537:.\Generated_Source\PSoC4/Comp_1.c ****     enableInterrupts = CyEnterCriticalSection();
ARM GAS  C:\Users\Luci\AppData\Local\Temp\cc978npf.s 			page 23


 706              		.loc 1 537 0
 707 0004 FFF7FEFF 		bl	CyEnterCriticalSection
 708              	.LVL54:
 538:.\Generated_Source\PSoC4/Comp_1.c ****     config = Comp_1_CONFIG_REG & ((uint32)~(Comp_1_CONFIG_DSI_BYPASS | \
 709              		.loc 1 538 0
 710 0008 0B4B     		ldr	r3, .L63
 711 000a 1A68     		ldr	r2, [r3]
 712 000c 0B4B     		ldr	r3, .L63+4
 713 000e 1A40     		and	r2, r3
 714              	.LVL55:
 539:.\Generated_Source\PSoC4/Comp_1.c ****                                                      Comp_1_CONFIG_DSI_LEVEL));
 540:.\Generated_Source\PSoC4/Comp_1.c ****     Comp_1_CONFIG_REG = config | Comp_1_GET_CONFIG_DSI_BYPASS(mode) | \
 715              		.loc 1 540 0
 716 0010 A307     		lsl	r3, r4, #30
 717 0012 02D5     		bpl	.L61
 718 0014 8023     		mov	r3, #128
 719 0016 5B02     		lsl	r3, r3, #9
 720 0018 00E0     		b	.L59
 721              	.L61:
 722 001a 0023     		mov	r3, #0
 723              	.L59:
 724              		.loc 1 540 0 is_stmt 0 discriminator 3
 725 001c 1A43     		orr	r2, r3
 726              	.LVL56:
 541:.\Generated_Source\PSoC4/Comp_1.c ****                                            Comp_1_GET_CONFIG_DSI_LEVEL(mode);
 727              		.loc 1 541 0 is_stmt 1 discriminator 3
 728 001e E307     		lsl	r3, r4, #31
 729 0020 02D5     		bpl	.L62
 730              		.loc 1 541 0 is_stmt 0
 731 0022 8023     		mov	r3, #128
 732 0024 9B02     		lsl	r3, r3, #10
 733 0026 00E0     		b	.L60
 734              	.L62:
 735 0028 0023     		mov	r3, #0
 736              	.L60:
 540:.\Generated_Source\PSoC4/Comp_1.c ****     Comp_1_CONFIG_REG = config | Comp_1_GET_CONFIG_DSI_BYPASS(mode) | \
 737              		.loc 1 540 0 is_stmt 1
 738 002a 1A43     		orr	r2, r3
 739 002c 024B     		ldr	r3, .L63
 740 002e 1A60     		str	r2, [r3]
 542:.\Generated_Source\PSoC4/Comp_1.c ****     CyExitCriticalSection(enableInterrupts);
 741              		.loc 1 542 0
 742 0030 FFF7FEFF 		bl	CyExitCriticalSection
 743              	.LVL57:
 543:.\Generated_Source\PSoC4/Comp_1.c **** }
 744              		.loc 1 543 0
 745              		@ sp needed
 746              	.LVL58:
 747 0034 10BD     		pop	{r4, pc}
 748              	.L64:
 749 0036 C046     		.align	2
 750              	.L63:
 751 0038 04002B40 		.word	1076559876
 752 003c FFFFFCFF 		.word	-196609
 753              		.cfi_endproc
 754              	.LFE16:
 755              		.size	Comp_1_SetOutputMode, .-Comp_1_SetOutputMode
ARM GAS  C:\Users\Luci\AppData\Local\Temp\cc978npf.s 			page 24


 756              		.section	.text.Comp_1_SetInterruptMask,"ax",%progbits
 757              		.align	2
 758              		.global	Comp_1_SetInterruptMask
 759              		.code	16
 760              		.thumb_func
 761              		.type	Comp_1_SetInterruptMask, %function
 762              	Comp_1_SetInterruptMask:
 763              	.LFB17:
 544:.\Generated_Source\PSoC4/Comp_1.c **** 
 545:.\Generated_Source\PSoC4/Comp_1.c **** 
 546:.\Generated_Source\PSoC4/Comp_1.c **** /*******************************************************************************
 547:.\Generated_Source\PSoC4/Comp_1.c **** * Function Name: Comp_1_SetInterruptMask
 548:.\Generated_Source\PSoC4/Comp_1.c **** ********************************************************************************
 549:.\Generated_Source\PSoC4/Comp_1.c **** *
 550:.\Generated_Source\PSoC4/Comp_1.c **** * Summary:
 551:.\Generated_Source\PSoC4/Comp_1.c **** *  Configures which bits of interrupt request register will trigger an interrupt 
 552:.\Generated_Source\PSoC4/Comp_1.c **** *  event.
 553:.\Generated_Source\PSoC4/Comp_1.c **** *
 554:.\Generated_Source\PSoC4/Comp_1.c **** * Parameters:
 555:.\Generated_Source\PSoC4/Comp_1.c **** *  uint32 interruptMask: Mask of interrupts to set. Each component instance has
 556:.\Generated_Source\PSoC4/Comp_1.c **** *  a mask value: Comp_1_INTR_MASK.
 557:.\Generated_Source\PSoC4/Comp_1.c **** *
 558:.\Generated_Source\PSoC4/Comp_1.c **** * Return:
 559:.\Generated_Source\PSoC4/Comp_1.c **** *  None
 560:.\Generated_Source\PSoC4/Comp_1.c **** *
 561:.\Generated_Source\PSoC4/Comp_1.c **** *******************************************************************************/
 562:.\Generated_Source\PSoC4/Comp_1.c **** void Comp_1_SetInterruptMask(uint32 interruptMask)
 563:.\Generated_Source\PSoC4/Comp_1.c **** {
 764              		.loc 1 563 0
 765              		.cfi_startproc
 766              	.LVL59:
 564:.\Generated_Source\PSoC4/Comp_1.c ****     Comp_1_intrMaskRegState = interruptMask;
 767              		.loc 1 564 0
 768 0000 024B     		ldr	r3, .L66
 769 0002 1860     		str	r0, [r3]
 565:.\Generated_Source\PSoC4/Comp_1.c ****     Comp_1_INTR_MASK_REG = Comp_1_intrMaskRegState;
 770              		.loc 1 565 0
 771 0004 024B     		ldr	r3, .L66+4
 772 0006 1860     		str	r0, [r3]
 566:.\Generated_Source\PSoC4/Comp_1.c **** }
 773              		.loc 1 566 0
 774              		@ sp needed
 775 0008 7047     		bx	lr
 776              	.L67:
 777 000a C046     		.align	2
 778              	.L66:
 779 000c 00000000 		.word	.LANCHOR0
 780 0010 18002B40 		.word	1076559896
 781              		.cfi_endproc
 782              	.LFE17:
 783              		.size	Comp_1_SetInterruptMask, .-Comp_1_SetInterruptMask
 784              		.section	.text.Comp_1_GetInterruptMask,"ax",%progbits
 785              		.align	2
 786              		.global	Comp_1_GetInterruptMask
 787              		.code	16
 788              		.thumb_func
 789              		.type	Comp_1_GetInterruptMask, %function
ARM GAS  C:\Users\Luci\AppData\Local\Temp\cc978npf.s 			page 25


 790              	Comp_1_GetInterruptMask:
 791              	.LFB18:
 567:.\Generated_Source\PSoC4/Comp_1.c **** 
 568:.\Generated_Source\PSoC4/Comp_1.c **** 
 569:.\Generated_Source\PSoC4/Comp_1.c **** /*******************************************************************************
 570:.\Generated_Source\PSoC4/Comp_1.c **** * Function Name: Comp_1_GetInterruptMask
 571:.\Generated_Source\PSoC4/Comp_1.c **** ********************************************************************************
 572:.\Generated_Source\PSoC4/Comp_1.c **** *
 573:.\Generated_Source\PSoC4/Comp_1.c **** * Summary:
 574:.\Generated_Source\PSoC4/Comp_1.c **** *  Returns interrupt mask.
 575:.\Generated_Source\PSoC4/Comp_1.c **** *
 576:.\Generated_Source\PSoC4/Comp_1.c **** * Parameters:
 577:.\Generated_Source\PSoC4/Comp_1.c **** *  None
 578:.\Generated_Source\PSoC4/Comp_1.c **** *
 579:.\Generated_Source\PSoC4/Comp_1.c **** * Return:
 580:.\Generated_Source\PSoC4/Comp_1.c **** *  uint32:  Mask of enabled interrupt source. Each component instance 
 581:.\Generated_Source\PSoC4/Comp_1.c **** *  has a mask value: Comp_1_INTR_MASK.
 582:.\Generated_Source\PSoC4/Comp_1.c **** *
 583:.\Generated_Source\PSoC4/Comp_1.c **** *******************************************************************************/
 584:.\Generated_Source\PSoC4/Comp_1.c **** uint32 Comp_1_GetInterruptMask(void)
 585:.\Generated_Source\PSoC4/Comp_1.c **** {
 792              		.loc 1 585 0
 793              		.cfi_startproc
 586:.\Generated_Source\PSoC4/Comp_1.c ****     return (Comp_1_INTR_MASK_REG);
 794              		.loc 1 586 0
 795 0000 014B     		ldr	r3, .L69
 796 0002 1868     		ldr	r0, [r3]
 587:.\Generated_Source\PSoC4/Comp_1.c **** }
 797              		.loc 1 587 0
 798              		@ sp needed
 799 0004 7047     		bx	lr
 800              	.L70:
 801 0006 C046     		.align	2
 802              	.L69:
 803 0008 18002B40 		.word	1076559896
 804              		.cfi_endproc
 805              	.LFE18:
 806              		.size	Comp_1_GetInterruptMask, .-Comp_1_GetInterruptMask
 807              		.section	.text.Comp_1_GetInterruptSourceMasked,"ax",%progbits
 808              		.align	2
 809              		.global	Comp_1_GetInterruptSourceMasked
 810              		.code	16
 811              		.thumb_func
 812              		.type	Comp_1_GetInterruptSourceMasked, %function
 813              	Comp_1_GetInterruptSourceMasked:
 814              	.LFB19:
 588:.\Generated_Source\PSoC4/Comp_1.c **** 
 589:.\Generated_Source\PSoC4/Comp_1.c **** 
 590:.\Generated_Source\PSoC4/Comp_1.c **** /*******************************************************************************
 591:.\Generated_Source\PSoC4/Comp_1.c **** * Function Name: Comp_1_GetInterruptSourceMasked
 592:.\Generated_Source\PSoC4/Comp_1.c **** ********************************************************************************
 593:.\Generated_Source\PSoC4/Comp_1.c **** *
 594:.\Generated_Source\PSoC4/Comp_1.c **** * Summary:
 595:.\Generated_Source\PSoC4/Comp_1.c **** *  Returns interrupt request register masked by interrupt mask. Returns the result 
 596:.\Generated_Source\PSoC4/Comp_1.c **** *  of bitwise AND operation between corresponding interrupt request and mask bits.
 597:.\Generated_Source\PSoC4/Comp_1.c **** *
 598:.\Generated_Source\PSoC4/Comp_1.c **** * Parameters:
ARM GAS  C:\Users\Luci\AppData\Local\Temp\cc978npf.s 			page 26


 599:.\Generated_Source\PSoC4/Comp_1.c **** *  None
 600:.\Generated_Source\PSoC4/Comp_1.c **** *
 601:.\Generated_Source\PSoC4/Comp_1.c **** * Return:
 602:.\Generated_Source\PSoC4/Comp_1.c **** *  uint32: Status of enabled interrupt source. Each component instance 
 603:.\Generated_Source\PSoC4/Comp_1.c **** *  has a mask value: Comp_1_INTR_MASKED.
 604:.\Generated_Source\PSoC4/Comp_1.c **** *
 605:.\Generated_Source\PSoC4/Comp_1.c **** *******************************************************************************/
 606:.\Generated_Source\PSoC4/Comp_1.c **** uint32 Comp_1_GetInterruptSourceMasked(void)
 607:.\Generated_Source\PSoC4/Comp_1.c **** {
 815              		.loc 1 607 0
 816              		.cfi_startproc
 608:.\Generated_Source\PSoC4/Comp_1.c ****     return (Comp_1_INTR_MASKED_REG);
 817              		.loc 1 608 0
 818 0000 014B     		ldr	r3, .L72
 819 0002 1868     		ldr	r0, [r3]
 609:.\Generated_Source\PSoC4/Comp_1.c **** }
 820              		.loc 1 609 0
 821              		@ sp needed
 822 0004 7047     		bx	lr
 823              	.L73:
 824 0006 C046     		.align	2
 825              	.L72:
 826 0008 1C002B40 		.word	1076559900
 827              		.cfi_endproc
 828              	.LFE19:
 829              		.size	Comp_1_GetInterruptSourceMasked, .-Comp_1_GetInterruptSourceMasked
 830              		.global	Comp_1_initVar
 831              		.section	.noinit,"aw",%progbits
 832              		.align	2
 833              		.set	.LANCHOR0,. + 0
 834              		.type	Comp_1_intrMaskRegState, %object
 835              		.size	Comp_1_intrMaskRegState, 4
 836              	Comp_1_intrMaskRegState:
 837 0000 00000000 		.space	4
 838              		.bss
 839              		.align	2
 840              		.set	.LANCHOR1,. + 0
 841              		.type	Comp_1_internalIntr, %object
 842              		.size	Comp_1_internalIntr, 4
 843              	Comp_1_internalIntr:
 844 0000 00000000 		.space	4
 845              		.type	Comp_1_initVar, %object
 846              		.size	Comp_1_initVar, 1
 847              	Comp_1_initVar:
 848 0004 00       		.space	1
 849 0005 000000   		.text
 850              	.Letext0:
 851              		.file 2 ".\\Generated_Source\\PSoC4\\cytypes.h"
 852              		.file 3 ".\\Generated_Source\\PSoC4\\CyLib.h"
 853              		.file 4 ".\\Generated_Source\\PSoC4\\cyPm.h"