ARM GAS  C:\Users\Luci\AppData\Local\Temp\ccnzjkGf.s 			page 1


   1              		.cpu cortex-m0
   2              		.fpu softvfp
   3              		.eabi_attribute 20, 1
   4              		.eabi_attribute 21, 1
   5              		.eabi_attribute 23, 3
   6              		.eabi_attribute 24, 1
   7              		.eabi_attribute 25, 1
   8              		.eabi_attribute 26, 1
   9              		.eabi_attribute 30, 1
  10              		.eabi_attribute 34, 0
  11              		.eabi_attribute 18, 4
  12              		.code	16
  13              		.file	"Timer_Int.c"
  14              		.text
  15              	.Ltext0:
  16              		.cfi_sections	.debug_frame
  17              		.section	.text.Timer_Int_Interrupt,"ax",%progbits
  18              		.align	2
  19              		.global	Timer_Int_Interrupt
  20              		.code	16
  21              		.thumb_func
  22              		.type	Timer_Int_Interrupt, %function
  23              	Timer_Int_Interrupt:
  24              	.LFB5:
  25              		.file 1 ".\\Generated_Source\\PSoC4\\Timer_Int.c"
   1:.\Generated_Source\PSoC4/Timer_Int.c **** /*******************************************************************************
   2:.\Generated_Source\PSoC4/Timer_Int.c **** * File Name: Timer_Int.c  
   3:.\Generated_Source\PSoC4/Timer_Int.c **** * Version 1.70
   4:.\Generated_Source\PSoC4/Timer_Int.c **** *
   5:.\Generated_Source\PSoC4/Timer_Int.c **** *  Description:
   6:.\Generated_Source\PSoC4/Timer_Int.c **** *   API for controlling the state of an interrupt.
   7:.\Generated_Source\PSoC4/Timer_Int.c **** *
   8:.\Generated_Source\PSoC4/Timer_Int.c **** *
   9:.\Generated_Source\PSoC4/Timer_Int.c **** *  Note:
  10:.\Generated_Source\PSoC4/Timer_Int.c **** *
  11:.\Generated_Source\PSoC4/Timer_Int.c **** ********************************************************************************
  12:.\Generated_Source\PSoC4/Timer_Int.c **** * Copyright 2008-2015, Cypress Semiconductor Corporation.  All rights reserved.
  13:.\Generated_Source\PSoC4/Timer_Int.c **** * You may use this file only in accordance with the license, terms, conditions, 
  14:.\Generated_Source\PSoC4/Timer_Int.c **** * disclaimers, and limitations in the end user license agreement accompanying 
  15:.\Generated_Source\PSoC4/Timer_Int.c **** * the software package with which this file was provided.
  16:.\Generated_Source\PSoC4/Timer_Int.c **** *******************************************************************************/
  17:.\Generated_Source\PSoC4/Timer_Int.c **** 
  18:.\Generated_Source\PSoC4/Timer_Int.c **** 
  19:.\Generated_Source\PSoC4/Timer_Int.c **** #include <cydevice_trm.h>
  20:.\Generated_Source\PSoC4/Timer_Int.c **** #include <CyLib.h>
  21:.\Generated_Source\PSoC4/Timer_Int.c **** #include <Timer_Int.h>
  22:.\Generated_Source\PSoC4/Timer_Int.c **** 
  23:.\Generated_Source\PSoC4/Timer_Int.c **** #if !defined(Timer_Int__REMOVED) /* Check for removal by optimization */
  24:.\Generated_Source\PSoC4/Timer_Int.c **** 
  25:.\Generated_Source\PSoC4/Timer_Int.c **** /*******************************************************************************
  26:.\Generated_Source\PSoC4/Timer_Int.c **** *  Place your includes, defines and code here 
  27:.\Generated_Source\PSoC4/Timer_Int.c **** ********************************************************************************/
  28:.\Generated_Source\PSoC4/Timer_Int.c **** /* `#START Timer_Int_intc` */
  29:.\Generated_Source\PSoC4/Timer_Int.c **** 
  30:.\Generated_Source\PSoC4/Timer_Int.c **** /* `#END` */
  31:.\Generated_Source\PSoC4/Timer_Int.c **** 
  32:.\Generated_Source\PSoC4/Timer_Int.c **** extern cyisraddress CyRamVectors[CYINT_IRQ_BASE + CY_NUM_INTERRUPTS];
ARM GAS  C:\Users\Luci\AppData\Local\Temp\ccnzjkGf.s 			page 2


  33:.\Generated_Source\PSoC4/Timer_Int.c **** 
  34:.\Generated_Source\PSoC4/Timer_Int.c **** /* Declared in startup, used to set unused interrupts to. */
  35:.\Generated_Source\PSoC4/Timer_Int.c **** CY_ISR_PROTO(IntDefaultHandler);
  36:.\Generated_Source\PSoC4/Timer_Int.c **** 
  37:.\Generated_Source\PSoC4/Timer_Int.c **** 
  38:.\Generated_Source\PSoC4/Timer_Int.c **** /*******************************************************************************
  39:.\Generated_Source\PSoC4/Timer_Int.c **** * Function Name: Timer_Int_Start
  40:.\Generated_Source\PSoC4/Timer_Int.c **** ********************************************************************************
  41:.\Generated_Source\PSoC4/Timer_Int.c **** *
  42:.\Generated_Source\PSoC4/Timer_Int.c **** * Summary:
  43:.\Generated_Source\PSoC4/Timer_Int.c **** *  Set up the interrupt and enable it. This function disables the interrupt, 
  44:.\Generated_Source\PSoC4/Timer_Int.c **** *  sets the default interrupt vector, sets the priority from the value in the
  45:.\Generated_Source\PSoC4/Timer_Int.c **** *  Design Wide Resources Interrupt Editor, then enables the interrupt to the 
  46:.\Generated_Source\PSoC4/Timer_Int.c **** *  interrupt controller.
  47:.\Generated_Source\PSoC4/Timer_Int.c **** *
  48:.\Generated_Source\PSoC4/Timer_Int.c **** * Parameters:  
  49:.\Generated_Source\PSoC4/Timer_Int.c **** *   None
  50:.\Generated_Source\PSoC4/Timer_Int.c **** *
  51:.\Generated_Source\PSoC4/Timer_Int.c **** * Return:
  52:.\Generated_Source\PSoC4/Timer_Int.c **** *   None
  53:.\Generated_Source\PSoC4/Timer_Int.c **** *
  54:.\Generated_Source\PSoC4/Timer_Int.c **** *******************************************************************************/
  55:.\Generated_Source\PSoC4/Timer_Int.c **** void Timer_Int_Start(void)
  56:.\Generated_Source\PSoC4/Timer_Int.c **** {
  57:.\Generated_Source\PSoC4/Timer_Int.c ****     /* For all we know the interrupt is active. */
  58:.\Generated_Source\PSoC4/Timer_Int.c ****     Timer_Int_Disable();
  59:.\Generated_Source\PSoC4/Timer_Int.c **** 
  60:.\Generated_Source\PSoC4/Timer_Int.c ****     /* Set the ISR to point to the Timer_Int Interrupt. */
  61:.\Generated_Source\PSoC4/Timer_Int.c ****     Timer_Int_SetVector(&Timer_Int_Interrupt);
  62:.\Generated_Source\PSoC4/Timer_Int.c **** 
  63:.\Generated_Source\PSoC4/Timer_Int.c ****     /* Set the priority. */
  64:.\Generated_Source\PSoC4/Timer_Int.c ****     Timer_Int_SetPriority((uint8)Timer_Int_INTC_PRIOR_NUMBER);
  65:.\Generated_Source\PSoC4/Timer_Int.c **** 
  66:.\Generated_Source\PSoC4/Timer_Int.c ****     /* Enable it. */
  67:.\Generated_Source\PSoC4/Timer_Int.c ****     Timer_Int_Enable();
  68:.\Generated_Source\PSoC4/Timer_Int.c **** }
  69:.\Generated_Source\PSoC4/Timer_Int.c **** 
  70:.\Generated_Source\PSoC4/Timer_Int.c **** 
  71:.\Generated_Source\PSoC4/Timer_Int.c **** /*******************************************************************************
  72:.\Generated_Source\PSoC4/Timer_Int.c **** * Function Name: Timer_Int_StartEx
  73:.\Generated_Source\PSoC4/Timer_Int.c **** ********************************************************************************
  74:.\Generated_Source\PSoC4/Timer_Int.c **** *
  75:.\Generated_Source\PSoC4/Timer_Int.c **** * Summary:
  76:.\Generated_Source\PSoC4/Timer_Int.c **** *  Sets up the interrupt and enables it. This function disables the interrupt,
  77:.\Generated_Source\PSoC4/Timer_Int.c **** *  sets the interrupt vector based on the address passed in, sets the priority 
  78:.\Generated_Source\PSoC4/Timer_Int.c **** *  from the value in the Design Wide Resources Interrupt Editor, then enables 
  79:.\Generated_Source\PSoC4/Timer_Int.c **** *  the interrupt to the interrupt controller.
  80:.\Generated_Source\PSoC4/Timer_Int.c **** *  
  81:.\Generated_Source\PSoC4/Timer_Int.c **** *  When defining ISR functions, the CY_ISR and CY_ISR_PROTO macros should be 
  82:.\Generated_Source\PSoC4/Timer_Int.c **** *  used to provide consistent definition across compilers:
  83:.\Generated_Source\PSoC4/Timer_Int.c **** *  
  84:.\Generated_Source\PSoC4/Timer_Int.c **** *  Function definition example:
  85:.\Generated_Source\PSoC4/Timer_Int.c **** *   CY_ISR(MyISR)
  86:.\Generated_Source\PSoC4/Timer_Int.c **** *   {
  87:.\Generated_Source\PSoC4/Timer_Int.c **** *   }
  88:.\Generated_Source\PSoC4/Timer_Int.c **** *   Function prototype example:
  89:.\Generated_Source\PSoC4/Timer_Int.c **** *   CY_ISR_PROTO(MyISR);
ARM GAS  C:\Users\Luci\AppData\Local\Temp\ccnzjkGf.s 			page 3


  90:.\Generated_Source\PSoC4/Timer_Int.c **** *
  91:.\Generated_Source\PSoC4/Timer_Int.c **** * Parameters:  
  92:.\Generated_Source\PSoC4/Timer_Int.c **** *   address: Address of the ISR to set in the interrupt vector table.
  93:.\Generated_Source\PSoC4/Timer_Int.c **** *
  94:.\Generated_Source\PSoC4/Timer_Int.c **** * Return:
  95:.\Generated_Source\PSoC4/Timer_Int.c **** *   None
  96:.\Generated_Source\PSoC4/Timer_Int.c **** *
  97:.\Generated_Source\PSoC4/Timer_Int.c **** *******************************************************************************/
  98:.\Generated_Source\PSoC4/Timer_Int.c **** void Timer_Int_StartEx(cyisraddress address)
  99:.\Generated_Source\PSoC4/Timer_Int.c **** {
 100:.\Generated_Source\PSoC4/Timer_Int.c ****     /* For all we know the interrupt is active. */
 101:.\Generated_Source\PSoC4/Timer_Int.c ****     Timer_Int_Disable();
 102:.\Generated_Source\PSoC4/Timer_Int.c **** 
 103:.\Generated_Source\PSoC4/Timer_Int.c ****     /* Set the ISR to point to the Timer_Int Interrupt. */
 104:.\Generated_Source\PSoC4/Timer_Int.c ****     Timer_Int_SetVector(address);
 105:.\Generated_Source\PSoC4/Timer_Int.c **** 
 106:.\Generated_Source\PSoC4/Timer_Int.c ****     /* Set the priority. */
 107:.\Generated_Source\PSoC4/Timer_Int.c ****     Timer_Int_SetPriority((uint8)Timer_Int_INTC_PRIOR_NUMBER);
 108:.\Generated_Source\PSoC4/Timer_Int.c **** 
 109:.\Generated_Source\PSoC4/Timer_Int.c ****     /* Enable it. */
 110:.\Generated_Source\PSoC4/Timer_Int.c ****     Timer_Int_Enable();
 111:.\Generated_Source\PSoC4/Timer_Int.c **** }
 112:.\Generated_Source\PSoC4/Timer_Int.c **** 
 113:.\Generated_Source\PSoC4/Timer_Int.c **** 
 114:.\Generated_Source\PSoC4/Timer_Int.c **** /*******************************************************************************
 115:.\Generated_Source\PSoC4/Timer_Int.c **** * Function Name: Timer_Int_Stop
 116:.\Generated_Source\PSoC4/Timer_Int.c **** ********************************************************************************
 117:.\Generated_Source\PSoC4/Timer_Int.c **** *
 118:.\Generated_Source\PSoC4/Timer_Int.c **** * Summary:
 119:.\Generated_Source\PSoC4/Timer_Int.c **** *   Disables and removes the interrupt.
 120:.\Generated_Source\PSoC4/Timer_Int.c **** *
 121:.\Generated_Source\PSoC4/Timer_Int.c **** * Parameters:  
 122:.\Generated_Source\PSoC4/Timer_Int.c **** *   None
 123:.\Generated_Source\PSoC4/Timer_Int.c **** *
 124:.\Generated_Source\PSoC4/Timer_Int.c **** * Return:
 125:.\Generated_Source\PSoC4/Timer_Int.c **** *   None
 126:.\Generated_Source\PSoC4/Timer_Int.c **** *
 127:.\Generated_Source\PSoC4/Timer_Int.c **** *******************************************************************************/
 128:.\Generated_Source\PSoC4/Timer_Int.c **** void Timer_Int_Stop(void)
 129:.\Generated_Source\PSoC4/Timer_Int.c **** {
 130:.\Generated_Source\PSoC4/Timer_Int.c ****     /* Disable this interrupt. */
 131:.\Generated_Source\PSoC4/Timer_Int.c ****     Timer_Int_Disable();
 132:.\Generated_Source\PSoC4/Timer_Int.c **** 
 133:.\Generated_Source\PSoC4/Timer_Int.c ****     /* Set the ISR to point to the passive one. */
 134:.\Generated_Source\PSoC4/Timer_Int.c ****     Timer_Int_SetVector(&IntDefaultHandler);
 135:.\Generated_Source\PSoC4/Timer_Int.c **** }
 136:.\Generated_Source\PSoC4/Timer_Int.c **** 
 137:.\Generated_Source\PSoC4/Timer_Int.c **** 
 138:.\Generated_Source\PSoC4/Timer_Int.c **** /*******************************************************************************
 139:.\Generated_Source\PSoC4/Timer_Int.c **** * Function Name: Timer_Int_Interrupt
 140:.\Generated_Source\PSoC4/Timer_Int.c **** ********************************************************************************
 141:.\Generated_Source\PSoC4/Timer_Int.c **** *
 142:.\Generated_Source\PSoC4/Timer_Int.c **** * Summary:
 143:.\Generated_Source\PSoC4/Timer_Int.c **** *   The default Interrupt Service Routine for Timer_Int.
 144:.\Generated_Source\PSoC4/Timer_Int.c **** *
 145:.\Generated_Source\PSoC4/Timer_Int.c **** *   Add custom code between the START and END comments to keep the next version
 146:.\Generated_Source\PSoC4/Timer_Int.c **** *   of this file from over-writing your code.
ARM GAS  C:\Users\Luci\AppData\Local\Temp\ccnzjkGf.s 			page 4


 147:.\Generated_Source\PSoC4/Timer_Int.c **** *
 148:.\Generated_Source\PSoC4/Timer_Int.c **** *   Note You may use either the default ISR by using this API, or you may define
 149:.\Generated_Source\PSoC4/Timer_Int.c **** *   your own separate ISR through ISR_StartEx().
 150:.\Generated_Source\PSoC4/Timer_Int.c **** *
 151:.\Generated_Source\PSoC4/Timer_Int.c **** * Parameters:  
 152:.\Generated_Source\PSoC4/Timer_Int.c **** *   None
 153:.\Generated_Source\PSoC4/Timer_Int.c **** *
 154:.\Generated_Source\PSoC4/Timer_Int.c **** * Return:
 155:.\Generated_Source\PSoC4/Timer_Int.c **** *   None
 156:.\Generated_Source\PSoC4/Timer_Int.c **** *
 157:.\Generated_Source\PSoC4/Timer_Int.c **** *******************************************************************************/
 158:.\Generated_Source\PSoC4/Timer_Int.c **** CY_ISR(Timer_Int_Interrupt)
 159:.\Generated_Source\PSoC4/Timer_Int.c **** {
  26              		.loc 1 159 0
  27              		.cfi_startproc
 160:.\Generated_Source\PSoC4/Timer_Int.c ****     /*  Place your Interrupt code here. */
 161:.\Generated_Source\PSoC4/Timer_Int.c ****     /* `#START Timer_Int_Interrupt` */
 162:.\Generated_Source\PSoC4/Timer_Int.c **** 
 163:.\Generated_Source\PSoC4/Timer_Int.c ****     /* `#END` */
 164:.\Generated_Source\PSoC4/Timer_Int.c **** }
  28              		.loc 1 164 0
  29              		@ sp needed
  30 0000 7047     		bx	lr
  31              		.cfi_endproc
  32              	.LFE5:
  33              		.size	Timer_Int_Interrupt, .-Timer_Int_Interrupt
  34 0002 C046     		.section	.text.Timer_Int_SetVector,"ax",%progbits
  35              		.align	2
  36              		.global	Timer_Int_SetVector
  37              		.code	16
  38              		.thumb_func
  39              		.type	Timer_Int_SetVector, %function
  40              	Timer_Int_SetVector:
  41              	.LFB6:
 165:.\Generated_Source\PSoC4/Timer_Int.c **** 
 166:.\Generated_Source\PSoC4/Timer_Int.c **** 
 167:.\Generated_Source\PSoC4/Timer_Int.c **** /*******************************************************************************
 168:.\Generated_Source\PSoC4/Timer_Int.c **** * Function Name: Timer_Int_SetVector
 169:.\Generated_Source\PSoC4/Timer_Int.c **** ********************************************************************************
 170:.\Generated_Source\PSoC4/Timer_Int.c **** *
 171:.\Generated_Source\PSoC4/Timer_Int.c **** * Summary:
 172:.\Generated_Source\PSoC4/Timer_Int.c **** *   Change the ISR vector for the Interrupt. Note calling Timer_Int_Start
 173:.\Generated_Source\PSoC4/Timer_Int.c **** *   will override any effect this method would have had. To set the vector 
 174:.\Generated_Source\PSoC4/Timer_Int.c **** *   before the component has been started use Timer_Int_StartEx instead.
 175:.\Generated_Source\PSoC4/Timer_Int.c **** * 
 176:.\Generated_Source\PSoC4/Timer_Int.c **** *   When defining ISR functions, the CY_ISR and CY_ISR_PROTO macros should be 
 177:.\Generated_Source\PSoC4/Timer_Int.c **** *   used to provide consistent definition across compilers:
 178:.\Generated_Source\PSoC4/Timer_Int.c **** *
 179:.\Generated_Source\PSoC4/Timer_Int.c **** *   Function definition example:
 180:.\Generated_Source\PSoC4/Timer_Int.c **** *   CY_ISR(MyISR)
 181:.\Generated_Source\PSoC4/Timer_Int.c **** *   {
 182:.\Generated_Source\PSoC4/Timer_Int.c **** *   }
 183:.\Generated_Source\PSoC4/Timer_Int.c **** *
 184:.\Generated_Source\PSoC4/Timer_Int.c **** *   Function prototype example:
 185:.\Generated_Source\PSoC4/Timer_Int.c **** *     CY_ISR_PROTO(MyISR);
 186:.\Generated_Source\PSoC4/Timer_Int.c **** *
 187:.\Generated_Source\PSoC4/Timer_Int.c **** * Parameters:
ARM GAS  C:\Users\Luci\AppData\Local\Temp\ccnzjkGf.s 			page 5


 188:.\Generated_Source\PSoC4/Timer_Int.c **** *   address: Address of the ISR to set in the interrupt vector table.
 189:.\Generated_Source\PSoC4/Timer_Int.c **** *
 190:.\Generated_Source\PSoC4/Timer_Int.c **** * Return:
 191:.\Generated_Source\PSoC4/Timer_Int.c **** *   None
 192:.\Generated_Source\PSoC4/Timer_Int.c **** *
 193:.\Generated_Source\PSoC4/Timer_Int.c **** *******************************************************************************/
 194:.\Generated_Source\PSoC4/Timer_Int.c **** void Timer_Int_SetVector(cyisraddress address)
 195:.\Generated_Source\PSoC4/Timer_Int.c **** {
  42              		.loc 1 195 0
  43              		.cfi_startproc
  44              	.LVL0:
 196:.\Generated_Source\PSoC4/Timer_Int.c ****     CyRamVectors[CYINT_IRQ_BASE + Timer_Int__INTC_NUMBER] = address;
  45              		.loc 1 196 0
  46 0000 8423     		mov	r3, #132
  47 0002 014A     		ldr	r2, .L3
  48 0004 D050     		str	r0, [r2, r3]
 197:.\Generated_Source\PSoC4/Timer_Int.c **** }
  49              		.loc 1 197 0
  50              		@ sp needed
  51 0006 7047     		bx	lr
  52              	.L4:
  53              		.align	2
  54              	.L3:
  55 0008 00000000 		.word	CyRamVectors
  56              		.cfi_endproc
  57              	.LFE6:
  58              		.size	Timer_Int_SetVector, .-Timer_Int_SetVector
  59              		.section	.text.Timer_Int_GetVector,"ax",%progbits
  60              		.align	2
  61              		.global	Timer_Int_GetVector
  62              		.code	16
  63              		.thumb_func
  64              		.type	Timer_Int_GetVector, %function
  65              	Timer_Int_GetVector:
  66              	.LFB7:
 198:.\Generated_Source\PSoC4/Timer_Int.c **** 
 199:.\Generated_Source\PSoC4/Timer_Int.c **** 
 200:.\Generated_Source\PSoC4/Timer_Int.c **** /*******************************************************************************
 201:.\Generated_Source\PSoC4/Timer_Int.c **** * Function Name: Timer_Int_GetVector
 202:.\Generated_Source\PSoC4/Timer_Int.c **** ********************************************************************************
 203:.\Generated_Source\PSoC4/Timer_Int.c **** *
 204:.\Generated_Source\PSoC4/Timer_Int.c **** * Summary:
 205:.\Generated_Source\PSoC4/Timer_Int.c **** *   Gets the "address" of the current ISR vector for the Interrupt.
 206:.\Generated_Source\PSoC4/Timer_Int.c **** *
 207:.\Generated_Source\PSoC4/Timer_Int.c **** * Parameters:
 208:.\Generated_Source\PSoC4/Timer_Int.c **** *   None
 209:.\Generated_Source\PSoC4/Timer_Int.c **** *
 210:.\Generated_Source\PSoC4/Timer_Int.c **** * Return:
 211:.\Generated_Source\PSoC4/Timer_Int.c **** *   Address of the ISR in the interrupt vector table.
 212:.\Generated_Source\PSoC4/Timer_Int.c **** *
 213:.\Generated_Source\PSoC4/Timer_Int.c **** *******************************************************************************/
 214:.\Generated_Source\PSoC4/Timer_Int.c **** cyisraddress Timer_Int_GetVector(void)
 215:.\Generated_Source\PSoC4/Timer_Int.c **** {
  67              		.loc 1 215 0
  68              		.cfi_startproc
 216:.\Generated_Source\PSoC4/Timer_Int.c ****     return CyRamVectors[CYINT_IRQ_BASE + Timer_Int__INTC_NUMBER];
  69              		.loc 1 216 0
ARM GAS  C:\Users\Luci\AppData\Local\Temp\ccnzjkGf.s 			page 6


  70 0000 8423     		mov	r3, #132
  71 0002 014A     		ldr	r2, .L6
  72 0004 D058     		ldr	r0, [r2, r3]
 217:.\Generated_Source\PSoC4/Timer_Int.c **** }
  73              		.loc 1 217 0
  74              		@ sp needed
  75 0006 7047     		bx	lr
  76              	.L7:
  77              		.align	2
  78              	.L6:
  79 0008 00000000 		.word	CyRamVectors
  80              		.cfi_endproc
  81              	.LFE7:
  82              		.size	Timer_Int_GetVector, .-Timer_Int_GetVector
  83              		.section	.text.Timer_Int_SetPriority,"ax",%progbits
  84              		.align	2
  85              		.global	Timer_Int_SetPriority
  86              		.code	16
  87              		.thumb_func
  88              		.type	Timer_Int_SetPriority, %function
  89              	Timer_Int_SetPriority:
  90              	.LFB8:
 218:.\Generated_Source\PSoC4/Timer_Int.c **** 
 219:.\Generated_Source\PSoC4/Timer_Int.c **** 
 220:.\Generated_Source\PSoC4/Timer_Int.c **** /*******************************************************************************
 221:.\Generated_Source\PSoC4/Timer_Int.c **** * Function Name: Timer_Int_SetPriority
 222:.\Generated_Source\PSoC4/Timer_Int.c **** ********************************************************************************
 223:.\Generated_Source\PSoC4/Timer_Int.c **** *
 224:.\Generated_Source\PSoC4/Timer_Int.c **** * Summary:
 225:.\Generated_Source\PSoC4/Timer_Int.c **** *   Sets the Priority of the Interrupt. 
 226:.\Generated_Source\PSoC4/Timer_Int.c **** *
 227:.\Generated_Source\PSoC4/Timer_Int.c **** *   Note calling Timer_Int_Start or Timer_Int_StartEx will 
 228:.\Generated_Source\PSoC4/Timer_Int.c **** *   override any effect this API would have had. This API should only be called
 229:.\Generated_Source\PSoC4/Timer_Int.c **** *   after Timer_Int_Start or Timer_Int_StartEx has been called. 
 230:.\Generated_Source\PSoC4/Timer_Int.c **** *   To set the initial priority for the component, use the Design-Wide Resources
 231:.\Generated_Source\PSoC4/Timer_Int.c **** *   Interrupt Editor.
 232:.\Generated_Source\PSoC4/Timer_Int.c **** *
 233:.\Generated_Source\PSoC4/Timer_Int.c **** *   Note This API has no effect on Non-maskable interrupt NMI).
 234:.\Generated_Source\PSoC4/Timer_Int.c **** *
 235:.\Generated_Source\PSoC4/Timer_Int.c **** * Parameters:
 236:.\Generated_Source\PSoC4/Timer_Int.c **** *   priority: Priority of the interrupt, 0 being the highest priority
 237:.\Generated_Source\PSoC4/Timer_Int.c **** *             PSoC 3 and PSoC 5LP: Priority is from 0 to 7.
 238:.\Generated_Source\PSoC4/Timer_Int.c **** *             PSoC 4: Priority is from 0 to 3.
 239:.\Generated_Source\PSoC4/Timer_Int.c **** *
 240:.\Generated_Source\PSoC4/Timer_Int.c **** * Return:
 241:.\Generated_Source\PSoC4/Timer_Int.c **** *   None
 242:.\Generated_Source\PSoC4/Timer_Int.c **** *
 243:.\Generated_Source\PSoC4/Timer_Int.c **** *******************************************************************************/
 244:.\Generated_Source\PSoC4/Timer_Int.c **** void Timer_Int_SetPriority(uint8 priority)
 245:.\Generated_Source\PSoC4/Timer_Int.c **** {
  91              		.loc 1 245 0
  92              		.cfi_startproc
  93              	.LVL1:
  94 0000 10B5     		push	{r4, lr}
  95              		.cfi_def_cfa_offset 8
  96              		.cfi_offset 4, -8
  97              		.cfi_offset 14, -4
ARM GAS  C:\Users\Luci\AppData\Local\Temp\ccnzjkGf.s 			page 7


  98 0002 041C     		mov	r4, r0
  99              	.LVL2:
 246:.\Generated_Source\PSoC4/Timer_Int.c **** 	uint8 interruptState;
 247:.\Generated_Source\PSoC4/Timer_Int.c ****     uint32 priorityOffset = ((Timer_Int__INTC_NUMBER % 4u) * 8u) + 6u;
 248:.\Generated_Source\PSoC4/Timer_Int.c ****     
 249:.\Generated_Source\PSoC4/Timer_Int.c **** 	interruptState = CyEnterCriticalSection();
 100              		.loc 1 249 0
 101 0004 FFF7FEFF 		bl	CyEnterCriticalSection
 102              	.LVL3:
 250:.\Generated_Source\PSoC4/Timer_Int.c ****     *Timer_Int_INTC_PRIOR = (*Timer_Int_INTC_PRIOR & (uint32)(~Timer_Int__INTC_PRIOR_MASK)) |
 103              		.loc 1 250 0
 104 0008 054B     		ldr	r3, .L9
 105 000a 1968     		ldr	r1, [r3]
 106 000c 054A     		ldr	r2, .L9+4
 107 000e 1140     		and	r1, r2
 251:.\Generated_Source\PSoC4/Timer_Int.c ****                                     ((uint32)priority << priorityOffset);
 108              		.loc 1 251 0
 109 0010 A203     		lsl	r2, r4, #14
 250:.\Generated_Source\PSoC4/Timer_Int.c ****     *Timer_Int_INTC_PRIOR = (*Timer_Int_INTC_PRIOR & (uint32)(~Timer_Int__INTC_PRIOR_MASK)) |
 110              		.loc 1 250 0
 111 0012 0C1C     		mov	r4, r1
 112 0014 1443     		orr	r4, r2
 113 0016 1C60     		str	r4, [r3]
 252:.\Generated_Source\PSoC4/Timer_Int.c **** 	CyExitCriticalSection(interruptState);
 114              		.loc 1 252 0
 115 0018 FFF7FEFF 		bl	CyExitCriticalSection
 116              	.LVL4:
 253:.\Generated_Source\PSoC4/Timer_Int.c **** }
 117              		.loc 1 253 0
 118              		@ sp needed
 119 001c 10BD     		pop	{r4, pc}
 120              	.L10:
 121 001e C046     		.align	2
 122              	.L9:
 123 0020 10E400E0 		.word	-536812528
 124 0024 FF3FFFFF 		.word	-49153
 125              		.cfi_endproc
 126              	.LFE8:
 127              		.size	Timer_Int_SetPriority, .-Timer_Int_SetPriority
 128              		.section	.text.Timer_Int_GetPriority,"ax",%progbits
 129              		.align	2
 130              		.global	Timer_Int_GetPriority
 131              		.code	16
 132              		.thumb_func
 133              		.type	Timer_Int_GetPriority, %function
 134              	Timer_Int_GetPriority:
 135              	.LFB9:
 254:.\Generated_Source\PSoC4/Timer_Int.c **** 
 255:.\Generated_Source\PSoC4/Timer_Int.c **** 
 256:.\Generated_Source\PSoC4/Timer_Int.c **** /*******************************************************************************
 257:.\Generated_Source\PSoC4/Timer_Int.c **** * Function Name: Timer_Int_GetPriority
 258:.\Generated_Source\PSoC4/Timer_Int.c **** ********************************************************************************
 259:.\Generated_Source\PSoC4/Timer_Int.c **** *
 260:.\Generated_Source\PSoC4/Timer_Int.c **** * Summary:
 261:.\Generated_Source\PSoC4/Timer_Int.c **** *   Gets the Priority of the Interrupt.
 262:.\Generated_Source\PSoC4/Timer_Int.c **** *
 263:.\Generated_Source\PSoC4/Timer_Int.c **** * Parameters:
ARM GAS  C:\Users\Luci\AppData\Local\Temp\ccnzjkGf.s 			page 8


 264:.\Generated_Source\PSoC4/Timer_Int.c **** *   None
 265:.\Generated_Source\PSoC4/Timer_Int.c **** *
 266:.\Generated_Source\PSoC4/Timer_Int.c **** * Return:
 267:.\Generated_Source\PSoC4/Timer_Int.c **** *   Priority of the interrupt, 0 being the highest priority
 268:.\Generated_Source\PSoC4/Timer_Int.c **** *    PSoC 3 and PSoC 5LP: Priority is from 0 to 7.
 269:.\Generated_Source\PSoC4/Timer_Int.c **** *    PSoC 4: Priority is from 0 to 3.
 270:.\Generated_Source\PSoC4/Timer_Int.c **** *
 271:.\Generated_Source\PSoC4/Timer_Int.c **** *******************************************************************************/
 272:.\Generated_Source\PSoC4/Timer_Int.c **** uint8 Timer_Int_GetPriority(void)
 273:.\Generated_Source\PSoC4/Timer_Int.c **** {
 136              		.loc 1 273 0
 137              		.cfi_startproc
 138              	.LVL5:
 274:.\Generated_Source\PSoC4/Timer_Int.c ****     uint32 priority;
 275:.\Generated_Source\PSoC4/Timer_Int.c **** 	uint32 priorityOffset = ((Timer_Int__INTC_NUMBER % 4u) * 8u) + 6u;
 276:.\Generated_Source\PSoC4/Timer_Int.c **** 
 277:.\Generated_Source\PSoC4/Timer_Int.c ****     priority = (*Timer_Int_INTC_PRIOR & Timer_Int__INTC_PRIOR_MASK) >> priorityOffset;
 139              		.loc 1 277 0
 140 0000 024B     		ldr	r3, .L12
 141 0002 1868     		ldr	r0, [r3]
 142 0004 0004     		lsl	r0, r0, #16
 143              	.LVL6:
 278:.\Generated_Source\PSoC4/Timer_Int.c **** 
 279:.\Generated_Source\PSoC4/Timer_Int.c ****     return (uint8)priority;
 144              		.loc 1 279 0
 145 0006 800F     		lsr	r0, r0, #30
 146              	.LVL7:
 280:.\Generated_Source\PSoC4/Timer_Int.c **** }
 147              		.loc 1 280 0
 148              		@ sp needed
 149 0008 7047     		bx	lr
 150              	.L13:
 151 000a C046     		.align	2
 152              	.L12:
 153 000c 10E400E0 		.word	-536812528
 154              		.cfi_endproc
 155              	.LFE9:
 156              		.size	Timer_Int_GetPriority, .-Timer_Int_GetPriority
 157              		.section	.text.Timer_Int_Enable,"ax",%progbits
 158              		.align	2
 159              		.global	Timer_Int_Enable
 160              		.code	16
 161              		.thumb_func
 162              		.type	Timer_Int_Enable, %function
 163              	Timer_Int_Enable:
 164              	.LFB10:
 281:.\Generated_Source\PSoC4/Timer_Int.c **** 
 282:.\Generated_Source\PSoC4/Timer_Int.c **** 
 283:.\Generated_Source\PSoC4/Timer_Int.c **** /*******************************************************************************
 284:.\Generated_Source\PSoC4/Timer_Int.c **** * Function Name: Timer_Int_Enable
 285:.\Generated_Source\PSoC4/Timer_Int.c **** ********************************************************************************
 286:.\Generated_Source\PSoC4/Timer_Int.c **** *
 287:.\Generated_Source\PSoC4/Timer_Int.c **** * Summary:
 288:.\Generated_Source\PSoC4/Timer_Int.c **** *   Enables the interrupt to the interrupt controller. Do not call this function
 289:.\Generated_Source\PSoC4/Timer_Int.c **** *   unless ISR_Start() has been called or the functionality of the ISR_Start() 
 290:.\Generated_Source\PSoC4/Timer_Int.c **** *   function, which sets the vector and the priority, has been called.
 291:.\Generated_Source\PSoC4/Timer_Int.c **** *
ARM GAS  C:\Users\Luci\AppData\Local\Temp\ccnzjkGf.s 			page 9


 292:.\Generated_Source\PSoC4/Timer_Int.c **** * Parameters:
 293:.\Generated_Source\PSoC4/Timer_Int.c **** *   None
 294:.\Generated_Source\PSoC4/Timer_Int.c **** *
 295:.\Generated_Source\PSoC4/Timer_Int.c **** * Return:
 296:.\Generated_Source\PSoC4/Timer_Int.c **** *   None
 297:.\Generated_Source\PSoC4/Timer_Int.c **** *
 298:.\Generated_Source\PSoC4/Timer_Int.c **** *******************************************************************************/
 299:.\Generated_Source\PSoC4/Timer_Int.c **** void Timer_Int_Enable(void)
 300:.\Generated_Source\PSoC4/Timer_Int.c **** {
 165              		.loc 1 300 0
 166              		.cfi_startproc
 301:.\Generated_Source\PSoC4/Timer_Int.c ****     /* Enable the general interrupt. */
 302:.\Generated_Source\PSoC4/Timer_Int.c ****     *Timer_Int_INTC_SET_EN = Timer_Int__INTC_MASK;
 167              		.loc 1 302 0
 168 0000 8022     		mov	r2, #128
 169 0002 9202     		lsl	r2, r2, #10
 170 0004 014B     		ldr	r3, .L15
 171 0006 1A60     		str	r2, [r3]
 303:.\Generated_Source\PSoC4/Timer_Int.c **** }
 172              		.loc 1 303 0
 173              		@ sp needed
 174 0008 7047     		bx	lr
 175              	.L16:
 176 000a C046     		.align	2
 177              	.L15:
 178 000c 00E100E0 		.word	-536813312
 179              		.cfi_endproc
 180              	.LFE10:
 181              		.size	Timer_Int_Enable, .-Timer_Int_Enable
 182              		.section	.text.Timer_Int_GetState,"ax",%progbits
 183              		.align	2
 184              		.global	Timer_Int_GetState
 185              		.code	16
 186              		.thumb_func
 187              		.type	Timer_Int_GetState, %function
 188              	Timer_Int_GetState:
 189              	.LFB11:
 304:.\Generated_Source\PSoC4/Timer_Int.c **** 
 305:.\Generated_Source\PSoC4/Timer_Int.c **** 
 306:.\Generated_Source\PSoC4/Timer_Int.c **** /*******************************************************************************
 307:.\Generated_Source\PSoC4/Timer_Int.c **** * Function Name: Timer_Int_GetState
 308:.\Generated_Source\PSoC4/Timer_Int.c **** ********************************************************************************
 309:.\Generated_Source\PSoC4/Timer_Int.c **** *
 310:.\Generated_Source\PSoC4/Timer_Int.c **** * Summary:
 311:.\Generated_Source\PSoC4/Timer_Int.c **** *   Gets the state (enabled, disabled) of the Interrupt.
 312:.\Generated_Source\PSoC4/Timer_Int.c **** *
 313:.\Generated_Source\PSoC4/Timer_Int.c **** * Parameters:
 314:.\Generated_Source\PSoC4/Timer_Int.c **** *   None
 315:.\Generated_Source\PSoC4/Timer_Int.c **** *
 316:.\Generated_Source\PSoC4/Timer_Int.c **** * Return:
 317:.\Generated_Source\PSoC4/Timer_Int.c **** *   1 if enabled, 0 if disabled.
 318:.\Generated_Source\PSoC4/Timer_Int.c **** *
 319:.\Generated_Source\PSoC4/Timer_Int.c **** *******************************************************************************/
 320:.\Generated_Source\PSoC4/Timer_Int.c **** uint8 Timer_Int_GetState(void)
 321:.\Generated_Source\PSoC4/Timer_Int.c **** {
 190              		.loc 1 321 0
 191              		.cfi_startproc
ARM GAS  C:\Users\Luci\AppData\Local\Temp\ccnzjkGf.s 			page 10


 322:.\Generated_Source\PSoC4/Timer_Int.c ****     /* Get the state of the general interrupt. */
 323:.\Generated_Source\PSoC4/Timer_Int.c ****     return ((*Timer_Int_INTC_SET_EN & (uint32)Timer_Int__INTC_MASK) != 0u) ? 1u:0u;
 192              		.loc 1 323 0
 193 0000 034B     		ldr	r3, .L20
 194 0002 1B68     		ldr	r3, [r3]
 195 0004 9A03     		lsl	r2, r3, #14
 196 0006 01D5     		bpl	.L19
 197 0008 0120     		mov	r0, #1
 198 000a 00E0     		b	.L18
 199              	.L19:
 200 000c 0020     		mov	r0, #0
 201              	.L18:
 324:.\Generated_Source\PSoC4/Timer_Int.c **** }
 202              		.loc 1 324 0 discriminator 3
 203              		@ sp needed
 204 000e 7047     		bx	lr
 205              	.L21:
 206              		.align	2
 207              	.L20:
 208 0010 00E100E0 		.word	-536813312
 209              		.cfi_endproc
 210              	.LFE11:
 211              		.size	Timer_Int_GetState, .-Timer_Int_GetState
 212              		.section	.text.Timer_Int_Disable,"ax",%progbits
 213              		.align	2
 214              		.global	Timer_Int_Disable
 215              		.code	16
 216              		.thumb_func
 217              		.type	Timer_Int_Disable, %function
 218              	Timer_Int_Disable:
 219              	.LFB12:
 325:.\Generated_Source\PSoC4/Timer_Int.c **** 
 326:.\Generated_Source\PSoC4/Timer_Int.c **** 
 327:.\Generated_Source\PSoC4/Timer_Int.c **** /*******************************************************************************
 328:.\Generated_Source\PSoC4/Timer_Int.c **** * Function Name: Timer_Int_Disable
 329:.\Generated_Source\PSoC4/Timer_Int.c **** ********************************************************************************
 330:.\Generated_Source\PSoC4/Timer_Int.c **** *
 331:.\Generated_Source\PSoC4/Timer_Int.c **** * Summary:
 332:.\Generated_Source\PSoC4/Timer_Int.c **** *   Disables the Interrupt in the interrupt controller.
 333:.\Generated_Source\PSoC4/Timer_Int.c **** *
 334:.\Generated_Source\PSoC4/Timer_Int.c **** * Parameters:
 335:.\Generated_Source\PSoC4/Timer_Int.c **** *   None
 336:.\Generated_Source\PSoC4/Timer_Int.c **** *
 337:.\Generated_Source\PSoC4/Timer_Int.c **** * Return:
 338:.\Generated_Source\PSoC4/Timer_Int.c **** *   None
 339:.\Generated_Source\PSoC4/Timer_Int.c **** *
 340:.\Generated_Source\PSoC4/Timer_Int.c **** *******************************************************************************/
 341:.\Generated_Source\PSoC4/Timer_Int.c **** void Timer_Int_Disable(void)
 342:.\Generated_Source\PSoC4/Timer_Int.c **** {
 220              		.loc 1 342 0
 221              		.cfi_startproc
 343:.\Generated_Source\PSoC4/Timer_Int.c ****     /* Disable the general interrupt. */
 344:.\Generated_Source\PSoC4/Timer_Int.c ****     *Timer_Int_INTC_CLR_EN = Timer_Int__INTC_MASK;
 222              		.loc 1 344 0
 223 0000 8022     		mov	r2, #128
 224 0002 9202     		lsl	r2, r2, #10
 225 0004 014B     		ldr	r3, .L23
ARM GAS  C:\Users\Luci\AppData\Local\Temp\ccnzjkGf.s 			page 11


 226 0006 1A60     		str	r2, [r3]
 345:.\Generated_Source\PSoC4/Timer_Int.c **** }
 227              		.loc 1 345 0
 228              		@ sp needed
 229 0008 7047     		bx	lr
 230              	.L24:
 231 000a C046     		.align	2
 232              	.L23:
 233 000c 80E100E0 		.word	-536813184
 234              		.cfi_endproc
 235              	.LFE12:
 236              		.size	Timer_Int_Disable, .-Timer_Int_Disable
 237              		.section	.text.Timer_Int_Start,"ax",%progbits
 238              		.align	2
 239              		.global	Timer_Int_Start
 240              		.code	16
 241              		.thumb_func
 242              		.type	Timer_Int_Start, %function
 243              	Timer_Int_Start:
 244              	.LFB2:
  56:.\Generated_Source\PSoC4/Timer_Int.c **** {
 245              		.loc 1 56 0
 246              		.cfi_startproc
 247 0000 08B5     		push	{r3, lr}
 248              		.cfi_def_cfa_offset 8
 249              		.cfi_offset 3, -8
 250              		.cfi_offset 14, -4
  58:.\Generated_Source\PSoC4/Timer_Int.c ****     Timer_Int_Disable();
 251              		.loc 1 58 0
 252 0002 FFF7FEFF 		bl	Timer_Int_Disable
 253              	.LVL8:
  61:.\Generated_Source\PSoC4/Timer_Int.c ****     Timer_Int_SetVector(&Timer_Int_Interrupt);
 254              		.loc 1 61 0
 255 0006 0448     		ldr	r0, .L26
 256 0008 FFF7FEFF 		bl	Timer_Int_SetVector
 257              	.LVL9:
  64:.\Generated_Source\PSoC4/Timer_Int.c ****     Timer_Int_SetPriority((uint8)Timer_Int_INTC_PRIOR_NUMBER);
 258              		.loc 1 64 0
 259 000c 0320     		mov	r0, #3
 260 000e FFF7FEFF 		bl	Timer_Int_SetPriority
 261              	.LVL10:
  67:.\Generated_Source\PSoC4/Timer_Int.c ****     Timer_Int_Enable();
 262              		.loc 1 67 0
 263 0012 FFF7FEFF 		bl	Timer_Int_Enable
 264              	.LVL11:
  68:.\Generated_Source\PSoC4/Timer_Int.c **** }
 265              		.loc 1 68 0
 266              		@ sp needed
 267 0016 08BD     		pop	{r3, pc}
 268              	.L27:
 269              		.align	2
 270              	.L26:
 271 0018 00000000 		.word	Timer_Int_Interrupt
 272              		.cfi_endproc
 273              	.LFE2:
 274              		.size	Timer_Int_Start, .-Timer_Int_Start
 275              		.section	.text.Timer_Int_StartEx,"ax",%progbits
ARM GAS  C:\Users\Luci\AppData\Local\Temp\ccnzjkGf.s 			page 12


 276              		.align	2
 277              		.global	Timer_Int_StartEx
 278              		.code	16
 279              		.thumb_func
 280              		.type	Timer_Int_StartEx, %function
 281              	Timer_Int_StartEx:
 282              	.LFB3:
  99:.\Generated_Source\PSoC4/Timer_Int.c **** {
 283              		.loc 1 99 0
 284              		.cfi_startproc
 285              	.LVL12:
 286 0000 10B5     		push	{r4, lr}
 287              		.cfi_def_cfa_offset 8
 288              		.cfi_offset 4, -8
 289              		.cfi_offset 14, -4
 290 0002 041C     		mov	r4, r0
 101:.\Generated_Source\PSoC4/Timer_Int.c ****     Timer_Int_Disable();
 291              		.loc 1 101 0
 292 0004 FFF7FEFF 		bl	Timer_Int_Disable
 293              	.LVL13:
 104:.\Generated_Source\PSoC4/Timer_Int.c ****     Timer_Int_SetVector(address);
 294              		.loc 1 104 0
 295 0008 201C     		mov	r0, r4
 296 000a FFF7FEFF 		bl	Timer_Int_SetVector
 297              	.LVL14:
 107:.\Generated_Source\PSoC4/Timer_Int.c ****     Timer_Int_SetPriority((uint8)Timer_Int_INTC_PRIOR_NUMBER);
 298              		.loc 1 107 0
 299 000e 0320     		mov	r0, #3
 300 0010 FFF7FEFF 		bl	Timer_Int_SetPriority
 301              	.LVL15:
 110:.\Generated_Source\PSoC4/Timer_Int.c ****     Timer_Int_Enable();
 302              		.loc 1 110 0
 303 0014 FFF7FEFF 		bl	Timer_Int_Enable
 304              	.LVL16:
 111:.\Generated_Source\PSoC4/Timer_Int.c **** }
 305              		.loc 1 111 0
 306              		@ sp needed
 307              	.LVL17:
 308 0018 10BD     		pop	{r4, pc}
 309              		.cfi_endproc
 310              	.LFE3:
 311              		.size	Timer_Int_StartEx, .-Timer_Int_StartEx
 312 001a C046     		.section	.text.Timer_Int_Stop,"ax",%progbits
 313              		.align	2
 314              		.global	Timer_Int_Stop
 315              		.code	16
 316              		.thumb_func
 317              		.type	Timer_Int_Stop, %function
 318              	Timer_Int_Stop:
 319              	.LFB4:
 129:.\Generated_Source\PSoC4/Timer_Int.c **** {
 320              		.loc 1 129 0
 321              		.cfi_startproc
 322 0000 08B5     		push	{r3, lr}
 323              		.cfi_def_cfa_offset 8
 324              		.cfi_offset 3, -8
 325              		.cfi_offset 14, -4
ARM GAS  C:\Users\Luci\AppData\Local\Temp\ccnzjkGf.s 			page 13


 131:.\Generated_Source\PSoC4/Timer_Int.c ****     Timer_Int_Disable();
 326              		.loc 1 131 0
 327 0002 FFF7FEFF 		bl	Timer_Int_Disable
 328              	.LVL18:
 134:.\Generated_Source\PSoC4/Timer_Int.c ****     Timer_Int_SetVector(&IntDefaultHandler);
 329              		.loc 1 134 0
 330 0006 0248     		ldr	r0, .L30
 331 0008 FFF7FEFF 		bl	Timer_Int_SetVector
 332              	.LVL19:
 135:.\Generated_Source\PSoC4/Timer_Int.c **** }
 333              		.loc 1 135 0
 334              		@ sp needed
 335 000c 08BD     		pop	{r3, pc}
 336              	.L31:
 337 000e C046     		.align	2
 338              	.L30:
 339 0010 00000000 		.word	IntDefaultHandler
 340              		.cfi_endproc
 341              	.LFE4:
 342              		.size	Timer_Int_Stop, .-Timer_Int_Stop
 343              		.section	.text.Timer_Int_SetPending,"ax",%progbits
 344              		.align	2
 345              		.global	Timer_Int_SetPending
 346              		.code	16
 347              		.thumb_func
 348              		.type	Timer_Int_SetPending, %function
 349              	Timer_Int_SetPending:
 350              	.LFB13:
 346:.\Generated_Source\PSoC4/Timer_Int.c **** 
 347:.\Generated_Source\PSoC4/Timer_Int.c **** 
 348:.\Generated_Source\PSoC4/Timer_Int.c **** /*******************************************************************************
 349:.\Generated_Source\PSoC4/Timer_Int.c **** * Function Name: Timer_Int_SetPending
 350:.\Generated_Source\PSoC4/Timer_Int.c **** ********************************************************************************
 351:.\Generated_Source\PSoC4/Timer_Int.c **** *
 352:.\Generated_Source\PSoC4/Timer_Int.c **** * Summary:
 353:.\Generated_Source\PSoC4/Timer_Int.c **** *   Causes the Interrupt to enter the pending state, a software method of
 354:.\Generated_Source\PSoC4/Timer_Int.c **** *   generating the interrupt.
 355:.\Generated_Source\PSoC4/Timer_Int.c **** *
 356:.\Generated_Source\PSoC4/Timer_Int.c **** * Parameters:
 357:.\Generated_Source\PSoC4/Timer_Int.c **** *   None
 358:.\Generated_Source\PSoC4/Timer_Int.c **** *
 359:.\Generated_Source\PSoC4/Timer_Int.c **** * Return:
 360:.\Generated_Source\PSoC4/Timer_Int.c **** *   None
 361:.\Generated_Source\PSoC4/Timer_Int.c **** *
 362:.\Generated_Source\PSoC4/Timer_Int.c **** * Side Effects:
 363:.\Generated_Source\PSoC4/Timer_Int.c **** *   If interrupts are enabled and the interrupt is set up properly, the ISR is
 364:.\Generated_Source\PSoC4/Timer_Int.c **** *   entered (depending on the priority of this interrupt and other pending 
 365:.\Generated_Source\PSoC4/Timer_Int.c **** *   interrupts).
 366:.\Generated_Source\PSoC4/Timer_Int.c **** *
 367:.\Generated_Source\PSoC4/Timer_Int.c **** *******************************************************************************/
 368:.\Generated_Source\PSoC4/Timer_Int.c **** void Timer_Int_SetPending(void)
 369:.\Generated_Source\PSoC4/Timer_Int.c **** {
 351              		.loc 1 369 0
 352              		.cfi_startproc
 370:.\Generated_Source\PSoC4/Timer_Int.c ****     *Timer_Int_INTC_SET_PD = Timer_Int__INTC_MASK;
 353              		.loc 1 370 0
 354 0000 8022     		mov	r2, #128
ARM GAS  C:\Users\Luci\AppData\Local\Temp\ccnzjkGf.s 			page 14


 355 0002 9202     		lsl	r2, r2, #10
 356 0004 014B     		ldr	r3, .L33
 357 0006 1A60     		str	r2, [r3]
 371:.\Generated_Source\PSoC4/Timer_Int.c **** }
 358              		.loc 1 371 0
 359              		@ sp needed
 360 0008 7047     		bx	lr
 361              	.L34:
 362 000a C046     		.align	2
 363              	.L33:
 364 000c 00E200E0 		.word	-536813056
 365              		.cfi_endproc
 366              	.LFE13:
 367              		.size	Timer_Int_SetPending, .-Timer_Int_SetPending
 368              		.section	.text.Timer_Int_ClearPending,"ax",%progbits
 369              		.align	2
 370              		.global	Timer_Int_ClearPending
 371              		.code	16
 372              		.thumb_func
 373              		.type	Timer_Int_ClearPending, %function
 374              	Timer_Int_ClearPending:
 375              	.LFB14:
 372:.\Generated_Source\PSoC4/Timer_Int.c **** 
 373:.\Generated_Source\PSoC4/Timer_Int.c **** 
 374:.\Generated_Source\PSoC4/Timer_Int.c **** /*******************************************************************************
 375:.\Generated_Source\PSoC4/Timer_Int.c **** * Function Name: Timer_Int_ClearPending
 376:.\Generated_Source\PSoC4/Timer_Int.c **** ********************************************************************************
 377:.\Generated_Source\PSoC4/Timer_Int.c **** *
 378:.\Generated_Source\PSoC4/Timer_Int.c **** * Summary:
 379:.\Generated_Source\PSoC4/Timer_Int.c **** *   Clears a pending interrupt in the interrupt controller.
 380:.\Generated_Source\PSoC4/Timer_Int.c **** *
 381:.\Generated_Source\PSoC4/Timer_Int.c **** *   Note Some interrupt sources are clear-on-read and require the block 
 382:.\Generated_Source\PSoC4/Timer_Int.c **** *   interrupt/status register to be read/cleared with the appropriate block API 
 383:.\Generated_Source\PSoC4/Timer_Int.c **** *   (GPIO, UART, and so on). Otherwise the ISR will continue to remain in 
 384:.\Generated_Source\PSoC4/Timer_Int.c **** *   pending state even though the interrupt itself is cleared using this API.
 385:.\Generated_Source\PSoC4/Timer_Int.c **** *
 386:.\Generated_Source\PSoC4/Timer_Int.c **** * Parameters:
 387:.\Generated_Source\PSoC4/Timer_Int.c **** *   None
 388:.\Generated_Source\PSoC4/Timer_Int.c **** *
 389:.\Generated_Source\PSoC4/Timer_Int.c **** * Return:
 390:.\Generated_Source\PSoC4/Timer_Int.c **** *   None
 391:.\Generated_Source\PSoC4/Timer_Int.c **** *
 392:.\Generated_Source\PSoC4/Timer_Int.c **** *******************************************************************************/
 393:.\Generated_Source\PSoC4/Timer_Int.c **** void Timer_Int_ClearPending(void)
 394:.\Generated_Source\PSoC4/Timer_Int.c **** {
 376              		.loc 1 394 0
 377              		.cfi_startproc
 395:.\Generated_Source\PSoC4/Timer_Int.c ****     *Timer_Int_INTC_CLR_PD = Timer_Int__INTC_MASK;
 378              		.loc 1 395 0
 379 0000 8022     		mov	r2, #128
 380 0002 9202     		lsl	r2, r2, #10
 381 0004 014B     		ldr	r3, .L36
 382 0006 1A60     		str	r2, [r3]
 396:.\Generated_Source\PSoC4/Timer_Int.c **** }
 383              		.loc 1 396 0
 384              		@ sp needed
 385 0008 7047     		bx	lr
ARM GAS  C:\Users\Luci\AppData\Local\Temp\ccnzjkGf.s 			page 15


 386              	.L37:
 387 000a C046     		.align	2
 388              	.L36:
 389 000c 80E200E0 		.word	-536812928
 390              		.cfi_endproc
 391              	.LFE14:
 392              		.size	Timer_Int_ClearPending, .-Timer_Int_ClearPending
 393              		.text
 394              	.Letext0:
 395              		.file 2 "Generated_Source\\PSoC4/cytypes.h"
 396              		.file 3 "Generated_Source\\PSoC4/CyLib.h"