ARM GAS  C:\Users\Luci\AppData\Local\Temp\ccUHbIZG.s 			page 1


   1              		.cpu cortex-m0
   2              		.fpu softvfp
   3              		.eabi_attribute 20, 1
   4              		.eabi_attribute 21, 1
   5              		.eabi_attribute 23, 3
   6              		.eabi_attribute 24, 1
   7              		.eabi_attribute 25, 1
   8              		.eabi_attribute 26, 1
   9              		.eabi_attribute 30, 1
  10              		.eabi_attribute 34, 0
  11              		.eabi_attribute 18, 4
  12              		.code	16
  13              		.file	"Timer.c"
  14              		.text
  15              	.Ltext0:
  16              		.cfi_sections	.debug_frame
  17              		.section	.text.Timer_Enable,"ax",%progbits
  18              		.align	2
  19              		.global	Timer_Enable
  20              		.code	16
  21              		.thumb_func
  22              		.type	Timer_Enable, %function
  23              	Timer_Enable:
  24              	.LFB3:
  25              		.file 1 ".\\Generated_Source\\PSoC4\\Timer.c"
   1:.\Generated_Source\PSoC4/Timer.c **** /*******************************************************************************
   2:.\Generated_Source\PSoC4/Timer.c **** * File Name: Timer.c
   3:.\Generated_Source\PSoC4/Timer.c **** * Version 2.0
   4:.\Generated_Source\PSoC4/Timer.c **** *
   5:.\Generated_Source\PSoC4/Timer.c **** * Description:
   6:.\Generated_Source\PSoC4/Timer.c **** *  This file provides the source code to the API for the Timer
   7:.\Generated_Source\PSoC4/Timer.c **** *  component
   8:.\Generated_Source\PSoC4/Timer.c **** *
   9:.\Generated_Source\PSoC4/Timer.c **** * Note:
  10:.\Generated_Source\PSoC4/Timer.c **** *  None
  11:.\Generated_Source\PSoC4/Timer.c **** *
  12:.\Generated_Source\PSoC4/Timer.c **** ********************************************************************************
  13:.\Generated_Source\PSoC4/Timer.c **** * Copyright 2013-2014, Cypress Semiconductor Corporation.  All rights reserved.
  14:.\Generated_Source\PSoC4/Timer.c **** * You may use this file only in accordance with the license, terms, conditions,
  15:.\Generated_Source\PSoC4/Timer.c **** * disclaimers, and limitations in the end user license agreement accompanying
  16:.\Generated_Source\PSoC4/Timer.c **** * the software package with which this file was provided.
  17:.\Generated_Source\PSoC4/Timer.c **** *******************************************************************************/
  18:.\Generated_Source\PSoC4/Timer.c **** 
  19:.\Generated_Source\PSoC4/Timer.c **** #include "Timer.h"
  20:.\Generated_Source\PSoC4/Timer.c **** 
  21:.\Generated_Source\PSoC4/Timer.c **** uint8 Timer_initVar = 0u;
  22:.\Generated_Source\PSoC4/Timer.c **** 
  23:.\Generated_Source\PSoC4/Timer.c **** 
  24:.\Generated_Source\PSoC4/Timer.c **** /*******************************************************************************
  25:.\Generated_Source\PSoC4/Timer.c **** * Function Name: Timer_Init
  26:.\Generated_Source\PSoC4/Timer.c **** ********************************************************************************
  27:.\Generated_Source\PSoC4/Timer.c **** *
  28:.\Generated_Source\PSoC4/Timer.c **** * Summary:
  29:.\Generated_Source\PSoC4/Timer.c **** *  Initialize/Restore default Timer configuration.
  30:.\Generated_Source\PSoC4/Timer.c **** *
  31:.\Generated_Source\PSoC4/Timer.c **** * Parameters:
  32:.\Generated_Source\PSoC4/Timer.c **** *  None
ARM GAS  C:\Users\Luci\AppData\Local\Temp\ccUHbIZG.s 			page 2


  33:.\Generated_Source\PSoC4/Timer.c **** *
  34:.\Generated_Source\PSoC4/Timer.c **** * Return:
  35:.\Generated_Source\PSoC4/Timer.c **** *  None
  36:.\Generated_Source\PSoC4/Timer.c **** *
  37:.\Generated_Source\PSoC4/Timer.c **** *******************************************************************************/
  38:.\Generated_Source\PSoC4/Timer.c **** void Timer_Init(void)
  39:.\Generated_Source\PSoC4/Timer.c **** {
  40:.\Generated_Source\PSoC4/Timer.c **** 
  41:.\Generated_Source\PSoC4/Timer.c ****     /* Set values from customizer to CTRL */
  42:.\Generated_Source\PSoC4/Timer.c ****     #if (Timer__QUAD == Timer_CONFIG)
  43:.\Generated_Source\PSoC4/Timer.c ****         Timer_CONTROL_REG = Timer_CTRL_QUAD_BASE_CONFIG;
  44:.\Generated_Source\PSoC4/Timer.c ****         
  45:.\Generated_Source\PSoC4/Timer.c ****         /* Set values from customizer to CTRL1 */
  46:.\Generated_Source\PSoC4/Timer.c ****         Timer_TRIG_CONTROL1_REG  = Timer_QUAD_SIGNALS_MODES;
  47:.\Generated_Source\PSoC4/Timer.c **** 
  48:.\Generated_Source\PSoC4/Timer.c ****         /* Set values from customizer to INTR */
  49:.\Generated_Source\PSoC4/Timer.c ****         Timer_SetInterruptMode(Timer_QUAD_INTERRUPT_MASK);
  50:.\Generated_Source\PSoC4/Timer.c ****         
  51:.\Generated_Source\PSoC4/Timer.c ****          /* Set other values */
  52:.\Generated_Source\PSoC4/Timer.c ****         Timer_SetCounterMode(Timer_COUNT_DOWN);
  53:.\Generated_Source\PSoC4/Timer.c ****         Timer_WritePeriod(Timer_QUAD_PERIOD_INIT_VALUE);
  54:.\Generated_Source\PSoC4/Timer.c ****         Timer_WriteCounter(Timer_QUAD_PERIOD_INIT_VALUE);
  55:.\Generated_Source\PSoC4/Timer.c ****     #endif  /* (Timer__QUAD == Timer_CONFIG) */
  56:.\Generated_Source\PSoC4/Timer.c **** 
  57:.\Generated_Source\PSoC4/Timer.c ****     #if (Timer__TIMER == Timer_CONFIG)
  58:.\Generated_Source\PSoC4/Timer.c ****         Timer_CONTROL_REG = Timer_CTRL_TIMER_BASE_CONFIG;
  59:.\Generated_Source\PSoC4/Timer.c ****         
  60:.\Generated_Source\PSoC4/Timer.c ****         /* Set values from customizer to CTRL1 */
  61:.\Generated_Source\PSoC4/Timer.c ****         Timer_TRIG_CONTROL1_REG  = Timer_TIMER_SIGNALS_MODES;
  62:.\Generated_Source\PSoC4/Timer.c ****     
  63:.\Generated_Source\PSoC4/Timer.c ****         /* Set values from customizer to INTR */
  64:.\Generated_Source\PSoC4/Timer.c ****         Timer_SetInterruptMode(Timer_TC_INTERRUPT_MASK);
  65:.\Generated_Source\PSoC4/Timer.c ****         
  66:.\Generated_Source\PSoC4/Timer.c ****         /* Set other values from customizer */
  67:.\Generated_Source\PSoC4/Timer.c ****         Timer_WritePeriod(Timer_TC_PERIOD_VALUE );
  68:.\Generated_Source\PSoC4/Timer.c **** 
  69:.\Generated_Source\PSoC4/Timer.c ****         #if (Timer__COMPARE == Timer_TC_COMP_CAP_MODE)
  70:.\Generated_Source\PSoC4/Timer.c ****             Timer_WriteCompare(Timer_TC_COMPARE_VALUE);
  71:.\Generated_Source\PSoC4/Timer.c **** 
  72:.\Generated_Source\PSoC4/Timer.c ****             #if (1u == Timer_TC_COMPARE_SWAP)
  73:.\Generated_Source\PSoC4/Timer.c ****                 Timer_SetCompareSwap(1u);
  74:.\Generated_Source\PSoC4/Timer.c ****                 Timer_WriteCompareBuf(Timer_TC_COMPARE_BUF_VALUE);
  75:.\Generated_Source\PSoC4/Timer.c ****             #endif  /* (1u == Timer_TC_COMPARE_SWAP) */
  76:.\Generated_Source\PSoC4/Timer.c ****         #endif  /* (Timer__COMPARE == Timer_TC_COMP_CAP_MODE) */
  77:.\Generated_Source\PSoC4/Timer.c **** 
  78:.\Generated_Source\PSoC4/Timer.c ****         /* Initialize counter value */
  79:.\Generated_Source\PSoC4/Timer.c ****         #if (Timer_CY_TCPWM_V2 && Timer_TIMER_UPDOWN_CNT_USED && !Timer_CY_TCPWM_4000)
  80:.\Generated_Source\PSoC4/Timer.c ****             Timer_WriteCounter(1u);
  81:.\Generated_Source\PSoC4/Timer.c ****         #elif(Timer__COUNT_DOWN == Timer_TC_COUNTER_MODE)
  82:.\Generated_Source\PSoC4/Timer.c ****             Timer_WriteCounter(Timer_TC_PERIOD_VALUE);
  83:.\Generated_Source\PSoC4/Timer.c ****         #else
  84:.\Generated_Source\PSoC4/Timer.c ****             Timer_WriteCounter(0u);
  85:.\Generated_Source\PSoC4/Timer.c ****         #endif /* (Timer_CY_TCPWM_V2 && Timer_TIMER_UPDOWN_CNT_USED && !Timer_CY_TCPWM_4000) */
  86:.\Generated_Source\PSoC4/Timer.c ****     #endif  /* (Timer__TIMER == Timer_CONFIG) */
  87:.\Generated_Source\PSoC4/Timer.c **** 
  88:.\Generated_Source\PSoC4/Timer.c ****     #if (Timer__PWM_SEL == Timer_CONFIG)
  89:.\Generated_Source\PSoC4/Timer.c ****         Timer_CONTROL_REG = Timer_CTRL_PWM_BASE_CONFIG;
ARM GAS  C:\Users\Luci\AppData\Local\Temp\ccUHbIZG.s 			page 3


  90:.\Generated_Source\PSoC4/Timer.c **** 
  91:.\Generated_Source\PSoC4/Timer.c ****         #if (Timer__PWM_PR == Timer_PWM_MODE)
  92:.\Generated_Source\PSoC4/Timer.c ****             Timer_CONTROL_REG |= Timer_CTRL_PWM_RUN_MODE;
  93:.\Generated_Source\PSoC4/Timer.c ****             Timer_WriteCounter(Timer_PWM_PR_INIT_VALUE);
  94:.\Generated_Source\PSoC4/Timer.c ****         #else
  95:.\Generated_Source\PSoC4/Timer.c ****             Timer_CONTROL_REG |= Timer_CTRL_PWM_ALIGN | Timer_CTRL_PWM_KILL_EVENT;
  96:.\Generated_Source\PSoC4/Timer.c ****             
  97:.\Generated_Source\PSoC4/Timer.c ****             /* Initialize counter value */
  98:.\Generated_Source\PSoC4/Timer.c ****             #if (Timer_CY_TCPWM_V2 && Timer_PWM_UPDOWN_CNT_USED && !Timer_CY_TCPWM_4000)
  99:.\Generated_Source\PSoC4/Timer.c ****                 Timer_WriteCounter(1u);
 100:.\Generated_Source\PSoC4/Timer.c ****             #elif (Timer__RIGHT == Timer_PWM_ALIGN)
 101:.\Generated_Source\PSoC4/Timer.c ****                 Timer_WriteCounter(Timer_PWM_PERIOD_VALUE);
 102:.\Generated_Source\PSoC4/Timer.c ****             #else 
 103:.\Generated_Source\PSoC4/Timer.c ****                 Timer_WriteCounter(0u);
 104:.\Generated_Source\PSoC4/Timer.c ****             #endif  /* (Timer_CY_TCPWM_V2 && Timer_PWM_UPDOWN_CNT_USED && !Timer_CY_TCPWM_4000) */
 105:.\Generated_Source\PSoC4/Timer.c ****         #endif  /* (Timer__PWM_PR == Timer_PWM_MODE) */
 106:.\Generated_Source\PSoC4/Timer.c **** 
 107:.\Generated_Source\PSoC4/Timer.c ****         #if (Timer__PWM_DT == Timer_PWM_MODE)
 108:.\Generated_Source\PSoC4/Timer.c ****             Timer_CONTROL_REG |= Timer_CTRL_PWM_DEAD_TIME_CYCLE;
 109:.\Generated_Source\PSoC4/Timer.c ****         #endif  /* (Timer__PWM_DT == Timer_PWM_MODE) */
 110:.\Generated_Source\PSoC4/Timer.c **** 
 111:.\Generated_Source\PSoC4/Timer.c ****         #if (Timer__PWM == Timer_PWM_MODE)
 112:.\Generated_Source\PSoC4/Timer.c ****             Timer_CONTROL_REG |= Timer_CTRL_PWM_PRESCALER;
 113:.\Generated_Source\PSoC4/Timer.c ****         #endif  /* (Timer__PWM == Timer_PWM_MODE) */
 114:.\Generated_Source\PSoC4/Timer.c **** 
 115:.\Generated_Source\PSoC4/Timer.c ****         /* Set values from customizer to CTRL1 */
 116:.\Generated_Source\PSoC4/Timer.c ****         Timer_TRIG_CONTROL1_REG  = Timer_PWM_SIGNALS_MODES;
 117:.\Generated_Source\PSoC4/Timer.c ****     
 118:.\Generated_Source\PSoC4/Timer.c ****         /* Set values from customizer to INTR */
 119:.\Generated_Source\PSoC4/Timer.c ****         Timer_SetInterruptMode(Timer_PWM_INTERRUPT_MASK);
 120:.\Generated_Source\PSoC4/Timer.c **** 
 121:.\Generated_Source\PSoC4/Timer.c ****         /* Set values from customizer to CTRL2 */
 122:.\Generated_Source\PSoC4/Timer.c ****         #if (Timer__PWM_PR == Timer_PWM_MODE)
 123:.\Generated_Source\PSoC4/Timer.c ****             Timer_TRIG_CONTROL2_REG =
 124:.\Generated_Source\PSoC4/Timer.c ****                     (Timer_CC_MATCH_NO_CHANGE    |
 125:.\Generated_Source\PSoC4/Timer.c ****                     Timer_OVERLOW_NO_CHANGE      |
 126:.\Generated_Source\PSoC4/Timer.c ****                     Timer_UNDERFLOW_NO_CHANGE);
 127:.\Generated_Source\PSoC4/Timer.c ****         #else
 128:.\Generated_Source\PSoC4/Timer.c ****             #if (Timer__LEFT == Timer_PWM_ALIGN)
 129:.\Generated_Source\PSoC4/Timer.c ****                 Timer_TRIG_CONTROL2_REG = Timer_PWM_MODE_LEFT;
 130:.\Generated_Source\PSoC4/Timer.c ****             #endif  /* ( Timer_PWM_LEFT == Timer_PWM_ALIGN) */
 131:.\Generated_Source\PSoC4/Timer.c **** 
 132:.\Generated_Source\PSoC4/Timer.c ****             #if (Timer__RIGHT == Timer_PWM_ALIGN)
 133:.\Generated_Source\PSoC4/Timer.c ****                 Timer_TRIG_CONTROL2_REG = Timer_PWM_MODE_RIGHT;
 134:.\Generated_Source\PSoC4/Timer.c ****             #endif  /* ( Timer_PWM_RIGHT == Timer_PWM_ALIGN) */
 135:.\Generated_Source\PSoC4/Timer.c **** 
 136:.\Generated_Source\PSoC4/Timer.c ****             #if (Timer__CENTER == Timer_PWM_ALIGN)
 137:.\Generated_Source\PSoC4/Timer.c ****                 Timer_TRIG_CONTROL2_REG = Timer_PWM_MODE_CENTER;
 138:.\Generated_Source\PSoC4/Timer.c ****             #endif  /* ( Timer_PWM_CENTER == Timer_PWM_ALIGN) */
 139:.\Generated_Source\PSoC4/Timer.c **** 
 140:.\Generated_Source\PSoC4/Timer.c ****             #if (Timer__ASYMMETRIC == Timer_PWM_ALIGN)
 141:.\Generated_Source\PSoC4/Timer.c ****                 Timer_TRIG_CONTROL2_REG = Timer_PWM_MODE_ASYM;
 142:.\Generated_Source\PSoC4/Timer.c ****             #endif  /* (Timer__ASYMMETRIC == Timer_PWM_ALIGN) */
 143:.\Generated_Source\PSoC4/Timer.c ****         #endif  /* (Timer__PWM_PR == Timer_PWM_MODE) */
 144:.\Generated_Source\PSoC4/Timer.c **** 
 145:.\Generated_Source\PSoC4/Timer.c ****         /* Set other values from customizer */
 146:.\Generated_Source\PSoC4/Timer.c ****         Timer_WritePeriod(Timer_PWM_PERIOD_VALUE );
ARM GAS  C:\Users\Luci\AppData\Local\Temp\ccUHbIZG.s 			page 4


 147:.\Generated_Source\PSoC4/Timer.c ****         Timer_WriteCompare(Timer_PWM_COMPARE_VALUE);
 148:.\Generated_Source\PSoC4/Timer.c **** 
 149:.\Generated_Source\PSoC4/Timer.c ****         #if (1u == Timer_PWM_COMPARE_SWAP)
 150:.\Generated_Source\PSoC4/Timer.c ****             Timer_SetCompareSwap(1u);
 151:.\Generated_Source\PSoC4/Timer.c ****             Timer_WriteCompareBuf(Timer_PWM_COMPARE_BUF_VALUE);
 152:.\Generated_Source\PSoC4/Timer.c ****         #endif  /* (1u == Timer_PWM_COMPARE_SWAP) */
 153:.\Generated_Source\PSoC4/Timer.c **** 
 154:.\Generated_Source\PSoC4/Timer.c ****         #if (1u == Timer_PWM_PERIOD_SWAP)
 155:.\Generated_Source\PSoC4/Timer.c ****             Timer_SetPeriodSwap(1u);
 156:.\Generated_Source\PSoC4/Timer.c ****             Timer_WritePeriodBuf(Timer_PWM_PERIOD_BUF_VALUE);
 157:.\Generated_Source\PSoC4/Timer.c ****         #endif  /* (1u == Timer_PWM_PERIOD_SWAP) */
 158:.\Generated_Source\PSoC4/Timer.c ****     #endif  /* (Timer__PWM_SEL == Timer_CONFIG) */
 159:.\Generated_Source\PSoC4/Timer.c ****     
 160:.\Generated_Source\PSoC4/Timer.c **** }
 161:.\Generated_Source\PSoC4/Timer.c **** 
 162:.\Generated_Source\PSoC4/Timer.c **** 
 163:.\Generated_Source\PSoC4/Timer.c **** /*******************************************************************************
 164:.\Generated_Source\PSoC4/Timer.c **** * Function Name: Timer_Enable
 165:.\Generated_Source\PSoC4/Timer.c **** ********************************************************************************
 166:.\Generated_Source\PSoC4/Timer.c **** *
 167:.\Generated_Source\PSoC4/Timer.c **** * Summary:
 168:.\Generated_Source\PSoC4/Timer.c **** *  Enables the Timer.
 169:.\Generated_Source\PSoC4/Timer.c **** *
 170:.\Generated_Source\PSoC4/Timer.c **** * Parameters:
 171:.\Generated_Source\PSoC4/Timer.c **** *  None
 172:.\Generated_Source\PSoC4/Timer.c **** *
 173:.\Generated_Source\PSoC4/Timer.c **** * Return:
 174:.\Generated_Source\PSoC4/Timer.c **** *  None
 175:.\Generated_Source\PSoC4/Timer.c **** *
 176:.\Generated_Source\PSoC4/Timer.c **** *******************************************************************************/
 177:.\Generated_Source\PSoC4/Timer.c **** void Timer_Enable(void)
 178:.\Generated_Source\PSoC4/Timer.c **** {
  26              		.loc 1 178 0
  27              		.cfi_startproc
  28 0000 08B5     		push	{r3, lr}
  29              		.cfi_def_cfa_offset 8
  30              		.cfi_offset 3, -8
  31              		.cfi_offset 14, -4
 179:.\Generated_Source\PSoC4/Timer.c ****     uint8 enableInterrupts;
 180:.\Generated_Source\PSoC4/Timer.c **** 
 181:.\Generated_Source\PSoC4/Timer.c ****     enableInterrupts = CyEnterCriticalSection();
  32              		.loc 1 181 0
  33 0002 FFF7FEFF 		bl	CyEnterCriticalSection
  34              	.LVL0:
 182:.\Generated_Source\PSoC4/Timer.c ****     Timer_BLOCK_CONTROL_REG |= Timer_MASK;
  35              		.loc 1 182 0
  36 0006 044B     		ldr	r3, .L2
  37 0008 1968     		ldr	r1, [r3]
  38 000a 0122     		mov	r2, #1
  39 000c 0A43     		orr	r2, r1
  40 000e 1A60     		str	r2, [r3]
 183:.\Generated_Source\PSoC4/Timer.c ****     CyExitCriticalSection(enableInterrupts);
  41              		.loc 1 183 0
  42 0010 FFF7FEFF 		bl	CyExitCriticalSection
  43              	.LVL1:
 184:.\Generated_Source\PSoC4/Timer.c **** 
 185:.\Generated_Source\PSoC4/Timer.c ****     /* Start Timer or PWM if start input is absent */
ARM GAS  C:\Users\Luci\AppData\Local\Temp\ccUHbIZG.s 			page 5


 186:.\Generated_Source\PSoC4/Timer.c ****     #if (Timer__PWM_SEL == Timer_CONFIG)
 187:.\Generated_Source\PSoC4/Timer.c ****         #if (0u == Timer_PWM_START_SIGNAL_PRESENT)
 188:.\Generated_Source\PSoC4/Timer.c ****             Timer_TriggerCommand(Timer_MASK, Timer_CMD_START);
 189:.\Generated_Source\PSoC4/Timer.c ****         #endif /* (0u == Timer_PWM_START_SIGNAL_PRESENT) */
 190:.\Generated_Source\PSoC4/Timer.c ****     #endif /* (Timer__PWM_SEL == Timer_CONFIG) */
 191:.\Generated_Source\PSoC4/Timer.c **** 
 192:.\Generated_Source\PSoC4/Timer.c ****     #if (Timer__TIMER == Timer_CONFIG)
 193:.\Generated_Source\PSoC4/Timer.c ****         #if (0u == Timer_TC_START_SIGNAL_PRESENT)
 194:.\Generated_Source\PSoC4/Timer.c ****             Timer_TriggerCommand(Timer_MASK, Timer_CMD_START);
 195:.\Generated_Source\PSoC4/Timer.c ****         #endif /* (0u == Timer_TC_START_SIGNAL_PRESENT) */
 196:.\Generated_Source\PSoC4/Timer.c ****     #endif /* (Timer__TIMER == Timer_CONFIG) */
 197:.\Generated_Source\PSoC4/Timer.c **** }
  44              		.loc 1 197 0
  45              		@ sp needed
  46 0014 08BD     		pop	{r3, pc}
  47              	.L3:
  48 0016 C046     		.align	2
  49              	.L2:
  50 0018 00002040 		.word	1075838976
  51              		.cfi_endproc
  52              	.LFE3:
  53              		.size	Timer_Enable, .-Timer_Enable
  54              		.section	.text.Timer_Stop,"ax",%progbits
  55              		.align	2
  56              		.global	Timer_Stop
  57              		.code	16
  58              		.thumb_func
  59              		.type	Timer_Stop, %function
  60              	Timer_Stop:
  61              	.LFB5:
 198:.\Generated_Source\PSoC4/Timer.c **** 
 199:.\Generated_Source\PSoC4/Timer.c **** 
 200:.\Generated_Source\PSoC4/Timer.c **** /*******************************************************************************
 201:.\Generated_Source\PSoC4/Timer.c **** * Function Name: Timer_Start
 202:.\Generated_Source\PSoC4/Timer.c **** ********************************************************************************
 203:.\Generated_Source\PSoC4/Timer.c **** *
 204:.\Generated_Source\PSoC4/Timer.c **** * Summary:
 205:.\Generated_Source\PSoC4/Timer.c **** *  Initializes the Timer with default customizer
 206:.\Generated_Source\PSoC4/Timer.c **** *  values when called the first time and enables the Timer.
 207:.\Generated_Source\PSoC4/Timer.c **** *  For subsequent calls the configuration is left unchanged and the component is
 208:.\Generated_Source\PSoC4/Timer.c **** *  just enabled.
 209:.\Generated_Source\PSoC4/Timer.c **** *
 210:.\Generated_Source\PSoC4/Timer.c **** * Parameters:
 211:.\Generated_Source\PSoC4/Timer.c **** *  None
 212:.\Generated_Source\PSoC4/Timer.c **** *
 213:.\Generated_Source\PSoC4/Timer.c **** * Return:
 214:.\Generated_Source\PSoC4/Timer.c **** *  None
 215:.\Generated_Source\PSoC4/Timer.c **** *
 216:.\Generated_Source\PSoC4/Timer.c **** * Global variables:
 217:.\Generated_Source\PSoC4/Timer.c **** *  Timer_initVar: global variable is used to indicate initial
 218:.\Generated_Source\PSoC4/Timer.c **** *  configuration of this component.  The variable is initialized to zero and set
 219:.\Generated_Source\PSoC4/Timer.c **** *  to 1 the first time Timer_Start() is called. This allows
 220:.\Generated_Source\PSoC4/Timer.c **** *  enabling/disabling a component without re-initialization in all subsequent
 221:.\Generated_Source\PSoC4/Timer.c **** *  calls to the Timer_Start() routine.
 222:.\Generated_Source\PSoC4/Timer.c **** *
 223:.\Generated_Source\PSoC4/Timer.c **** *******************************************************************************/
 224:.\Generated_Source\PSoC4/Timer.c **** void Timer_Start(void)
ARM GAS  C:\Users\Luci\AppData\Local\Temp\ccUHbIZG.s 			page 6


 225:.\Generated_Source\PSoC4/Timer.c **** {
 226:.\Generated_Source\PSoC4/Timer.c ****     if (0u == Timer_initVar)
 227:.\Generated_Source\PSoC4/Timer.c ****     {
 228:.\Generated_Source\PSoC4/Timer.c ****         Timer_Init();
 229:.\Generated_Source\PSoC4/Timer.c ****         Timer_initVar = 1u;
 230:.\Generated_Source\PSoC4/Timer.c ****     }
 231:.\Generated_Source\PSoC4/Timer.c **** 
 232:.\Generated_Source\PSoC4/Timer.c ****     Timer_Enable();
 233:.\Generated_Source\PSoC4/Timer.c **** }
 234:.\Generated_Source\PSoC4/Timer.c **** 
 235:.\Generated_Source\PSoC4/Timer.c **** 
 236:.\Generated_Source\PSoC4/Timer.c **** /*******************************************************************************
 237:.\Generated_Source\PSoC4/Timer.c **** * Function Name: Timer_Stop
 238:.\Generated_Source\PSoC4/Timer.c **** ********************************************************************************
 239:.\Generated_Source\PSoC4/Timer.c **** *
 240:.\Generated_Source\PSoC4/Timer.c **** * Summary:
 241:.\Generated_Source\PSoC4/Timer.c **** *  Disables the Timer.
 242:.\Generated_Source\PSoC4/Timer.c **** *
 243:.\Generated_Source\PSoC4/Timer.c **** * Parameters:
 244:.\Generated_Source\PSoC4/Timer.c **** *  None
 245:.\Generated_Source\PSoC4/Timer.c **** *
 246:.\Generated_Source\PSoC4/Timer.c **** * Return:
 247:.\Generated_Source\PSoC4/Timer.c **** *  None
 248:.\Generated_Source\PSoC4/Timer.c **** *
 249:.\Generated_Source\PSoC4/Timer.c **** *******************************************************************************/
 250:.\Generated_Source\PSoC4/Timer.c **** void Timer_Stop(void)
 251:.\Generated_Source\PSoC4/Timer.c **** {
  62              		.loc 1 251 0
  63              		.cfi_startproc
  64 0000 08B5     		push	{r3, lr}
  65              		.cfi_def_cfa_offset 8
  66              		.cfi_offset 3, -8
  67              		.cfi_offset 14, -4
 252:.\Generated_Source\PSoC4/Timer.c ****     uint8 enableInterrupts;
 253:.\Generated_Source\PSoC4/Timer.c **** 
 254:.\Generated_Source\PSoC4/Timer.c ****     enableInterrupts = CyEnterCriticalSection();
  68              		.loc 1 254 0
  69 0002 FFF7FEFF 		bl	CyEnterCriticalSection
  70              	.LVL2:
 255:.\Generated_Source\PSoC4/Timer.c **** 
 256:.\Generated_Source\PSoC4/Timer.c ****     Timer_BLOCK_CONTROL_REG &= (uint32)~Timer_MASK;
  71              		.loc 1 256 0
  72 0006 044B     		ldr	r3, .L5
  73 0008 1A68     		ldr	r2, [r3]
  74 000a 0121     		mov	r1, #1
  75 000c 8A43     		bic	r2, r1
  76 000e 1A60     		str	r2, [r3]
 257:.\Generated_Source\PSoC4/Timer.c **** 
 258:.\Generated_Source\PSoC4/Timer.c ****     CyExitCriticalSection(enableInterrupts);
  77              		.loc 1 258 0
  78 0010 FFF7FEFF 		bl	CyExitCriticalSection
  79              	.LVL3:
 259:.\Generated_Source\PSoC4/Timer.c **** }
  80              		.loc 1 259 0
  81              		@ sp needed
  82 0014 08BD     		pop	{r3, pc}
  83              	.L6:
ARM GAS  C:\Users\Luci\AppData\Local\Temp\ccUHbIZG.s 			page 7


  84 0016 C046     		.align	2
  85              	.L5:
  86 0018 00002040 		.word	1075838976
  87              		.cfi_endproc
  88              	.LFE5:
  89              		.size	Timer_Stop, .-Timer_Stop
  90              		.section	.text.Timer_SetMode,"ax",%progbits
  91              		.align	2
  92              		.global	Timer_SetMode
  93              		.code	16
  94              		.thumb_func
  95              		.type	Timer_SetMode, %function
  96              	Timer_SetMode:
  97              	.LFB6:
 260:.\Generated_Source\PSoC4/Timer.c **** 
 261:.\Generated_Source\PSoC4/Timer.c **** 
 262:.\Generated_Source\PSoC4/Timer.c **** /*******************************************************************************
 263:.\Generated_Source\PSoC4/Timer.c **** * Function Name: Timer_SetMode
 264:.\Generated_Source\PSoC4/Timer.c **** ********************************************************************************
 265:.\Generated_Source\PSoC4/Timer.c **** *
 266:.\Generated_Source\PSoC4/Timer.c **** * Summary:
 267:.\Generated_Source\PSoC4/Timer.c **** *  Sets the operation mode of the Timer. This function is used when
 268:.\Generated_Source\PSoC4/Timer.c **** *  configured as a generic Timer and the actual mode of operation is
 269:.\Generated_Source\PSoC4/Timer.c **** *  set at runtime. The mode must be set while the component is disabled.
 270:.\Generated_Source\PSoC4/Timer.c **** *
 271:.\Generated_Source\PSoC4/Timer.c **** * Parameters:
 272:.\Generated_Source\PSoC4/Timer.c **** *  mode: Mode for the Timer to operate in
 273:.\Generated_Source\PSoC4/Timer.c **** *   Values:
 274:.\Generated_Source\PSoC4/Timer.c **** *   - Timer_MODE_TIMER_COMPARE - Timer / Counter with
 275:.\Generated_Source\PSoC4/Timer.c **** *                                                 compare capability
 276:.\Generated_Source\PSoC4/Timer.c **** *         - Timer_MODE_TIMER_CAPTURE - Timer / Counter with
 277:.\Generated_Source\PSoC4/Timer.c **** *                                                 capture capability
 278:.\Generated_Source\PSoC4/Timer.c **** *         - Timer_MODE_QUAD - Quadrature decoder
 279:.\Generated_Source\PSoC4/Timer.c **** *         - Timer_MODE_PWM - PWM
 280:.\Generated_Source\PSoC4/Timer.c **** *         - Timer_MODE_PWM_DT - PWM with dead time
 281:.\Generated_Source\PSoC4/Timer.c **** *         - Timer_MODE_PWM_PR - PWM with pseudo random capability
 282:.\Generated_Source\PSoC4/Timer.c **** *
 283:.\Generated_Source\PSoC4/Timer.c **** * Return:
 284:.\Generated_Source\PSoC4/Timer.c **** *  None
 285:.\Generated_Source\PSoC4/Timer.c **** *
 286:.\Generated_Source\PSoC4/Timer.c **** *******************************************************************************/
 287:.\Generated_Source\PSoC4/Timer.c **** void Timer_SetMode(uint32 mode)
 288:.\Generated_Source\PSoC4/Timer.c **** {
  98              		.loc 1 288 0
  99              		.cfi_startproc
 100              	.LVL4:
 101 0000 10B5     		push	{r4, lr}
 102              		.cfi_def_cfa_offset 8
 103              		.cfi_offset 4, -8
 104              		.cfi_offset 14, -4
 105 0002 041C     		mov	r4, r0
 289:.\Generated_Source\PSoC4/Timer.c ****     uint8 enableInterrupts;
 290:.\Generated_Source\PSoC4/Timer.c **** 
 291:.\Generated_Source\PSoC4/Timer.c ****     enableInterrupts = CyEnterCriticalSection();
 106              		.loc 1 291 0
 107 0004 FFF7FEFF 		bl	CyEnterCriticalSection
 108              	.LVL5:
ARM GAS  C:\Users\Luci\AppData\Local\Temp\ccUHbIZG.s 			page 8


 292:.\Generated_Source\PSoC4/Timer.c **** 
 293:.\Generated_Source\PSoC4/Timer.c ****     Timer_CONTROL_REG &= (uint32)~Timer_MODE_MASK;
 109              		.loc 1 293 0
 110 0008 054B     		ldr	r3, .L8
 111 000a 1968     		ldr	r1, [r3]
 112 000c 054A     		ldr	r2, .L8+4
 113 000e 0A40     		and	r2, r1
 114 0010 1A60     		str	r2, [r3]
 294:.\Generated_Source\PSoC4/Timer.c ****     Timer_CONTROL_REG |= mode;
 115              		.loc 1 294 0
 116 0012 1A68     		ldr	r2, [r3]
 117 0014 1443     		orr	r4, r2
 118              	.LVL6:
 119 0016 1C60     		str	r4, [r3]
 295:.\Generated_Source\PSoC4/Timer.c **** 
 296:.\Generated_Source\PSoC4/Timer.c ****     CyExitCriticalSection(enableInterrupts);
 120              		.loc 1 296 0
 121 0018 FFF7FEFF 		bl	CyExitCriticalSection
 122              	.LVL7:
 297:.\Generated_Source\PSoC4/Timer.c **** }
 123              		.loc 1 297 0
 124              		@ sp needed
 125 001c 10BD     		pop	{r4, pc}
 126              	.L9:
 127 001e C046     		.align	2
 128              	.L8:
 129 0020 00012040 		.word	1075839232
 130 0024 FFFFFFF8 		.word	-117440513
 131              		.cfi_endproc
 132              	.LFE6:
 133              		.size	Timer_SetMode, .-Timer_SetMode
 134              		.section	.text.Timer_SetQDMode,"ax",%progbits
 135              		.align	2
 136              		.global	Timer_SetQDMode
 137              		.code	16
 138              		.thumb_func
 139              		.type	Timer_SetQDMode, %function
 140              	Timer_SetQDMode:
 141              	.LFB7:
 298:.\Generated_Source\PSoC4/Timer.c **** 
 299:.\Generated_Source\PSoC4/Timer.c **** 
 300:.\Generated_Source\PSoC4/Timer.c **** /*******************************************************************************
 301:.\Generated_Source\PSoC4/Timer.c **** * Function Name: Timer_SetQDMode
 302:.\Generated_Source\PSoC4/Timer.c **** ********************************************************************************
 303:.\Generated_Source\PSoC4/Timer.c **** *
 304:.\Generated_Source\PSoC4/Timer.c **** * Summary:
 305:.\Generated_Source\PSoC4/Timer.c **** *  Sets the the Quadrature Decoder to one of the 3 supported modes.
 306:.\Generated_Source\PSoC4/Timer.c **** *  Its functionality is only applicable to Quadrature Decoder operation.
 307:.\Generated_Source\PSoC4/Timer.c **** *
 308:.\Generated_Source\PSoC4/Timer.c **** * Parameters:
 309:.\Generated_Source\PSoC4/Timer.c **** *  qdMode: Quadrature Decoder mode
 310:.\Generated_Source\PSoC4/Timer.c **** *   Values:
 311:.\Generated_Source\PSoC4/Timer.c **** *         - Timer_MODE_X1 - Counts on phi 1 rising
 312:.\Generated_Source\PSoC4/Timer.c **** *         - Timer_MODE_X2 - Counts on both edges of phi1 (2x faster)
 313:.\Generated_Source\PSoC4/Timer.c **** *         - Timer_MODE_X4 - Counts on both edges of phi1 and phi2
 314:.\Generated_Source\PSoC4/Timer.c **** *                                        (4x faster)
 315:.\Generated_Source\PSoC4/Timer.c **** *
ARM GAS  C:\Users\Luci\AppData\Local\Temp\ccUHbIZG.s 			page 9


 316:.\Generated_Source\PSoC4/Timer.c **** * Return:
 317:.\Generated_Source\PSoC4/Timer.c **** *  None
 318:.\Generated_Source\PSoC4/Timer.c **** *
 319:.\Generated_Source\PSoC4/Timer.c **** *******************************************************************************/
 320:.\Generated_Source\PSoC4/Timer.c **** void Timer_SetQDMode(uint32 qdMode)
 321:.\Generated_Source\PSoC4/Timer.c **** {
 142              		.loc 1 321 0
 143              		.cfi_startproc
 144              	.LVL8:
 145 0000 10B5     		push	{r4, lr}
 146              		.cfi_def_cfa_offset 8
 147              		.cfi_offset 4, -8
 148              		.cfi_offset 14, -4
 149 0002 041C     		mov	r4, r0
 322:.\Generated_Source\PSoC4/Timer.c ****     uint8 enableInterrupts;
 323:.\Generated_Source\PSoC4/Timer.c **** 
 324:.\Generated_Source\PSoC4/Timer.c ****     enableInterrupts = CyEnterCriticalSection();
 150              		.loc 1 324 0
 151 0004 FFF7FEFF 		bl	CyEnterCriticalSection
 152              	.LVL9:
 325:.\Generated_Source\PSoC4/Timer.c **** 
 326:.\Generated_Source\PSoC4/Timer.c ****     Timer_CONTROL_REG &= (uint32)~Timer_QUAD_MODE_MASK;
 153              		.loc 1 326 0
 154 0008 054B     		ldr	r3, .L11
 155 000a 1968     		ldr	r1, [r3]
 156 000c 054A     		ldr	r2, .L11+4
 157 000e 0A40     		and	r2, r1
 158 0010 1A60     		str	r2, [r3]
 327:.\Generated_Source\PSoC4/Timer.c ****     Timer_CONTROL_REG |= qdMode;
 159              		.loc 1 327 0
 160 0012 1A68     		ldr	r2, [r3]
 161 0014 1443     		orr	r4, r2
 162              	.LVL10:
 163 0016 1C60     		str	r4, [r3]
 328:.\Generated_Source\PSoC4/Timer.c **** 
 329:.\Generated_Source\PSoC4/Timer.c ****     CyExitCriticalSection(enableInterrupts);
 164              		.loc 1 329 0
 165 0018 FFF7FEFF 		bl	CyExitCriticalSection
 166              	.LVL11:
 330:.\Generated_Source\PSoC4/Timer.c **** }
 167              		.loc 1 330 0
 168              		@ sp needed
 169 001c 10BD     		pop	{r4, pc}
 170              	.L12:
 171 001e C046     		.align	2
 172              	.L11:
 173 0020 00012040 		.word	1075839232
 174 0024 FFFF8FFF 		.word	-7340033
 175              		.cfi_endproc
 176              	.LFE7:
 177              		.size	Timer_SetQDMode, .-Timer_SetQDMode
 178              		.section	.text.Timer_SetPrescaler,"ax",%progbits
 179              		.align	2
 180              		.global	Timer_SetPrescaler
 181              		.code	16
 182              		.thumb_func
 183              		.type	Timer_SetPrescaler, %function
ARM GAS  C:\Users\Luci\AppData\Local\Temp\ccUHbIZG.s 			page 10


 184              	Timer_SetPrescaler:
 185              	.LFB8:
 331:.\Generated_Source\PSoC4/Timer.c **** 
 332:.\Generated_Source\PSoC4/Timer.c **** 
 333:.\Generated_Source\PSoC4/Timer.c **** /*******************************************************************************
 334:.\Generated_Source\PSoC4/Timer.c **** * Function Name: Timer_SetPrescaler
 335:.\Generated_Source\PSoC4/Timer.c **** ********************************************************************************
 336:.\Generated_Source\PSoC4/Timer.c **** *
 337:.\Generated_Source\PSoC4/Timer.c **** * Summary:
 338:.\Generated_Source\PSoC4/Timer.c **** *  Sets the prescaler value that is applied to the clock input.  Not applicable
 339:.\Generated_Source\PSoC4/Timer.c **** *  to a PWM with the dead time mode or Quadrature Decoder mode.
 340:.\Generated_Source\PSoC4/Timer.c **** *
 341:.\Generated_Source\PSoC4/Timer.c **** * Parameters:
 342:.\Generated_Source\PSoC4/Timer.c **** *  prescaler: Prescaler divider value
 343:.\Generated_Source\PSoC4/Timer.c **** *   Values:
 344:.\Generated_Source\PSoC4/Timer.c **** *         - Timer_PRESCALE_DIVBY1    - Divide by 1 (no prescaling)
 345:.\Generated_Source\PSoC4/Timer.c **** *         - Timer_PRESCALE_DIVBY2    - Divide by 2
 346:.\Generated_Source\PSoC4/Timer.c **** *         - Timer_PRESCALE_DIVBY4    - Divide by 4
 347:.\Generated_Source\PSoC4/Timer.c **** *         - Timer_PRESCALE_DIVBY8    - Divide by 8
 348:.\Generated_Source\PSoC4/Timer.c **** *         - Timer_PRESCALE_DIVBY16   - Divide by 16
 349:.\Generated_Source\PSoC4/Timer.c **** *         - Timer_PRESCALE_DIVBY32   - Divide by 32
 350:.\Generated_Source\PSoC4/Timer.c **** *         - Timer_PRESCALE_DIVBY64   - Divide by 64
 351:.\Generated_Source\PSoC4/Timer.c **** *         - Timer_PRESCALE_DIVBY128  - Divide by 128
 352:.\Generated_Source\PSoC4/Timer.c **** *
 353:.\Generated_Source\PSoC4/Timer.c **** * Return:
 354:.\Generated_Source\PSoC4/Timer.c **** *  None
 355:.\Generated_Source\PSoC4/Timer.c **** *
 356:.\Generated_Source\PSoC4/Timer.c **** *******************************************************************************/
 357:.\Generated_Source\PSoC4/Timer.c **** void Timer_SetPrescaler(uint32 prescaler)
 358:.\Generated_Source\PSoC4/Timer.c **** {
 186              		.loc 1 358 0
 187              		.cfi_startproc
 188              	.LVL12:
 189 0000 10B5     		push	{r4, lr}
 190              		.cfi_def_cfa_offset 8
 191              		.cfi_offset 4, -8
 192              		.cfi_offset 14, -4
 193 0002 041C     		mov	r4, r0
 359:.\Generated_Source\PSoC4/Timer.c ****     uint8 enableInterrupts;
 360:.\Generated_Source\PSoC4/Timer.c **** 
 361:.\Generated_Source\PSoC4/Timer.c ****     enableInterrupts = CyEnterCriticalSection();
 194              		.loc 1 361 0
 195 0004 FFF7FEFF 		bl	CyEnterCriticalSection
 196              	.LVL13:
 362:.\Generated_Source\PSoC4/Timer.c **** 
 363:.\Generated_Source\PSoC4/Timer.c ****     Timer_CONTROL_REG &= (uint32)~Timer_PRESCALER_MASK;
 197              		.loc 1 363 0
 198 0008 054B     		ldr	r3, .L14
 199 000a 1968     		ldr	r1, [r3]
 200 000c 054A     		ldr	r2, .L14+4
 201 000e 0A40     		and	r2, r1
 202 0010 1A60     		str	r2, [r3]
 364:.\Generated_Source\PSoC4/Timer.c ****     Timer_CONTROL_REG |= prescaler;
 203              		.loc 1 364 0
 204 0012 1A68     		ldr	r2, [r3]
 205 0014 1443     		orr	r4, r2
 206              	.LVL14:
ARM GAS  C:\Users\Luci\AppData\Local\Temp\ccUHbIZG.s 			page 11


 207 0016 1C60     		str	r4, [r3]
 365:.\Generated_Source\PSoC4/Timer.c **** 
 366:.\Generated_Source\PSoC4/Timer.c ****     CyExitCriticalSection(enableInterrupts);
 208              		.loc 1 366 0
 209 0018 FFF7FEFF 		bl	CyExitCriticalSection
 210              	.LVL15:
 367:.\Generated_Source\PSoC4/Timer.c **** }
 211              		.loc 1 367 0
 212              		@ sp needed
 213 001c 10BD     		pop	{r4, pc}
 214              	.L15:
 215 001e C046     		.align	2
 216              	.L14:
 217 0020 00012040 		.word	1075839232
 218 0024 FF00FFFF 		.word	-65281
 219              		.cfi_endproc
 220              	.LFE8:
 221              		.size	Timer_SetPrescaler, .-Timer_SetPrescaler
 222              		.section	.text.Timer_SetOneShot,"ax",%progbits
 223              		.align	2
 224              		.global	Timer_SetOneShot
 225              		.code	16
 226              		.thumb_func
 227              		.type	Timer_SetOneShot, %function
 228              	Timer_SetOneShot:
 229              	.LFB9:
 368:.\Generated_Source\PSoC4/Timer.c **** 
 369:.\Generated_Source\PSoC4/Timer.c **** 
 370:.\Generated_Source\PSoC4/Timer.c **** /*******************************************************************************
 371:.\Generated_Source\PSoC4/Timer.c **** * Function Name: Timer_SetOneShot
 372:.\Generated_Source\PSoC4/Timer.c **** ********************************************************************************
 373:.\Generated_Source\PSoC4/Timer.c **** *
 374:.\Generated_Source\PSoC4/Timer.c **** * Summary:
 375:.\Generated_Source\PSoC4/Timer.c **** *  Writes the register that controls whether the Timer runs
 376:.\Generated_Source\PSoC4/Timer.c **** *  continuously or stops when terminal count is reached.  By default the
 377:.\Generated_Source\PSoC4/Timer.c **** *  Timer operates in the continuous mode.
 378:.\Generated_Source\PSoC4/Timer.c **** *
 379:.\Generated_Source\PSoC4/Timer.c **** * Parameters:
 380:.\Generated_Source\PSoC4/Timer.c **** *  oneShotEnable
 381:.\Generated_Source\PSoC4/Timer.c **** *   Values:
 382:.\Generated_Source\PSoC4/Timer.c **** *     - 0 - Continuous
 383:.\Generated_Source\PSoC4/Timer.c **** *     - 1 - Enable One Shot
 384:.\Generated_Source\PSoC4/Timer.c **** *
 385:.\Generated_Source\PSoC4/Timer.c **** * Return:
 386:.\Generated_Source\PSoC4/Timer.c **** *  None
 387:.\Generated_Source\PSoC4/Timer.c **** *
 388:.\Generated_Source\PSoC4/Timer.c **** *******************************************************************************/
 389:.\Generated_Source\PSoC4/Timer.c **** void Timer_SetOneShot(uint32 oneShotEnable)
 390:.\Generated_Source\PSoC4/Timer.c **** {
 230              		.loc 1 390 0
 231              		.cfi_startproc
 232              	.LVL16:
 233 0000 10B5     		push	{r4, lr}
 234              		.cfi_def_cfa_offset 8
 235              		.cfi_offset 4, -8
 236              		.cfi_offset 14, -4
 237 0002 041C     		mov	r4, r0
ARM GAS  C:\Users\Luci\AppData\Local\Temp\ccUHbIZG.s 			page 12


 391:.\Generated_Source\PSoC4/Timer.c ****     uint8 enableInterrupts;
 392:.\Generated_Source\PSoC4/Timer.c **** 
 393:.\Generated_Source\PSoC4/Timer.c ****     enableInterrupts = CyEnterCriticalSection();
 238              		.loc 1 393 0
 239 0004 FFF7FEFF 		bl	CyEnterCriticalSection
 240              	.LVL17:
 394:.\Generated_Source\PSoC4/Timer.c **** 
 395:.\Generated_Source\PSoC4/Timer.c ****     Timer_CONTROL_REG &= (uint32)~Timer_ONESHOT_MASK;
 241              		.loc 1 395 0
 242 0008 064B     		ldr	r3, .L17
 243 000a 1968     		ldr	r1, [r3]
 244 000c 064A     		ldr	r2, .L17+4
 245 000e 0A40     		and	r2, r1
 246 0010 1A60     		str	r2, [r3]
 396:.\Generated_Source\PSoC4/Timer.c ****     Timer_CONTROL_REG |= ((uint32)((oneShotEnable & Timer_1BIT_MASK) <<
 247              		.loc 1 396 0
 248 0012 1A68     		ldr	r2, [r3]
 249 0014 0121     		mov	r1, #1
 250 0016 0C40     		and	r4, r1
 251              	.LVL18:
 252 0018 A404     		lsl	r4, r4, #18
 253 001a 1443     		orr	r4, r2
 254 001c 1C60     		str	r4, [r3]
 397:.\Generated_Source\PSoC4/Timer.c ****                                                                Timer_ONESHOT_SHIFT));
 398:.\Generated_Source\PSoC4/Timer.c **** 
 399:.\Generated_Source\PSoC4/Timer.c ****     CyExitCriticalSection(enableInterrupts);
 255              		.loc 1 399 0
 256 001e FFF7FEFF 		bl	CyExitCriticalSection
 257              	.LVL19:
 400:.\Generated_Source\PSoC4/Timer.c **** }
 258              		.loc 1 400 0
 259              		@ sp needed
 260 0022 10BD     		pop	{r4, pc}
 261              	.L18:
 262              		.align	2
 263              	.L17:
 264 0024 00012040 		.word	1075839232
 265 0028 FFFFFBFF 		.word	-262145
 266              		.cfi_endproc
 267              	.LFE9:
 268              		.size	Timer_SetOneShot, .-Timer_SetOneShot
 269              		.section	.text.Timer_SetPWMMode,"ax",%progbits
 270              		.align	2
 271              		.global	Timer_SetPWMMode
 272              		.code	16
 273              		.thumb_func
 274              		.type	Timer_SetPWMMode, %function
 275              	Timer_SetPWMMode:
 276              	.LFB10:
 401:.\Generated_Source\PSoC4/Timer.c **** 
 402:.\Generated_Source\PSoC4/Timer.c **** 
 403:.\Generated_Source\PSoC4/Timer.c **** /*******************************************************************************
 404:.\Generated_Source\PSoC4/Timer.c **** * Function Name: Timer_SetPWMMode
 405:.\Generated_Source\PSoC4/Timer.c **** ********************************************************************************
 406:.\Generated_Source\PSoC4/Timer.c **** *
 407:.\Generated_Source\PSoC4/Timer.c **** * Summary:
 408:.\Generated_Source\PSoC4/Timer.c **** *  Writes the control register that determines what mode of operation the PWM
ARM GAS  C:\Users\Luci\AppData\Local\Temp\ccUHbIZG.s 			page 13


 409:.\Generated_Source\PSoC4/Timer.c **** *  output lines are driven in.  There is a setting for what to do on a
 410:.\Generated_Source\PSoC4/Timer.c **** *  comparison match (CC_MATCH), on an overflow (OVERFLOW) and on an underflow
 411:.\Generated_Source\PSoC4/Timer.c **** *  (UNDERFLOW).  The value for each of the three must be ORed together to form
 412:.\Generated_Source\PSoC4/Timer.c **** *  the mode.
 413:.\Generated_Source\PSoC4/Timer.c **** *
 414:.\Generated_Source\PSoC4/Timer.c **** * Parameters:
 415:.\Generated_Source\PSoC4/Timer.c **** *  modeMask: A combination of three mode settings.  Mask must include a value
 416:.\Generated_Source\PSoC4/Timer.c **** *  for each of the three or use one of the preconfigured PWM settings.
 417:.\Generated_Source\PSoC4/Timer.c **** *   Values:
 418:.\Generated_Source\PSoC4/Timer.c **** *     - CC_MATCH_SET        - Set on comparison match
 419:.\Generated_Source\PSoC4/Timer.c **** *     - CC_MATCH_CLEAR      - Clear on comparison match
 420:.\Generated_Source\PSoC4/Timer.c **** *     - CC_MATCH_INVERT     - Invert on comparison match
 421:.\Generated_Source\PSoC4/Timer.c **** *     - CC_MATCH_NO_CHANGE  - No change on comparison match
 422:.\Generated_Source\PSoC4/Timer.c **** *     - OVERLOW_SET         - Set on overflow
 423:.\Generated_Source\PSoC4/Timer.c **** *     - OVERLOW_CLEAR       - Clear on  overflow
 424:.\Generated_Source\PSoC4/Timer.c **** *     - OVERLOW_INVERT      - Invert on overflow
 425:.\Generated_Source\PSoC4/Timer.c **** *     - OVERLOW_NO_CHANGE   - No change on overflow
 426:.\Generated_Source\PSoC4/Timer.c **** *     - UNDERFLOW_SET       - Set on underflow
 427:.\Generated_Source\PSoC4/Timer.c **** *     - UNDERFLOW_CLEAR     - Clear on underflow
 428:.\Generated_Source\PSoC4/Timer.c **** *     - UNDERFLOW_INVERT    - Invert on underflow
 429:.\Generated_Source\PSoC4/Timer.c **** *     - UNDERFLOW_NO_CHANGE - No change on underflow
 430:.\Generated_Source\PSoC4/Timer.c **** *     - PWM_MODE_LEFT       - Setting for left aligned PWM.  Should be combined
 431:.\Generated_Source\PSoC4/Timer.c **** *                             with up counting mode
 432:.\Generated_Source\PSoC4/Timer.c **** *     - PWM_MODE_RIGHT      - Setting for right aligned PWM.  Should be combined
 433:.\Generated_Source\PSoC4/Timer.c **** *                             with down counting mode
 434:.\Generated_Source\PSoC4/Timer.c **** *     - PWM_MODE_CENTER     - Setting for center aligned PWM.  Should be
 435:.\Generated_Source\PSoC4/Timer.c **** *                             combined with up/down 0 mode
 436:.\Generated_Source\PSoC4/Timer.c **** *     - PWM_MODE_ASYM       - Setting for asymmetric PWM.  Should be combined
 437:.\Generated_Source\PSoC4/Timer.c **** *                             with up/down 1 mode
 438:.\Generated_Source\PSoC4/Timer.c **** *
 439:.\Generated_Source\PSoC4/Timer.c **** * Return:
 440:.\Generated_Source\PSoC4/Timer.c **** *  None
 441:.\Generated_Source\PSoC4/Timer.c **** *
 442:.\Generated_Source\PSoC4/Timer.c **** *******************************************************************************/
 443:.\Generated_Source\PSoC4/Timer.c **** void Timer_SetPWMMode(uint32 modeMask)
 444:.\Generated_Source\PSoC4/Timer.c **** {
 277              		.loc 1 444 0
 278              		.cfi_startproc
 279              	.LVL20:
 445:.\Generated_Source\PSoC4/Timer.c ****     Timer_TRIG_CONTROL2_REG = (modeMask & Timer_6BIT_MASK);
 280              		.loc 1 445 0
 281 0000 3F23     		mov	r3, #63
 282 0002 1840     		and	r0, r3
 283              	.LVL21:
 284 0004 014B     		ldr	r3, .L20
 285 0006 1860     		str	r0, [r3]
 446:.\Generated_Source\PSoC4/Timer.c **** }
 286              		.loc 1 446 0
 287              		@ sp needed
 288 0008 7047     		bx	lr
 289              	.L21:
 290 000a C046     		.align	2
 291              	.L20:
 292 000c 28012040 		.word	1075839272
 293              		.cfi_endproc
 294              	.LFE10:
 295              		.size	Timer_SetPWMMode, .-Timer_SetPWMMode
ARM GAS  C:\Users\Luci\AppData\Local\Temp\ccUHbIZG.s 			page 14


 296              		.section	.text.Timer_SetPWMSyncKill,"ax",%progbits
 297              		.align	2
 298              		.global	Timer_SetPWMSyncKill
 299              		.code	16
 300              		.thumb_func
 301              		.type	Timer_SetPWMSyncKill, %function
 302              	Timer_SetPWMSyncKill:
 303              	.LFB11:
 447:.\Generated_Source\PSoC4/Timer.c **** 
 448:.\Generated_Source\PSoC4/Timer.c **** 
 449:.\Generated_Source\PSoC4/Timer.c **** 
 450:.\Generated_Source\PSoC4/Timer.c **** /*******************************************************************************
 451:.\Generated_Source\PSoC4/Timer.c **** * Function Name: Timer_SetPWMSyncKill
 452:.\Generated_Source\PSoC4/Timer.c **** ********************************************************************************
 453:.\Generated_Source\PSoC4/Timer.c **** *
 454:.\Generated_Source\PSoC4/Timer.c **** * Summary:
 455:.\Generated_Source\PSoC4/Timer.c **** *  Writes the register that controls whether the PWM kill signal (stop input)
 456:.\Generated_Source\PSoC4/Timer.c **** *  causes asynchronous or synchronous kill operation.  By default the kill
 457:.\Generated_Source\PSoC4/Timer.c **** *  operation is asynchronous.  This functionality is only applicable to the PWM
 458:.\Generated_Source\PSoC4/Timer.c **** *  and PWM with dead time modes.
 459:.\Generated_Source\PSoC4/Timer.c **** *
 460:.\Generated_Source\PSoC4/Timer.c **** *  For Synchronous mode the kill signal disables both the line and line_n
 461:.\Generated_Source\PSoC4/Timer.c **** *  signals until the next terminal count.
 462:.\Generated_Source\PSoC4/Timer.c **** *
 463:.\Generated_Source\PSoC4/Timer.c **** *  For Asynchronous mode the kill signal disables both the line and line_n
 464:.\Generated_Source\PSoC4/Timer.c **** *  signals when the kill signal is present.  This mode should only be used
 465:.\Generated_Source\PSoC4/Timer.c **** *  when the kill signal (stop input) is configured in the pass through mode
 466:.\Generated_Source\PSoC4/Timer.c **** *  (Level sensitive signal).
 467:.\Generated_Source\PSoC4/Timer.c **** 
 468:.\Generated_Source\PSoC4/Timer.c **** *
 469:.\Generated_Source\PSoC4/Timer.c **** * Parameters:
 470:.\Generated_Source\PSoC4/Timer.c **** *  syncKillEnable
 471:.\Generated_Source\PSoC4/Timer.c **** *   Values:
 472:.\Generated_Source\PSoC4/Timer.c **** *     - 0 - Asynchronous
 473:.\Generated_Source\PSoC4/Timer.c **** *     - 1 - Synchronous
 474:.\Generated_Source\PSoC4/Timer.c **** *
 475:.\Generated_Source\PSoC4/Timer.c **** * Return:
 476:.\Generated_Source\PSoC4/Timer.c **** *  None
 477:.\Generated_Source\PSoC4/Timer.c **** *
 478:.\Generated_Source\PSoC4/Timer.c **** *******************************************************************************/
 479:.\Generated_Source\PSoC4/Timer.c **** void Timer_SetPWMSyncKill(uint32 syncKillEnable)
 480:.\Generated_Source\PSoC4/Timer.c **** {
 304              		.loc 1 480 0
 305              		.cfi_startproc
 306              	.LVL22:
 307 0000 10B5     		push	{r4, lr}
 308              		.cfi_def_cfa_offset 8
 309              		.cfi_offset 4, -8
 310              		.cfi_offset 14, -4
 311 0002 041C     		mov	r4, r0
 481:.\Generated_Source\PSoC4/Timer.c ****     uint8 enableInterrupts;
 482:.\Generated_Source\PSoC4/Timer.c **** 
 483:.\Generated_Source\PSoC4/Timer.c ****     enableInterrupts = CyEnterCriticalSection();
 312              		.loc 1 483 0
 313 0004 FFF7FEFF 		bl	CyEnterCriticalSection
 314              	.LVL23:
 484:.\Generated_Source\PSoC4/Timer.c **** 
ARM GAS  C:\Users\Luci\AppData\Local\Temp\ccUHbIZG.s 			page 15


 485:.\Generated_Source\PSoC4/Timer.c ****     Timer_CONTROL_REG &= (uint32)~Timer_PWM_SYNC_KILL_MASK;
 315              		.loc 1 485 0
 316 0008 064B     		ldr	r3, .L23
 317 000a 1A68     		ldr	r2, [r3]
 318 000c 0421     		mov	r1, #4
 319 000e 8A43     		bic	r2, r1
 320 0010 1A60     		str	r2, [r3]
 486:.\Generated_Source\PSoC4/Timer.c ****     Timer_CONTROL_REG |= ((uint32)((syncKillEnable & Timer_1BIT_MASK)  <<
 321              		.loc 1 486 0
 322 0012 1A68     		ldr	r2, [r3]
 323 0014 0121     		mov	r1, #1
 324 0016 0C40     		and	r4, r1
 325              	.LVL24:
 326 0018 A400     		lsl	r4, r4, #2
 327 001a 1443     		orr	r4, r2
 328 001c 1C60     		str	r4, [r3]
 487:.\Generated_Source\PSoC4/Timer.c ****                                                Timer_PWM_SYNC_KILL_SHIFT));
 488:.\Generated_Source\PSoC4/Timer.c **** 
 489:.\Generated_Source\PSoC4/Timer.c ****     CyExitCriticalSection(enableInterrupts);
 329              		.loc 1 489 0
 330 001e FFF7FEFF 		bl	CyExitCriticalSection
 331              	.LVL25:
 490:.\Generated_Source\PSoC4/Timer.c **** }
 332              		.loc 1 490 0
 333              		@ sp needed
 334 0022 10BD     		pop	{r4, pc}
 335              	.L24:
 336              		.align	2
 337              	.L23:
 338 0024 00012040 		.word	1075839232
 339              		.cfi_endproc
 340              	.LFE11:
 341              		.size	Timer_SetPWMSyncKill, .-Timer_SetPWMSyncKill
 342              		.section	.text.Timer_SetPWMStopOnKill,"ax",%progbits
 343              		.align	2
 344              		.global	Timer_SetPWMStopOnKill
 345              		.code	16
 346              		.thumb_func
 347              		.type	Timer_SetPWMStopOnKill, %function
 348              	Timer_SetPWMStopOnKill:
 349              	.LFB12:
 491:.\Generated_Source\PSoC4/Timer.c **** 
 492:.\Generated_Source\PSoC4/Timer.c **** 
 493:.\Generated_Source\PSoC4/Timer.c **** /*******************************************************************************
 494:.\Generated_Source\PSoC4/Timer.c **** * Function Name: Timer_SetPWMStopOnKill
 495:.\Generated_Source\PSoC4/Timer.c **** ********************************************************************************
 496:.\Generated_Source\PSoC4/Timer.c **** *
 497:.\Generated_Source\PSoC4/Timer.c **** * Summary:
 498:.\Generated_Source\PSoC4/Timer.c **** *  Writes the register that controls whether the PWM kill signal (stop input)
 499:.\Generated_Source\PSoC4/Timer.c **** *  causes the PWM counter to stop.  By default the kill operation does not stop
 500:.\Generated_Source\PSoC4/Timer.c **** *  the counter.  This functionality is only applicable to the three PWM modes.
 501:.\Generated_Source\PSoC4/Timer.c **** *
 502:.\Generated_Source\PSoC4/Timer.c **** *
 503:.\Generated_Source\PSoC4/Timer.c **** * Parameters:
 504:.\Generated_Source\PSoC4/Timer.c **** *  stopOnKillEnable
 505:.\Generated_Source\PSoC4/Timer.c **** *   Values:
 506:.\Generated_Source\PSoC4/Timer.c **** *     - 0 - Don't stop
ARM GAS  C:\Users\Luci\AppData\Local\Temp\ccUHbIZG.s 			page 16


 507:.\Generated_Source\PSoC4/Timer.c **** *     - 1 - Stop
 508:.\Generated_Source\PSoC4/Timer.c **** *
 509:.\Generated_Source\PSoC4/Timer.c **** * Return:
 510:.\Generated_Source\PSoC4/Timer.c **** *  None
 511:.\Generated_Source\PSoC4/Timer.c **** *
 512:.\Generated_Source\PSoC4/Timer.c **** *******************************************************************************/
 513:.\Generated_Source\PSoC4/Timer.c **** void Timer_SetPWMStopOnKill(uint32 stopOnKillEnable)
 514:.\Generated_Source\PSoC4/Timer.c **** {
 350              		.loc 1 514 0
 351              		.cfi_startproc
 352              	.LVL26:
 353 0000 10B5     		push	{r4, lr}
 354              		.cfi_def_cfa_offset 8
 355              		.cfi_offset 4, -8
 356              		.cfi_offset 14, -4
 357 0002 041C     		mov	r4, r0
 515:.\Generated_Source\PSoC4/Timer.c ****     uint8 enableInterrupts;
 516:.\Generated_Source\PSoC4/Timer.c **** 
 517:.\Generated_Source\PSoC4/Timer.c ****     enableInterrupts = CyEnterCriticalSection();
 358              		.loc 1 517 0
 359 0004 FFF7FEFF 		bl	CyEnterCriticalSection
 360              	.LVL27:
 518:.\Generated_Source\PSoC4/Timer.c **** 
 519:.\Generated_Source\PSoC4/Timer.c ****     Timer_CONTROL_REG &= (uint32)~Timer_PWM_STOP_KILL_MASK;
 361              		.loc 1 519 0
 362 0008 064B     		ldr	r3, .L26
 363 000a 1A68     		ldr	r2, [r3]
 364 000c 0821     		mov	r1, #8
 365 000e 8A43     		bic	r2, r1
 366 0010 1A60     		str	r2, [r3]
 520:.\Generated_Source\PSoC4/Timer.c ****     Timer_CONTROL_REG |= ((uint32)((stopOnKillEnable & Timer_1BIT_MASK)  <<
 367              		.loc 1 520 0
 368 0012 1A68     		ldr	r2, [r3]
 369 0014 0121     		mov	r1, #1
 370 0016 0C40     		and	r4, r1
 371              	.LVL28:
 372 0018 E400     		lsl	r4, r4, #3
 373 001a 1443     		orr	r4, r2
 374 001c 1C60     		str	r4, [r3]
 521:.\Generated_Source\PSoC4/Timer.c ****                                                          Timer_PWM_STOP_KILL_SHIFT));
 522:.\Generated_Source\PSoC4/Timer.c **** 
 523:.\Generated_Source\PSoC4/Timer.c ****     CyExitCriticalSection(enableInterrupts);
 375              		.loc 1 523 0
 376 001e FFF7FEFF 		bl	CyExitCriticalSection
 377              	.LVL29:
 524:.\Generated_Source\PSoC4/Timer.c **** }
 378              		.loc 1 524 0
 379              		@ sp needed
 380 0022 10BD     		pop	{r4, pc}
 381              	.L27:
 382              		.align	2
 383              	.L26:
 384 0024 00012040 		.word	1075839232
 385              		.cfi_endproc
 386              	.LFE12:
 387              		.size	Timer_SetPWMStopOnKill, .-Timer_SetPWMStopOnKill
 388              		.section	.text.Timer_SetPWMDeadTime,"ax",%progbits
ARM GAS  C:\Users\Luci\AppData\Local\Temp\ccUHbIZG.s 			page 17


 389              		.align	2
 390              		.global	Timer_SetPWMDeadTime
 391              		.code	16
 392              		.thumb_func
 393              		.type	Timer_SetPWMDeadTime, %function
 394              	Timer_SetPWMDeadTime:
 395              	.LFB13:
 525:.\Generated_Source\PSoC4/Timer.c **** 
 526:.\Generated_Source\PSoC4/Timer.c **** 
 527:.\Generated_Source\PSoC4/Timer.c **** /*******************************************************************************
 528:.\Generated_Source\PSoC4/Timer.c **** * Function Name: Timer_SetPWMDeadTime
 529:.\Generated_Source\PSoC4/Timer.c **** ********************************************************************************
 530:.\Generated_Source\PSoC4/Timer.c **** *
 531:.\Generated_Source\PSoC4/Timer.c **** * Summary:
 532:.\Generated_Source\PSoC4/Timer.c **** *  Writes the dead time control value.  This value delays the rising edge of
 533:.\Generated_Source\PSoC4/Timer.c **** *  both the line and line_n signals the designated number of cycles resulting
 534:.\Generated_Source\PSoC4/Timer.c **** *  in both signals being inactive for that many cycles.  This functionality is
 535:.\Generated_Source\PSoC4/Timer.c **** *  only applicable to the PWM in the dead time mode.
 536:.\Generated_Source\PSoC4/Timer.c **** 
 537:.\Generated_Source\PSoC4/Timer.c **** *
 538:.\Generated_Source\PSoC4/Timer.c **** * Parameters:
 539:.\Generated_Source\PSoC4/Timer.c **** *  Dead time to insert
 540:.\Generated_Source\PSoC4/Timer.c **** *   Values: 0 to 255
 541:.\Generated_Source\PSoC4/Timer.c **** *
 542:.\Generated_Source\PSoC4/Timer.c **** * Return:
 543:.\Generated_Source\PSoC4/Timer.c **** *  None
 544:.\Generated_Source\PSoC4/Timer.c **** *
 545:.\Generated_Source\PSoC4/Timer.c **** *******************************************************************************/
 546:.\Generated_Source\PSoC4/Timer.c **** void Timer_SetPWMDeadTime(uint32 deadTime)
 547:.\Generated_Source\PSoC4/Timer.c **** {
 396              		.loc 1 547 0
 397              		.cfi_startproc
 398              	.LVL30:
 399 0000 10B5     		push	{r4, lr}
 400              		.cfi_def_cfa_offset 8
 401              		.cfi_offset 4, -8
 402              		.cfi_offset 14, -4
 403 0002 041C     		mov	r4, r0
 548:.\Generated_Source\PSoC4/Timer.c ****     uint8 enableInterrupts;
 549:.\Generated_Source\PSoC4/Timer.c **** 
 550:.\Generated_Source\PSoC4/Timer.c ****     enableInterrupts = CyEnterCriticalSection();
 404              		.loc 1 550 0
 405 0004 FFF7FEFF 		bl	CyEnterCriticalSection
 406              	.LVL31:
 551:.\Generated_Source\PSoC4/Timer.c **** 
 552:.\Generated_Source\PSoC4/Timer.c ****     Timer_CONTROL_REG &= (uint32)~Timer_PRESCALER_MASK;
 407              		.loc 1 552 0
 408 0008 064B     		ldr	r3, .L29
 409 000a 1968     		ldr	r1, [r3]
 410 000c 064A     		ldr	r2, .L29+4
 411 000e 0A40     		and	r2, r1
 412 0010 1A60     		str	r2, [r3]
 553:.\Generated_Source\PSoC4/Timer.c ****     Timer_CONTROL_REG |= ((uint32)((deadTime & Timer_8BIT_MASK) <<
 413              		.loc 1 553 0
 414 0012 1A68     		ldr	r2, [r3]
 415 0014 2406     		lsl	r4, r4, #24
 416              	.LVL32:
ARM GAS  C:\Users\Luci\AppData\Local\Temp\ccUHbIZG.s 			page 18


 417 0016 240C     		lsr	r4, r4, #16
 418 0018 1443     		orr	r4, r2
 419 001a 1C60     		str	r4, [r3]
 554:.\Generated_Source\PSoC4/Timer.c ****                                                           Timer_PRESCALER_SHIFT));
 555:.\Generated_Source\PSoC4/Timer.c **** 
 556:.\Generated_Source\PSoC4/Timer.c ****     CyExitCriticalSection(enableInterrupts);
 420              		.loc 1 556 0
 421 001c FFF7FEFF 		bl	CyExitCriticalSection
 422              	.LVL33:
 557:.\Generated_Source\PSoC4/Timer.c **** }
 423              		.loc 1 557 0
 424              		@ sp needed
 425 0020 10BD     		pop	{r4, pc}
 426              	.L30:
 427 0022 C046     		.align	2
 428              	.L29:
 429 0024 00012040 		.word	1075839232
 430 0028 FF00FFFF 		.word	-65281
 431              		.cfi_endproc
 432              	.LFE13:
 433              		.size	Timer_SetPWMDeadTime, .-Timer_SetPWMDeadTime
 434              		.section	.text.Timer_SetPWMInvert,"ax",%progbits
 435              		.align	2
 436              		.global	Timer_SetPWMInvert
 437              		.code	16
 438              		.thumb_func
 439              		.type	Timer_SetPWMInvert, %function
 440              	Timer_SetPWMInvert:
 441              	.LFB14:
 558:.\Generated_Source\PSoC4/Timer.c **** 
 559:.\Generated_Source\PSoC4/Timer.c **** 
 560:.\Generated_Source\PSoC4/Timer.c **** /*******************************************************************************
 561:.\Generated_Source\PSoC4/Timer.c **** * Function Name: Timer_SetPWMInvert
 562:.\Generated_Source\PSoC4/Timer.c **** ********************************************************************************
 563:.\Generated_Source\PSoC4/Timer.c **** *
 564:.\Generated_Source\PSoC4/Timer.c **** * Summary:
 565:.\Generated_Source\PSoC4/Timer.c **** *  Writes the bits that control whether the line and line_n outputs are
 566:.\Generated_Source\PSoC4/Timer.c **** *  inverted from their normal output values.  This functionality is only
 567:.\Generated_Source\PSoC4/Timer.c **** *  applicable to the three PWM modes.
 568:.\Generated_Source\PSoC4/Timer.c **** *
 569:.\Generated_Source\PSoC4/Timer.c **** * Parameters:
 570:.\Generated_Source\PSoC4/Timer.c **** *  mask: Mask of outputs to invert.
 571:.\Generated_Source\PSoC4/Timer.c **** *   Values:
 572:.\Generated_Source\PSoC4/Timer.c **** *         - Timer_INVERT_LINE   - Inverts the line output
 573:.\Generated_Source\PSoC4/Timer.c **** *         - Timer_INVERT_LINE_N - Inverts the line_n output
 574:.\Generated_Source\PSoC4/Timer.c **** *
 575:.\Generated_Source\PSoC4/Timer.c **** * Return:
 576:.\Generated_Source\PSoC4/Timer.c **** *  None
 577:.\Generated_Source\PSoC4/Timer.c **** *
 578:.\Generated_Source\PSoC4/Timer.c **** *******************************************************************************/
 579:.\Generated_Source\PSoC4/Timer.c **** void Timer_SetPWMInvert(uint32 mask)
 580:.\Generated_Source\PSoC4/Timer.c **** {
 442              		.loc 1 580 0
 443              		.cfi_startproc
 444              	.LVL34:
 445 0000 10B5     		push	{r4, lr}
 446              		.cfi_def_cfa_offset 8
ARM GAS  C:\Users\Luci\AppData\Local\Temp\ccUHbIZG.s 			page 19


 447              		.cfi_offset 4, -8
 448              		.cfi_offset 14, -4
 449 0002 041C     		mov	r4, r0
 581:.\Generated_Source\PSoC4/Timer.c ****     uint8 enableInterrupts;
 582:.\Generated_Source\PSoC4/Timer.c **** 
 583:.\Generated_Source\PSoC4/Timer.c ****     enableInterrupts = CyEnterCriticalSection();
 450              		.loc 1 583 0
 451 0004 FFF7FEFF 		bl	CyEnterCriticalSection
 452              	.LVL35:
 584:.\Generated_Source\PSoC4/Timer.c **** 
 585:.\Generated_Source\PSoC4/Timer.c ****     Timer_CONTROL_REG &= (uint32)~Timer_INV_OUT_MASK;
 453              		.loc 1 585 0
 454 0008 054B     		ldr	r3, .L32
 455 000a 1968     		ldr	r1, [r3]
 456 000c 054A     		ldr	r2, .L32+4
 457 000e 0A40     		and	r2, r1
 458 0010 1A60     		str	r2, [r3]
 586:.\Generated_Source\PSoC4/Timer.c ****     Timer_CONTROL_REG |= mask;
 459              		.loc 1 586 0
 460 0012 1A68     		ldr	r2, [r3]
 461 0014 1443     		orr	r4, r2
 462              	.LVL36:
 463 0016 1C60     		str	r4, [r3]
 587:.\Generated_Source\PSoC4/Timer.c **** 
 588:.\Generated_Source\PSoC4/Timer.c ****     CyExitCriticalSection(enableInterrupts);
 464              		.loc 1 588 0
 465 0018 FFF7FEFF 		bl	CyExitCriticalSection
 466              	.LVL37:
 589:.\Generated_Source\PSoC4/Timer.c **** }
 467              		.loc 1 589 0
 468              		@ sp needed
 469 001c 10BD     		pop	{r4, pc}
 470              	.L33:
 471 001e C046     		.align	2
 472              	.L32:
 473 0020 00012040 		.word	1075839232
 474 0024 FFFFCFFF 		.word	-3145729
 475              		.cfi_endproc
 476              	.LFE14:
 477              		.size	Timer_SetPWMInvert, .-Timer_SetPWMInvert
 478              		.section	.text.Timer_WriteCounter,"ax",%progbits
 479              		.align	2
 480              		.global	Timer_WriteCounter
 481              		.code	16
 482              		.thumb_func
 483              		.type	Timer_WriteCounter, %function
 484              	Timer_WriteCounter:
 485              	.LFB15:
 590:.\Generated_Source\PSoC4/Timer.c **** 
 591:.\Generated_Source\PSoC4/Timer.c **** 
 592:.\Generated_Source\PSoC4/Timer.c **** 
 593:.\Generated_Source\PSoC4/Timer.c **** /*******************************************************************************
 594:.\Generated_Source\PSoC4/Timer.c **** * Function Name: Timer_WriteCounter
 595:.\Generated_Source\PSoC4/Timer.c **** ********************************************************************************
 596:.\Generated_Source\PSoC4/Timer.c **** *
 597:.\Generated_Source\PSoC4/Timer.c **** * Summary:
 598:.\Generated_Source\PSoC4/Timer.c **** *  Writes a new 16bit counter value directly into the counter register, thus
ARM GAS  C:\Users\Luci\AppData\Local\Temp\ccUHbIZG.s 			page 20


 599:.\Generated_Source\PSoC4/Timer.c **** *  setting the counter (not the period) to the value written. It is not
 600:.\Generated_Source\PSoC4/Timer.c **** *  advised to write to this field when the counter is running.
 601:.\Generated_Source\PSoC4/Timer.c **** *
 602:.\Generated_Source\PSoC4/Timer.c **** * Parameters:
 603:.\Generated_Source\PSoC4/Timer.c **** *  count: value to write
 604:.\Generated_Source\PSoC4/Timer.c **** *
 605:.\Generated_Source\PSoC4/Timer.c **** * Return:
 606:.\Generated_Source\PSoC4/Timer.c **** *  None
 607:.\Generated_Source\PSoC4/Timer.c **** *
 608:.\Generated_Source\PSoC4/Timer.c **** *******************************************************************************/
 609:.\Generated_Source\PSoC4/Timer.c **** void Timer_WriteCounter(uint32 count)
 610:.\Generated_Source\PSoC4/Timer.c **** {
 486              		.loc 1 610 0
 487              		.cfi_startproc
 488              	.LVL38:
 611:.\Generated_Source\PSoC4/Timer.c ****     Timer_COUNTER_REG = (count & Timer_16BIT_MASK);
 489              		.loc 1 611 0
 490 0000 0004     		lsl	r0, r0, #16
 491              	.LVL39:
 492 0002 000C     		lsr	r0, r0, #16
 493 0004 014B     		ldr	r3, .L35
 494 0006 1860     		str	r0, [r3]
 612:.\Generated_Source\PSoC4/Timer.c **** }
 495              		.loc 1 612 0
 496              		@ sp needed
 497 0008 7047     		bx	lr
 498              	.L36:
 499 000a C046     		.align	2
 500              	.L35:
 501 000c 08012040 		.word	1075839240
 502              		.cfi_endproc
 503              	.LFE15:
 504              		.size	Timer_WriteCounter, .-Timer_WriteCounter
 505              		.section	.text.Timer_ReadCounter,"ax",%progbits
 506              		.align	2
 507              		.global	Timer_ReadCounter
 508              		.code	16
 509              		.thumb_func
 510              		.type	Timer_ReadCounter, %function
 511              	Timer_ReadCounter:
 512              	.LFB16:
 613:.\Generated_Source\PSoC4/Timer.c **** 
 614:.\Generated_Source\PSoC4/Timer.c **** 
 615:.\Generated_Source\PSoC4/Timer.c **** /*******************************************************************************
 616:.\Generated_Source\PSoC4/Timer.c **** * Function Name: Timer_ReadCounter
 617:.\Generated_Source\PSoC4/Timer.c **** ********************************************************************************
 618:.\Generated_Source\PSoC4/Timer.c **** *
 619:.\Generated_Source\PSoC4/Timer.c **** * Summary:
 620:.\Generated_Source\PSoC4/Timer.c **** *  Reads the current counter value.
 621:.\Generated_Source\PSoC4/Timer.c **** *
 622:.\Generated_Source\PSoC4/Timer.c **** * Parameters:
 623:.\Generated_Source\PSoC4/Timer.c **** *  None
 624:.\Generated_Source\PSoC4/Timer.c **** *
 625:.\Generated_Source\PSoC4/Timer.c **** * Return:
 626:.\Generated_Source\PSoC4/Timer.c **** *  Current counter value
 627:.\Generated_Source\PSoC4/Timer.c **** *
 628:.\Generated_Source\PSoC4/Timer.c **** *******************************************************************************/
ARM GAS  C:\Users\Luci\AppData\Local\Temp\ccUHbIZG.s 			page 21


 629:.\Generated_Source\PSoC4/Timer.c **** uint32 Timer_ReadCounter(void)
 630:.\Generated_Source\PSoC4/Timer.c **** {
 513              		.loc 1 630 0
 514              		.cfi_startproc
 631:.\Generated_Source\PSoC4/Timer.c ****     return (Timer_COUNTER_REG & Timer_16BIT_MASK);
 515              		.loc 1 631 0
 516 0000 024B     		ldr	r3, .L38
 517 0002 1868     		ldr	r0, [r3]
 518 0004 0004     		lsl	r0, r0, #16
 519 0006 000C     		lsr	r0, r0, #16
 632:.\Generated_Source\PSoC4/Timer.c **** }
 520              		.loc 1 632 0
 521              		@ sp needed
 522 0008 7047     		bx	lr
 523              	.L39:
 524 000a C046     		.align	2
 525              	.L38:
 526 000c 08012040 		.word	1075839240
 527              		.cfi_endproc
 528              	.LFE16:
 529              		.size	Timer_ReadCounter, .-Timer_ReadCounter
 530              		.section	.text.Timer_SetCounterMode,"ax",%progbits
 531              		.align	2
 532              		.global	Timer_SetCounterMode
 533              		.code	16
 534              		.thumb_func
 535              		.type	Timer_SetCounterMode, %function
 536              	Timer_SetCounterMode:
 537              	.LFB17:
 633:.\Generated_Source\PSoC4/Timer.c **** 
 634:.\Generated_Source\PSoC4/Timer.c **** 
 635:.\Generated_Source\PSoC4/Timer.c **** /*******************************************************************************
 636:.\Generated_Source\PSoC4/Timer.c **** * Function Name: Timer_SetCounterMode
 637:.\Generated_Source\PSoC4/Timer.c **** ********************************************************************************
 638:.\Generated_Source\PSoC4/Timer.c **** *
 639:.\Generated_Source\PSoC4/Timer.c **** * Summary:
 640:.\Generated_Source\PSoC4/Timer.c **** *  Sets the counter mode.  Applicable to all modes except Quadrature Decoder
 641:.\Generated_Source\PSoC4/Timer.c **** *  and the PWM with a pseudo random output.
 642:.\Generated_Source\PSoC4/Timer.c **** *
 643:.\Generated_Source\PSoC4/Timer.c **** * Parameters:
 644:.\Generated_Source\PSoC4/Timer.c **** *  counterMode: Enumerated counter type values
 645:.\Generated_Source\PSoC4/Timer.c **** *   Values:
 646:.\Generated_Source\PSoC4/Timer.c **** *     - Timer_COUNT_UP       - Counts up
 647:.\Generated_Source\PSoC4/Timer.c **** *     - Timer_COUNT_DOWN     - Counts down
 648:.\Generated_Source\PSoC4/Timer.c **** *     - Timer_COUNT_UPDOWN0  - Counts up and down. Terminal count
 649:.\Generated_Source\PSoC4/Timer.c **** *                                         generated when counter reaches 0
 650:.\Generated_Source\PSoC4/Timer.c **** *     - Timer_COUNT_UPDOWN1  - Counts up and down. Terminal count
 651:.\Generated_Source\PSoC4/Timer.c **** *                                         generated both when counter reaches 0
 652:.\Generated_Source\PSoC4/Timer.c **** *                                         and period
 653:.\Generated_Source\PSoC4/Timer.c **** *
 654:.\Generated_Source\PSoC4/Timer.c **** * Return:
 655:.\Generated_Source\PSoC4/Timer.c **** *  None
 656:.\Generated_Source\PSoC4/Timer.c **** *
 657:.\Generated_Source\PSoC4/Timer.c **** *******************************************************************************/
 658:.\Generated_Source\PSoC4/Timer.c **** void Timer_SetCounterMode(uint32 counterMode)
 659:.\Generated_Source\PSoC4/Timer.c **** {
 538              		.loc 1 659 0
ARM GAS  C:\Users\Luci\AppData\Local\Temp\ccUHbIZG.s 			page 22


 539              		.cfi_startproc
 540              	.LVL40:
 541 0000 10B5     		push	{r4, lr}
 542              		.cfi_def_cfa_offset 8
 543              		.cfi_offset 4, -8
 544              		.cfi_offset 14, -4
 545 0002 041C     		mov	r4, r0
 660:.\Generated_Source\PSoC4/Timer.c ****     uint8 enableInterrupts;
 661:.\Generated_Source\PSoC4/Timer.c **** 
 662:.\Generated_Source\PSoC4/Timer.c ****     enableInterrupts = CyEnterCriticalSection();
 546              		.loc 1 662 0
 547 0004 FFF7FEFF 		bl	CyEnterCriticalSection
 548              	.LVL41:
 663:.\Generated_Source\PSoC4/Timer.c **** 
 664:.\Generated_Source\PSoC4/Timer.c ****     Timer_CONTROL_REG &= (uint32)~Timer_UPDOWN_MASK;
 549              		.loc 1 664 0
 550 0008 054B     		ldr	r3, .L41
 551 000a 1968     		ldr	r1, [r3]
 552 000c 054A     		ldr	r2, .L41+4
 553 000e 0A40     		and	r2, r1
 554 0010 1A60     		str	r2, [r3]
 665:.\Generated_Source\PSoC4/Timer.c ****     Timer_CONTROL_REG |= counterMode;
 555              		.loc 1 665 0
 556 0012 1A68     		ldr	r2, [r3]
 557 0014 1443     		orr	r4, r2
 558              	.LVL42:
 559 0016 1C60     		str	r4, [r3]
 666:.\Generated_Source\PSoC4/Timer.c **** 
 667:.\Generated_Source\PSoC4/Timer.c ****     CyExitCriticalSection(enableInterrupts);
 560              		.loc 1 667 0
 561 0018 FFF7FEFF 		bl	CyExitCriticalSection
 562              	.LVL43:
 668:.\Generated_Source\PSoC4/Timer.c **** }
 563              		.loc 1 668 0
 564              		@ sp needed
 565 001c 10BD     		pop	{r4, pc}
 566              	.L42:
 567 001e C046     		.align	2
 568              	.L41:
 569 0020 00012040 		.word	1075839232
 570 0024 FFFFFCFF 		.word	-196609
 571              		.cfi_endproc
 572              	.LFE17:
 573              		.size	Timer_SetCounterMode, .-Timer_SetCounterMode
 574              		.section	.text.Timer_WritePeriod,"ax",%progbits
 575              		.align	2
 576              		.global	Timer_WritePeriod
 577              		.code	16
 578              		.thumb_func
 579              		.type	Timer_WritePeriod, %function
 580              	Timer_WritePeriod:
 581              	.LFB18:
 669:.\Generated_Source\PSoC4/Timer.c **** 
 670:.\Generated_Source\PSoC4/Timer.c **** 
 671:.\Generated_Source\PSoC4/Timer.c **** /*******************************************************************************
 672:.\Generated_Source\PSoC4/Timer.c **** * Function Name: Timer_WritePeriod
 673:.\Generated_Source\PSoC4/Timer.c **** ********************************************************************************
ARM GAS  C:\Users\Luci\AppData\Local\Temp\ccUHbIZG.s 			page 23


 674:.\Generated_Source\PSoC4/Timer.c **** *
 675:.\Generated_Source\PSoC4/Timer.c **** * Summary:
 676:.\Generated_Source\PSoC4/Timer.c **** *  Writes the 16 bit period register with the new period value.
 677:.\Generated_Source\PSoC4/Timer.c **** *  To cause the counter to count for N cycles this register should be written
 678:.\Generated_Source\PSoC4/Timer.c **** *  with N-1 (counts from 0 to period inclusive).
 679:.\Generated_Source\PSoC4/Timer.c **** *
 680:.\Generated_Source\PSoC4/Timer.c **** * Parameters:
 681:.\Generated_Source\PSoC4/Timer.c **** *  period: Period value
 682:.\Generated_Source\PSoC4/Timer.c **** *
 683:.\Generated_Source\PSoC4/Timer.c **** * Return:
 684:.\Generated_Source\PSoC4/Timer.c **** *  None
 685:.\Generated_Source\PSoC4/Timer.c **** *
 686:.\Generated_Source\PSoC4/Timer.c **** *******************************************************************************/
 687:.\Generated_Source\PSoC4/Timer.c **** void Timer_WritePeriod(uint32 period)
 688:.\Generated_Source\PSoC4/Timer.c **** {
 582              		.loc 1 688 0
 583              		.cfi_startproc
 584              	.LVL44:
 689:.\Generated_Source\PSoC4/Timer.c ****     Timer_PERIOD_REG = (period & Timer_16BIT_MASK);
 585              		.loc 1 689 0
 586 0000 0004     		lsl	r0, r0, #16
 587              	.LVL45:
 588 0002 000C     		lsr	r0, r0, #16
 589 0004 014B     		ldr	r3, .L44
 590 0006 1860     		str	r0, [r3]
 690:.\Generated_Source\PSoC4/Timer.c **** }
 591              		.loc 1 690 0
 592              		@ sp needed
 593 0008 7047     		bx	lr
 594              	.L45:
 595 000a C046     		.align	2
 596              	.L44:
 597 000c 14012040 		.word	1075839252
 598              		.cfi_endproc
 599              	.LFE18:
 600              		.size	Timer_WritePeriod, .-Timer_WritePeriod
 601              		.section	.text.Timer_ReadPeriod,"ax",%progbits
 602              		.align	2
 603              		.global	Timer_ReadPeriod
 604              		.code	16
 605              		.thumb_func
 606              		.type	Timer_ReadPeriod, %function
 607              	Timer_ReadPeriod:
 608              	.LFB19:
 691:.\Generated_Source\PSoC4/Timer.c **** 
 692:.\Generated_Source\PSoC4/Timer.c **** 
 693:.\Generated_Source\PSoC4/Timer.c **** /*******************************************************************************
 694:.\Generated_Source\PSoC4/Timer.c **** * Function Name: Timer_ReadPeriod
 695:.\Generated_Source\PSoC4/Timer.c **** ********************************************************************************
 696:.\Generated_Source\PSoC4/Timer.c **** *
 697:.\Generated_Source\PSoC4/Timer.c **** * Summary:
 698:.\Generated_Source\PSoC4/Timer.c **** *  Reads the 16 bit period register.
 699:.\Generated_Source\PSoC4/Timer.c **** *
 700:.\Generated_Source\PSoC4/Timer.c **** * Parameters:
 701:.\Generated_Source\PSoC4/Timer.c **** *  None
 702:.\Generated_Source\PSoC4/Timer.c **** *
 703:.\Generated_Source\PSoC4/Timer.c **** * Return:
ARM GAS  C:\Users\Luci\AppData\Local\Temp\ccUHbIZG.s 			page 24


 704:.\Generated_Source\PSoC4/Timer.c **** *  Period value
 705:.\Generated_Source\PSoC4/Timer.c **** *
 706:.\Generated_Source\PSoC4/Timer.c **** *******************************************************************************/
 707:.\Generated_Source\PSoC4/Timer.c **** uint32 Timer_ReadPeriod(void)
 708:.\Generated_Source\PSoC4/Timer.c **** {
 609              		.loc 1 708 0
 610              		.cfi_startproc
 709:.\Generated_Source\PSoC4/Timer.c ****     return (Timer_PERIOD_REG & Timer_16BIT_MASK);
 611              		.loc 1 709 0
 612 0000 024B     		ldr	r3, .L47
 613 0002 1868     		ldr	r0, [r3]
 614 0004 0004     		lsl	r0, r0, #16
 615 0006 000C     		lsr	r0, r0, #16
 710:.\Generated_Source\PSoC4/Timer.c **** }
 616              		.loc 1 710 0
 617              		@ sp needed
 618 0008 7047     		bx	lr
 619              	.L48:
 620 000a C046     		.align	2
 621              	.L47:
 622 000c 14012040 		.word	1075839252
 623              		.cfi_endproc
 624              	.LFE19:
 625              		.size	Timer_ReadPeriod, .-Timer_ReadPeriod
 626              		.section	.text.Timer_SetCompareSwap,"ax",%progbits
 627              		.align	2
 628              		.global	Timer_SetCompareSwap
 629              		.code	16
 630              		.thumb_func
 631              		.type	Timer_SetCompareSwap, %function
 632              	Timer_SetCompareSwap:
 633              	.LFB20:
 711:.\Generated_Source\PSoC4/Timer.c **** 
 712:.\Generated_Source\PSoC4/Timer.c **** 
 713:.\Generated_Source\PSoC4/Timer.c **** /*******************************************************************************
 714:.\Generated_Source\PSoC4/Timer.c **** * Function Name: Timer_SetCompareSwap
 715:.\Generated_Source\PSoC4/Timer.c **** ********************************************************************************
 716:.\Generated_Source\PSoC4/Timer.c **** *
 717:.\Generated_Source\PSoC4/Timer.c **** * Summary:
 718:.\Generated_Source\PSoC4/Timer.c **** *  Writes the register that controls whether the compare registers are
 719:.\Generated_Source\PSoC4/Timer.c **** *  swapped. When enabled in the Timer/Counter mode(without capture) the swap
 720:.\Generated_Source\PSoC4/Timer.c **** *  occurs at a TC event. In the PWM mode the swap occurs at the next TC event
 721:.\Generated_Source\PSoC4/Timer.c **** *  following a hardware switch event.
 722:.\Generated_Source\PSoC4/Timer.c **** *
 723:.\Generated_Source\PSoC4/Timer.c **** * Parameters:
 724:.\Generated_Source\PSoC4/Timer.c **** *  swapEnable
 725:.\Generated_Source\PSoC4/Timer.c **** *   Values:
 726:.\Generated_Source\PSoC4/Timer.c **** *     - 0 - Disable swap
 727:.\Generated_Source\PSoC4/Timer.c **** *     - 1 - Enable swap
 728:.\Generated_Source\PSoC4/Timer.c **** *
 729:.\Generated_Source\PSoC4/Timer.c **** * Return:
 730:.\Generated_Source\PSoC4/Timer.c **** *  None
 731:.\Generated_Source\PSoC4/Timer.c **** *
 732:.\Generated_Source\PSoC4/Timer.c **** *******************************************************************************/
 733:.\Generated_Source\PSoC4/Timer.c **** void Timer_SetCompareSwap(uint32 swapEnable)
 734:.\Generated_Source\PSoC4/Timer.c **** {
 634              		.loc 1 734 0
ARM GAS  C:\Users\Luci\AppData\Local\Temp\ccUHbIZG.s 			page 25


 635              		.cfi_startproc
 636              	.LVL46:
 637 0000 10B5     		push	{r4, lr}
 638              		.cfi_def_cfa_offset 8
 639              		.cfi_offset 4, -8
 640              		.cfi_offset 14, -4
 641 0002 041C     		mov	r4, r0
 735:.\Generated_Source\PSoC4/Timer.c ****     uint8 enableInterrupts;
 736:.\Generated_Source\PSoC4/Timer.c **** 
 737:.\Generated_Source\PSoC4/Timer.c ****     enableInterrupts = CyEnterCriticalSection();
 642              		.loc 1 737 0
 643 0004 FFF7FEFF 		bl	CyEnterCriticalSection
 644              	.LVL47:
 738:.\Generated_Source\PSoC4/Timer.c **** 
 739:.\Generated_Source\PSoC4/Timer.c ****     Timer_CONTROL_REG &= (uint32)~Timer_RELOAD_CC_MASK;
 645              		.loc 1 739 0
 646 0008 054B     		ldr	r3, .L50
 647 000a 1968     		ldr	r1, [r3]
 648 000c 0122     		mov	r2, #1
 649 000e 9143     		bic	r1, r2
 650 0010 1960     		str	r1, [r3]
 740:.\Generated_Source\PSoC4/Timer.c ****     Timer_CONTROL_REG |= (swapEnable & Timer_1BIT_MASK);
 651              		.loc 1 740 0
 652 0012 1968     		ldr	r1, [r3]
 653 0014 2240     		and	r2, r4
 654 0016 0A43     		orr	r2, r1
 655 0018 1A60     		str	r2, [r3]
 741:.\Generated_Source\PSoC4/Timer.c **** 
 742:.\Generated_Source\PSoC4/Timer.c ****     CyExitCriticalSection(enableInterrupts);
 656              		.loc 1 742 0
 657 001a FFF7FEFF 		bl	CyExitCriticalSection
 658              	.LVL48:
 743:.\Generated_Source\PSoC4/Timer.c **** }
 659              		.loc 1 743 0
 660              		@ sp needed
 661              	.LVL49:
 662 001e 10BD     		pop	{r4, pc}
 663              	.L51:
 664              		.align	2
 665              	.L50:
 666 0020 00012040 		.word	1075839232
 667              		.cfi_endproc
 668              	.LFE20:
 669              		.size	Timer_SetCompareSwap, .-Timer_SetCompareSwap
 670              		.section	.text.Timer_WritePeriodBuf,"ax",%progbits
 671              		.align	2
 672              		.global	Timer_WritePeriodBuf
 673              		.code	16
 674              		.thumb_func
 675              		.type	Timer_WritePeriodBuf, %function
 676              	Timer_WritePeriodBuf:
 677              	.LFB21:
 744:.\Generated_Source\PSoC4/Timer.c **** 
 745:.\Generated_Source\PSoC4/Timer.c **** 
 746:.\Generated_Source\PSoC4/Timer.c **** /*******************************************************************************
 747:.\Generated_Source\PSoC4/Timer.c **** * Function Name: Timer_WritePeriodBuf
 748:.\Generated_Source\PSoC4/Timer.c **** ********************************************************************************
ARM GAS  C:\Users\Luci\AppData\Local\Temp\ccUHbIZG.s 			page 26


 749:.\Generated_Source\PSoC4/Timer.c **** *
 750:.\Generated_Source\PSoC4/Timer.c **** * Summary:
 751:.\Generated_Source\PSoC4/Timer.c **** *  Writes the 16 bit period buf register with the new period value.
 752:.\Generated_Source\PSoC4/Timer.c **** *
 753:.\Generated_Source\PSoC4/Timer.c **** * Parameters:
 754:.\Generated_Source\PSoC4/Timer.c **** *  periodBuf: Period value
 755:.\Generated_Source\PSoC4/Timer.c **** *
 756:.\Generated_Source\PSoC4/Timer.c **** * Return:
 757:.\Generated_Source\PSoC4/Timer.c **** *  None
 758:.\Generated_Source\PSoC4/Timer.c **** *
 759:.\Generated_Source\PSoC4/Timer.c **** *******************************************************************************/
 760:.\Generated_Source\PSoC4/Timer.c **** void Timer_WritePeriodBuf(uint32 periodBuf)
 761:.\Generated_Source\PSoC4/Timer.c **** {
 678              		.loc 1 761 0
 679              		.cfi_startproc
 680              	.LVL50:
 762:.\Generated_Source\PSoC4/Timer.c ****     Timer_PERIOD_BUF_REG = (periodBuf & Timer_16BIT_MASK);
 681              		.loc 1 762 0
 682 0000 0004     		lsl	r0, r0, #16
 683              	.LVL51:
 684 0002 000C     		lsr	r0, r0, #16
 685 0004 014B     		ldr	r3, .L53
 686 0006 1860     		str	r0, [r3]
 763:.\Generated_Source\PSoC4/Timer.c **** }
 687              		.loc 1 763 0
 688              		@ sp needed
 689 0008 7047     		bx	lr
 690              	.L54:
 691 000a C046     		.align	2
 692              	.L53:
 693 000c 18012040 		.word	1075839256
 694              		.cfi_endproc
 695              	.LFE21:
 696              		.size	Timer_WritePeriodBuf, .-Timer_WritePeriodBuf
 697              		.section	.text.Timer_ReadPeriodBuf,"ax",%progbits
 698              		.align	2
 699              		.global	Timer_ReadPeriodBuf
 700              		.code	16
 701              		.thumb_func
 702              		.type	Timer_ReadPeriodBuf, %function
 703              	Timer_ReadPeriodBuf:
 704              	.LFB22:
 764:.\Generated_Source\PSoC4/Timer.c **** 
 765:.\Generated_Source\PSoC4/Timer.c **** 
 766:.\Generated_Source\PSoC4/Timer.c **** /*******************************************************************************
 767:.\Generated_Source\PSoC4/Timer.c **** * Function Name: Timer_ReadPeriodBuf
 768:.\Generated_Source\PSoC4/Timer.c **** ********************************************************************************
 769:.\Generated_Source\PSoC4/Timer.c **** *
 770:.\Generated_Source\PSoC4/Timer.c **** * Summary:
 771:.\Generated_Source\PSoC4/Timer.c **** *  Reads the 16 bit period buf register.
 772:.\Generated_Source\PSoC4/Timer.c **** *
 773:.\Generated_Source\PSoC4/Timer.c **** * Parameters:
 774:.\Generated_Source\PSoC4/Timer.c **** *  None
 775:.\Generated_Source\PSoC4/Timer.c **** *
 776:.\Generated_Source\PSoC4/Timer.c **** * Return:
 777:.\Generated_Source\PSoC4/Timer.c **** *  Period value
 778:.\Generated_Source\PSoC4/Timer.c **** *
ARM GAS  C:\Users\Luci\AppData\Local\Temp\ccUHbIZG.s 			page 27


 779:.\Generated_Source\PSoC4/Timer.c **** *******************************************************************************/
 780:.\Generated_Source\PSoC4/Timer.c **** uint32 Timer_ReadPeriodBuf(void)
 781:.\Generated_Source\PSoC4/Timer.c **** {
 705              		.loc 1 781 0
 706              		.cfi_startproc
 782:.\Generated_Source\PSoC4/Timer.c ****     return (Timer_PERIOD_BUF_REG & Timer_16BIT_MASK);
 707              		.loc 1 782 0
 708 0000 024B     		ldr	r3, .L56
 709 0002 1868     		ldr	r0, [r3]
 710 0004 0004     		lsl	r0, r0, #16
 711 0006 000C     		lsr	r0, r0, #16
 783:.\Generated_Source\PSoC4/Timer.c **** }
 712              		.loc 1 783 0
 713              		@ sp needed
 714 0008 7047     		bx	lr
 715              	.L57:
 716 000a C046     		.align	2
 717              	.L56:
 718 000c 18012040 		.word	1075839256
 719              		.cfi_endproc
 720              	.LFE22:
 721              		.size	Timer_ReadPeriodBuf, .-Timer_ReadPeriodBuf
 722              		.section	.text.Timer_SetPeriodSwap,"ax",%progbits
 723              		.align	2
 724              		.global	Timer_SetPeriodSwap
 725              		.code	16
 726              		.thumb_func
 727              		.type	Timer_SetPeriodSwap, %function
 728              	Timer_SetPeriodSwap:
 729              	.LFB23:
 784:.\Generated_Source\PSoC4/Timer.c **** 
 785:.\Generated_Source\PSoC4/Timer.c **** 
 786:.\Generated_Source\PSoC4/Timer.c **** /*******************************************************************************
 787:.\Generated_Source\PSoC4/Timer.c **** * Function Name: Timer_SetPeriodSwap
 788:.\Generated_Source\PSoC4/Timer.c **** ********************************************************************************
 789:.\Generated_Source\PSoC4/Timer.c **** *
 790:.\Generated_Source\PSoC4/Timer.c **** * Summary:
 791:.\Generated_Source\PSoC4/Timer.c **** *  Writes the register that controls whether the period registers are
 792:.\Generated_Source\PSoC4/Timer.c **** *  swapped. When enabled in Timer/Counter mode the swap occurs at a TC event.
 793:.\Generated_Source\PSoC4/Timer.c **** *  In the PWM mode the swap occurs at the next TC event following a hardware
 794:.\Generated_Source\PSoC4/Timer.c **** *  switch event.
 795:.\Generated_Source\PSoC4/Timer.c **** *
 796:.\Generated_Source\PSoC4/Timer.c **** * Parameters:
 797:.\Generated_Source\PSoC4/Timer.c **** *  swapEnable
 798:.\Generated_Source\PSoC4/Timer.c **** *   Values:
 799:.\Generated_Source\PSoC4/Timer.c **** *     - 0 - Disable swap
 800:.\Generated_Source\PSoC4/Timer.c **** *     - 1 - Enable swap
 801:.\Generated_Source\PSoC4/Timer.c **** *
 802:.\Generated_Source\PSoC4/Timer.c **** * Return:
 803:.\Generated_Source\PSoC4/Timer.c **** *  None
 804:.\Generated_Source\PSoC4/Timer.c **** *
 805:.\Generated_Source\PSoC4/Timer.c **** *******************************************************************************/
 806:.\Generated_Source\PSoC4/Timer.c **** void Timer_SetPeriodSwap(uint32 swapEnable)
 807:.\Generated_Source\PSoC4/Timer.c **** {
 730              		.loc 1 807 0
 731              		.cfi_startproc
 732              	.LVL52:
ARM GAS  C:\Users\Luci\AppData\Local\Temp\ccUHbIZG.s 			page 28


 733 0000 10B5     		push	{r4, lr}
 734              		.cfi_def_cfa_offset 8
 735              		.cfi_offset 4, -8
 736              		.cfi_offset 14, -4
 737 0002 041C     		mov	r4, r0
 808:.\Generated_Source\PSoC4/Timer.c ****     uint8 enableInterrupts;
 809:.\Generated_Source\PSoC4/Timer.c **** 
 810:.\Generated_Source\PSoC4/Timer.c ****     enableInterrupts = CyEnterCriticalSection();
 738              		.loc 1 810 0
 739 0004 FFF7FEFF 		bl	CyEnterCriticalSection
 740              	.LVL53:
 811:.\Generated_Source\PSoC4/Timer.c **** 
 812:.\Generated_Source\PSoC4/Timer.c ****     Timer_CONTROL_REG &= (uint32)~Timer_RELOAD_PERIOD_MASK;
 741              		.loc 1 812 0
 742 0008 064B     		ldr	r3, .L59
 743 000a 1A68     		ldr	r2, [r3]
 744 000c 0221     		mov	r1, #2
 745 000e 8A43     		bic	r2, r1
 746 0010 1A60     		str	r2, [r3]
 813:.\Generated_Source\PSoC4/Timer.c ****     Timer_CONTROL_REG |= ((uint32)((swapEnable & Timer_1BIT_MASK) <<
 747              		.loc 1 813 0
 748 0012 1A68     		ldr	r2, [r3]
 749 0014 0121     		mov	r1, #1
 750 0016 0C40     		and	r4, r1
 751              	.LVL54:
 752 0018 6400     		lsl	r4, r4, #1
 753 001a 1443     		orr	r4, r2
 754 001c 1C60     		str	r4, [r3]
 814:.\Generated_Source\PSoC4/Timer.c ****                                                             Timer_RELOAD_PERIOD_SHIFT));
 815:.\Generated_Source\PSoC4/Timer.c **** 
 816:.\Generated_Source\PSoC4/Timer.c ****     CyExitCriticalSection(enableInterrupts);
 755              		.loc 1 816 0
 756 001e FFF7FEFF 		bl	CyExitCriticalSection
 757              	.LVL55:
 817:.\Generated_Source\PSoC4/Timer.c **** }
 758              		.loc 1 817 0
 759              		@ sp needed
 760 0022 10BD     		pop	{r4, pc}
 761              	.L60:
 762              		.align	2
 763              	.L59:
 764 0024 00012040 		.word	1075839232
 765              		.cfi_endproc
 766              	.LFE23:
 767              		.size	Timer_SetPeriodSwap, .-Timer_SetPeriodSwap
 768              		.section	.text.Timer_WriteCompare,"ax",%progbits
 769              		.align	2
 770              		.global	Timer_WriteCompare
 771              		.code	16
 772              		.thumb_func
 773              		.type	Timer_WriteCompare, %function
 774              	Timer_WriteCompare:
 775              	.LFB24:
 818:.\Generated_Source\PSoC4/Timer.c **** 
 819:.\Generated_Source\PSoC4/Timer.c **** 
 820:.\Generated_Source\PSoC4/Timer.c **** /*******************************************************************************
 821:.\Generated_Source\PSoC4/Timer.c **** * Function Name: Timer_WriteCompare
ARM GAS  C:\Users\Luci\AppData\Local\Temp\ccUHbIZG.s 			page 29


 822:.\Generated_Source\PSoC4/Timer.c **** ********************************************************************************
 823:.\Generated_Source\PSoC4/Timer.c **** *
 824:.\Generated_Source\PSoC4/Timer.c **** * Summary:
 825:.\Generated_Source\PSoC4/Timer.c **** *  Writes the 16 bit compare register with the new compare value. Not
 826:.\Generated_Source\PSoC4/Timer.c **** *  applicable for Timer/Counter with Capture or in Quadrature Decoder modes.
 827:.\Generated_Source\PSoC4/Timer.c **** *
 828:.\Generated_Source\PSoC4/Timer.c **** * Parameters:
 829:.\Generated_Source\PSoC4/Timer.c **** *  compare: Compare value
 830:.\Generated_Source\PSoC4/Timer.c **** *
 831:.\Generated_Source\PSoC4/Timer.c **** * Return:
 832:.\Generated_Source\PSoC4/Timer.c **** *  None
 833:.\Generated_Source\PSoC4/Timer.c **** *
 834:.\Generated_Source\PSoC4/Timer.c **** *******************************************************************************/
 835:.\Generated_Source\PSoC4/Timer.c **** void Timer_WriteCompare(uint32 compare)
 836:.\Generated_Source\PSoC4/Timer.c **** {
 776              		.loc 1 836 0
 777              		.cfi_startproc
 778              	.LVL56:
 837:.\Generated_Source\PSoC4/Timer.c ****     #if (Timer_CY_TCPWM_4000)
 838:.\Generated_Source\PSoC4/Timer.c ****         uint32 currentMode;
 839:.\Generated_Source\PSoC4/Timer.c ****     #endif /* (Timer_CY_TCPWM_4000) */
 840:.\Generated_Source\PSoC4/Timer.c **** 
 841:.\Generated_Source\PSoC4/Timer.c ****     #if (Timer_CY_TCPWM_4000)
 842:.\Generated_Source\PSoC4/Timer.c ****         currentMode = ((Timer_CONTROL_REG & Timer_UPDOWN_MASK) >> Timer_UPDOWN_SHIFT);
 843:.\Generated_Source\PSoC4/Timer.c **** 
 844:.\Generated_Source\PSoC4/Timer.c ****         if (((uint32)Timer__COUNT_DOWN == currentMode) && (0xFFFFu != compare))
 845:.\Generated_Source\PSoC4/Timer.c ****         {
 846:.\Generated_Source\PSoC4/Timer.c ****             compare++;
 847:.\Generated_Source\PSoC4/Timer.c ****         }
 848:.\Generated_Source\PSoC4/Timer.c ****         else if (((uint32)Timer__COUNT_UP == currentMode) && (0u != compare))
 849:.\Generated_Source\PSoC4/Timer.c ****         {
 850:.\Generated_Source\PSoC4/Timer.c ****             compare--;
 851:.\Generated_Source\PSoC4/Timer.c ****         }
 852:.\Generated_Source\PSoC4/Timer.c ****         else
 853:.\Generated_Source\PSoC4/Timer.c ****         {
 854:.\Generated_Source\PSoC4/Timer.c ****         }
 855:.\Generated_Source\PSoC4/Timer.c ****         
 856:.\Generated_Source\PSoC4/Timer.c ****     
 857:.\Generated_Source\PSoC4/Timer.c ****     #endif /* (Timer_CY_TCPWM_4000) */
 858:.\Generated_Source\PSoC4/Timer.c ****     
 859:.\Generated_Source\PSoC4/Timer.c ****     Timer_COMP_CAP_REG = (compare & Timer_16BIT_MASK);
 779              		.loc 1 859 0
 780 0000 0004     		lsl	r0, r0, #16
 781              	.LVL57:
 782 0002 000C     		lsr	r0, r0, #16
 783 0004 014B     		ldr	r3, .L62
 784 0006 1860     		str	r0, [r3]
 860:.\Generated_Source\PSoC4/Timer.c **** }
 785              		.loc 1 860 0
 786              		@ sp needed
 787 0008 7047     		bx	lr
 788              	.L63:
 789 000a C046     		.align	2
 790              	.L62:
 791 000c 0C012040 		.word	1075839244
 792              		.cfi_endproc
 793              	.LFE24:
ARM GAS  C:\Users\Luci\AppData\Local\Temp\ccUHbIZG.s 			page 30


 794              		.size	Timer_WriteCompare, .-Timer_WriteCompare
 795              		.section	.text.Timer_ReadCompare,"ax",%progbits
 796              		.align	2
 797              		.global	Timer_ReadCompare
 798              		.code	16
 799              		.thumb_func
 800              		.type	Timer_ReadCompare, %function
 801              	Timer_ReadCompare:
 802              	.LFB25:
 861:.\Generated_Source\PSoC4/Timer.c **** 
 862:.\Generated_Source\PSoC4/Timer.c **** 
 863:.\Generated_Source\PSoC4/Timer.c **** /*******************************************************************************
 864:.\Generated_Source\PSoC4/Timer.c **** * Function Name: Timer_ReadCompare
 865:.\Generated_Source\PSoC4/Timer.c **** ********************************************************************************
 866:.\Generated_Source\PSoC4/Timer.c **** *
 867:.\Generated_Source\PSoC4/Timer.c **** * Summary:
 868:.\Generated_Source\PSoC4/Timer.c **** *  Reads the compare register. Not applicable for Timer/Counter with Capture
 869:.\Generated_Source\PSoC4/Timer.c **** *  or in Quadrature Decoder modes.
 870:.\Generated_Source\PSoC4/Timer.c **** *
 871:.\Generated_Source\PSoC4/Timer.c **** * Parameters:
 872:.\Generated_Source\PSoC4/Timer.c **** *  None
 873:.\Generated_Source\PSoC4/Timer.c **** *
 874:.\Generated_Source\PSoC4/Timer.c **** * Return:
 875:.\Generated_Source\PSoC4/Timer.c **** *  Compare value
 876:.\Generated_Source\PSoC4/Timer.c **** *
 877:.\Generated_Source\PSoC4/Timer.c **** *******************************************************************************/
 878:.\Generated_Source\PSoC4/Timer.c **** uint32 Timer_ReadCompare(void)
 879:.\Generated_Source\PSoC4/Timer.c **** {
 803              		.loc 1 879 0
 804              		.cfi_startproc
 880:.\Generated_Source\PSoC4/Timer.c ****     #if (Timer_CY_TCPWM_4000)
 881:.\Generated_Source\PSoC4/Timer.c ****         uint32 currentMode;
 882:.\Generated_Source\PSoC4/Timer.c ****         uint32 regVal;
 883:.\Generated_Source\PSoC4/Timer.c ****     #endif /* (Timer_CY_TCPWM_4000) */
 884:.\Generated_Source\PSoC4/Timer.c **** 
 885:.\Generated_Source\PSoC4/Timer.c ****     #if (Timer_CY_TCPWM_4000)
 886:.\Generated_Source\PSoC4/Timer.c ****         currentMode = ((Timer_CONTROL_REG & Timer_UPDOWN_MASK) >> Timer_UPDOWN_SHIFT);
 887:.\Generated_Source\PSoC4/Timer.c ****         
 888:.\Generated_Source\PSoC4/Timer.c ****         regVal = Timer_COMP_CAP_REG;
 889:.\Generated_Source\PSoC4/Timer.c ****         
 890:.\Generated_Source\PSoC4/Timer.c ****         if (((uint32)Timer__COUNT_DOWN == currentMode) && (0u != regVal))
 891:.\Generated_Source\PSoC4/Timer.c ****         {
 892:.\Generated_Source\PSoC4/Timer.c ****             regVal--;
 893:.\Generated_Source\PSoC4/Timer.c ****         }
 894:.\Generated_Source\PSoC4/Timer.c ****         else if (((uint32)Timer__COUNT_UP == currentMode) && (0xFFFFu != regVal))
 895:.\Generated_Source\PSoC4/Timer.c ****         {
 896:.\Generated_Source\PSoC4/Timer.c ****             regVal++;
 897:.\Generated_Source\PSoC4/Timer.c ****         }
 898:.\Generated_Source\PSoC4/Timer.c ****         else
 899:.\Generated_Source\PSoC4/Timer.c ****         {
 900:.\Generated_Source\PSoC4/Timer.c ****         }
 901:.\Generated_Source\PSoC4/Timer.c **** 
 902:.\Generated_Source\PSoC4/Timer.c ****         return (regVal & Timer_16BIT_MASK);
 903:.\Generated_Source\PSoC4/Timer.c ****     #else
 904:.\Generated_Source\PSoC4/Timer.c ****         return (Timer_COMP_CAP_REG & Timer_16BIT_MASK);
 805              		.loc 1 904 0
 806 0000 024B     		ldr	r3, .L65
ARM GAS  C:\Users\Luci\AppData\Local\Temp\ccUHbIZG.s 			page 31


 807 0002 1868     		ldr	r0, [r3]
 808 0004 0004     		lsl	r0, r0, #16
 809 0006 000C     		lsr	r0, r0, #16
 905:.\Generated_Source\PSoC4/Timer.c ****     #endif /* (Timer_CY_TCPWM_4000) */
 906:.\Generated_Source\PSoC4/Timer.c **** }
 810              		.loc 1 906 0
 811              		@ sp needed
 812 0008 7047     		bx	lr
 813              	.L66:
 814 000a C046     		.align	2
 815              	.L65:
 816 000c 0C012040 		.word	1075839244
 817              		.cfi_endproc
 818              	.LFE25:
 819              		.size	Timer_ReadCompare, .-Timer_ReadCompare
 820              		.section	.text.Timer_WriteCompareBuf,"ax",%progbits
 821              		.align	2
 822              		.global	Timer_WriteCompareBuf
 823              		.code	16
 824              		.thumb_func
 825              		.type	Timer_WriteCompareBuf, %function
 826              	Timer_WriteCompareBuf:
 827              	.LFB26:
 907:.\Generated_Source\PSoC4/Timer.c **** 
 908:.\Generated_Source\PSoC4/Timer.c **** 
 909:.\Generated_Source\PSoC4/Timer.c **** /*******************************************************************************
 910:.\Generated_Source\PSoC4/Timer.c **** * Function Name: Timer_WriteCompareBuf
 911:.\Generated_Source\PSoC4/Timer.c **** ********************************************************************************
 912:.\Generated_Source\PSoC4/Timer.c **** *
 913:.\Generated_Source\PSoC4/Timer.c **** * Summary:
 914:.\Generated_Source\PSoC4/Timer.c **** *  Writes the 16 bit compare buffer register with the new compare value. Not
 915:.\Generated_Source\PSoC4/Timer.c **** *  applicable for Timer/Counter with Capture or in Quadrature Decoder modes.
 916:.\Generated_Source\PSoC4/Timer.c **** *
 917:.\Generated_Source\PSoC4/Timer.c **** * Parameters:
 918:.\Generated_Source\PSoC4/Timer.c **** *  compareBuf: Compare value
 919:.\Generated_Source\PSoC4/Timer.c **** *
 920:.\Generated_Source\PSoC4/Timer.c **** * Return:
 921:.\Generated_Source\PSoC4/Timer.c **** *  None
 922:.\Generated_Source\PSoC4/Timer.c **** *
 923:.\Generated_Source\PSoC4/Timer.c **** *******************************************************************************/
 924:.\Generated_Source\PSoC4/Timer.c **** void Timer_WriteCompareBuf(uint32 compareBuf)
 925:.\Generated_Source\PSoC4/Timer.c **** {
 828              		.loc 1 925 0
 829              		.cfi_startproc
 830              	.LVL58:
 926:.\Generated_Source\PSoC4/Timer.c ****     #if (Timer_CY_TCPWM_4000)
 927:.\Generated_Source\PSoC4/Timer.c ****         uint32 currentMode;
 928:.\Generated_Source\PSoC4/Timer.c ****     #endif /* (Timer_CY_TCPWM_4000) */
 929:.\Generated_Source\PSoC4/Timer.c **** 
 930:.\Generated_Source\PSoC4/Timer.c ****     #if (Timer_CY_TCPWM_4000)
 931:.\Generated_Source\PSoC4/Timer.c ****         currentMode = ((Timer_CONTROL_REG & Timer_UPDOWN_MASK) >> Timer_UPDOWN_SHIFT);
 932:.\Generated_Source\PSoC4/Timer.c **** 
 933:.\Generated_Source\PSoC4/Timer.c ****         if (((uint32)Timer__COUNT_DOWN == currentMode) && (0xFFFFu != compareBuf))
 934:.\Generated_Source\PSoC4/Timer.c ****         {
 935:.\Generated_Source\PSoC4/Timer.c ****             compareBuf++;
 936:.\Generated_Source\PSoC4/Timer.c ****         }
 937:.\Generated_Source\PSoC4/Timer.c ****         else if (((uint32)Timer__COUNT_UP == currentMode) && (0u != compareBuf))
ARM GAS  C:\Users\Luci\AppData\Local\Temp\ccUHbIZG.s 			page 32


 938:.\Generated_Source\PSoC4/Timer.c ****         {
 939:.\Generated_Source\PSoC4/Timer.c ****             compareBuf --;
 940:.\Generated_Source\PSoC4/Timer.c ****         }
 941:.\Generated_Source\PSoC4/Timer.c ****         else
 942:.\Generated_Source\PSoC4/Timer.c ****         {
 943:.\Generated_Source\PSoC4/Timer.c ****         }
 944:.\Generated_Source\PSoC4/Timer.c ****     #endif /* (Timer_CY_TCPWM_4000) */
 945:.\Generated_Source\PSoC4/Timer.c ****     
 946:.\Generated_Source\PSoC4/Timer.c ****     Timer_COMP_CAP_BUF_REG = (compareBuf & Timer_16BIT_MASK);
 831              		.loc 1 946 0
 832 0000 0004     		lsl	r0, r0, #16
 833              	.LVL59:
 834 0002 000C     		lsr	r0, r0, #16
 835 0004 014B     		ldr	r3, .L68
 836 0006 1860     		str	r0, [r3]
 947:.\Generated_Source\PSoC4/Timer.c **** }
 837              		.loc 1 947 0
 838              		@ sp needed
 839 0008 7047     		bx	lr
 840              	.L69:
 841 000a C046     		.align	2
 842              	.L68:
 843 000c 10012040 		.word	1075839248
 844              		.cfi_endproc
 845              	.LFE26:
 846              		.size	Timer_WriteCompareBuf, .-Timer_WriteCompareBuf
 847              		.section	.text.Timer_ReadCompareBuf,"ax",%progbits
 848              		.align	2
 849              		.global	Timer_ReadCompareBuf
 850              		.code	16
 851              		.thumb_func
 852              		.type	Timer_ReadCompareBuf, %function
 853              	Timer_ReadCompareBuf:
 854              	.LFB27:
 948:.\Generated_Source\PSoC4/Timer.c **** 
 949:.\Generated_Source\PSoC4/Timer.c **** 
 950:.\Generated_Source\PSoC4/Timer.c **** /*******************************************************************************
 951:.\Generated_Source\PSoC4/Timer.c **** * Function Name: Timer_ReadCompareBuf
 952:.\Generated_Source\PSoC4/Timer.c **** ********************************************************************************
 953:.\Generated_Source\PSoC4/Timer.c **** *
 954:.\Generated_Source\PSoC4/Timer.c **** * Summary:
 955:.\Generated_Source\PSoC4/Timer.c **** *  Reads the compare buffer register. Not applicable for Timer/Counter with
 956:.\Generated_Source\PSoC4/Timer.c **** *  Capture or in Quadrature Decoder modes.
 957:.\Generated_Source\PSoC4/Timer.c **** *
 958:.\Generated_Source\PSoC4/Timer.c **** * Parameters:
 959:.\Generated_Source\PSoC4/Timer.c **** *  None
 960:.\Generated_Source\PSoC4/Timer.c **** *
 961:.\Generated_Source\PSoC4/Timer.c **** * Return:
 962:.\Generated_Source\PSoC4/Timer.c **** *  Compare buffer value
 963:.\Generated_Source\PSoC4/Timer.c **** *
 964:.\Generated_Source\PSoC4/Timer.c **** *******************************************************************************/
 965:.\Generated_Source\PSoC4/Timer.c **** uint32 Timer_ReadCompareBuf(void)
 966:.\Generated_Source\PSoC4/Timer.c **** {
 855              		.loc 1 966 0
 856              		.cfi_startproc
 967:.\Generated_Source\PSoC4/Timer.c ****     #if (Timer_CY_TCPWM_4000)
 968:.\Generated_Source\PSoC4/Timer.c ****         uint32 currentMode;
ARM GAS  C:\Users\Luci\AppData\Local\Temp\ccUHbIZG.s 			page 33


 969:.\Generated_Source\PSoC4/Timer.c ****         uint32 regVal;
 970:.\Generated_Source\PSoC4/Timer.c ****     #endif /* (Timer_CY_TCPWM_4000) */
 971:.\Generated_Source\PSoC4/Timer.c **** 
 972:.\Generated_Source\PSoC4/Timer.c ****     #if (Timer_CY_TCPWM_4000)
 973:.\Generated_Source\PSoC4/Timer.c ****         currentMode = ((Timer_CONTROL_REG & Timer_UPDOWN_MASK) >> Timer_UPDOWN_SHIFT);
 974:.\Generated_Source\PSoC4/Timer.c **** 
 975:.\Generated_Source\PSoC4/Timer.c ****         regVal = Timer_COMP_CAP_BUF_REG;
 976:.\Generated_Source\PSoC4/Timer.c ****         
 977:.\Generated_Source\PSoC4/Timer.c ****         if (((uint32)Timer__COUNT_DOWN == currentMode) && (0u != regVal))
 978:.\Generated_Source\PSoC4/Timer.c ****         {
 979:.\Generated_Source\PSoC4/Timer.c ****             regVal--;
 980:.\Generated_Source\PSoC4/Timer.c ****         }
 981:.\Generated_Source\PSoC4/Timer.c ****         else if (((uint32)Timer__COUNT_UP == currentMode) && (0xFFFFu != regVal))
 982:.\Generated_Source\PSoC4/Timer.c ****         {
 983:.\Generated_Source\PSoC4/Timer.c ****             regVal++;
 984:.\Generated_Source\PSoC4/Timer.c ****         }
 985:.\Generated_Source\PSoC4/Timer.c ****         else
 986:.\Generated_Source\PSoC4/Timer.c ****         {
 987:.\Generated_Source\PSoC4/Timer.c ****         }
 988:.\Generated_Source\PSoC4/Timer.c **** 
 989:.\Generated_Source\PSoC4/Timer.c ****         return (regVal & Timer_16BIT_MASK);
 990:.\Generated_Source\PSoC4/Timer.c ****     #else
 991:.\Generated_Source\PSoC4/Timer.c ****         return (Timer_COMP_CAP_BUF_REG & Timer_16BIT_MASK);
 857              		.loc 1 991 0
 858 0000 024B     		ldr	r3, .L71
 859 0002 1868     		ldr	r0, [r3]
 860 0004 0004     		lsl	r0, r0, #16
 861 0006 000C     		lsr	r0, r0, #16
 992:.\Generated_Source\PSoC4/Timer.c ****     #endif /* (Timer_CY_TCPWM_4000) */
 993:.\Generated_Source\PSoC4/Timer.c **** }
 862              		.loc 1 993 0
 863              		@ sp needed
 864 0008 7047     		bx	lr
 865              	.L72:
 866 000a C046     		.align	2
 867              	.L71:
 868 000c 10012040 		.word	1075839248
 869              		.cfi_endproc
 870              	.LFE27:
 871              		.size	Timer_ReadCompareBuf, .-Timer_ReadCompareBuf
 872              		.section	.text.Timer_ReadCapture,"ax",%progbits
 873              		.align	2
 874              		.global	Timer_ReadCapture
 875              		.code	16
 876              		.thumb_func
 877              		.type	Timer_ReadCapture, %function
 878              	Timer_ReadCapture:
 879              	.LFB28:
 994:.\Generated_Source\PSoC4/Timer.c **** 
 995:.\Generated_Source\PSoC4/Timer.c **** 
 996:.\Generated_Source\PSoC4/Timer.c **** /*******************************************************************************
 997:.\Generated_Source\PSoC4/Timer.c **** * Function Name: Timer_ReadCapture
 998:.\Generated_Source\PSoC4/Timer.c **** ********************************************************************************
 999:.\Generated_Source\PSoC4/Timer.c **** *
1000:.\Generated_Source\PSoC4/Timer.c **** * Summary:
1001:.\Generated_Source\PSoC4/Timer.c **** *  Reads the captured counter value. This API is applicable only for
1002:.\Generated_Source\PSoC4/Timer.c **** *  Timer/Counter with the capture mode and Quadrature Decoder modes.
ARM GAS  C:\Users\Luci\AppData\Local\Temp\ccUHbIZG.s 			page 34


1003:.\Generated_Source\PSoC4/Timer.c **** *
1004:.\Generated_Source\PSoC4/Timer.c **** * Parameters:
1005:.\Generated_Source\PSoC4/Timer.c **** *  None
1006:.\Generated_Source\PSoC4/Timer.c **** *
1007:.\Generated_Source\PSoC4/Timer.c **** * Return:
1008:.\Generated_Source\PSoC4/Timer.c **** *  Capture value
1009:.\Generated_Source\PSoC4/Timer.c **** *
1010:.\Generated_Source\PSoC4/Timer.c **** *******************************************************************************/
1011:.\Generated_Source\PSoC4/Timer.c **** uint32 Timer_ReadCapture(void)
1012:.\Generated_Source\PSoC4/Timer.c **** {
 880              		.loc 1 1012 0
 881              		.cfi_startproc
1013:.\Generated_Source\PSoC4/Timer.c ****     return (Timer_COMP_CAP_REG & Timer_16BIT_MASK);
 882              		.loc 1 1013 0
 883 0000 024B     		ldr	r3, .L74
 884 0002 1868     		ldr	r0, [r3]
 885 0004 0004     		lsl	r0, r0, #16
 886 0006 000C     		lsr	r0, r0, #16
1014:.\Generated_Source\PSoC4/Timer.c **** }
 887              		.loc 1 1014 0
 888              		@ sp needed
 889 0008 7047     		bx	lr
 890              	.L75:
 891 000a C046     		.align	2
 892              	.L74:
 893 000c 0C012040 		.word	1075839244
 894              		.cfi_endproc
 895              	.LFE28:
 896              		.size	Timer_ReadCapture, .-Timer_ReadCapture
 897              		.section	.text.Timer_ReadCaptureBuf,"ax",%progbits
 898              		.align	2
 899              		.global	Timer_ReadCaptureBuf
 900              		.code	16
 901              		.thumb_func
 902              		.type	Timer_ReadCaptureBuf, %function
 903              	Timer_ReadCaptureBuf:
 904              	.LFB29:
1015:.\Generated_Source\PSoC4/Timer.c **** 
1016:.\Generated_Source\PSoC4/Timer.c **** 
1017:.\Generated_Source\PSoC4/Timer.c **** /*******************************************************************************
1018:.\Generated_Source\PSoC4/Timer.c **** * Function Name: Timer_ReadCaptureBuf
1019:.\Generated_Source\PSoC4/Timer.c **** ********************************************************************************
1020:.\Generated_Source\PSoC4/Timer.c **** *
1021:.\Generated_Source\PSoC4/Timer.c **** * Summary:
1022:.\Generated_Source\PSoC4/Timer.c **** *  Reads the capture buffer register. This API is applicable only for
1023:.\Generated_Source\PSoC4/Timer.c **** *  Timer/Counter with the capture mode and Quadrature Decoder modes.
1024:.\Generated_Source\PSoC4/Timer.c **** *
1025:.\Generated_Source\PSoC4/Timer.c **** * Parameters:
1026:.\Generated_Source\PSoC4/Timer.c **** *  None
1027:.\Generated_Source\PSoC4/Timer.c **** *
1028:.\Generated_Source\PSoC4/Timer.c **** * Return:
1029:.\Generated_Source\PSoC4/Timer.c **** *  Capture buffer value
1030:.\Generated_Source\PSoC4/Timer.c **** *
1031:.\Generated_Source\PSoC4/Timer.c **** *******************************************************************************/
1032:.\Generated_Source\PSoC4/Timer.c **** uint32 Timer_ReadCaptureBuf(void)
1033:.\Generated_Source\PSoC4/Timer.c **** {
 905              		.loc 1 1033 0
ARM GAS  C:\Users\Luci\AppData\Local\Temp\ccUHbIZG.s 			page 35


 906              		.cfi_startproc
1034:.\Generated_Source\PSoC4/Timer.c ****     return (Timer_COMP_CAP_BUF_REG & Timer_16BIT_MASK);
 907              		.loc 1 1034 0
 908 0000 024B     		ldr	r3, .L77
 909 0002 1868     		ldr	r0, [r3]
 910 0004 0004     		lsl	r0, r0, #16
 911 0006 000C     		lsr	r0, r0, #16
1035:.\Generated_Source\PSoC4/Timer.c **** }
 912              		.loc 1 1035 0
 913              		@ sp needed
 914 0008 7047     		bx	lr
 915              	.L78:
 916 000a C046     		.align	2
 917              	.L77:
 918 000c 10012040 		.word	1075839248
 919              		.cfi_endproc
 920              	.LFE29:
 921              		.size	Timer_ReadCaptureBuf, .-Timer_ReadCaptureBuf
 922              		.section	.text.Timer_SetCaptureMode,"ax",%progbits
 923              		.align	2
 924              		.global	Timer_SetCaptureMode
 925              		.code	16
 926              		.thumb_func
 927              		.type	Timer_SetCaptureMode, %function
 928              	Timer_SetCaptureMode:
 929              	.LFB30:
1036:.\Generated_Source\PSoC4/Timer.c **** 
1037:.\Generated_Source\PSoC4/Timer.c **** 
1038:.\Generated_Source\PSoC4/Timer.c **** /*******************************************************************************
1039:.\Generated_Source\PSoC4/Timer.c **** * Function Name: Timer_SetCaptureMode
1040:.\Generated_Source\PSoC4/Timer.c **** ********************************************************************************
1041:.\Generated_Source\PSoC4/Timer.c **** *
1042:.\Generated_Source\PSoC4/Timer.c **** * Summary:
1043:.\Generated_Source\PSoC4/Timer.c **** *  Sets the capture trigger mode. For PWM mode this is the switch input.
1044:.\Generated_Source\PSoC4/Timer.c **** *  This input is not applicable to the Timer/Counter without Capture and
1045:.\Generated_Source\PSoC4/Timer.c **** *  Quadrature Decoder modes.
1046:.\Generated_Source\PSoC4/Timer.c **** *
1047:.\Generated_Source\PSoC4/Timer.c **** * Parameters:
1048:.\Generated_Source\PSoC4/Timer.c **** *  triggerMode: Enumerated trigger mode value
1049:.\Generated_Source\PSoC4/Timer.c **** *   Values:
1050:.\Generated_Source\PSoC4/Timer.c **** *     - Timer_TRIG_LEVEL     - Level
1051:.\Generated_Source\PSoC4/Timer.c **** *     - Timer_TRIG_RISING    - Rising edge
1052:.\Generated_Source\PSoC4/Timer.c **** *     - Timer_TRIG_FALLING   - Falling edge
1053:.\Generated_Source\PSoC4/Timer.c **** *     - Timer_TRIG_BOTH      - Both rising and falling edge
1054:.\Generated_Source\PSoC4/Timer.c **** *
1055:.\Generated_Source\PSoC4/Timer.c **** * Return:
1056:.\Generated_Source\PSoC4/Timer.c **** *  None
1057:.\Generated_Source\PSoC4/Timer.c **** *
1058:.\Generated_Source\PSoC4/Timer.c **** *******************************************************************************/
1059:.\Generated_Source\PSoC4/Timer.c **** void Timer_SetCaptureMode(uint32 triggerMode)
1060:.\Generated_Source\PSoC4/Timer.c **** {
 930              		.loc 1 1060 0
 931              		.cfi_startproc
 932              	.LVL60:
 933 0000 10B5     		push	{r4, lr}
 934              		.cfi_def_cfa_offset 8
 935              		.cfi_offset 4, -8
ARM GAS  C:\Users\Luci\AppData\Local\Temp\ccUHbIZG.s 			page 36


 936              		.cfi_offset 14, -4
 937 0002 041C     		mov	r4, r0
1061:.\Generated_Source\PSoC4/Timer.c ****     uint8 enableInterrupts;
1062:.\Generated_Source\PSoC4/Timer.c **** 
1063:.\Generated_Source\PSoC4/Timer.c ****     enableInterrupts = CyEnterCriticalSection();
 938              		.loc 1 1063 0
 939 0004 FFF7FEFF 		bl	CyEnterCriticalSection
 940              	.LVL61:
1064:.\Generated_Source\PSoC4/Timer.c **** 
1065:.\Generated_Source\PSoC4/Timer.c ****     Timer_TRIG_CONTROL1_REG &= (uint32)~Timer_CAPTURE_MASK;
 941              		.loc 1 1065 0
 942 0008 054B     		ldr	r3, .L80
 943 000a 1A68     		ldr	r2, [r3]
 944 000c 0321     		mov	r1, #3
 945 000e 8A43     		bic	r2, r1
 946 0010 1A60     		str	r2, [r3]
1066:.\Generated_Source\PSoC4/Timer.c ****     Timer_TRIG_CONTROL1_REG |= triggerMode;
 947              		.loc 1 1066 0
 948 0012 1A68     		ldr	r2, [r3]
 949 0014 1443     		orr	r4, r2
 950              	.LVL62:
 951 0016 1C60     		str	r4, [r3]
1067:.\Generated_Source\PSoC4/Timer.c **** 
1068:.\Generated_Source\PSoC4/Timer.c ****     CyExitCriticalSection(enableInterrupts);
 952              		.loc 1 1068 0
 953 0018 FFF7FEFF 		bl	CyExitCriticalSection
 954              	.LVL63:
1069:.\Generated_Source\PSoC4/Timer.c **** }
 955              		.loc 1 1069 0
 956              		@ sp needed
 957 001c 10BD     		pop	{r4, pc}
 958              	.L81:
 959 001e C046     		.align	2
 960              	.L80:
 961 0020 24012040 		.word	1075839268
 962              		.cfi_endproc
 963              	.LFE30:
 964              		.size	Timer_SetCaptureMode, .-Timer_SetCaptureMode
 965              		.section	.text.Timer_SetReloadMode,"ax",%progbits
 966              		.align	2
 967              		.global	Timer_SetReloadMode
 968              		.code	16
 969              		.thumb_func
 970              		.type	Timer_SetReloadMode, %function
 971              	Timer_SetReloadMode:
 972              	.LFB31:
1070:.\Generated_Source\PSoC4/Timer.c **** 
1071:.\Generated_Source\PSoC4/Timer.c **** 
1072:.\Generated_Source\PSoC4/Timer.c **** /*******************************************************************************
1073:.\Generated_Source\PSoC4/Timer.c **** * Function Name: Timer_SetReloadMode
1074:.\Generated_Source\PSoC4/Timer.c **** ********************************************************************************
1075:.\Generated_Source\PSoC4/Timer.c **** *
1076:.\Generated_Source\PSoC4/Timer.c **** * Summary:
1077:.\Generated_Source\PSoC4/Timer.c **** *  Sets the reload trigger mode. For Quadrature Decoder mode this is the index
1078:.\Generated_Source\PSoC4/Timer.c **** *  input.
1079:.\Generated_Source\PSoC4/Timer.c **** *
1080:.\Generated_Source\PSoC4/Timer.c **** * Parameters:
ARM GAS  C:\Users\Luci\AppData\Local\Temp\ccUHbIZG.s 			page 37


1081:.\Generated_Source\PSoC4/Timer.c **** *  triggerMode: Enumerated trigger mode value
1082:.\Generated_Source\PSoC4/Timer.c **** *   Values:
1083:.\Generated_Source\PSoC4/Timer.c **** *     - Timer_TRIG_LEVEL     - Level
1084:.\Generated_Source\PSoC4/Timer.c **** *     - Timer_TRIG_RISING    - Rising edge
1085:.\Generated_Source\PSoC4/Timer.c **** *     - Timer_TRIG_FALLING   - Falling edge
1086:.\Generated_Source\PSoC4/Timer.c **** *     - Timer_TRIG_BOTH      - Both rising and falling edge
1087:.\Generated_Source\PSoC4/Timer.c **** *
1088:.\Generated_Source\PSoC4/Timer.c **** * Return:
1089:.\Generated_Source\PSoC4/Timer.c **** *  None
1090:.\Generated_Source\PSoC4/Timer.c **** *
1091:.\Generated_Source\PSoC4/Timer.c **** *******************************************************************************/
1092:.\Generated_Source\PSoC4/Timer.c **** void Timer_SetReloadMode(uint32 triggerMode)
1093:.\Generated_Source\PSoC4/Timer.c **** {
 973              		.loc 1 1093 0
 974              		.cfi_startproc
 975              	.LVL64:
 976 0000 10B5     		push	{r4, lr}
 977              		.cfi_def_cfa_offset 8
 978              		.cfi_offset 4, -8
 979              		.cfi_offset 14, -4
 980 0002 041C     		mov	r4, r0
1094:.\Generated_Source\PSoC4/Timer.c ****     uint8 enableInterrupts;
1095:.\Generated_Source\PSoC4/Timer.c **** 
1096:.\Generated_Source\PSoC4/Timer.c ****     enableInterrupts = CyEnterCriticalSection();
 981              		.loc 1 1096 0
 982 0004 FFF7FEFF 		bl	CyEnterCriticalSection
 983              	.LVL65:
1097:.\Generated_Source\PSoC4/Timer.c **** 
1098:.\Generated_Source\PSoC4/Timer.c ****     Timer_TRIG_CONTROL1_REG &= (uint32)~Timer_RELOAD_MASK;
 984              		.loc 1 1098 0
 985 0008 054B     		ldr	r3, .L83
 986 000a 1A68     		ldr	r2, [r3]
 987 000c 3021     		mov	r1, #48
 988 000e 8A43     		bic	r2, r1
 989 0010 1A60     		str	r2, [r3]
1099:.\Generated_Source\PSoC4/Timer.c ****     Timer_TRIG_CONTROL1_REG |= ((uint32)(triggerMode << Timer_RELOAD_SHIFT));
 990              		.loc 1 1099 0
 991 0012 1A68     		ldr	r2, [r3]
 992 0014 2401     		lsl	r4, r4, #4
 993              	.LVL66:
 994 0016 1443     		orr	r4, r2
 995 0018 1C60     		str	r4, [r3]
1100:.\Generated_Source\PSoC4/Timer.c **** 
1101:.\Generated_Source\PSoC4/Timer.c ****     CyExitCriticalSection(enableInterrupts);
 996              		.loc 1 1101 0
 997 001a FFF7FEFF 		bl	CyExitCriticalSection
 998              	.LVL67:
1102:.\Generated_Source\PSoC4/Timer.c **** }
 999              		.loc 1 1102 0
 1000              		@ sp needed
 1001 001e 10BD     		pop	{r4, pc}
 1002              	.L84:
 1003              		.align	2
 1004              	.L83:
 1005 0020 24012040 		.word	1075839268
 1006              		.cfi_endproc
 1007              	.LFE31:
ARM GAS  C:\Users\Luci\AppData\Local\Temp\ccUHbIZG.s 			page 38


 1008              		.size	Timer_SetReloadMode, .-Timer_SetReloadMode
 1009              		.section	.text.Timer_SetStartMode,"ax",%progbits
 1010              		.align	2
 1011              		.global	Timer_SetStartMode
 1012              		.code	16
 1013              		.thumb_func
 1014              		.type	Timer_SetStartMode, %function
 1015              	Timer_SetStartMode:
 1016              	.LFB32:
1103:.\Generated_Source\PSoC4/Timer.c **** 
1104:.\Generated_Source\PSoC4/Timer.c **** 
1105:.\Generated_Source\PSoC4/Timer.c **** /*******************************************************************************
1106:.\Generated_Source\PSoC4/Timer.c **** * Function Name: Timer_SetStartMode
1107:.\Generated_Source\PSoC4/Timer.c **** ********************************************************************************
1108:.\Generated_Source\PSoC4/Timer.c **** *
1109:.\Generated_Source\PSoC4/Timer.c **** * Summary:
1110:.\Generated_Source\PSoC4/Timer.c **** *  Sets the start trigger mode. For Quadrature Decoder mode this is the
1111:.\Generated_Source\PSoC4/Timer.c **** *  phiB input.
1112:.\Generated_Source\PSoC4/Timer.c **** *
1113:.\Generated_Source\PSoC4/Timer.c **** * Parameters:
1114:.\Generated_Source\PSoC4/Timer.c **** *  triggerMode: Enumerated trigger mode value
1115:.\Generated_Source\PSoC4/Timer.c **** *   Values:
1116:.\Generated_Source\PSoC4/Timer.c **** *     - Timer_TRIG_LEVEL     - Level
1117:.\Generated_Source\PSoC4/Timer.c **** *     - Timer_TRIG_RISING    - Rising edge
1118:.\Generated_Source\PSoC4/Timer.c **** *     - Timer_TRIG_FALLING   - Falling edge
1119:.\Generated_Source\PSoC4/Timer.c **** *     - Timer_TRIG_BOTH      - Both rising and falling edge
1120:.\Generated_Source\PSoC4/Timer.c **** *
1121:.\Generated_Source\PSoC4/Timer.c **** * Return:
1122:.\Generated_Source\PSoC4/Timer.c **** *  None
1123:.\Generated_Source\PSoC4/Timer.c **** *
1124:.\Generated_Source\PSoC4/Timer.c **** *******************************************************************************/
1125:.\Generated_Source\PSoC4/Timer.c **** void Timer_SetStartMode(uint32 triggerMode)
1126:.\Generated_Source\PSoC4/Timer.c **** {
 1017              		.loc 1 1126 0
 1018              		.cfi_startproc
 1019              	.LVL68:
 1020 0000 10B5     		push	{r4, lr}
 1021              		.cfi_def_cfa_offset 8
 1022              		.cfi_offset 4, -8
 1023              		.cfi_offset 14, -4
 1024 0002 041C     		mov	r4, r0
1127:.\Generated_Source\PSoC4/Timer.c ****     uint8 enableInterrupts;
1128:.\Generated_Source\PSoC4/Timer.c **** 
1129:.\Generated_Source\PSoC4/Timer.c ****     enableInterrupts = CyEnterCriticalSection();
 1025              		.loc 1 1129 0
 1026 0004 FFF7FEFF 		bl	CyEnterCriticalSection
 1027              	.LVL69:
1130:.\Generated_Source\PSoC4/Timer.c **** 
1131:.\Generated_Source\PSoC4/Timer.c ****     Timer_TRIG_CONTROL1_REG &= (uint32)~Timer_START_MASK;
 1028              		.loc 1 1131 0
 1029 0008 054B     		ldr	r3, .L86
 1030 000a 1968     		ldr	r1, [r3]
 1031 000c 054A     		ldr	r2, .L86+4
 1032 000e 0A40     		and	r2, r1
 1033 0010 1A60     		str	r2, [r3]
1132:.\Generated_Source\PSoC4/Timer.c ****     Timer_TRIG_CONTROL1_REG |= ((uint32)(triggerMode << Timer_START_SHIFT));
 1034              		.loc 1 1132 0
ARM GAS  C:\Users\Luci\AppData\Local\Temp\ccUHbIZG.s 			page 39


 1035 0012 1A68     		ldr	r2, [r3]
 1036 0014 2402     		lsl	r4, r4, #8
 1037              	.LVL70:
 1038 0016 1443     		orr	r4, r2
 1039 0018 1C60     		str	r4, [r3]
1133:.\Generated_Source\PSoC4/Timer.c **** 
1134:.\Generated_Source\PSoC4/Timer.c ****     CyExitCriticalSection(enableInterrupts);
 1040              		.loc 1 1134 0
 1041 001a FFF7FEFF 		bl	CyExitCriticalSection
 1042              	.LVL71:
1135:.\Generated_Source\PSoC4/Timer.c **** }
 1043              		.loc 1 1135 0
 1044              		@ sp needed
 1045 001e 10BD     		pop	{r4, pc}
 1046              	.L87:
 1047              		.align	2
 1048              	.L86:
 1049 0020 24012040 		.word	1075839268
 1050 0024 FFFCFFFF 		.word	-769
 1051              		.cfi_endproc
 1052              	.LFE32:
 1053              		.size	Timer_SetStartMode, .-Timer_SetStartMode
 1054              		.section	.text.Timer_SetStopMode,"ax",%progbits
 1055              		.align	2
 1056              		.global	Timer_SetStopMode
 1057              		.code	16
 1058              		.thumb_func
 1059              		.type	Timer_SetStopMode, %function
 1060              	Timer_SetStopMode:
 1061              	.LFB33:
1136:.\Generated_Source\PSoC4/Timer.c **** 
1137:.\Generated_Source\PSoC4/Timer.c **** 
1138:.\Generated_Source\PSoC4/Timer.c **** /*******************************************************************************
1139:.\Generated_Source\PSoC4/Timer.c **** * Function Name: Timer_SetStopMode
1140:.\Generated_Source\PSoC4/Timer.c **** ********************************************************************************
1141:.\Generated_Source\PSoC4/Timer.c **** *
1142:.\Generated_Source\PSoC4/Timer.c **** * Summary:
1143:.\Generated_Source\PSoC4/Timer.c **** *  Sets the stop trigger mode. For PWM mode this is the kill input.
1144:.\Generated_Source\PSoC4/Timer.c **** *
1145:.\Generated_Source\PSoC4/Timer.c **** * Parameters:
1146:.\Generated_Source\PSoC4/Timer.c **** *  triggerMode: Enumerated trigger mode value
1147:.\Generated_Source\PSoC4/Timer.c **** *   Values:
1148:.\Generated_Source\PSoC4/Timer.c **** *     - Timer_TRIG_LEVEL     - Level
1149:.\Generated_Source\PSoC4/Timer.c **** *     - Timer_TRIG_RISING    - Rising edge
1150:.\Generated_Source\PSoC4/Timer.c **** *     - Timer_TRIG_FALLING   - Falling edge
1151:.\Generated_Source\PSoC4/Timer.c **** *     - Timer_TRIG_BOTH      - Both rising and falling edge
1152:.\Generated_Source\PSoC4/Timer.c **** *
1153:.\Generated_Source\PSoC4/Timer.c **** * Return:
1154:.\Generated_Source\PSoC4/Timer.c **** *  None
1155:.\Generated_Source\PSoC4/Timer.c **** *
1156:.\Generated_Source\PSoC4/Timer.c **** *******************************************************************************/
1157:.\Generated_Source\PSoC4/Timer.c **** void Timer_SetStopMode(uint32 triggerMode)
1158:.\Generated_Source\PSoC4/Timer.c **** {
 1062              		.loc 1 1158 0
 1063              		.cfi_startproc
 1064              	.LVL72:
 1065 0000 10B5     		push	{r4, lr}
ARM GAS  C:\Users\Luci\AppData\Local\Temp\ccUHbIZG.s 			page 40


 1066              		.cfi_def_cfa_offset 8
 1067              		.cfi_offset 4, -8
 1068              		.cfi_offset 14, -4
 1069 0002 041C     		mov	r4, r0
1159:.\Generated_Source\PSoC4/Timer.c ****     uint8 enableInterrupts;
1160:.\Generated_Source\PSoC4/Timer.c **** 
1161:.\Generated_Source\PSoC4/Timer.c ****     enableInterrupts = CyEnterCriticalSection();
 1070              		.loc 1 1161 0
 1071 0004 FFF7FEFF 		bl	CyEnterCriticalSection
 1072              	.LVL73:
1162:.\Generated_Source\PSoC4/Timer.c **** 
1163:.\Generated_Source\PSoC4/Timer.c ****     Timer_TRIG_CONTROL1_REG &= (uint32)~Timer_STOP_MASK;
 1073              		.loc 1 1163 0
 1074 0008 054B     		ldr	r3, .L89
 1075 000a 1A68     		ldr	r2, [r3]
 1076 000c C021     		mov	r1, #192
 1077 000e 8A43     		bic	r2, r1
 1078 0010 1A60     		str	r2, [r3]
1164:.\Generated_Source\PSoC4/Timer.c ****     Timer_TRIG_CONTROL1_REG |= ((uint32)(triggerMode << Timer_STOP_SHIFT));
 1079              		.loc 1 1164 0
 1080 0012 1A68     		ldr	r2, [r3]
 1081 0014 A401     		lsl	r4, r4, #6
 1082              	.LVL74:
 1083 0016 1443     		orr	r4, r2
 1084 0018 1C60     		str	r4, [r3]
1165:.\Generated_Source\PSoC4/Timer.c **** 
1166:.\Generated_Source\PSoC4/Timer.c ****     CyExitCriticalSection(enableInterrupts);
 1085              		.loc 1 1166 0
 1086 001a FFF7FEFF 		bl	CyExitCriticalSection
 1087              	.LVL75:
1167:.\Generated_Source\PSoC4/Timer.c **** }
 1088              		.loc 1 1167 0
 1089              		@ sp needed
 1090 001e 10BD     		pop	{r4, pc}
 1091              	.L90:
 1092              		.align	2
 1093              	.L89:
 1094 0020 24012040 		.word	1075839268
 1095              		.cfi_endproc
 1096              	.LFE33:
 1097              		.size	Timer_SetStopMode, .-Timer_SetStopMode
 1098              		.section	.text.Timer_SetCountMode,"ax",%progbits
 1099              		.align	2
 1100              		.global	Timer_SetCountMode
 1101              		.code	16
 1102              		.thumb_func
 1103              		.type	Timer_SetCountMode, %function
 1104              	Timer_SetCountMode:
 1105              	.LFB34:
1168:.\Generated_Source\PSoC4/Timer.c **** 
1169:.\Generated_Source\PSoC4/Timer.c **** 
1170:.\Generated_Source\PSoC4/Timer.c **** /*******************************************************************************
1171:.\Generated_Source\PSoC4/Timer.c **** * Function Name: Timer_SetCountMode
1172:.\Generated_Source\PSoC4/Timer.c **** ********************************************************************************
1173:.\Generated_Source\PSoC4/Timer.c **** *
1174:.\Generated_Source\PSoC4/Timer.c **** * Summary:
1175:.\Generated_Source\PSoC4/Timer.c **** *  Sets the count trigger mode. For Quadrature Decoder mode this is the phiA
ARM GAS  C:\Users\Luci\AppData\Local\Temp\ccUHbIZG.s 			page 41


1176:.\Generated_Source\PSoC4/Timer.c **** *  input.
1177:.\Generated_Source\PSoC4/Timer.c **** *
1178:.\Generated_Source\PSoC4/Timer.c **** * Parameters:
1179:.\Generated_Source\PSoC4/Timer.c **** *  triggerMode: Enumerated trigger mode value
1180:.\Generated_Source\PSoC4/Timer.c **** *   Values:
1181:.\Generated_Source\PSoC4/Timer.c **** *     - Timer_TRIG_LEVEL     - Level
1182:.\Generated_Source\PSoC4/Timer.c **** *     - Timer_TRIG_RISING    - Rising edge
1183:.\Generated_Source\PSoC4/Timer.c **** *     - Timer_TRIG_FALLING   - Falling edge
1184:.\Generated_Source\PSoC4/Timer.c **** *     - Timer_TRIG_BOTH      - Both rising and falling edge
1185:.\Generated_Source\PSoC4/Timer.c **** *
1186:.\Generated_Source\PSoC4/Timer.c **** * Return:
1187:.\Generated_Source\PSoC4/Timer.c **** *  None
1188:.\Generated_Source\PSoC4/Timer.c **** *
1189:.\Generated_Source\PSoC4/Timer.c **** *******************************************************************************/
1190:.\Generated_Source\PSoC4/Timer.c **** void Timer_SetCountMode(uint32 triggerMode)
1191:.\Generated_Source\PSoC4/Timer.c **** {
 1106              		.loc 1 1191 0
 1107              		.cfi_startproc
 1108              	.LVL76:
 1109 0000 10B5     		push	{r4, lr}
 1110              		.cfi_def_cfa_offset 8
 1111              		.cfi_offset 4, -8
 1112              		.cfi_offset 14, -4
 1113 0002 041C     		mov	r4, r0
1192:.\Generated_Source\PSoC4/Timer.c ****     uint8 enableInterrupts;
1193:.\Generated_Source\PSoC4/Timer.c **** 
1194:.\Generated_Source\PSoC4/Timer.c ****     enableInterrupts = CyEnterCriticalSection();
 1114              		.loc 1 1194 0
 1115 0004 FFF7FEFF 		bl	CyEnterCriticalSection
 1116              	.LVL77:
1195:.\Generated_Source\PSoC4/Timer.c **** 
1196:.\Generated_Source\PSoC4/Timer.c ****     Timer_TRIG_CONTROL1_REG &= (uint32)~Timer_COUNT_MASK;
 1117              		.loc 1 1196 0
 1118 0008 054B     		ldr	r3, .L92
 1119 000a 1A68     		ldr	r2, [r3]
 1120 000c 0C21     		mov	r1, #12
 1121 000e 8A43     		bic	r2, r1
 1122 0010 1A60     		str	r2, [r3]
1197:.\Generated_Source\PSoC4/Timer.c ****     Timer_TRIG_CONTROL1_REG |= ((uint32)(triggerMode << Timer_COUNT_SHIFT));
 1123              		.loc 1 1197 0
 1124 0012 1A68     		ldr	r2, [r3]
 1125 0014 A400     		lsl	r4, r4, #2
 1126              	.LVL78:
 1127 0016 1443     		orr	r4, r2
 1128 0018 1C60     		str	r4, [r3]
1198:.\Generated_Source\PSoC4/Timer.c **** 
1199:.\Generated_Source\PSoC4/Timer.c ****     CyExitCriticalSection(enableInterrupts);
 1129              		.loc 1 1199 0
 1130 001a FFF7FEFF 		bl	CyExitCriticalSection
 1131              	.LVL79:
1200:.\Generated_Source\PSoC4/Timer.c **** }
 1132              		.loc 1 1200 0
 1133              		@ sp needed
 1134 001e 10BD     		pop	{r4, pc}
 1135              	.L93:
 1136              		.align	2
 1137              	.L92:
ARM GAS  C:\Users\Luci\AppData\Local\Temp\ccUHbIZG.s 			page 42


 1138 0020 24012040 		.word	1075839268
 1139              		.cfi_endproc
 1140              	.LFE34:
 1141              		.size	Timer_SetCountMode, .-Timer_SetCountMode
 1142              		.section	.text.Timer_TriggerCommand,"ax",%progbits
 1143              		.align	2
 1144              		.global	Timer_TriggerCommand
 1145              		.code	16
 1146              		.thumb_func
 1147              		.type	Timer_TriggerCommand, %function
 1148              	Timer_TriggerCommand:
 1149              	.LFB35:
1201:.\Generated_Source\PSoC4/Timer.c **** 
1202:.\Generated_Source\PSoC4/Timer.c **** 
1203:.\Generated_Source\PSoC4/Timer.c **** /*******************************************************************************
1204:.\Generated_Source\PSoC4/Timer.c **** * Function Name: Timer_TriggerCommand
1205:.\Generated_Source\PSoC4/Timer.c **** ********************************************************************************
1206:.\Generated_Source\PSoC4/Timer.c **** *
1207:.\Generated_Source\PSoC4/Timer.c **** * Summary:
1208:.\Generated_Source\PSoC4/Timer.c **** *  Triggers the designated command to occur on the designated TCPWM instances.
1209:.\Generated_Source\PSoC4/Timer.c **** *  The mask can be used to apply this command simultaneously to more than one
1210:.\Generated_Source\PSoC4/Timer.c **** *  instance.  This allows multiple TCPWM instances to be synchronized.
1211:.\Generated_Source\PSoC4/Timer.c **** *
1212:.\Generated_Source\PSoC4/Timer.c **** * Parameters:
1213:.\Generated_Source\PSoC4/Timer.c **** *  mask: A combination of mask bits for each instance of the TCPWM that the
1214:.\Generated_Source\PSoC4/Timer.c **** *        command should apply to.  This function from one instance can be used
1215:.\Generated_Source\PSoC4/Timer.c **** *        to apply the command to any of the instances in the design.
1216:.\Generated_Source\PSoC4/Timer.c **** *        The mask value for a specific instance is available with the MASK
1217:.\Generated_Source\PSoC4/Timer.c **** *        define.
1218:.\Generated_Source\PSoC4/Timer.c **** *  command: Enumerated command values. Capture command only applicable for
1219:.\Generated_Source\PSoC4/Timer.c **** *           Timer/Counter with Capture and PWM modes.
1220:.\Generated_Source\PSoC4/Timer.c **** *   Values:
1221:.\Generated_Source\PSoC4/Timer.c **** *     - Timer_CMD_CAPTURE    - Trigger Capture command
1222:.\Generated_Source\PSoC4/Timer.c **** *     - Timer_CMD_RELOAD     - Trigger Reload command
1223:.\Generated_Source\PSoC4/Timer.c **** *     - Timer_CMD_STOP       - Trigger Stop command
1224:.\Generated_Source\PSoC4/Timer.c **** *     - Timer_CMD_START      - Trigger Start command
1225:.\Generated_Source\PSoC4/Timer.c **** *
1226:.\Generated_Source\PSoC4/Timer.c **** * Return:
1227:.\Generated_Source\PSoC4/Timer.c **** *  None
1228:.\Generated_Source\PSoC4/Timer.c **** *
1229:.\Generated_Source\PSoC4/Timer.c **** *******************************************************************************/
1230:.\Generated_Source\PSoC4/Timer.c **** void Timer_TriggerCommand(uint32 mask, uint32 command)
1231:.\Generated_Source\PSoC4/Timer.c **** {
 1150              		.loc 1 1231 0
 1151              		.cfi_startproc
 1152              	.LVL80:
 1153 0000 38B5     		push	{r3, r4, r5, lr}
 1154              		.cfi_def_cfa_offset 16
 1155              		.cfi_offset 3, -16
 1156              		.cfi_offset 4, -12
 1157              		.cfi_offset 5, -8
 1158              		.cfi_offset 14, -4
 1159 0002 051C     		mov	r5, r0
 1160 0004 0C1C     		mov	r4, r1
1232:.\Generated_Source\PSoC4/Timer.c ****     uint8 enableInterrupts;
1233:.\Generated_Source\PSoC4/Timer.c **** 
1234:.\Generated_Source\PSoC4/Timer.c ****     enableInterrupts = CyEnterCriticalSection();
ARM GAS  C:\Users\Luci\AppData\Local\Temp\ccUHbIZG.s 			page 43


 1161              		.loc 1 1234 0
 1162 0006 FFF7FEFF 		bl	CyEnterCriticalSection
 1163              	.LVL81:
1235:.\Generated_Source\PSoC4/Timer.c **** 
1236:.\Generated_Source\PSoC4/Timer.c ****     Timer_COMMAND_REG = ((uint32)(mask << command));
 1164              		.loc 1 1236 0
 1165 000a A540     		lsl	r5, r5, r4
 1166              	.LVL82:
 1167 000c 024B     		ldr	r3, .L95
 1168 000e 1D60     		str	r5, [r3]
1237:.\Generated_Source\PSoC4/Timer.c **** 
1238:.\Generated_Source\PSoC4/Timer.c ****     CyExitCriticalSection(enableInterrupts);
 1169              		.loc 1 1238 0
 1170 0010 FFF7FEFF 		bl	CyExitCriticalSection
 1171              	.LVL83:
1239:.\Generated_Source\PSoC4/Timer.c **** }
 1172              		.loc 1 1239 0
 1173              		@ sp needed
 1174              	.LVL84:
 1175 0014 38BD     		pop	{r3, r4, r5, pc}
 1176              	.L96:
 1177 0016 C046     		.align	2
 1178              	.L95:
 1179 0018 08002040 		.word	1075838984
 1180              		.cfi_endproc
 1181              	.LFE35:
 1182              		.size	Timer_TriggerCommand, .-Timer_TriggerCommand
 1183              		.section	.text.Timer_ReadStatus,"ax",%progbits
 1184              		.align	2
 1185              		.global	Timer_ReadStatus
 1186              		.code	16
 1187              		.thumb_func
 1188              		.type	Timer_ReadStatus, %function
 1189              	Timer_ReadStatus:
 1190              	.LFB36:
1240:.\Generated_Source\PSoC4/Timer.c **** 
1241:.\Generated_Source\PSoC4/Timer.c **** 
1242:.\Generated_Source\PSoC4/Timer.c **** /*******************************************************************************
1243:.\Generated_Source\PSoC4/Timer.c **** * Function Name: Timer_ReadStatus
1244:.\Generated_Source\PSoC4/Timer.c **** ********************************************************************************
1245:.\Generated_Source\PSoC4/Timer.c **** *
1246:.\Generated_Source\PSoC4/Timer.c **** * Summary:
1247:.\Generated_Source\PSoC4/Timer.c **** *  Reads the status of the Timer.
1248:.\Generated_Source\PSoC4/Timer.c **** *
1249:.\Generated_Source\PSoC4/Timer.c **** * Parameters:
1250:.\Generated_Source\PSoC4/Timer.c **** *  None
1251:.\Generated_Source\PSoC4/Timer.c **** *
1252:.\Generated_Source\PSoC4/Timer.c **** * Return:
1253:.\Generated_Source\PSoC4/Timer.c **** *  Status
1254:.\Generated_Source\PSoC4/Timer.c **** *   Values:
1255:.\Generated_Source\PSoC4/Timer.c **** *     - Timer_STATUS_DOWN    - Set if counting down
1256:.\Generated_Source\PSoC4/Timer.c **** *     - Timer_STATUS_RUNNING - Set if counter is running
1257:.\Generated_Source\PSoC4/Timer.c **** *
1258:.\Generated_Source\PSoC4/Timer.c **** *******************************************************************************/
1259:.\Generated_Source\PSoC4/Timer.c **** uint32 Timer_ReadStatus(void)
1260:.\Generated_Source\PSoC4/Timer.c **** {
 1191              		.loc 1 1260 0
ARM GAS  C:\Users\Luci\AppData\Local\Temp\ccUHbIZG.s 			page 44


 1192              		.cfi_startproc
1261:.\Generated_Source\PSoC4/Timer.c ****     return ((Timer_STATUS_REG >> Timer_RUNNING_STATUS_SHIFT) |
 1193              		.loc 1 1261 0
 1194 0000 034B     		ldr	r3, .L98
 1195 0002 1A68     		ldr	r2, [r3]
 1196 0004 920F     		lsr	r2, r2, #30
1262:.\Generated_Source\PSoC4/Timer.c ****             (Timer_STATUS_REG & Timer_STATUS_DOWN));
 1197              		.loc 1 1262 0
 1198 0006 1B68     		ldr	r3, [r3]
 1199 0008 0120     		mov	r0, #1
 1200 000a 1840     		and	r0, r3
1261:.\Generated_Source\PSoC4/Timer.c ****     return ((Timer_STATUS_REG >> Timer_RUNNING_STATUS_SHIFT) |
 1201              		.loc 1 1261 0
 1202 000c 1043     		orr	r0, r2
1263:.\Generated_Source\PSoC4/Timer.c **** }
 1203              		.loc 1 1263 0
 1204              		@ sp needed
 1205 000e 7047     		bx	lr
 1206              	.L99:
 1207              		.align	2
 1208              	.L98:
 1209 0010 04012040 		.word	1075839236
 1210              		.cfi_endproc
 1211              	.LFE36:
 1212              		.size	Timer_ReadStatus, .-Timer_ReadStatus
 1213              		.section	.text.Timer_SetInterruptMode,"ax",%progbits
 1214              		.align	2
 1215              		.global	Timer_SetInterruptMode
 1216              		.code	16
 1217              		.thumb_func
 1218              		.type	Timer_SetInterruptMode, %function
 1219              	Timer_SetInterruptMode:
 1220              	.LFB37:
1264:.\Generated_Source\PSoC4/Timer.c **** 
1265:.\Generated_Source\PSoC4/Timer.c **** 
1266:.\Generated_Source\PSoC4/Timer.c **** /*******************************************************************************
1267:.\Generated_Source\PSoC4/Timer.c **** * Function Name: Timer_SetInterruptMode
1268:.\Generated_Source\PSoC4/Timer.c **** ********************************************************************************
1269:.\Generated_Source\PSoC4/Timer.c **** *
1270:.\Generated_Source\PSoC4/Timer.c **** * Summary:
1271:.\Generated_Source\PSoC4/Timer.c **** *  Sets the interrupt mask to control which interrupt
1272:.\Generated_Source\PSoC4/Timer.c **** *  requests generate the interrupt signal.
1273:.\Generated_Source\PSoC4/Timer.c **** *
1274:.\Generated_Source\PSoC4/Timer.c **** * Parameters:
1275:.\Generated_Source\PSoC4/Timer.c **** *   interruptMask: Mask of bits to be enabled
1276:.\Generated_Source\PSoC4/Timer.c **** *   Values:
1277:.\Generated_Source\PSoC4/Timer.c **** *     - Timer_INTR_MASK_TC       - Terminal count mask
1278:.\Generated_Source\PSoC4/Timer.c **** *     - Timer_INTR_MASK_CC_MATCH - Compare count / capture mask
1279:.\Generated_Source\PSoC4/Timer.c **** *
1280:.\Generated_Source\PSoC4/Timer.c **** * Return:
1281:.\Generated_Source\PSoC4/Timer.c **** *  None
1282:.\Generated_Source\PSoC4/Timer.c **** *
1283:.\Generated_Source\PSoC4/Timer.c **** *******************************************************************************/
1284:.\Generated_Source\PSoC4/Timer.c **** void Timer_SetInterruptMode(uint32 interruptMask)
1285:.\Generated_Source\PSoC4/Timer.c **** {
 1221              		.loc 1 1285 0
 1222              		.cfi_startproc
ARM GAS  C:\Users\Luci\AppData\Local\Temp\ccUHbIZG.s 			page 45


 1223              	.LVL85:
1286:.\Generated_Source\PSoC4/Timer.c ****     Timer_INTERRUPT_MASK_REG =  interruptMask;
 1224              		.loc 1 1286 0
 1225 0000 014B     		ldr	r3, .L101
 1226 0002 1860     		str	r0, [r3]
1287:.\Generated_Source\PSoC4/Timer.c **** }
 1227              		.loc 1 1287 0
 1228              		@ sp needed
 1229 0004 7047     		bx	lr
 1230              	.L102:
 1231 0006 C046     		.align	2
 1232              	.L101:
 1233 0008 38012040 		.word	1075839288
 1234              		.cfi_endproc
 1235              	.LFE37:
 1236              		.size	Timer_SetInterruptMode, .-Timer_SetInterruptMode
 1237              		.section	.text.Timer_Init,"ax",%progbits
 1238              		.align	2
 1239              		.global	Timer_Init
 1240              		.code	16
 1241              		.thumb_func
 1242              		.type	Timer_Init, %function
 1243              	Timer_Init:
 1244              	.LFB2:
  39:.\Generated_Source\PSoC4/Timer.c **** {
 1245              		.loc 1 39 0
 1246              		.cfi_startproc
 1247 0000 08B5     		push	{r3, lr}
 1248              		.cfi_def_cfa_offset 8
 1249              		.cfi_offset 3, -8
 1250              		.cfi_offset 14, -4
  58:.\Generated_Source\PSoC4/Timer.c ****         Timer_CONTROL_REG = Timer_CTRL_TIMER_BASE_CONFIG;
 1251              		.loc 1 58 0
 1252 0002 8022     		mov	r2, #128
 1253 0004 9204     		lsl	r2, r2, #18
 1254 0006 084B     		ldr	r3, .L104
 1255 0008 1A60     		str	r2, [r3]
  61:.\Generated_Source\PSoC4/Timer.c ****         Timer_TRIG_CONTROL1_REG  = Timer_TIMER_SIGNALS_MODES;
 1256              		.loc 1 61 0
 1257 000a 8E22     		mov	r2, #142
 1258 000c 5200     		lsl	r2, r2, #1
 1259 000e 074B     		ldr	r3, .L104+4
 1260 0010 1A60     		str	r2, [r3]
  64:.\Generated_Source\PSoC4/Timer.c ****         Timer_SetInterruptMode(Timer_TC_INTERRUPT_MASK);
 1261              		.loc 1 64 0
 1262 0012 0120     		mov	r0, #1
 1263 0014 FFF7FEFF 		bl	Timer_SetInterruptMode
 1264              	.LVL86:
  67:.\Generated_Source\PSoC4/Timer.c ****         Timer_WritePeriod(Timer_TC_PERIOD_VALUE );
 1265              		.loc 1 67 0
 1266 0018 0548     		ldr	r0, .L104+8
 1267 001a FFF7FEFF 		bl	Timer_WritePeriod
 1268              	.LVL87:
  84:.\Generated_Source\PSoC4/Timer.c ****             Timer_WriteCounter(0u);
 1269              		.loc 1 84 0
 1270 001e 0020     		mov	r0, #0
 1271 0020 FFF7FEFF 		bl	Timer_WriteCounter
ARM GAS  C:\Users\Luci\AppData\Local\Temp\ccUHbIZG.s 			page 46


 1272              	.LVL88:
 160:.\Generated_Source\PSoC4/Timer.c **** }
 1273              		.loc 1 160 0
 1274              		@ sp needed
 1275 0024 08BD     		pop	{r3, pc}
 1276              	.L105:
 1277 0026 C046     		.align	2
 1278              	.L104:
 1279 0028 00012040 		.word	1075839232
 1280 002c 24012040 		.word	1075839268
 1281 0030 FFFF0000 		.word	65535
 1282              		.cfi_endproc
 1283              	.LFE2:
 1284              		.size	Timer_Init, .-Timer_Init
 1285              		.section	.text.Timer_Start,"ax",%progbits
 1286              		.align	2
 1287              		.global	Timer_Start
 1288              		.code	16
 1289              		.thumb_func
 1290              		.type	Timer_Start, %function
 1291              	Timer_Start:
 1292              	.LFB4:
 225:.\Generated_Source\PSoC4/Timer.c **** {
 1293              		.loc 1 225 0
 1294              		.cfi_startproc
 1295 0000 08B5     		push	{r3, lr}
 1296              		.cfi_def_cfa_offset 8
 1297              		.cfi_offset 3, -8
 1298              		.cfi_offset 14, -4
 226:.\Generated_Source\PSoC4/Timer.c ****     if (0u == Timer_initVar)
 1299              		.loc 1 226 0
 1300 0002 064B     		ldr	r3, .L108
 1301 0004 1B78     		ldrb	r3, [r3]
 1302 0006 002B     		cmp	r3, #0
 1303 0008 04D1     		bne	.L107
 228:.\Generated_Source\PSoC4/Timer.c ****         Timer_Init();
 1304              		.loc 1 228 0
 1305 000a FFF7FEFF 		bl	Timer_Init
 1306              	.LVL89:
 229:.\Generated_Source\PSoC4/Timer.c ****         Timer_initVar = 1u;
 1307              		.loc 1 229 0
 1308 000e 0122     		mov	r2, #1
 1309 0010 024B     		ldr	r3, .L108
 1310 0012 1A70     		strb	r2, [r3]
 1311              	.L107:
 232:.\Generated_Source\PSoC4/Timer.c ****     Timer_Enable();
 1312              		.loc 1 232 0
 1313 0014 FFF7FEFF 		bl	Timer_Enable
 1314              	.LVL90:
 233:.\Generated_Source\PSoC4/Timer.c **** }
 1315              		.loc 1 233 0
 1316              		@ sp needed
 1317 0018 08BD     		pop	{r3, pc}
 1318              	.L109:
 1319 001a C046     		.align	2
 1320              	.L108:
 1321 001c 00000000 		.word	.LANCHOR0
ARM GAS  C:\Users\Luci\AppData\Local\Temp\ccUHbIZG.s 			page 47


 1322              		.cfi_endproc
 1323              	.LFE4:
 1324              		.size	Timer_Start, .-Timer_Start
 1325              		.section	.text.Timer_GetInterruptSourceMasked,"ax",%progbits
 1326              		.align	2
 1327              		.global	Timer_GetInterruptSourceMasked
 1328              		.code	16
 1329              		.thumb_func
 1330              		.type	Timer_GetInterruptSourceMasked, %function
 1331              	Timer_GetInterruptSourceMasked:
 1332              	.LFB38:
1288:.\Generated_Source\PSoC4/Timer.c **** 
1289:.\Generated_Source\PSoC4/Timer.c **** 
1290:.\Generated_Source\PSoC4/Timer.c **** /*******************************************************************************
1291:.\Generated_Source\PSoC4/Timer.c **** * Function Name: Timer_GetInterruptSourceMasked
1292:.\Generated_Source\PSoC4/Timer.c **** ********************************************************************************
1293:.\Generated_Source\PSoC4/Timer.c **** *
1294:.\Generated_Source\PSoC4/Timer.c **** * Summary:
1295:.\Generated_Source\PSoC4/Timer.c **** *  Gets the interrupt requests masked by the interrupt mask.
1296:.\Generated_Source\PSoC4/Timer.c **** *
1297:.\Generated_Source\PSoC4/Timer.c **** * Parameters:
1298:.\Generated_Source\PSoC4/Timer.c **** *   None
1299:.\Generated_Source\PSoC4/Timer.c **** *
1300:.\Generated_Source\PSoC4/Timer.c **** * Return:
1301:.\Generated_Source\PSoC4/Timer.c **** *  Masked interrupt source
1302:.\Generated_Source\PSoC4/Timer.c **** *   Values:
1303:.\Generated_Source\PSoC4/Timer.c **** *     - Timer_INTR_MASK_TC       - Terminal count mask
1304:.\Generated_Source\PSoC4/Timer.c **** *     - Timer_INTR_MASK_CC_MATCH - Compare count / capture mask
1305:.\Generated_Source\PSoC4/Timer.c **** *
1306:.\Generated_Source\PSoC4/Timer.c **** *******************************************************************************/
1307:.\Generated_Source\PSoC4/Timer.c **** uint32 Timer_GetInterruptSourceMasked(void)
1308:.\Generated_Source\PSoC4/Timer.c **** {
 1333              		.loc 1 1308 0
 1334              		.cfi_startproc
1309:.\Generated_Source\PSoC4/Timer.c ****     return (Timer_INTERRUPT_MASKED_REG);
 1335              		.loc 1 1309 0
 1336 0000 014B     		ldr	r3, .L111
 1337 0002 1868     		ldr	r0, [r3]
1310:.\Generated_Source\PSoC4/Timer.c **** }
 1338              		.loc 1 1310 0
 1339              		@ sp needed
 1340 0004 7047     		bx	lr
 1341              	.L112:
 1342 0006 C046     		.align	2
 1343              	.L111:
 1344 0008 3C012040 		.word	1075839292
 1345              		.cfi_endproc
 1346              	.LFE38:
 1347              		.size	Timer_GetInterruptSourceMasked, .-Timer_GetInterruptSourceMasked
 1348              		.section	.text.Timer_GetInterruptSource,"ax",%progbits
 1349              		.align	2
 1350              		.global	Timer_GetInterruptSource
 1351              		.code	16
 1352              		.thumb_func
 1353              		.type	Timer_GetInterruptSource, %function
 1354              	Timer_GetInterruptSource:
 1355              	.LFB39:
ARM GAS  C:\Users\Luci\AppData\Local\Temp\ccUHbIZG.s 			page 48


1311:.\Generated_Source\PSoC4/Timer.c **** 
1312:.\Generated_Source\PSoC4/Timer.c **** 
1313:.\Generated_Source\PSoC4/Timer.c **** /*******************************************************************************
1314:.\Generated_Source\PSoC4/Timer.c **** * Function Name: Timer_GetInterruptSource
1315:.\Generated_Source\PSoC4/Timer.c **** ********************************************************************************
1316:.\Generated_Source\PSoC4/Timer.c **** *
1317:.\Generated_Source\PSoC4/Timer.c **** * Summary:
1318:.\Generated_Source\PSoC4/Timer.c **** *  Gets the interrupt requests (without masking).
1319:.\Generated_Source\PSoC4/Timer.c **** *
1320:.\Generated_Source\PSoC4/Timer.c **** * Parameters:
1321:.\Generated_Source\PSoC4/Timer.c **** *  None
1322:.\Generated_Source\PSoC4/Timer.c **** *
1323:.\Generated_Source\PSoC4/Timer.c **** * Return:
1324:.\Generated_Source\PSoC4/Timer.c **** *  Interrupt request value
1325:.\Generated_Source\PSoC4/Timer.c **** *   Values:
1326:.\Generated_Source\PSoC4/Timer.c **** *     - Timer_INTR_MASK_TC       - Terminal count mask
1327:.\Generated_Source\PSoC4/Timer.c **** *     - Timer_INTR_MASK_CC_MATCH - Compare count / capture mask
1328:.\Generated_Source\PSoC4/Timer.c **** *
1329:.\Generated_Source\PSoC4/Timer.c **** *******************************************************************************/
1330:.\Generated_Source\PSoC4/Timer.c **** uint32 Timer_GetInterruptSource(void)
1331:.\Generated_Source\PSoC4/Timer.c **** {
 1356              		.loc 1 1331 0
 1357              		.cfi_startproc
1332:.\Generated_Source\PSoC4/Timer.c ****     return (Timer_INTERRUPT_REQ_REG);
 1358              		.loc 1 1332 0
 1359 0000 014B     		ldr	r3, .L114
 1360 0002 1868     		ldr	r0, [r3]
1333:.\Generated_Source\PSoC4/Timer.c **** }
 1361              		.loc 1 1333 0
 1362              		@ sp needed
 1363 0004 7047     		bx	lr
 1364              	.L115:
 1365 0006 C046     		.align	2
 1366              	.L114:
 1367 0008 30012040 		.word	1075839280
 1368              		.cfi_endproc
 1369              	.LFE39:
 1370              		.size	Timer_GetInterruptSource, .-Timer_GetInterruptSource
 1371              		.section	.text.Timer_ClearInterrupt,"ax",%progbits
 1372              		.align	2
 1373              		.global	Timer_ClearInterrupt
 1374              		.code	16
 1375              		.thumb_func
 1376              		.type	Timer_ClearInterrupt, %function
 1377              	Timer_ClearInterrupt:
 1378              	.LFB40:
1334:.\Generated_Source\PSoC4/Timer.c **** 
1335:.\Generated_Source\PSoC4/Timer.c **** 
1336:.\Generated_Source\PSoC4/Timer.c **** /*******************************************************************************
1337:.\Generated_Source\PSoC4/Timer.c **** * Function Name: Timer_ClearInterrupt
1338:.\Generated_Source\PSoC4/Timer.c **** ********************************************************************************
1339:.\Generated_Source\PSoC4/Timer.c **** *
1340:.\Generated_Source\PSoC4/Timer.c **** * Summary:
1341:.\Generated_Source\PSoC4/Timer.c **** *  Clears the interrupt request.
1342:.\Generated_Source\PSoC4/Timer.c **** *
1343:.\Generated_Source\PSoC4/Timer.c **** * Parameters:
1344:.\Generated_Source\PSoC4/Timer.c **** *   interruptMask: Mask of interrupts to clear
ARM GAS  C:\Users\Luci\AppData\Local\Temp\ccUHbIZG.s 			page 49


1345:.\Generated_Source\PSoC4/Timer.c **** *   Values:
1346:.\Generated_Source\PSoC4/Timer.c **** *     - Timer_INTR_MASK_TC       - Terminal count mask
1347:.\Generated_Source\PSoC4/Timer.c **** *     - Timer_INTR_MASK_CC_MATCH - Compare count / capture mask
1348:.\Generated_Source\PSoC4/Timer.c **** *
1349:.\Generated_Source\PSoC4/Timer.c **** * Return:
1350:.\Generated_Source\PSoC4/Timer.c **** *  None
1351:.\Generated_Source\PSoC4/Timer.c **** *
1352:.\Generated_Source\PSoC4/Timer.c **** *******************************************************************************/
1353:.\Generated_Source\PSoC4/Timer.c **** void Timer_ClearInterrupt(uint32 interruptMask)
1354:.\Generated_Source\PSoC4/Timer.c **** {
 1379              		.loc 1 1354 0
 1380              		.cfi_startproc
 1381              	.LVL91:
1355:.\Generated_Source\PSoC4/Timer.c ****     Timer_INTERRUPT_REQ_REG = interruptMask;
 1382              		.loc 1 1355 0
 1383 0000 014B     		ldr	r3, .L117
 1384 0002 1860     		str	r0, [r3]
1356:.\Generated_Source\PSoC4/Timer.c **** }
 1385              		.loc 1 1356 0
 1386              		@ sp needed
 1387 0004 7047     		bx	lr
 1388              	.L118:
 1389 0006 C046     		.align	2
 1390              	.L117:
 1391 0008 30012040 		.word	1075839280
 1392              		.cfi_endproc
 1393              	.LFE40:
 1394              		.size	Timer_ClearInterrupt, .-Timer_ClearInterrupt
 1395              		.section	.text.Timer_SetInterrupt,"ax",%progbits
 1396              		.align	2
 1397              		.global	Timer_SetInterrupt
 1398              		.code	16
 1399              		.thumb_func
 1400              		.type	Timer_SetInterrupt, %function
 1401              	Timer_SetInterrupt:
 1402              	.LFB41:
1357:.\Generated_Source\PSoC4/Timer.c **** 
1358:.\Generated_Source\PSoC4/Timer.c **** 
1359:.\Generated_Source\PSoC4/Timer.c **** /*******************************************************************************
1360:.\Generated_Source\PSoC4/Timer.c **** * Function Name: Timer_SetInterrupt
1361:.\Generated_Source\PSoC4/Timer.c **** ********************************************************************************
1362:.\Generated_Source\PSoC4/Timer.c **** *
1363:.\Generated_Source\PSoC4/Timer.c **** * Summary:
1364:.\Generated_Source\PSoC4/Timer.c **** *  Sets a software interrupt request.
1365:.\Generated_Source\PSoC4/Timer.c **** *
1366:.\Generated_Source\PSoC4/Timer.c **** * Parameters:
1367:.\Generated_Source\PSoC4/Timer.c **** *   interruptMask: Mask of interrupts to set
1368:.\Generated_Source\PSoC4/Timer.c **** *   Values:
1369:.\Generated_Source\PSoC4/Timer.c **** *     - Timer_INTR_MASK_TC       - Terminal count mask
1370:.\Generated_Source\PSoC4/Timer.c **** *     - Timer_INTR_MASK_CC_MATCH - Compare count / capture mask
1371:.\Generated_Source\PSoC4/Timer.c **** *
1372:.\Generated_Source\PSoC4/Timer.c **** * Return:
1373:.\Generated_Source\PSoC4/Timer.c **** *  None
1374:.\Generated_Source\PSoC4/Timer.c **** *
1375:.\Generated_Source\PSoC4/Timer.c **** *******************************************************************************/
1376:.\Generated_Source\PSoC4/Timer.c **** void Timer_SetInterrupt(uint32 interruptMask)
1377:.\Generated_Source\PSoC4/Timer.c **** {
ARM GAS  C:\Users\Luci\AppData\Local\Temp\ccUHbIZG.s 			page 50


 1403              		.loc 1 1377 0
 1404              		.cfi_startproc
 1405              	.LVL92:
1378:.\Generated_Source\PSoC4/Timer.c ****     Timer_INTERRUPT_SET_REG = interruptMask;
 1406              		.loc 1 1378 0
 1407 0000 014B     		ldr	r3, .L120
 1408 0002 1860     		str	r0, [r3]
1379:.\Generated_Source\PSoC4/Timer.c **** }
 1409              		.loc 1 1379 0
 1410              		@ sp needed
 1411 0004 7047     		bx	lr
 1412              	.L121:
 1413 0006 C046     		.align	2
 1414              	.L120:
 1415 0008 34012040 		.word	1075839284
 1416              		.cfi_endproc
 1417              	.LFE41:
 1418              		.size	Timer_SetInterrupt, .-Timer_SetInterrupt
 1419              		.global	Timer_initVar
 1420              		.bss
 1421              		.set	.LANCHOR0,. + 0
 1422              		.type	Timer_initVar, %object
 1423              		.size	Timer_initVar, 1
 1424              	Timer_initVar:
 1425 0000 00       		.space	1
 1426              		.text
 1427              	.Letext0:
 1428              		.file 2 ".\\Generated_Source\\PSoC4\\cytypes.h"
 1429              		.file 3 ".\\Generated_Source\\PSoC4\\CyLib.h"